(dp0
cnumpy.core.multiarray
scalar
p1
(cnumpy
dtype
p2
(S'i8'
p3
I0
I1
tp4
Rp5
(I3
S'<'
p6
NNNI-1
I-1
I0
tp7
bS'\x00\x00\x00\x00\x00\x00\x00\x00'
p8
tp9
Rp10
(lp11
(lp12
I14
aF24.485281229019165
aF65.68627450980392
aF65.68627450980392
aF14.215686274509803
aF39.0
aa(lp13
I14
aF41.899494767189026
aF67.63636363636364
aF67.63636363636364
aF17.537190082644628
aF100.5
aasg1
(g5
S'\x01\x00\x00\x00\x00\x00\x00\x00'
p14
tp15
Rp16
(lp17
(lp18
I61
aF270.4264061450958
aF62.98903680501174
aF45.58653093187157
aF157.19107282693813
aF1147.0
aa(lp19
I108
aF399.43859827518463
aF65.62871287128714
aF51.87685643564357
aF128.70915841584159
aF1427.5
aa(lp20
I108
aF399.43859827518463
aF65.62871287128714
aF51.87685643564357
aF128.70915841584159
aF1427.5
aa(lp21
I108
aF399.43859827518463
aF65.62871287128714
aF51.87685643564357
aF128.70915841584159
aF1427.5
aa(lp22
I108
aF399.43859827518463
aF65.62871287128714
aF51.87685643564357
aF128.70915841584159
aF1427.5
aa(lp23
I108
aF399.43859827518463
aF65.62871287128714
aF51.87685643564357
aF128.70915841584159
aF1427.5
aa(lp24
I108
aF399.43859827518463
aF65.62871287128714
aF51.87685643564357
aF128.70915841584159
aF1427.5
aa(lp25
I108
aF399.43859827518463
aF65.62871287128714
aF51.87685643564357
aF128.70915841584159
aF1427.5
aa(lp26
I108
aF399.43859827518463
aF65.62871287128714
aF51.87685643564357
aF128.70915841584159
aF1427.5
aa(lp27
I108
aF399.43859827518463
aF65.62871287128714
aF51.87685643564357
aF128.70915841584159
aF1427.5
aasg1
(g5
S'\x02\x00\x00\x00\x00\x00\x00\x00'
p28
tp29
Rp30
(lp31
(lp32
I12
aF50.485281229019165
aF43.34117647058824
aF47.50588235294118
aF157.89411764705883
aF145.0
aa(lp33
I12
aF50.485281229019165
aF43.34117647058824
aF47.50588235294118
aF157.89411764705883
aF145.0
aa(lp34
I12
aF50.485281229019165
aF43.34117647058824
aF47.50588235294118
aF157.89411764705883
aF145.0
aa(lp35
I12
aF50.485281229019165
aF43.34117647058824
aF47.50588235294118
aF157.89411764705883
aF145.0
aa(lp36
I12
aF50.485281229019165
aF43.34117647058824
aF47.50588235294118
aF157.89411764705883
aF145.0
aa(lp37
I12
aF50.485281229019165
aF43.34117647058824
aF47.50588235294118
aF157.89411764705883
aF145.0
aa(lp38
I12
aF50.485281229019165
aF43.34117647058824
aF47.50588235294118
aF157.89411764705883
aF145.0
aa(lp39
I12
aF50.485281229019165
aF43.34117647058824
aF47.50588235294118
aF157.89411764705883
aF145.0
aa(lp40
I12
aF50.485281229019165
aF43.34117647058824
aF47.50588235294118
aF157.89411764705883
aF145.0
aa(lp41
I12
aF50.485281229019165
aF43.34117647058824
aF47.50588235294118
aF157.89411764705883
aF145.0
aasg1
(g5
S'\x03\x00\x00\x00\x00\x00\x00\x00'
p42
tp43
Rp44
(lp45
(lp46
I20
aF180.1421353816986
aF79.06332453825857
aF53.445910290237464
aF176.94986807387863
aF669.0
aa(lp47
I20
aF180.1421353816986
aF79.06332453825857
aF53.445910290237464
aF176.94986807387863
aF669.0
aa(lp48
I20
aF180.1421353816986
aF79.06332453825857
aF53.445910290237464
aF176.94986807387863
aF669.0
aa(lp49
I20
aF180.1421353816986
aF79.06332453825857
aF53.445910290237464
aF176.94986807387863
aF669.0
aa(lp50
I20
aF180.1421353816986
aF79.06332453825857
aF53.445910290237464
aF176.94986807387863
aF669.0
aa(lp51
I20
aF180.1421353816986
aF79.06332453825857
aF53.445910290237464
aF176.94986807387863
aF669.0
aa(lp52
I20
aF180.1421353816986
aF79.06332453825857
aF53.445910290237464
aF176.94986807387863
aF669.0
aa(lp53
I20
aF180.1421353816986
aF79.06332453825857
aF53.445910290237464
aF176.94986807387863
aF669.0
aa(lp54
I20
aF180.1421353816986
aF79.06332453825857
aF53.445910290237464
aF176.94986807387863
aF669.0
aa(lp55
I20
aF180.1421353816986
aF79.06332453825857
aF53.445910290237464
aF176.94986807387863
aF669.0
aasg1
(g5
S'\x04\x00\x00\x00\x00\x00\x00\x00'
p56
tp57
Rp58
(lp59
(lp60
I5
aF27.41421353816986
aF112.94444444444444
aF19.444444444444443
aF10.11111111111111
aF39.5
aa(lp61
I6
aF29.41421353816986
aF107.40350877192982
aF18.385964912280702
aF10.035087719298245
aF41.5
aa(lp62
I8
aF28.82842707633972
aF99.24137931034483
aF19.517241379310345
aF17.586206896551722
aF43.0
aa(lp63
I4
aF32.0
aF120.86111111111111
aF24.916666666666668
aF22.583333333333332
aF55.0
aa(lp64
I8
aF30.82842707633972
aF106.18840579710145
aF21.18840579710145
aF19.565217391304348
aF53.0
aa(lp65
I4
aF34.0
aF105.58333333333333
aF21.666666666666668
aF19.666666666666668
aF66.0
aa(lp66
I8
aF32.82842707633972
aF110.8625
aF22.75
aF20.65
aF63.0
aa(lp67
I4
aF36.0
aF92.38541666666667
aF18.958333333333332
aF17.208333333333332
aF77.0
aa(lp68
I8
aF34.82842707633972
aF109.8021978021978
aF22.043956043956044
aF19.582417582417584
aF73.0
aa(lp69
I10
aF36.82842707633972
aF98.54444444444445
aF20.22222222222222
aF18.355555555555554
aF71.0
aasg1
(g5
S'\x05\x00\x00\x00\x00\x00\x00\x00'
p70
tp71
Rp72
(lp73
(lp74
I10
aF227.65685415267944
aF81.78947368421052
aF89.57894736842105
aF208.3684210526316
aF0.0
aa(lp75
I10
aF227.65685415267944
aF81.78947368421052
aF89.57894736842105
aF208.3684210526316
aF0.0
aa(lp76
I10
aF227.65685415267944
aF81.78947368421052
aF89.57894736842105
aF208.3684210526316
aF0.0
aa(lp77
I10
aF227.65685415267944
aF81.78947368421052
aF89.57894736842105
aF208.3684210526316
aF0.0
aa(lp78
I10
aF227.65685415267944
aF81.78947368421052
aF89.57894736842105
aF208.3684210526316
aF0.0
aa(lp79
I10
aF227.65685415267944
aF81.78947368421052
aF89.57894736842105
aF208.3684210526316
aF0.0
aa(lp80
I10
aF227.65685415267944
aF81.78947368421052
aF89.57894736842105
aF208.3684210526316
aF0.0
aa(lp81
I10
aF227.65685415267944
aF81.78947368421052
aF89.57894736842105
aF208.3684210526316
aF0.0
aa(lp82
I10
aF227.65685415267944
aF81.78947368421052
aF89.57894736842105
aF208.3684210526316
aF0.0
aa(lp83
I10
aF227.65685415267944
aF81.78947368421052
aF89.57894736842105
aF208.3684210526316
aF0.0
aasg1
(g5
S'\x06\x00\x00\x00\x00\x00\x00\x00'
p84
tp85
Rp86
(lp87
(lp88
I8
aF24.82842707633972
aF67.62857142857143
aF11.485714285714286
aF6.685714285714286
aF22.0
aa(lp89
I20
aF97.89949476718903
aF70.28502415458937
aF13.033816425120772
aF9.78743961352657
aF158.5
aa(lp90
I8
aF28.82842707633972
aF72.22
aF12.36
aF6.76
aF35.0
aasg1
(g5
S'\x07\x00\x00\x00\x00\x00\x00\x00'
p91
tp92
Rp93
(lp94
(lp95
I14
aF24.485281229019165
aF91.66666666666667
aF91.66666666666667
aF25.980392156862745
aF39.0
aa(lp96
I14
aF24.485281229019165
aF91.66666666666667
aF91.66666666666667
aF25.980392156862745
aF39.0
aa(lp97
I14
aF24.485281229019165
aF91.66666666666667
aF91.66666666666667
aF25.980392156862745
aF39.0
aa(lp98
I14
aF24.485281229019165
aF91.66666666666667
aF91.66666666666667
aF25.980392156862745
aF39.0
aa(lp99
I14
aF24.485281229019165
aF91.66666666666667
aF91.66666666666667
aF25.980392156862745
aF39.0
aa(lp100
I14
aF24.485281229019165
aF91.66666666666667
aF91.66666666666667
aF25.980392156862745
aF39.0
aa(lp101
I14
aF24.485281229019165
aF91.66666666666667
aF91.66666666666667
aF25.980392156862745
aF39.0
aa(lp102
I14
aF24.485281229019165
aF91.66666666666667
aF91.66666666666667
aF25.980392156862745
aF39.0
aa(lp103
I14
aF24.485281229019165
aF91.66666666666667
aF91.66666666666667
aF25.980392156862745
aF39.0
aa(lp104
I14
aF24.485281229019165
aF91.66666666666667
aF91.66666666666667
aF25.980392156862745
aF39.0
aasg1
(g5
S'\x08\x00\x00\x00\x00\x00\x00\x00'
p105
tp106
Rp107
(lp108
(lp109
I83
aF329.88224947452545
aF61.53258584442887
aF45.9593552908199
aF141.7855641205326
aF1271.0
aa(lp110
I89
aF362.7106765508652
aF66.5934360348292
aF47.08171466845278
aF137.49095780308105
aF1321.0
aa(lp111
I85
aF362.56854152679443
aF66.26741996233521
aF47.89202762084118
aF129.38104205900817
aF1419.0
aa(lp112
I107
aF370.6101711988449
aF67.95780308104487
aF48.3516409912927
aF137.86336235766913
aF1318.5
aa(lp113
I105
aF366.6101711988449
aF68.09463087248322
aF48.44899328859061
aF138.14093959731542
aF1317.5
aa(lp114
I89
aF355.39696860313416
aF66.14285714285714
aF47.80200501253133
aF129.13784461152883
aF1426.0
aa(lp115
I92
aF353.5391036272049
aF66.085600530856
aF46.66157929661579
aF136.23092236230923
aF1340.0
aa(lp116
I90
aF352.12489008903503
aF66.085600530856
aF46.66157929661579
aF136.23092236230923
aF1340.5
aa(lp117
I84
aF350.56854152679443
aF66.06007509386734
aF47.74217772215269
aF128.9762202753442
aF1430.0
aa(lp118
I115
aF422.50966596603394
aF67.98278931750743
aF50.6106824925816
aF124.35608308605342
aF1486.0
aasg1
(g5
S'\t\x00\x00\x00\x00\x00\x00\x00'
p119
tp120
Rp121
(lp122
(lp123
I4
aF28.0
aF137.8
aF29.236363636363638
aF27.2
aF40.0
aa(lp124
I4
aF30.0
aF126.31666666666666
aF26.8
aF24.933333333333334
aF44.0
aasg1
(g5
S'\n\x00\x00\x00\x00\x00\x00\x00'
p125
tp126
Rp127
(lp128
(lp129
I8
aF26.82842707633972
aF89.40425531914893
aF17.574468085106382
aF15.191489361702128
aF33.0
aasg1
(g5
S'\x0b\x00\x00\x00\x00\x00\x00\x00'
p130
tp131
Rp132
(lp133
(lp134
I101
aF371.7817441225052
aF67.7309746328438
aF48.19025367156208
aF137.40320427236315
aF1322.5
aasg1
(g5
S'\x0c\x00\x00\x00\x00\x00\x00\x00'
p135
tp136
Rp137
(lp138
(lp139
I111
aF590.8528118133545
aF68.94838308457712
aF51.30161691542288
aF142.9092039800995
aF1324.0
aa(lp140
I112
aF588.8528118133545
aF68.87212911235258
aF51.26319056486654
aF142.77591558038486
aF1328.0
aa(lp141
I120
aF623.0954524278641
aF70.65763111373012
aF49.7919858573954
aF136.63995285798467
aF1397.5
aa(lp142
I125
aF654.1665201187134
aF68.82787340366463
aF53.072182121043866
aF129.65463631315936
aF1487.0
aa(lp143
I134
aF688.409160733223
aF70.4356120826709
aF51.666666666666664
aF124.73449920508745
aF1556.5
aa(lp144
I140
aF923.923879981041
aF70.13429472735467
aF51.41505182514646
aF118.12708427219468
aF1769.5
aa(lp145
I142
aF920.0660150051117
aF70.20759137769447
aF50.750234301780694
aF122.65604498594189
aF1688.5
aa(lp146
I138
aF913.237587928772
aF70.02380952380952
aF50.646591970121385
aF122.39775910364146
aF1699.5
aa(lp147
I132
aF903.0954529047012
aF69.57754010695187
aF51.088235294117645
aF117.38324420677363
aF1804.5
aa(lp148
I131
aF899.6812393665314
aF69.49755446865274
aF51.056469542018675
aF117.31258337038683
aF1811.0
aasg1
(g5
S'\r\x00\x00\x00\x00\x00\x00\x00'
p149
tp150
Rp151
(lp152
(lp153
I19
aF265.899494767189
aF89.62068965517241
aF59.27093596059113
aF125.15270935960591
aF70.5
aa(lp154
I19
aF263.899494767189
aF89.18137254901961
aF58.98039215686274
aF124.53921568627452
aF72.5
aa(lp155
I19
aF261.899494767189
aF88.74634146341464
aF58.69268292682927
aF123.93170731707318
aF74.5
aa(lp156
I19
aF265.899494767189
aF89.62068965517241
aF59.27093596059113
aF125.15270935960591
aF70.5
aa(lp157
I19
aF263.899494767189
aF89.18137254901961
aF58.98039215686274
aF124.53921568627452
aF72.5
aasg1
(g5
S'\x0e\x00\x00\x00\x00\x00\x00\x00'
p158
tp159
Rp160
(lp161
(lp162
I139
aF882.409160733223
aF72.42295597484276
aF50.63993710691824
aF134.95702306079664
aF1480.5
aa(lp163
I133
aF859.5807336568832
aF71.78416149068323
aF50.296583850931675
aF133.94513457556937
aF1515.5
aa(lp164
I133
aF853.5807336568832
aF71.53786707882534
aF50.15816589386914
aF133.5445646573931
aF1527.5
aa(lp165
I134
aF848.9949471950531
aF71.44039054470709
aF50.12384378211716
aF133.4213771839671
aF1535.0
aa(lp166
I130
aF845.5807336568832
aF71.30686475409836
aF50.064036885245905
aF133.23053278688525
aF1542.5
aa(lp167
I136
aF844.409160733223
aF71.24040920716112
aF50.034271099744245
aF133.13554987212277
aF1546.5
aa(lp168
I121
aF834.6101716756821
aF69.5138014527845
aF49.44503631961259
aF126.38353510895884
aF1658.5
aa(lp169
I127
aF834.7523066997528
aF69.56616161616162
aF48.64393939393939
aF131.6191919191919
aF1575.5
aa(lp170
I129
aF838.1665202379227
aF69.67799188640974
aF48.654665314401626
aF131.71906693711966
aF1566.0
aa(lp171
I129
aF838.1665202379227
aF69.6499493414387
aF48.651975683890576
aF131.69402228976696
aF1568.0
aasg1
(g5
S'\x0f\x00\x00\x00\x00\x00\x00\x00'
p172
tp173
Rp174
(lp175
(lp176
I123
aF865.1959581375122
aF70.45202769535113
aF49.90504451038576
aF127.69535113748763
aF1600.0
aa(lp177
I121
aF857.1959581375122
aF70.25714285714285
aF49.79901477832512
aF127.40295566502463
aF1612.0
aasg1
(g5
S'\x10\x00\x00\x00\x00\x00\x00\x00'
p178
tp179
Rp180
(lp181
(lp182
I14
aF41.899494767189026
aF77.27272727272727
aF77.27272727272727
aF21.90082644628099
aF100.5
aa(lp183
I14
aF41.899494767189026
aF77.27272727272727
aF77.27272727272727
aF21.90082644628099
aF100.5
aa(lp184
I14
aF41.899494767189026
aF77.27272727272727
aF77.27272727272727
aF21.90082644628099
aF100.5
aa(lp185
I14
aF41.899494767189026
aF77.27272727272727
aF77.27272727272727
aF21.90082644628099
aF100.5
aa(lp186
I14
aF41.899494767189026
aF77.27272727272727
aF77.27272727272727
aF21.90082644628099
aF100.5
aa(lp187
I14
aF41.899494767189026
aF77.27272727272727
aF77.27272727272727
aF21.90082644628099
aF100.5
aa(lp188
I15
aF42.485281229019165
aF78.17213114754098
aF78.17213114754098
aF22.15573770491803
aF101.0
aasg1
(g5
S'\x11\x00\x00\x00\x00\x00\x00\x00'
p189
tp190
Rp191
(lp192
(lp193
I144
aF904.1665205955505
aF69.42571174377224
aF50.97286476868327
aF117.12722419928825
aF1809.0
aa(lp194
I157
aF913.9655096530914
aF71.01447245564893
aF51.648459383753504
aF122.94491129785247
aF1701.0
aa(lp195
I157
aF913.9655096530914
aF71.01447245564893
aF51.648459383753504
aF122.94491129785247
aF1701.0
aa(lp196
I144
aF904.1665205955505
aF69.49110320284697
aF51.038256227758005
aF117.26957295373666
aF1809.0
aa(lp197
I157
aF913.9655096530914
aF71.01447245564893
aF51.648459383753504
aF122.94491129785247
aF1701.0
aa(lp198
I144
aF904.1665205955505
aF69.49110320284697
aF51.038256227758005
aF117.26957295373666
aF1809.0
aa(lp199
I144
aF904.1665205955505
aF69.49110320284697
aF51.038256227758005
aF117.26957295373666
aF1809.0
aa(lp200
I157
aF913.9655096530914
aF71.01447245564893
aF51.648459383753504
aF122.94491129785247
aF1701.0
aa(lp201
I157
aF913.9655096530914
aF71.01447245564893
aF51.648459383753504
aF122.94491129785247
aF1701.0
aa(lp202
I157
aF913.9655096530914
aF71.01447245564893
aF51.648459383753504
aF122.94491129785247
aF1701.0
aasg1
(g5
S'\x12\x00\x00\x00\x00\x00\x00\x00'
p203
tp204
Rp205
(lp206
(lp207
I160
aF847.1370828151703
aF57.21290976681311
aF42.99898614396756
aF92.98783372761068
aF2551.0
aa(lp208
I146
aF811.5807341337204
aF57.49490489130435
aF43.21127717391305
aF93.5601222826087
aF2551.5
aa(lp209
I150
aF815.137082695961
aF56.21168649405178
aF41.49825052484255
aF95.98635409377187
aF2466.0
aa(lp210
I150
aF809.137082695961
aF56.16017912504306
aF41.6830864622804
aF94.80055115397865
aF2514.0
aa(lp211
I162
aF834.4507908821106
aF54.674706867671695
aF40.597989949748744
aF92.22814070351758
aF2585.0
aa(lp212
I167
aF840.1076446771622
aF55.77594339622642
aF41.942385444743934
aF93.20518867924528
aF2566.0
aa(lp213
I155
aF813.379723072052
aF56.43332178732248
aF42.21163837894007
aF95.77138898510565
aF2496.5
aa(lp214
I157
aF814.7939366102219
aF56.863762102351316
aF42.655601659751035
aF95.34958506224066
aF2501.0
aa(lp215
I157
aF812.7939366102219
aF56.59924320605435
aF42.4671482628139
aF94.9312005503956
aF2517.0
aa(lp216
I148
aF791.2375881671906
aF55.40038747174685
aF41.86115595737811
aF90.01549886987407
aF2715.5
aasg1
(g5
S'\x13\x00\x00\x00\x00\x00\x00\x00'
p217
tp218
Rp219
(lp220
(lp221
I10
aF107.89949464797974
aF18.949177877428998
aF17.16591928251121
aF37.83856502242153
aF615.5
aa(lp222
I10
aF108.48528122901917
aF18.623893805309734
aF16.876106194690266
aF37.60914454277286
aF624.0
aa(lp223
I10
aF115.89949464797974
aF17.935967302452315
aF16.408719346049047
aF37.032697547683924
aF676.5
aa(lp224
I11
aF119.3137081861496
aF18.275725593667545
aF16.849604221635882
aF37.34828496042216
aF699.0
aa(lp225
I10
aF123.89949464797974
aF17.67206982543641
aF16.394014962593516
aF37.094763092269325
aF740.5
aa(lp226
I14
aF122.72792172431946
aF15.455006337135615
aF16.813688212927758
aF36.6020278833967
aF728.5
aa(lp227
I14
aF120.72792172431946
aF15.949481865284975
aF17.30699481865285
aF36.7940414507772
aF712.5
aa(lp228
I14
aF118.72792172431946
aF15.483443708609272
aF16.839735099337748
aF36.549668874172184
aF696.5
aa(lp229
I14
aF120.72792172431946
aF15.468911917098445
aF16.826424870466322
aF36.57642487046632
aF712.5
aa(lp230
I10
aF81.89949464797974
aF20.184510250569478
aF15.006833712984054
aF37.325740318906604
aF398.5
aasg1
(g5
S'\x14\x00\x00\x00\x00\x00\x00\x00'
p231
tp232
Rp233
(lp234
(lp235
I36
aF525.798989534378
aF89.3609756097561
aF59.36585365853659
aF125.49756097560976
aF149.0
aasg1
(g5
S'\x15\x00\x00\x00\x00\x00\x00\x00'
p236
tp237
Rp238
(lp239
(lp240
I28
aF491.55634891986847
aF87.61075949367088
aF70.9746835443038
aF156.9240506329114
aF71.5
aa(lp241
I28
aF495.55634891986847
aF88.46474358974359
aF71.58974358974359
aF158.25
aF65.5
aasg1
(g5
S'\x16\x00\x00\x00\x00\x00\x00\x00'
p242
tp243
Rp244
(lp245
(lp246
I14
aF97.0710676908493
aF74.75324675324676
aF14.7012987012987
aF13.246753246753247
aF182.5
aasg1
(g5
S'\x17\x00\x00\x00\x00\x00\x00\x00'
p247
tp248
Rp249
(lp250
(lp251
I161
aF753.0365772247314
aF50.791116446578634
aF38.25720288115246
aF84.93337334933973
aF2972.5
aasg1
(g5
S'\x18\x00\x00\x00\x00\x00\x00\x00'
p252
tp253
Rp254
(lp255
(lp256
I161
aF854.208150267601
aF63.19392523364486
aF46.775311526479754
aF105.96884735202492
aF2157.5
aa(lp257
I161
aF856.208150267601
aF64.2368833202819
aF47.72513703993735
aF106.51096319498825
aF2142.5
aa(lp258
I161
aF862.208150267601
aF65.21058917197452
aF48.413216560509554
aF108.03622611464968
aF2097.5
aa(lp259
I149
aF858.5512961149216
aF63.23052714398112
aF46.99685287175453
aF106.41738788355626
aF2128.5
aa(lp260
I144
aF853.5807341337204
aF63.41444866920152
aF47.71787072243346
aF103.00532319391635
aF2216.5
aa(lp261
I144
aF855.5807341337204
aF63.74608030592734
aF47.95640535372849
aF103.51434034416826
aF2200.5
aa(lp262
I144
aF857.5807341337204
aF64.08153846153846
aF48.19769230769231
aF104.02923076923076
aF2184.5
aa(lp263
I151
aF864.6518015861511
aF60.64128787878788
aF51.3155303030303
aF107.99734848484849
aF2222.0
aa(lp264
I151
aF860.4091612100601
aF62.040856031128406
aF52.461089494163424
aF110.92334630350194
aF2153.5
aa(lp265
I166
aF873.0365772247314
aF62.383768352365415
aF52.33972267536705
aF115.98776508972267
aF2032.5
aasg1
(g5
S'\x19\x00\x00\x00\x00\x00\x00\x00'
p266
tp267
Rp268
(lp269
(lp270
I8
aF25.656854152679443
aF36.71666666666667
aF34.36666666666667
aF67.85
aF47.0
aa(lp271
I10
aF34.485281229019165
aF31.633663366336634
aF33.05940594059406
aF42.86138613861386
aF84.0
aa(lp272
I10
aF33.071067690849304
aF26.26086956521739
aF27.652173913043477
aF39.73913043478261
aF75.5
aa(lp273
I8
aF27.656854152679443
aF25.176470588235293
aF26.823529411764707
aF45.76470588235294
aF54.0
aa(lp274
I8
aF27.656854152679443
aF28.294117647058822
aF29.941176470588236
aF47.1764705882353
aF54.0
aa(lp275
I8
aF27.656854152679443
aF28.294117647058822
aF29.941176470588236
aF47.1764705882353
aF54.0
aa(lp276
I8
aF27.656854152679443
aF28.294117647058822
aF29.941176470588236
aF47.1764705882353
aF54.0
aa(lp277
I8
aF27.656854152679443
aF28.294117647058822
aF29.941176470588236
aF47.1764705882353
aF54.0
aa(lp278
I10
aF33.071067690849304
aF26.26086956521739
aF27.652173913043477
aF39.73913043478261
aF75.5
aa(lp279
I10
aF33.071067690849304
aF26.26086956521739
aF27.652173913043477
aF39.73913043478261
aF75.5
aasg1
(g5
S'\x1a\x00\x00\x00\x00\x00\x00\x00'
p280
tp281
Rp282
(lp283
(lp284
I8
aF29.071067690849304
aF6.546666666666667
aF4.213333333333333
aF15.6
aF60.5
aa(lp285
I8
aF29.071067690849304
aF7.253333333333333
aF4.92
aF15.92
aF60.5
aa(lp286
I8
aF29.071067690849304
aF6.546666666666667
aF4.213333333333333
aF15.6
aF60.5
aa(lp287
I8
aF32.485281109809875
aF13.274725274725276
aF13.978021978021978
aF20.087912087912088
aF75.0
aasg1
(g5
S'\x1b\x00\x00\x00\x00\x00\x00\x00'
p288
tp289
Rp290
(lp291
(lp292
I10
aF33.071067690849304
aF26.26086956521739
aF27.652173913043477
aF39.73913043478261
aF75.5
aasg1
(g5
S'\x1c\x00\x00\x00\x00\x00\x00\x00'
p293
tp294
Rp295
(lp296
(lp297
I8
aF29.071067690849304
aF17.813333333333333
aF18.56
aF22.8
aF60.5
aa(lp298
I8
aF29.071067690849304
aF14.986666666666666
aF15.733333333333333
aF21.52
aF60.5
aasg1
(g5
S'\x1d\x00\x00\x00\x00\x00\x00\x00'
p299
tp300
Rp301
(lp302
(lp303
I42
aF497.4558436870575
aF73.46046511627907
aF70.8232558139535
aF144.6186046511628
aF184.0
aa(lp304
I42
aF497.4558436870575
aF73.46046511627907
aF70.8232558139535
aF144.6186046511628
aF184.0
aa(lp305
I42
aF497.4558436870575
aF73.46046511627907
aF70.8232558139535
aF144.6186046511628
aF184.0
aa(lp306
I42
aF497.4558436870575
aF73.46046511627907
aF70.8232558139535
aF144.6186046511628
aF184.0
aa(lp307
I42
aF497.4558436870575
aF73.46046511627907
aF70.8232558139535
aF144.6186046511628
aF184.0
aa(lp308
I42
aF497.4558436870575
aF73.46046511627907
aF70.8232558139535
aF144.6186046511628
aF184.0
aa(lp309
I42
aF497.4558436870575
aF73.46046511627907
aF70.8232558139535
aF144.6186046511628
aF184.0
aa(lp310
I42
aF497.4558436870575
aF73.46046511627907
aF70.8232558139535
aF144.6186046511628
aF184.0
aa(lp311
I42
aF497.4558436870575
aF73.46046511627907
aF70.8232558139535
aF144.6186046511628
aF184.0
aa(lp312
I42
aF497.4558436870575
aF73.46046511627907
aF70.8232558139535
aF144.6186046511628
aF184.0
aasg1
(g5
S'\x1e\x00\x00\x00\x00\x00\x00\x00'
p313
tp314
Rp315
(lp316
(lp317
I20
aF251.3137083053589
aF74.36363636363636
aF71.53588516746412
aF145.69856459330143
aF84.0
aa(lp318
I20
aF251.3137083053589
aF74.36363636363636
aF71.53588516746412
aF145.69856459330143
aF84.0
aa(lp319
I20
aF251.3137083053589
aF74.36363636363636
aF71.53588516746412
aF145.69856459330143
aF84.0
aa(lp320
I20
aF251.3137083053589
aF74.36363636363636
aF71.53588516746412
aF145.69856459330143
aF84.0
aa(lp321
I20
aF251.3137083053589
aF74.36363636363636
aF71.53588516746412
aF145.69856459330143
aF84.0
aa(lp322
I20
aF251.3137083053589
aF74.36363636363636
aF71.53588516746412
aF145.69856459330143
aF84.0
aa(lp323
I20
aF251.3137083053589
aF74.36363636363636
aF71.53588516746412
aF145.69856459330143
aF84.0
aa(lp324
I20
aF251.3137083053589
aF74.36363636363636
aF71.53588516746412
aF145.69856459330143
aF84.0
aa(lp325
I20
aF251.3137083053589
aF74.36363636363636
aF71.53588516746412
aF145.69856459330143
aF84.0
aa(lp326
I20
aF251.3137083053589
aF74.36363636363636
aF71.53588516746412
aF145.69856459330143
aF84.0
aas.