ccollections
Counter
p0
((dp1
(S'diff-x-pos--89'
p2
S'action-4'
p3
tp4
F9.75114032417798
s(S'action-4'
p5
S'object-1-x-80.0'
p6
tp7
F2.2524667321897724
s(S'diff-x-pos--94'
p8
S'action-3'
p9
tp10
F-13.394641396427993
s(S'diff-x-pos--80'
p11
S'action-4'
p12
tp13
F4.490913662869656
s(S'diff-x-pos-2'
p14
S'prev-action-3'
p15
tp16
F2.410183955931471
s(S'diff-x-pos--7'
p17
S'prev-action-1'
p18
tp19
F-0.9134680735355226
s(S'diff-x-pos--27'
p20
S'action-4'
p21
tp22
F1.0837477618772116
s(S'diff-x-pos-40'
p23
S'action-3'
p24
tp25
F9.46774384172869
s(S'diff-x-pos-54'
p26
S'action-1'
p27
tp28
F-1.3093758694547963
s(S'diff-x-pos--43'
p29
S'prev-action-4'
p30
tp31
F-1.6585675657241248
s(S'diff-x-pos--96'
p32
S'prev-action-4'
p33
tp34
F3.066048384314138
s(S'action-4'
p35
S'object-1-x-60.0'
p36
tp37
F3.205410068199561
s(S'diff-x-pos--80'
p38
S'prev-action-1'
p39
tp40
F-2.2827414650519
s(S'diff-x-pos--35'
p41
S'action-3'
p42
tp43
F-1.8646735309895766
s(S'diff-x-pos--25'
p44
S'prev-action-4'
p45
tp46
F1.2833378522600003
s(S'diff-x-pos--75'
p47
S'prev-action-4'
p48
tp49
F2.9249535534553006
s(S'diff-x-pos-43'
p50
S'prev-action-4'
p51
tp52
F-0.5786111582866106
s(S'diff-x-pos-25'
p53
S'action-3'
p54
tp55
F9.576066065823273
s(S'diff-x-pos--9'
p56
S'action-3'
p57
tp58
F1.0215282707630862
s(g23
S'prev-action-1'
p59
tp60
F-0.4690928514910575
s(S'diff-x-pos--7'
p61
S'action-3'
p62
tp63
F2.388814578460815
s(S'diff-x-pos--61'
p64
S'action-3'
p65
tp66
F-5.4299750096137585
s(S'diff-x-pos-47'
p67
S'prev-action-1'
p68
tp69
F0.07924394495581706
s(S'diff-x-pos-21'
p70
S'prev-action-1'
p71
tp72
F-0.28807836587144653
s(S'diff-x-pos-33'
p73
S'prev-action-4'
p74
tp75
F1.6840899413868629
s(S'diff-x-pos--79'
p76
S'action-3'
p77
tp78
F-7.883866534863634
s(S'diff-x-pos--62'
p79
S'prev-action-3'
p80
tp81
F0.7254515331844423
s(S'diff-x-pos-17'
p82
S'action-1'
p83
tp84
F0.4233444318915382
s(S'diff-x-pos-37'
p85
S'action-4'
p86
tp87
F-7.640193098064185
s(S'diff-x-pos--13'
p88
S'action-4'
p89
tp90
F-1.0468946852118695
s(S'diff-x-pos-9'
p91
S'action-3'
p92
tp93
F2.48383366247279
s(S'diff-x-pos--98'
p94
S'action-1'
p95
tp96
F-0.05233394301865013
s(S'action-3'
p97
S'object-1-x-80.0'
p98
tp99
F-2.7580747204777762
s(S'diff-x-pos--69'
p100
S'action-4'
p101
tp102
F4.640348686637887
s(S'diff-x-pos--46'
p103
S'prev-action-4'
p104
tp105
F-0.03544487967811322
s(S'diff-x-pos--53'
p106
S'action-4'
p107
tp108
F-0.0857479657036525
s(S'diff-x-pos--49'
p109
S'prev-action-4'
p110
tp111
F3.692052711447707
s(S'diff-x-pos-25'
p112
S'action-4'
p113
tp114
F-7.622905080632473
s(S'diff-x-pos-66'
p115
S'prev-action-3'
p116
tp117
F-0.17023872788893613
s(S'action-4'
p118
S'object-0-x-120.0'
p119
tp120
F4.871143938634953
s(S'diff-x-pos--13'
p121
S'prev-action-4'
p122
tp123
F-1.9247264539138902
s(S'diff-x-pos--37'
p124
S'action-4'
p125
tp126
F1.95648593586631
s(g20
S'prev-action-1'
p127
tp128
F-0.08225009157529838
s(S'diff-x-pos-63'
p129
S'prev-action-3'
p130
tp131
F0.466626460036602
s(S'diff-x-pos--109'
p132
S'prev-action-1'
p133
tp134
F-2.747359348168841
s(S'diff-x-pos-59'
p135
S'action-4'
p136
tp137
F-4.0347795774748825
s(S'diff-x-pos--8'
p138
S'action-1'
p139
tp140
F3.979442460240515
s(S'diff-x-pos--55'
p141
S'action-4'
p142
tp143
F1.538785231638152
s(S'diff-x-pos--31'
p144
S'action-1'
p145
tp146
F-2.938089035527084
s(S'diff-x-pos-48'
p147
S'action-1'
p148
tp149
F-0.16689873039286654
s(S'diff-x-pos-4'
p150
S'prev-action-4'
p151
tp152
F-2.7471451744393898
s(S'diff-x-pos--30'
p153
S'prev-action-1'
p154
tp155
F-1.1958310683357967
s(S'diff-x-pos--61'
p156
S'action-1'
p157
tp158
F-0.402234598321384
s(S'diff-x-pos--63'
p159
S'prev-action-1'
p160
tp161
F0.5706120029712952
s(S'action-4'
p162
S'object-0-x-50.0'
p163
tp164
F0.8144489618444992
s(S'diff-x-pos-3'
p165
S'action-4'
p166
tp167
F-5.781654423516767
s(S'diff-x-pos-26'
p168
S'action-4'
p169
tp170
F-6.241433809882862
s(S'diff-x-pos--13'
p171
S'action-3'
p172
tp173
F-1.032986215256202
s(g86
S'object-0-x-130.0'
p174
tp175
F-4.836674163621297
s(S'diff-x-pos--26'
p176
S'action-1'
p177
tp178
F0.0645899665359081
s(S'diff-x-pos--75'
p179
S'action-4'
p180
tp181
F7.25294342470992
s(S'diff-x-pos--23'
p182
S'prev-action-4'
p183
tp184
F0.9596725662754003
s(S'diff-x-pos-37'
p185
S'action-3'
p186
tp187
F10.231370619159978
s(S'diff-x-pos-55'
p188
S'action-4'
p189
tp190
F-11.014915058412305
s(S'diff-x-pos--105'
p191
S'prev-action-4'
p192
tp193
F1.9010494047753677
s(S'diff-x-pos--59'
p194
S'action-3'
p195
tp196
F-5.274699628478501
s(S'object-0-dx-1'
p197
S'prev-action-3'
p198
tp199
F-0.1483327324149687
s(S'diff-x-pos--39'
p200
S'prev-action-3'
p201
tp202
F-0.08186732612621217
s(S'diff-x-pos-2'
p203
S'action-3'
p204
tp205
F1.2028826185497048
s(S'diff-x-pos-4'
p206
S'prev-action-3'
p207
tp208
F-0.24364378539056109
s(S'action-3'
p209
S'object-0-x-40.0'
p210
tp211
F7.6842175649516475
s(S'diff-x-pos--3'
p212
S'action-4'
p213
tp214
F-2.643211847009202
sS'object-1-x-120.0'
p215
F-6.750280012756651
s(S'diff-x-pos-3'
p216
S'action-3'
p217
tp218
F4.189834164552621
sS'prev-action-1'
p219
F27.564064094199946
s(S'diff-x-pos--90'
p220
S'prev-action-3'
p221
tp222
F-0.1214777169186172
sS'diff-x-pos--120'
p223
F-3.464321371460058
sS'prev-action-4'
p224
F28.363274247746094
s(S'diff-x-pos-1'
p225
S'prev-action-1'
p226
tp227
F3.178158986445419
s(S'diff-x-pos--36'
p228
S'action-1'
p229
tp230
F0.7215797286569273
s(g50
S'action-1'
p231
tp232
F-2.5454245987446167
s(S'diff-x-pos--72'
p233
S'prev-action-1'
p234
tp235
F1.9945768058462825
s(g41
S'prev-action-4'
p236
tp237
F0.8536016418987691
s(S'diff-x-pos-55'
p238
S'action-3'
p239
tp240
F14.746997084884288
s(S'diff-x-pos-45'
p241
S'prev-action-3'
p242
tp243
F3.0875196759697867
s(S'diff-x-pos--34'
p244
S'prev-action-3'
p245
tp246
F0.17073073920119264
s(S'diff-x-pos--96'
p247
S'action-1'
p248
tp249
F2.890819496407196
sS'diff-x-pos--103'
p250
F-0.7778839165329337
sS'diff-y-pos-0'
p251
F-5.4547862967208385
s(S'diff-x-pos--17'
p252
S'action-1'
p253
tp254
F1.2178826338907112
s(S'diff-x-pos--100'
p255
S'prev-action-4'
p256
tp257
F-0.274995168672055
sS'object-1-x-100.0'
p258
F2.1260241454708595
s(S'diff-x-pos-2'
p259
S'action-4'
p260
tp261
F-2.3854786048630827
s(S'diff-x-pos-29'
p262
S'action-3'
p263
tp264
F8.88775311298036
s(S'diff-x-pos-30'
p265
S'action-3'
p266
tp267
F8.652714818510775
s(S'diff-x-pos-38'
p268
S'prev-action-3'
p269
tp270
F2.4485068939649453
s(S'diff-x-pos--4'
p271
S'action-1'
p272
tp273
F0.41514560246182786
s(S'diff-x-pos--112'
p274
S'action-3'
p275
tp276
F-7.42902373403047
sS'object-1-dx--1'
p277
F-2.6504936178141465
s(S'diff-x-pos-63'
p278
S'action-3'
p279
tp280
F2.9024952830356585
s(S'diff-x-pos--95'
p281
S'action-4'
p282
tp283
F6.228238989905681
s(S'diff-x-pos--33'
p284
S'action-1'
p285
tp286
F-2.7562525679006322
s(g42
S'object-0-x-90.0'
p287
tp288
F-1.485400719827759
sS'object-1-dy--1'
p289
F0.9126296689822024
s(S'diff-x-pos--51'
p290
S'action-1'
p291
tp292
F-1.3297041497398614
s(S'diff-x-pos--120'
p293
S'action-4'
p294
tp295
F-2.1854127571727977
s(S'action-3'
p296
S'object-1-x-70.0'
p297
tp298
F-1.1604804168301985
s(S'action-4'
p299
S'object-0-x-60.0'
p300
tp301
F3.152630644757304
s(g271
S'prev-action-4'
p302
tp303
F-1.2148533244345412
s(S'diff-x-pos--24'
p304
S'action-1'
p305
tp306
F0.9751866428883337
s(S'diff-x-pos-38'
p307
S'action-4'
p308
tp309
F-6.186310020510505
s(S'diff-x-pos--77'
p310
S'action-4'
p311
tp312
F8.418141558482606
s(S'diff-x-pos-57'
p313
S'action-4'
p314
tp315
F-8.579174467783245
s(S'diff-x-pos--97'
p316
S'prev-action-3'
p317
tp318
F0.4989156346617977
s(g177
S'object-1-x-70.0'
p319
tp320
F-0.9704969692090331
s(S'diff-x-pos-35'
p321
S'prev-action-1'
p322
tp323
F1.1766011894205375
s(S'diff-x-pos-42'
p324
S'prev-action-3'
p325
tp326
F-0.9472440634663755
sS'object-0-x-70.0'
p327
F5.520445973527274
s(S'diff-x-pos--10'
p328
S'action-1'
p329
tp330
F1.0131649130512577
s(S'diff-x-pos-14'
p331
S'prev-action-1'
p332
tp333
F0.4101092461821923
s(S'diff-x-pos--26'
p334
S'prev-action-1'
p335
tp336
F-1.477599483143945
s(S'diff-x-pos-19'
p337
S'prev-action-3'
p338
tp339
F0.5206746426145571
s(S'diff-x-pos--114'
p340
S'prev-action-4'
p341
tp342
F-4.477565257597222
s(S'diff-x-pos-34'
p343
S'prev-action-1'
p344
tp345
F0.35000362753949843
sS'diff-x-pos--54'
p346
F-3.705650175357772
sg141
F-3.9387785896453886
sS'diff-x-pos--56'
p347
F-1.8035148885679
sS'diff-x-pos--57'
p348
F-2.265162878993236
sS'diff-x-pos--50'
p349
F-4.876522633767208
sS'diff-x-pos--51'
p350
F-2.2893805924417476
sS'diff-x-pos--52'
p351
F-3.409745770087821
sg106
F-5.255427277210233
s(S'action-1'
p352
S'object-0-x-60.0'
p353
tp354
F2.148055506640759
sS'diff-x-pos--58'
p355
F-0.25836635089054416
sS'diff-x-pos--59'
p356
F-1.1593465803633178
s(S'diff-x-pos--102'
p357
S'action-4'
p358
tp359
F8.707238365434
s(S'diff-x-pos--38'
p360
S'action-1'
p361
tp362
F0.4253479644928698
sS'object-0-y-0.0'
p363
F28.376432748282255
s(S'diff-x-pos--68'
p364
S'action-3'
p365
tp366
F-4.847429555698574
s(S'diff-x-pos--60'
p367
S'prev-action-4'
p368
tp369
F0.3896763016599079
s(g194
S'prev-action-4'
p370
tp371
F0.5435783234332954
s(S'diff-x-pos-57'
p372
S'prev-action-3'
p373
tp374
F1.9070450151999974
s(S'action-1'
p375
S'object-0-x-100.0'
p376
tp377
F2.1632234434346254
s(S'diff-x-pos--38'
p378
S'prev-action-1'
p379
tp380
F0.794611014322141
s(S'diff-x-pos--14'
p381
S'prev-action-1'
p382
tp383
F1.2747258054831323
s(S'object-1-dx-1'
p384
S'prev-action-1'
p385
tp386
F0.33720828003753833
s(S'diff-x-pos--2'
p387
S'action-4'
p388
tp389
F-4.0241886146438235
sS'object-0-x-90.0'
p390
F6.705134898814039
s(S'diff-x-pos--106'
p391
S'prev-action-4'
p392
tp393
F-0.5145554609329215
s(g212
S'prev-action-1'
p394
tp395
F2.4143304326712856
s(S'diff-x-pos--28'
p396
S'prev-action-1'
p397
tp398
F3.4394605600289467
sS'diff-x-pos-70'
p399
F-0.9358795349320843
s(S'diff-x-pos--71'
p400
S'prev-action-1'
p401
tp402
F0.5367409409540563
s(S'diff-x-pos--107'
p403
S'prev-action-3'
p404
tp405
F-0.03776630287243554
sg384
F0.23148412422213616
s(S'action-1'
p406
S'object-0-x-10.0'
p407
tp408
F2.6113897678907447
s(S'diff-x-pos--83'
p409
S'action-4'
p410
tp411
F5.856511759767342
s(S'diff-x-pos--55'
p412
S'prev-action-1'
p413
tp414
F-1.875137825221172
s(g324
S'action-3'
p415
tp416
F10.148872950228615
s(S'diff-x-pos-10'
p417
S'prev-action-3'
p418
tp419
F-0.15806088048314737
s(S'diff-x-pos--37'
p420
S'prev-action-1'
p421
tp422
F-0.2137966065129413
s(S'diff-x-pos--74'
p423
S'action-3'
p424
tp425
F-4.639299386439589
s(S'diff-x-pos-52'
p426
S'prev-action-1'
p427
tp428
F-1.616627059318024
s(S'diff-x-pos--97'
p429
S'action-3'
p430
tp431
F-11.730336043078163
s(g313
S'prev-action-4'
p432
tp433
F1.394193256812742
s(S'diff-x-pos--91'
p434
S'prev-action-1'
p435
tp436
F-0.8425739713358718
sS'diff-x-pos-12'
p437
F1.6018528442297688
sS'diff-x-pos-13'
p438
F-0.738391498287237
sS'diff-x-pos-10'
p439
F-0.9466304214335548
sS'diff-x-pos-11'
p440
F0.002544128305694615
sS'diff-x-pos-16'
p441
F1.732042501888598
sS'diff-x-pos-17'
p442
F0.7610228296703301
sS'diff-x-pos-14'
p443
F1.6214027740549817
sS'diff-x-pos-15'
p444
F2.5363428529359178
s(S'diff-x-pos-28'
p445
S'action-1'
p446
tp447
F2.6493612124949464
sS'diff-x-pos-18'
p448
F1.4860957616460453
sS'diff-x-pos-19'
p449
F0.11632674276020902
s(S'diff-x-pos-26'
p450
S'prev-action-3'
p451
tp452
F2.714735960280667
s(S'diff-x-pos--51'
p453
S'prev-action-1'
p454
tp455
F-3.29134076510855
s(g159
S'action-3'
p456
tp457
F-3.6070031869393606
s(g8
S'prev-action-1'
p458
tp459
F-3.2083818138591704
s(S'diff-x-pos--33'
p460
S'prev-action-1'
p461
tp462
F-0.48158867317348775
s(S'diff-x-pos--42'
p463
S'action-3'
p464
tp465
F-3.9428267296595156
s(S'diff-x-pos-30'
p466
S'prev-action-3'
p467
tp468
F2.9403788156397743
s(S'diff-x-pos--85'
p469
S'action-3'
p470
tp471
F-8.188069721837422
s(S'action-4'
p472
S'object-0-x-110.0'
p473
tp474
F5.088202898381252
s(S'diff-x-pos-2'
p475
S'prev-action-4'
p476
tp477
F0.606482021787476
s(S'diff-x-pos--44'
p478
S'action-4'
p479
tp480
F1.046801271959523
s(S'diff-x-pos--100'
p481
S'action-4'
p482
tp483
F7.997850721220926
s(S'diff-x-pos--32'
p484
S'prev-action-1'
p485
tp486
F-0.10702618350797721
s(S'diff-x-pos--43'
p487
S'prev-action-1'
p488
tp489
F-0.47568005374553207
s(S'diff-x-pos--81'
p490
S'prev-action-4'
p491
tp492
F1.4656798721576618
s(g247
S'prev-action-1'
p493
tp494
F-0.4506130321155412
s(S'diff-x-pos-6'
p495
S'prev-action-1'
p496
tp497
F-0.4973578758489182
s(S'diff-x-pos-45'
p498
S'action-3'
p499
tp500
F12.156393019027394
s(g157
S'object-1-x-120.0'
p501
tp502
F-3.333164175297039
s(S'diff-x-pos--25'
p503
S'prev-action-1'
p504
tp505
F1.6954220382740415
s(S'diff-x-pos-58'
p506
S'prev-action-4'
p507
tp508
F3.738516022291728
s(S'diff-x-pos-43'
p509
S'prev-action-1'
p510
tp511
F-0.2503334971814303
s(g495
S'action-4'
p512
tp513
F-4.405769317654164
s(S'diff-x-pos--63'
p514
S'action-4'
p515
tp516
F3.767690211737446
s(S'diff-x-pos--90'
p517
S'action-3'
p518
tp519
F-9.673742192777993
s(S'diff-x-pos-40'
p520
S'prev-action-4'
p521
tp522
F1.7927067195802933
s(S'diff-x-pos--21'
p523
S'action-1'
p524
tp525
F1.8420895648490863
s(S'diff-x-pos--7'
p526
S'action-4'
p527
tp528
F-0.14051234730118853
s(S'diff-x-pos--3'
p529
S'prev-action-4'
p530
tp531
F-2.667045654027585
s(S'action-1'
p532
S'prev-action-4'
p533
tp534
F13.225127335285407
s(g384
S'action-3'
p535
tp536
F-1.6402950331312312
s(S'diff-x-pos--47'
p537
S'action-1'
p538
tp539
F-0.7310605291747453
s(S'object-0-dx--1'
p540
g219
tp541
F-1.7228827666033306
s(S'diff-x-pos-33'
p542
S'prev-action-3'
p543
tp544
F0.593458032629187
s(S'diff-x-pos--8'
p545
S'prev-action-4'
p546
tp547
F1.037873046986643
s(S'diff-x-pos--15'
p548
S'action-3'
p549
tp550
F3.3803444310141315
s(S'diff-x-pos--85'
p551
S'action-4'
p552
tp553
F8.27766144408399
s(S'diff-x-pos--39'
p554
g97
tp555
F-1.5915914950445433
s(S'object-0-dx-1'
p556
S'action-3'
p557
tp558
F-0.6287435265506374
s(S'diff-x-pos--86'
p559
S'action-3'
p560
tp561
F-10.140636986648346
s(g109
S'action-3'
p562
tp563
F-0.6687457647774206
s(S'diff-x-pos-9'
p564
S'action-4'
p565
tp566
F-3.8138236074763405
s(S'diff-x-pos--98'
p567
S'action-4'
p568
tp569
F6.5884893099165565
s(g355
S'prev-action-4'
p570
tp571
F1.5441954661624884
s(S'diff-x-pos-60'
p572
S'prev-action-4'
p573
tp574
F4.317404176438397
s(g305
S'object-0-x-50.0'
p575
tp576
F3.6489307140050355
s(S'diff-x-pos-37'
p577
S'prev-action-3'
p578
tp579
F2.4182544654119478
s(g88
S'prev-action-3'
p580
tp581
F0.5184366598546676
s(S'diff-x-pos-26'
p582
S'prev-action-4'
p583
tp584
F0.2343857079567542
s(S'diff-x-pos--44'
p585
S'prev-action-1'
p586
tp587
F-1.6604621230338164
s(S'diff-x-pos--92'
p588
S'prev-action-3'
p589
tp590
F-0.4705350864969724
s(S'diff-x-pos-52'
p591
S'action-3'
p592
tp593
F9.04761519439052
s(g375
S'prev-action-3'
p594
tp595
F12.48040368614688
s(S'diff-x-pos-59'
p596
S'action-1'
p597
tp598
F1.7703055501860476
s(S'action-3'
p599
S'object-0-x-10.0'
p600
tp601
F7.5729783137416895
s(S'diff-x-pos-41'
p602
S'action-1'
p603
tp604
F1.244645479854013
s(S'diff-x-pos-48'
p605
S'prev-action-1'
p606
tp607
F1.3346798752363678
s(S'diff-x-pos--104'
p608
S'prev-action-1'
p609
tp610
F-1.4749093159556965
s(S'diff-x-pos-5'
p611
S'action-3'
p612
tp613
F6.521991154155351
s(S'diff-x-pos--115'
p614
S'prev-action-3'
p615
tp616
F-1.4102380943068504
s(S'action-4'
p617
g219
tp618
F7.913318214253674
s(S'diff-x-pos-27'
p619
S'prev-action-1'
p620
tp621
F-0.4919898797851914
sS'diff-x-pos--14'
p622
F0.2265028949588459
s(S'diff-x-pos-68'
p623
S'action-1'
p624
tp625
F1.4321907950830295
s(S'diff-x-pos-13'
p626
S'prev-action-1'
p627
tp628
F-0.7989608544375368
s(S'diff-x-pos-25'
p629
S'prev-action-4'
p630
tp631
F1.0990324153015436
s(S'diff-x-pos--49'
p632
S'action-4'
p633
tp634
F0.9335370734467734
s(S'diff-x-pos--103'
p635
S'action-3'
p636
tp637
F-9.494570311427767
s(S'diff-x-pos--75'
p638
S'action-1'
p639
tp640
F-1.366939164737603
s(S'diff-x-pos--46'
p641
S'action-4'
p642
tp643
F2.9265199633495733
s(S'diff-x-pos--23'
p644
S'prev-action-1'
p645
tp646
F-2.5566911553926666
s(S'diff-x-pos--58'
p647
S'prev-action-3'
p648
tp649
F-1.322729694719823
s(S'diff-x-pos-56'
p650
S'prev-action-4'
p651
tp652
F1.0445338918799294
s(S'diff-x-pos--105'
p653
S'prev-action-1'
p654
tp655
F-1.7406944672248605
s(S'diff-x-pos--3'
p656
S'action-1'
p657
tp658
F-2.4252073633532416
s(g559
S'prev-action-1'
p659
tp660
F-1.6060007024755265
sS'diff-x-pos--15'
p661
F-0.17873671529508894
s(S'diff-x-pos-15'
p662
S'action-3'
p663
tp664
F6.606112947926701
s(S'diff-x-pos--29'
p665
S'action-1'
p666
tp667
F-0.9855600840138267
s(g351
S'action-1'
p668
tp669
F0.4722344899396274
s(S'diff-x-pos--110'
p670
S'action-3'
p671
tp672
F-9.356894156040386
s(S'diff-x-pos--62'
p673
S'action-1'
p674
tp675
F-1.9038880754675036
s(g442
S'prev-action-1'
p676
tp677
F-0.7096028724127259
s(S'diff-x-pos-18'
p678
S'prev-action-3'
p679
tp680
F-1.8790623818452006
s(S'diff-x-pos--9'
p681
g5
tp682
F-2.0161092271985006
s(S'diff-x-pos--64'
p683
S'prev-action-3'
p684
tp685
F3.4940634356036147
s(S'diff-x-pos-21'
p686
S'action-1'
p687
tp688
F1.6255593756408193
s(S'diff-x-pos--101'
p689
S'prev-action-1'
p690
tp691
F0.9764205801010599
s(S'diff-x-pos--41'
p692
S'action-1'
p693
tp694
F1.0584832344219643
s(S'diff-x-pos--61'
p695
S'prev-action-3'
p696
tp697
F2.856596131573652
s(S'diff-x-pos--76'
p698
S'prev-action-4'
p699
tp700
F0.2923002949546909
s(S'diff-x-pos-46'
p701
S'prev-action-4'
p702
tp703
F1.7316549656952627
s(S'diff-x-pos--87'
p704
S'prev-action-3'
p705
tp706
F-0.48031991496411847
s(S'diff-x-pos--84'
p707
S'action-1'
p708
tp709
F-2.0985211295684754
s(S'diff-x-pos--70'
p710
S'prev-action-1'
p711
tp712
F-1.3985158045414865
s(S'diff-x-pos--36'
p713
S'action-4'
p714
tp715
F-0.9413972697441455
s(g509
S'action-4'
p716
tp717
F-5.936215703902519
s(S'diff-x-pos--35'
p718
S'prev-action-3'
p719
tp720
F-0.768516802019757
s(S'diff-x-pos--108'
p721
S'prev-action-3'
p722
tp723
F0.05362073641645526
s(S'action-1'
p724
S'object-0-x-30.0'
p725
tp726
F3.62152177825436
s(S'diff-x-pos-7'
p727
S'action-4'
p728
tp729
F-3.5448909264523305
s(S'diff-x-pos-22'
p730
S'action-4'
p731
tp732
F-3.1373554569695057
s(S'diff-x-pos--96'
p733
S'action-4'
p734
tp735
F6.397983406582449
s(S'diff-x-pos--20'
p736
S'prev-action-3'
p737
tp738
F-0.4884358008439489
s(g26
S'prev-action-1'
p739
tp740
F-0.43839302748065945
s(S'diff-x-pos-8'
p741
S'prev-action-3'
p742
tp743
F1.300568086982555
s(S'diff-x-pos--101'
p744
S'action-1'
p745
tp746
F-0.8057218496295555
s(S'diff-x-pos--110'
p747
S'action-4'
p748
tp749
F9.59857111905603
s(S'diff-x-pos--72'
p750
S'action-1'
p751
tp752
F-0.711467814322877
s(S'diff-x-pos--99'
p753
S'prev-action-3'
p754
tp755
F0.23362636133004036
s(g357
S'prev-action-1'
p756
tp757
F0.10628771766716172
s(S'diff-x-pos--19'
p758
S'prev-action-3'
p759
tp760
F2.278184961492043
s(S'diff-x-pos--88'
p761
S'action-4'
p762
tp763
F2.686986744039663
s(g437
S'action-3'
p764
tp765
F9.350432641892867
s(S'diff-x-pos-47'
p766
S'action-1'
p767
tp768
F-0.34951804014663623
s(S'diff-x-pos--89'
p769
S'prev-action-4'
p770
tp771
F-2.0981569764913326
s(S'diff-x-pos--95'
p772
S'action-1'
p773
tp774
F-1.3332541706500687
s(S'diff-x-pos--76'
p775
S'prev-action-3'
p776
tp777
F-1.2719143112529667
s(S'diff-x-pos--11'
p778
S'prev-action-1'
p779
tp780
F-0.03552104833363645
s(S'diff-x-pos--16'
p781
S'action-1'
p782
tp783
F1.7374813073476456
s(S'diff-x-pos--10'
p784
S'prev-action-4'
p785
tp786
F0.3064683682542617
s(S'diff-x-pos-50'
p787
S'prev-action-4'
p788
tp789
F-0.6854855020327371
s(S'diff-x-pos--6'
p790
S'prev-action-3'
p791
tp792
F-0.5283024049117938
s(S'diff-x-pos--121'
p793
S'prev-action-3'
p794
tp795
F-0.7921763015756056
s(S'diff-x-pos-53'
p796
S'prev-action-1'
p797
tp798
F-0.13835808413194672
s(S'diff-x-pos--48'
p799
S'action-1'
p800
tp801
F-2.823694091397371
s(S'diff-x-pos--45'
p802
S'action-3'
p803
tp804
F-2.4256533483856417
s(S'diff-x-pos-6'
p805
S'prev-action-4'
p806
tp807
F1.6247114605959743
s(S'diff-x-pos--77'
p808
S'action-1'
p809
tp810
F-3.9017421686899176
s(g11
S'prev-action-3'
p811
tp812
F-0.7238466999736868
s(S'diff-x-pos-36'
p813
S'prev-action-1'
p814
tp815
F2.5985187382087047
s(S'diff-x-pos--34'
p816
S'prev-action-4'
p817
tp818
F3.8078976985132007
s(S'diff-x-pos-35'
p819
S'prev-action-4'
p820
tp821
F0.7769704377936905
s(S'diff-x-pos--99'
p822
S'prev-action-4'
p823
tp824
F0.018364652530635017
s(S'diff-x-pos-27'
p825
S'prev-action-4'
p826
tp827
F-1.7770797922647898
s(S'diff-x-pos--45'
p828
S'prev-action-3'
p829
tp830
F1.4434249093939033
s(S'diff-x-pos-52'
p831
S'action-4'
p832
tp833
F-9.007434285822576
s(S'diff-x-pos--48'
p834
S'prev-action-1'
p835
tp836
F-2.7525645786693125
s(S'action-1'
p837
S'object-0-x-20.0'
p838
tp839
F1.4872218195461278
s(S'diff-x-pos--19'
p840
S'prev-action-4'
p841
tp842
F0.08363056541970672
s(S'diff-x-pos--10'
p843
S'action-4'
p844
tp845
F-0.418107091765057
s(S'object-1-dx--1'
p846
S'prev-action-1'
p847
tp848
F-2.6498219465881436
s(S'diff-x-pos--114'
p849
S'prev-action-1'
p850
tp851
F-0.3575748965502512
s(S'diff-x-pos--40'
p852
S'action-4'
p853
tp854
F3.496978070026433
s(S'action-4'
p855
S'object-0-x-30.0'
p856
tp857
F-0.6299580406077887
s(S'diff-x-pos--119'
p858
S'prev-action-3'
p859
tp860
F1.0832190537566002
s(S'diff-x-pos-16'
p861
S'action-1'
p862
tp863
F0.3090519330767603
s(S'diff-x-pos-39'
p864
S'prev-action-1'
p865
tp866
F0.6160621201893608
s(S'diff-x-pos--12'
p867
S'prev-action-1'
p868
tp869
F0.28717171318744855
s(S'diff-x-pos--102'
p870
S'action-1'
p871
tp872
F-0.8108187252749646
s(S'diff-x-pos--38'
p873
S'action-4'
p874
tp875
F1.6871115097779752
s(S'action-3'
p876
S'object-0-x-80.0'
p877
tp878
F-1.2009190777584278
sg487
F-3.3220558290347664
sS'diff-x-pos--42'
p879
F-3.5423182775710282
sS'diff-x-pos--41'
p880
F-5.417263073671981
sg852
F-0.7038503695578062
sS'diff-x-pos--47'
p881
F-2.7320193241529935
sg641
F-1.3795136543604565
sS'diff-x-pos--45'
p882
F0.743048046645618
sg478
F-0.6106055128860894
s(S'diff-x-pos--1'
p883
S'prev-action-3'
p884
tp885
F1.634078385971057
sg632
F-0.33190350982713085
sg799
F-3.742288080030855
s(S'diff-x-pos-67'
p886
S'prev-action-1'
p887
tp888
F0.9575116400714493
s(S'diff-x-pos-28'
p889
S'action-3'
p890
tp891
F4.596821346439621
s(S'diff-x-pos--53'
p892
S'action-3'
p893
tp894
F-4.341236077595356
s(S'diff-x-pos--57'
p895
S'prev-action-1'
p896
tp897
F-3.403806537347952
s(S'diff-x-pos--111'
p898
S'action-1'
p899
tp900
F-3.2966702315841583
s(S'diff-x-pos--108'
p901
S'action-3'
p902
tp903
F-11.370006604721354
s(S'diff-x-pos-53'
p904
S'action-4'
p905
tp906
F-8.2552313338105
s(g65
S'object-0-x-20.0'
p907
tp908
F7.467356601724454
s(S'diff-x-pos--36'
p909
S'prev-action-4'
p910
tp911
F-0.12265922778433819
s(S'object-1-dx-1'
p912
S'prev-action-4'
p913
tp914
F-2.2616484930664877
s(S'diff-x-pos-62'
p915
S'prev-action-3'
p916
tp917
F1.453843419071317
s(S'diff-x-pos-32'
p918
S'prev-action-3'
p919
tp920
F0.10176800441114342
s(S'diff-x-pos--16'
p921
S'prev-action-4'
p922
tp923
F0.8033688048198842
s(S'diff-x-pos-20'
p924
S'action-3'
p925
tp926
F6.273886110899767
s(S'diff-x-pos-51'
p927
S'action-4'
p928
tp929
F-10.255814731406135
s(g775
S'action-4'
p930
tp931
F2.7371016659281904
s(S'diff-x-pos--106'
p932
S'prev-action-3'
p933
tp934
F0.3103065719138071
s(S'diff-x-pos--40'
p935
S'action-3'
p936
tp937
F-2.755410716479247
sg129
F6.4295190320577404
s(S'diff-x-pos--28'
p938
S'prev-action-4'
p939
tp940
F-3.19901429148664
s(S'diff-x-pos-49'
p941
S'action-1'
p942
tp943
F-1.6998655943331935
s(S'diff-x-pos--107'
p944
S'prev-action-4'
p945
tp946
F0.35759682623019085
s(g250
S'prev-action-4'
p947
tp948
F0.12600332010354648
s(S'diff-x-pos--64'
p949
S'action-3'
p950
tp951
F-5.0159919361679774
s(S'diff-x-pos--83'
p952
S'action-3'
p953
tp954
F-7.487400669746243
s(S'diff-x-pos--111'
p955
S'prev-action-4'
p956
tp957
F-0.05338696233061416
s(g439
S'prev-action-4'
p958
tp959
F-0.2525154373657883
sg886
F-1.399632975176985
s(g673
S'prev-action-1'
p960
tp961
F2.6391353633471044
s(S'diff-x-pos--110'
p962
S'prev-action-3'
p963
tp964
F-0.49419875995736595
sS'diff-x-pos-66'
p965
F2.223413960894391
sg713
F-0.7942230818868676
sg420
F-0.4554866285233552
sg244
F1.2665348756439374
sg718
F-0.38537169531712356
sS'diff-x-pos--32'
p966
F1.0868012089951486
sS'diff-x-pos--33'
p967
F-0.13285604814896712
sS'diff-x-pos--30'
p968
F-1.342103808762768
sS'diff-x-pos--31'
p969
F-2.5596410753100707
s(S'diff-x-pos-22'
p970
S'prev-action-1'
p971
tp972
F1.1930016842257718
sg873
F-0.6301588504480479
s(S'diff-x-pos--105'
p973
S'action-1'
p974
tp975
F0.09645177428840243
s(S'diff-x-pos--82'
p976
S'action-3'
p977
tp978
F-7.945474581053043
sS'diff-x-pos-29'
p979
F0.8415920781329572
sg445
F2.6112952139430265
s(g635
S'prev-action-3'
p980
tp981
F-0.019571002165925555
sg168
F0.9053836666884387
sg629
F3.0775703932582053
sS'diff-x-pos-24'
p982
F1.8865726990442042
sS'diff-x-pos-23'
p983
F1.4823520419370206
sS'diff-x-pos-22'
p984
F2.429301535806994
sg70
F-1.3956466570191433
sS'diff-x-pos-20'
p985
F2.554819730742839
sS'diff-x-pos--18'
p986
F-1.0230091568034543
s(S'diff-x-pos--73'
p987
S'prev-action-3'
p988
tp989
F-1.04048905242725
s(S'diff-x-pos-46'
p990
S'action-3'
p991
tp992
F10.433877865997156
s(g346
S'action-3'
p993
tp994
F-4.5370495174464205
s(S'diff-x-pos--33'
p995
S'prev-action-4'
p996
tp997
F2.247678969763248
s(g252
S'prev-action-1'
p998
tp999
F0.8700212346903321
s(g611
S'prev-action-3'
p1000
tp1001
F-0.5548811498521523
s(S'diff-x-pos--65'
p1002
S'action-1'
p1003
tp1004
F-1.3497270243770685
s(S'diff-x-pos--29'
p1005
S'action-3'
p1006
tp1007
F-1.2364844606437626
s(S'diff-x-pos-0'
p1008
S'prev-action-3'
p1009
tp1010
F1.8197653845185597
s(S'action-4'
p1011
S'object-0-x-40.0'
p1012
tp1013
F0.982579317477406
s(S'diff-x-pos-41'
p1014
S'prev-action-1'
p1015
tp1016
F0.3062303453692875
s(S'diff-x-pos-59'
p1017
S'prev-action-1'
p1018
tp1019
F4.306650783477296
s(S'diff-x-pos-64'
p1020
S'action-4'
p1021
tp1022
F-1.8653826368511357
s(S'diff-x-pos-27'
p1023
S'action-3'
p1024
tp1025
F7.644913178685574
s(S'diff-x-pos--79'
p1026
S'prev-action-1'
p1027
tp1028
F-1.8559575845263216
s(S'diff-x-pos-69'
p1029
S'prev-action-1'
p1030
tp1031
F0.02509059291419935
s(S'diff-x-pos--44'
p1032
S'action-1'
p1033
tp1034
F1.6946847516814367
s(S'diff-x-pos--52'
p1035
S'prev-action-4'
p1036
tp1037
F-2.5861589903446
s(S'diff-x-pos--100'
p1038
S'action-1'
p1039
tp1040
F0.7308091931328065
s(S'diff-x-pos--81'
p1041
S'prev-action-1'
p1042
tp1043
F-1.5223270752990155
s(S'diff-x-pos-6'
p1044
S'action-3'
p1045
tp1046
F5.984857050955597
s(S'diff-x-pos-60'
p1047
S'action-4'
p1048
tp1049
F-3.2932372134160213
s(S'diff-x-pos--58'
p1050
S'action-4'
p1051
tp1052
F4.893559396668273
s(S'diff-x-pos--98'
p1053
S'prev-action-4'
p1054
tp1055
F-0.1200779056466903
s(S'diff-x-pos-58'
p1056
S'prev-action-1'
p1057
tp1058
F-0.9208783830931507
s(S'diff-x-pos--113'
p1059
S'action-1'
p1060
tp1061
F-1.070613509865582
s(S'diff-x-pos-50'
p1062
S'action-3'
p1063
tp1064
F9.48116031309848
s(g53
S'prev-action-3'
p1065
tp1066
F1.6909573422732056
s(S'diff-x-pos--73'
p1067
S'prev-action-4'
p1068
tp1069
F-1.1227526284751113
s(S'diff-x-pos--34'
p1070
S'action-3'
p1071
tp1072
F-2.653313221460277
s(S'diff-x-pos--89'
p1073
S'action-3'
p1074
tp1075
F-8.97283196212872
sS'object-1-x-80.0'
p1076
F2.3646473612534407
s(S'diff-x-pos-44'
p1077
S'action-4'
p1078
tp1079
F-8.419878692004996
s(S'diff-x-pos--70'
p1080
S'action-4'
p1081
tp1082
F5.463900433799797
s(S'diff-x-pos--88'
p1083
S'prev-action-3'
p1084
tp1085
F-1.1174192633477196
s(S'diff-x-pos-61'
p1086
S'action-3'
p1087
tp1088
F6.301734098611616
s(S'action-3'
p1089
S'object-0-x-0.0'
p1090
tp1091
F14.037188104269177
s(S'diff-x-pos--91'
p1092
S'prev-action-4'
p1093
tp1094
F-0.1451886465126253
s(S'diff-x-pos-51'
p1095
S'prev-action-3'
p1096
tp1097
F0.09452230621170166
s(S'diff-x-pos--50'
p1098
S'action-1'
p1099
tp1100
F-2.541248873877599
s(S'diff-x-pos--78'
p1101
S'prev-action-1'
p1102
tp1103
F0.20809520495856226
s(S'action-3'
p1104
S'object-1-x-120.0'
p1105
tp1106
F-7.568929897795131
s(g503
S'action-1'
p1107
tp1108
F0.8054437379906113
s(S'diff-x-pos-7'
p1109
S'prev-action-3'
p1110
tp1111
F2.3513345165302084
s(S'diff-x-pos-60'
p1112
S'prev-action-3'
p1113
tp1114
F0.3778209141937495
s(S'diff-x-pos-60'
p1115
S'action-3'
p1116
tp1117
F5.884883724853209
s(S'diff-x-pos--57'
p1118
S'action-3'
p1119
tp1120
F-5.559466176194591
s(g487
S'action-1'
p1121
tp1122
F1.4991233363763272
s(S'diff-x-pos--86'
p1123
S'prev-action-4'
p1124
tp1125
F1.6391093944748722
s(S'diff-x-pos-11'
p1126
S'prev-action-1'
p1127
tp1128
F2.9054245589397127
s(S'diff-x-pos--84'
p1129
S'prev-action-4'
p1130
tp1131
F1.5941891132753123
s(g1101
S'action-1'
p1132
tp1133
F2.008824584674694
s(g478
S'prev-action-4'
p1134
tp1135
F-0.4951469476981547
s(S'diff-x-pos--11'
p1136
S'action-3'
p1137
tp1138
F2.261169630587589
s(S'diff-x-pos--92'
p1139
S'prev-action-4'
p1140
tp1141
F-2.2736207299697195
s(S'diff-x-pos--101'
p1142
S'action-4'
p1143
tp1144
F7.479925696591201
s(S'diff-x-pos-48'
p1145
S'prev-action-4'
p1146
tp1147
F-0.7597656229453844
s(S'diff-x-pos--42'
p1148
S'prev-action-3'
p1149
tp1150
F-1.8059925841760314
s(S'diff-x-pos--118'
p1151
S'action-1'
p1152
tp1153
F2.5620994016775587
s(S'diff-x-pos-61'
p1154
S'action-4'
p1155
tp1156
F-5.893685049543594
s(S'diff-x-pos--117'
p1157
S'action-3'
p1158
tp1159
F-6.553292866007427
s(g56
S'prev-action-3'
p1160
tp1161
F-0.9710923450408171
s(S'diff-x-pos--18'
p1162
S'action-3'
p1163
tp1164
F3.0234456824094362
s(S'action-1'
p1165
S'object-0-x-90.0'
p1166
tp1167
F0.9690798929505703
s(S'diff-x-pos-11'
p1168
S'action-4'
p1169
tp1170
F-6.114846012072908
s(S'diff-x-pos--113'
p1171
S'prev-action-1'
p1172
tp1173
F-1.5209333993940035
s(S'diff-x-pos-58'
p1174
S'action-1'
p1175
tp1176
F2.850327519830115
s(S'diff-x-pos--46'
p1177
S'action-1'
p1178
tp1179
F-0.8629267974263359
s(S'diff-x-pos-69'
p1180
S'action-4'
p1181
tp1182
I-1
s(S'diff-x-pos-28'
p1183
S'prev-action-1'
p1184
tp1185
F1.1912176964973802
s(S'diff-x-pos-56'
p1186
S'prev-action-1'
p1187
tp1188
F0.14737620519606354
s(S'diff-x-pos-56'
p1189
S'action-3'
p1190
tp1191
F13.045256818949547
s(g641
S'prev-action-3'
p1192
tp1193
F-0.3615029598224352
s(S'diff-x-pos--81'
p1194
S'action-1'
p1195
tp1196
F-3.4737213293534035
s(S'diff-x-pos-51'
p1197
S'prev-action-1'
p1198
tp1199
F2.343806639470123
s(S'diff-x-pos--52'
p1200
S'action-4'
p1201
tp1202
F1.717847035513248
s(g349
S'prev-action-4'
p1203
tp1204
F-3.93870478797613
s(S'diff-x-pos-68'
p1205
S'prev-action-4'
p1206
tp1207
I1
s(g1029
S'action-1'
p1208
tp1209
F-0.6071834060617902
s(S'diff-x-pos-63'
p1210
S'prev-action-4'
p1211
tp1212
F2.989254418635402
s(S'diff-x-pos-17'
p1213
S'prev-action-4'
p1214
tp1215
F2.126670210422438
s(S'diff-x-pos-10'
p1216
S'action-3'
p1217
tp1218
F5.204479422840956
s(S'diff-x-pos-18'
p1219
S'prev-action-4'
p1220
tp1221
F2.766986596896001
s(S'diff-x-pos--67'
p1222
S'prev-action-3'
p1223
tp1224
F2.6554511131748524
s(S'diff-x-pos--117'
p1225
S'prev-action-1'
p1226
tp1227
F-1.3323685902012554
s(g1151
S'prev-action-3'
p1228
tp1229
F-1.2079363977138589
s(g879
S'prev-action-4'
p1230
tp1231
F-0.6233263409139911
s(g70
S'action-4'
p1232
tp1233
F-7.499174847835079
s(g944
S'action-3'
p1234
tp1235
F-9.455799268715019
s(S'diff-x-pos--71'
p1236
S'action-1'
p1237
tp1238
F-2.235998774428131
s(S'diff-x-pos--54'
p1239
S'prev-action-3'
p1240
tp1241
F-1.0334037763963484
s(S'diff-x-pos-31'
p1242
S'action-3'
p1243
tp1244
F7.076948586941003
s(S'diff-x-pos-46'
p1245
S'prev-action-3'
p1246
tp1247
F2.410591074024084
s(S'diff-x-pos-11'
p1248
S'action-3'
p1249
tp1250
F2.6199301156558574
s(S'action-3'
p1251
S'prev-action-4'
p1252
tp1253
F12.709367758411636
s(S'diff-x-pos--56'
p1254
S'action-1'
p1255
tp1256
F-1.4063110987368248
s(S'diff-x-pos--66'
p1257
S'prev-action-3'
p1258
tp1259
F-1.267213131347608
s(g290
S'prev-action-3'
p1260
tp1261
F0.5041312560599667
s(S'diff-x-pos-32'
p1262
S'action-1'
p1263
tp1264
F0.5642702359981433
s(S'diff-x-pos-7'
p1265
S'action-1'
p1266
tp1267
F-0.9434195492739664
s(g984
S'action-1'
p1268
tp1269
F-0.8118982663579782
s(S'object-0-dx-1'
p1270
S'prev-action-4'
p1271
tp1272
F0.07295487384540719
s(g364
S'prev-action-3'
p1273
tp1274
F-3.2480993240436637
s(S'diff-x-pos--50'
p1275
S'prev-action-3'
p1276
tp1277
F-1.0292380341210923
s(S'diff-x-pos-51'
p1278
S'action-1'
p1279
tp1280
F0.6441228667069675
sg608
F-0.6834951944905655
sg944
F-0.10870351356230712
sg932
F-1.5624987307406095
sg744
F-1.017095342124416
sS'diff-x-pos--100'
p1281
F-2.1747087668555065
s(g439
S'action-4'
p1282
tp1283
F-5.8551261122835845
sg357
F-0.3608124521338445
s(S'diff-x-pos--102'
p1284
S'prev-action-4'
p1285
tp1286
F-1.6799523636560985
sS'diff-x-pos--109'
p1287
F-1.3415060782320034
sg721
F-0.6104204918351751
s(g1154
S'prev-action-1'
p1288
tp1289
F-0.6194051473144828
s(g1083
S'action-1'
p1290
tp1291
F0.5779888696508362
s(g540
g617
tp1292
F0.026287663300080144
s(S'diff-x-pos--107'
p1293
S'action-4'
p1294
tp1295
F9.191991239167336
s(g938
S'action-4'
p1296
tp1297
F4.174649025742762
s(g1073
S'prev-action-1'
p1298
tp1299
F-0.21504341653633813
s(S'diff-x-pos-34'
p1300
S'action-1'
p1301
tp1302
F-1.6600986460432858
s(g542
S'action-1'
p1303
tp1304
F4.1855428992673565
s(g921
S'action-4'
p1305
tp1306
F0.4251103870417888
s(S'diff-x-pos--90'
p1307
S'prev-action-4'
p1308
tp1309
F-0.8591000495542803
s(g843
S'prev-action-1'
p1310
tp1311
F0.5442889551188157
s(S'diff-x-pos-50'
p1312
S'prev-action-1'
p1313
tp1314
F3.007927893931538
s(S'diff-x-pos--121'
p1315
S'prev-action-4'
p1316
tp1317
F0.0023123869734987257
s(g904
S'prev-action-4'
p1318
tp1319
F-1.962997474216054
s(g498
S'prev-action-4'
p1320
tp1321
F0.38247021765548556
s(g892
S'prev-action-3'
p1322
tp1323
F0.8448779132101316
s(S'diff-x-pos--8'
p1324
S'action-4'
p1325
tp1326
F-0.8887106084474281
s(S'diff-x-pos--1'
p1327
S'action-3'
p1328
tp1329
F2.2928437170995957
s(S'diff-x-pos--32'
p1330
S'action-4'
p1331
tp1332
F0.7288857445411386
s(S'diff-x-pos--68'
p1333
S'prev-action-4'
p1334
tp1335
F1.2281388756475664
s(S'diff-x-pos--100'
p1336
S'prev-action-3'
p1337
tp1338
F-0.4596762616134453
s(g800
S'object-1-x-90.0'
p1339
tp1340
F-5.14177589824631
s(S'action-3'
p1341
S'object-1-x-90.0'
p1342
tp1343
F1.034817339943603
s(S'diff-x-pos--91'
p1344
S'action-1'
p1345
tp1346
F-0.8439579697396236
s(S'diff-x-pos-38'
p1347
S'prev-action-4'
p1348
tp1349
F-1.9335578975279524
s(S'diff-x-pos--20'
p1350
S'action-3'
p1351
tp1352
F0.22062080991519364
s(S'diff-x-pos--12'
p1353
S'action-1'
p1354
tp1355
F-0.5308961837375991
s(S'diff-x-pos-39'
p1356
S'action-1'
p1357
tp1358
F1.6660567701952271
s(S'diff-x-pos-0'
p1359
S'action-1'
p1360
tp1361
F2.8809750540118175
s(g223
S'prev-action-4'
p1362
tp1363
F-1.2117749912757154
s(S'action-1'
p1364
S'object-0-x-40.0'
p1365
tp1366
F1.2330032886122049
s(S'diff-x-pos-49'
p1367
S'prev-action-4'
p1368
tp1369
F-1.225737940437547
s(S'diff-x-pos--119'
p1370
S'action-3'
p1371
tp1372
F-1.6066663275675714
s(S'diff-x-pos--114'
p1373
S'action-1'
p1374
tp1375
F-5.819135291277332
s(g277
g922
tp1376
F1.061657608646831
s(S'diff-x-pos--73'
p1377
S'action-1'
p1378
tp1379
F-0.876464816532539
s(S'diff-x-pos-64'
p1380
S'prev-action-4'
p1381
tp1382
F1.6981827640157214
s(S'action-4'
p1383
S'object-0-x-10.0'
p1384
tp1385
F-0.6716215964702564
s(g1341
S'object-0-x-70.0'
p1386
tp1387
F1.0340768046150588
s(S'diff-x-pos--82'
p1388
S'prev-action-1'
p1389
tp1390
F2.8351823795079194
s(g348
S'action-4'
p1391
tp1392
F1.0846932435595007
s(S'diff-x-pos--99'
p1393
S'action-4'
p1394
tp1395
F6.906458298980404
s(S'diff-x-pos-64'
p1396
S'prev-action-3'
p1397
tp1398
F-0.3930103047321083
s(S'diff-x-pos-29'
p1399
S'prev-action-3'
p1400
tp1401
F-1.0053323001946852
s(g819
S'action-4'
p1402
tp1403
F-7.5528606759243315
s(S'diff-x-pos-24'
p1404
S'prev-action-1'
p1405
tp1406
F3.042756994679458
s(g168
S'prev-action-1'
p1407
tp1408
F-2.043738001548985
s(S'diff-x-pos--74'
p1409
S'prev-action-4'
p1410
tp1411
F2.025672407829651
s(S'diff-x-pos--80'
p1412
S'action-3'
p1413
tp1414
F-5.774908956071475
s(S'diff-x-pos--2'
p1415
S'prev-action-3'
p1416
tp1417
F0.4443068814656259
sS'diff-x-pos--115'
p1418
F-2.271633516491221
sS'object-1-x-110.0'
p1419
F-2.8042994227995557
s(g310
S'prev-action-1'
p1420
tp1421
F-0.12058798429148299
s(S'action-1'
p1422
S'object-1-x-100.0'
p1423
tp1424
F0.5014337383456628
s(S'diff-x-pos-53'
p1425
S'action-1'
p1426
tp1427
F0.9674721674059544
s(g861
S'prev-action-4'
p1428
tp1429
F0.41388153041604936
s(g952
S'prev-action-1'
p1430
tp1431
F-3.2413280153208994
s(g713
S'prev-action-1'
p1432
tp1433
F0.7443871622930126
s(S'diff-x-pos--6'
p1434
S'action-3'
p1435
tp1436
F3.07897651271061
sS'object-0-x-80.0'
p1437
F5.662513955187807
s(g1262
S'prev-action-4'
p1438
tp1439
F-0.29942249703678847
s(g941
S'prev-action-3'
p1440
tp1441
F1.8272093327018033
s(S'diff-x-pos--16'
p1442
S'prev-action-1'
p1443
tp1444
F-0.6697324013061761
s(S'diff-x-pos--40'
p1445
S'prev-action-1'
p1446
tp1447
F0.05333946876527046
s(S'diff-x-pos--106'
p1448
S'action-1'
p1449
tp1450
F-0.9557645945374971
s(S'diff-x-pos--76'
p1451
S'action-3'
p1452
tp1453
F-3.8661270629692703
s(g924
S'prev-action-1'
p1454
tp1455
F0.40806295938416737
s(S'diff-x-pos--95'
p1456
S'prev-action-1'
p1457
tp1458
F-0.49697620912913026
sg1315
F-1.3513094260670613
s(g915
S'action-1'
p1459
tp1460
F5.369896712114442
sg567
F-2.1808387463099437
sg753
F-2.817999408601067
s(S'diff-x-pos-12'
p1461
S'prev-action-3'
p1462
tp1463
F2.828576064862866
sS'prev-action-3'
p1464
F28.74740935001176
s(g381
S'action-4'
p1465
tp1466
F-1.2130911756953442
sg1307
F-1.0771949763561892
sg434
F-1.5269782476243066
sg1139
F-1.971240012287005
sS'diff-x-pos--93'
p1467
F-2.031436428025227
sg8
F-3.0447369641746542
sg772
F-2.3503403816283175
sS'diff-x-pos--96'
p1468
F1.6320599556278648
sg429
F-2.5845943101643645
s(g747
S'prev-action-4'
p1469
tp1470
F1.2096930954344494
s(S'diff-x-pos-8'
p1471
S'action-3'
p1472
tp1473
F2.054893308414052
s(g356
S'prev-action-3'
p1474
tp1475
F-0.908192312866398
s(g984
S'prev-action-4'
p1476
tp1477
F-1.0210335893175428
sg1005
F-2.918624597915033
s(S'diff-x-pos--34'
p1478
S'action-4'
p1479
tp1480
F2.412202307840091
s(S'diff-x-pos--105'
p1481
S'action-4'
p1482
tp1483
F9.377057859699779
s(g238
S'prev-action-4'
p1484
tp1485
F1.2329291341244728
s(S'diff-x-pos-16'
p1486
S'prev-action-3'
p1487
tp1488
F2.336703421021581
sg503
F3.4069074918157116
sS'diff-x-pos--24'
p1489
F2.034196017015891
sg20
F0.7026967662101886
sg176
F-0.20223729732535
sg523
F2.4592957126408783
sS'diff-x-pos--20'
p1490
F-1.8066274855819198
sg644
F-2.4114289453603974
sS'diff-x-pos--22'
p1491
F0.1606993719196983
s(S'diff-x-pos--87'
p1492
S'action-3'
p1493
tp1494
F-7.774507661825564
s(S'diff-x-pos--65'
p1495
S'prev-action-1'
p1496
tp1497
F-2.0521361568077006
sg938
F0.5782463875636624
s(S'object-1-dx--1'
p1498
g1341
tp1499
F-6.419204170252173
sS'diff-x-pos-39'
p1500
F3.818482101316482
s(S'diff-x-pos--37'
p1501
S'prev-action-4'
p1502
tp1503
F-2.0888476721724474
s(g692
S'prev-action-1'
p1504
tp1505
F-3.44615732699377
s(S'action-1'
p1506
S'object-0-x-130.0'
p1507
tp1508
F1.385883294242547
sS'diff-x-pos-30'
p1509
F3.2107672375335907
sS'diff-x-pos-31'
p1510
F0.05726165687353901
sg918
F2.206819929218044
sg73
F2.9369470354167717
sS'diff-x-pos-34'
p1511
F3.377899280919994
sg819
F3.2373626780554443
sS'diff-x-pos-36'
p1512
F1.878833266772997
sg85
F2.098438513920601
s(S'diff-x-pos--2'
p1513
S'action-1'
p1514
tp1515
F-0.1444779891413953
s(S'diff-x-pos-42'
p1516
S'action-4'
p1517
tp1518
F-8.126465744987584
s(g135
S'prev-action-4'
p1519
tp1520
F1.943209220403646
s(S'diff-x-pos--20'
p1521
S'prev-action-4'
p1522
tp1523
F-1.5045397757908858
s(S'diff-x-pos--109'
p1524
S'action-1'
p1525
tp1526
F-0.7713476719449534
s(g351
S'prev-action-1'
p1527
tp1528
F-1.1449301620454317
s(g316
S'action-4'
p1529
tp1530
F7.739318013136515
s(S'diff-x-pos-66'
p1531
S'action-3'
p1532
tp1533
F0.6915351854006944
s(S'diff-x-pos-15'
p1534
S'prev-action-3'
p1535
tp1536
F1.4888210825897148
s(g681
g847
tp1537
F-0.5289555409009838
s(S'diff-x-pos--69'
p1538
S'prev-action-4'
p1539
tp1540
F0.878795289796162
s(S'diff-x-pos--8'
p1541
S'prev-action-3'
p1542
tp1543
F0.18568065925197197
s(g355
S'action-3'
p1544
tp1545
F-3.303354584083603
s(g567
S'prev-action-1'
p1546
tp1547
F-2.2282176316790854
s(g644
S'action-1'
p1548
tp1549
F-1.0468274238463495
s(S'diff-x-pos-9'
p1550
S'prev-action-3'
p1551
tp1552
F1.635462377539829
s(g1315
S'action-1'
p1553
tp1554
F2.0413138418400916
s(S'diff-x-pos--18'
p1555
S'prev-action-1'
p1556
tp1557
F1.233152602946059
s(g438
S'action-1'
p1558
tp1559
F1.3793159038813347
s(S'diff-x-pos--115'
p1560
S'action-3'
p1561
tp1562
F-8.881397957390607
s(g766
S'prev-action-3'
p1563
tp1564
F0.8328461185819644
sg605
F1.5077054992983565
s(S'diff-x-pos--104'
p1565
S'action-1'
p1566
tp1567
F-1.612826757907693
sg498
F4.356818881284418
sS'diff-x-pos-44'
p1568
F2.252487267179408
sg766
F0.3439204216456325
s(g73
S'action-4'
p1569
tp1570
F-7.919320117787232
sg1014
F-1.1709495961401064
sg23
F1.0886955424266984
sg509
F2.533059346971296
sg1516
F0.46411108389318734
s(S'diff-x-pos-52'
p1571
S'prev-action-3'
p1572
tp1573
F3.8168102051756834
s(S'diff-x-pos-30'
p1574
S'prev-action-4'
p1575
tp1576
F-1.0371751419725173
s(g165
S'prev-action-4'
p1577
tp1578
F-4.275634129330486
s(S'diff-x-pos--72'
p1579
S'prev-action-3'
p1580
tp1581
F1.3190415129112416
s(S'diff-x-pos--7'
p1582
S'prev-action-3'
p1583
tp1584
F2.442228303278287
s(S'diff-x-pos-54'
p1585
S'action-3'
p1586
tp1587
F11.961567851811813
s(S'diff-x-pos--25'
p1588
S'action-4'
p1589
tp1590
F2.762831301405809
s(g515
S'object-0-x-20.0'
p1591
tp1592
F0.7574013278570053
sS'diff-x-pos--81'
p1593
F-2.7788453063548615
sg268
F2.0483248038346797
s(g718
S'action-1'
p1594
tp1595
F-0.06373343870666875
s(g1123
S'action-1'
p1596
tp1597
F0.3790495898955334
s(S'diff-x-pos-9'
p1598
S'prev-action-4'
p1599
tp1600
F-1.2208632514455064
s(S'diff-x-pos--43'
p1601
S'action-4'
p1602
tp1603
F3.2716047602759395
s(g982
S'action-1'
p1604
tp1605
F-0.03743701677604616
s(S'diff-x-pos--84'
p1606
S'prev-action-3'
p1607
tp1608
F0.33468346525666864
s(S'diff-x-pos-40'
p1609
S'prev-action-3'
p1610
tp1611
F-0.23491832566254298
sS'object-0-y-20.0'
p1612
F24.494788364819787
s(g1568
S'prev-action-3'
p1613
tp1614
F0.5878207988861945
s(S'diff-x-pos--85'
p1615
S'prev-action-4'
p1616
tp1617
F1.1889289998900028
s(g656
S'prev-action-3'
p1618
tp1619
F-0.5935011698993098
s(S'diff-x-pos--101'
p1620
S'action-3'
p1621
tp1622
F-7.691299189086042
s(S'diff-x-pos-21'
p1623
S'prev-action-3'
p1624
tp1625
F1.545711916933688
s(S'diff-x-pos-33'
p1626
S'action-3'
p1627
tp1628
F6.670724253936605
s(g213
S'object-1-x-70.0'
p1629
tp1630
F4.504876759381171
s(S'diff-x-pos--99'
p1631
S'action-3'
p1632
tp1633
F-9.821414199271148
s(S'diff-x-pos--67'
p1634
S'action-4'
p1635
tp1636
F6.203887104930683
s(S'diff-x-pos-18'
p1637
S'action-1'
p1638
tp1639
F1.1801069573495033
s(g1213
S'action-3'
p1640
tp1641
F2.919415733953689
s(g61
S'prev-action-4'
p1642
tp1643
F-0.26134377840389134
s(S'diff-x-pos--39'
p1644
S'action-4'
p1645
tp1646
F0.9974360653039238
s(S'diff-x-pos-40'
p1647
S'action-4'
p1648
tp1649
F-7.905902521145905
s(S'diff-x-pos-54'
p1650
S'action-4'
p1651
tp1652
F-8.36532062387526
s(g1307
S'action-1'
p1653
tp1654
F2.0559171197205806
s(S'diff-x-pos-58'
p1655
S'action-4'
p1656
tp1657
F-3.608238620618213
s(S'diff-x-pos-28'
p1658
S'prev-action-4'
p1659
tp1660
F-1.590069175729898
s(S'diff-x-pos-4'
p1661
S'action-4'
p1662
tp1663
F-3.8008845169705974
s(S'diff-x-pos-23'
p1664
S'prev-action-4'
p1665
tp1666
F0.03059720240490349
s(S'diff-x-pos--75'
p1667
S'prev-action-3'
p1668
tp1669
F0.4568594953210091
s(g1041
S'action-4'
p1670
tp1671
F6.379127320097744
s(g399
S'action-1'
p1672
tp1673
F-0.9358795349320843
s(S'diff-x-pos--26'
p1674
S'prev-action-4'
p1675
tp1676
F1.611916590458226
s(S'diff-x-pos--92'
p1677
S'action-4'
p1678
tp1679
F5.984396042315762
s(S'diff-x-pos--31'
p1680
S'prev-action-1'
p1681
tp1682
F-0.19899613302501862
s(S'diff-x-pos--27'
p1683
S'prev-action-3'
p1684
tp1685
F-0.6970142602034863
s(g623
S'prev-action-3'
p1686
tp1687
F0.9895979770146226
s(S'diff-x-pos--68'
p1688
S'action-4'
p1689
tp1690
F2.6024374942972512
s(S'diff-x-pos-63'
p1691
S'prev-action-1'
p1692
tp1693
F2.9736381533857363
s(g1157
S'prev-action-4'
p1694
tp1695
F1.5648494512456277
s(S'diff-x-pos--118'
p1696
S'prev-action-4'
p1697
tp1698
F0.4793114845713844
s(g605
S'action-3'
p1699
tp1700
F10.553706473211143
s(S'diff-x-pos--60'
p1701
S'prev-action-3'
p1702
tp1703
F2.1307375281094094
s(g968
S'prev-action-3'
p1704
tp1705
F-0.1192374618682551
s(g582
S'action-3'
p1706
tp1707
F9.449019496267704
s(g1139
S'action-1'
p1708
tp1709
F0.7467609154855979
s(S'diff-x-pos--42'
p1710
S'action-4'
p1711
tp1712
F0.9760233037650569
s(g1380
S'action-1'
p1713
tp1714
F1.699665893925939
s(S'diff-x-pos--21'
p1715
S'prev-action-4'
p1716
tp1717
F0.9944315344395803
s(g121
S'action-1'
p1718
tp1719
F1.4870219880964715
s(g764
S'prev-action-1'
p1720
tp1721
F13.883799580197929
s(S'diff-x-pos-37'
p1722
S'action-1'
p1723
tp1724
F-0.49273900717519764
s(S'diff-x-pos-65'
p1725
S'action-1'
p1726
tp1727
F-2.6522415956110423
s(g983
S'prev-action-3'
p1728
tp1729
F-2.111496133606202
s(S'diff-x-pos--69'
p1730
S'action-3'
p1731
tp1732
F-5.963885932462101
s(S'diff-x-pos--49'
p1733
S'prev-action-1'
p1734
tp1735
F-2.3034191489231324
s(g1467
S'prev-action-3'
p1736
tp1737
F-0.7832070578685615
s(S'object-0-dx-1'
p1738
S'prev-action-1'
p1739
tp1740
F1.5101433626902483
s(S'diff-x-pos--22'
p1741
S'action-3'
p1742
tp1743
F1.1371685096308346
s(g831
S'prev-action-4'
p1744
tp1745
F-2.592391527648946
s(g420
S'action-1'
p1746
tp1747
F0.5244082706160582
s(g1644
S'prev-action-1'
p1748
tp1749
F-1.8552732113885155
s(g661
S'prev-action-1'
p1750
tp1751
F0.43369607968180746
sg973
F-1.148648255375618
s(S'diff-x-pos--55'
p1752
S'action-1'
p1753
tp1754
F-1.1453008711125117
s(S'diff-x-pos-4'
p1755
S'prev-action-1'
p1756
tp1757
F1.582857322343822
s(S'diff-x-pos-44'
p1758
S'prev-action-1'
p1759
tp1760
F1.705263684418097
s(S'diff-x-pos--47'
p1761
S'prev-action-3'
p1762
tp1763
F-1.5674246315145113
sS'diff-x-pos--112'
p1764
F1.0646792678384485
sS'diff-x-pos--113'
p1765
F-2.470924672817327
s(S'diff-x-pos--28'
p1766
S'action-1'
p1767
tp1768
F-2.3579354169482882
sg955
F-1.8101224853588989
sS'diff-x-pos--116'
p1769
F-1.6541620497650706
sg1157
F-0.4076486946854986
sg849
F-3.7241123950431145
s(g64
S'prev-action-4'
p1770
tp1771
F-1.977019141316696
sg1151
F-1.6239631104143715
s(g449
S'action-4'
p1772
tp1773
F-4.367230404712721
s(g1495
S'action-4'
p1774
tp1775
F5.9284309823872405
s(S'diff-x-pos--21'
p1776
S'prev-action-3'
p1777
tp1778
F-2.258839097667655
s(S'diff-x-pos--87'
p1779
S'prev-action-4'
p1780
tp1781
F1.0429746735500183
s(g517
S'prev-action-1'
p1782
tp1783
F-0.09661720988328826
s(S'diff-x-pos--5'
p1784
S'action-4'
p1785
tp1786
F-4.822221751493512
s(S'diff-x-pos-43'
p1787
S'action-3'
p1788
tp1789
F11.014699649618441
s(S'diff-x-pos-55'
p1790
S'action-1'
p1791
tp1792
F-1.3471365271887343
s(S'diff-x-pos-45'
p1793
S'prev-action-1'
p1794
tp1795
F0.886828987659146
sS'object-0-dx--1'
p1796
F-0.30585614058241867
s(g1468
S'action-3'
p1797
tp1798
F-7.65674294736177
s(g356
S'action-4'
p1799
tp1800
F2.5191229544097293
s(g1512
S'action-3'
p1801
tp1802
F9.732458200261297
s(g966
S'action-3'
p1803
tp1804
F1.1756641327959154
s(S'diff-x-pos-8'
p1805
S'prev-action-4'
p1806
tp1807
F-3.3866895230310625
sS'object-1-y-10.0'
p1808
F4.477852581701279
s(S'diff-x-pos--92'
p1809
S'prev-action-1'
p1810
tp1811
F0.7729158041796909
s(S'diff-x-pos-30'
p1812
S'action-1'
p1813
tp1814
F-0.3258848976729109
s(S'diff-x-pos-38'
p1815
S'prev-action-1'
p1816
tp1817
F1.5333758073976873
s(S'diff-x-pos--4'
p1818
S'action-3'
p1819
tp1820
F-0.482294305368201
s(S'diff-x-pos--112'
p1821
S'action-1'
p1822
tp1823
F-3.008084781397775
s(S'diff-x-pos-0'
p1824
S'action-4'
p1825
tp1826
F-4.188204085917642
s(S'diff-x-pos--120'
p1827
S'prev-action-3'
p1828
tp1829
F-1.552341337448493
s(S'diff-x-pos--93'
p1830
S'prev-action-1'
p1831
tp1832
F-0.2318876421621715
s(g967
S'action-3'
p1833
tp1834
F2.4466692433427424
s(g849
g1383
tp1835
F11.264944673129666
s(S'diff-x-pos-19'
p1836
S'action-3'
p1837
tp1838
F5.201877520555782
s(S'diff-x-pos-14'
p1839
S'action-1'
p1840
tp1841
F3.1421226404915346
s(g1467
S'action-4'
p1842
tp1843
F9.159721673698487
sg271
F-0.05898080006825468
s(S'diff-x-pos--5'
p1844
S'action-3'
p1845
tp1846
F3.0086537125294432
s(S'diff-x-pos--6'
p1847
S'prev-action-4'
p1848
tp1849
F-1.6086529418006101
s(g453
S'action-3'
p1850
tp1851
F-4.009321566080522
s(S'diff-x-pos--66'
p1852
S'action-1'
p1853
tp1854
F-0.5042172177931299
sS'object-0-dy-1'
p1855
F-0.8616760080332697
s(g976
S'prev-action-4'
p1856
tp1857
F-0.08380891673867596
s(S'diff-x-pos--24'
p1858
S'action-3'
p1859
tp1860
F-0.9773184321762713
s(S'diff-x-pos--85'
p1861
S'prev-action-1'
p1862
tp1863
F0.8271979462209443
s(S'diff-x-pos-35'
p1864
S'action-1'
p1865
tp1866
F1.0278883450846679
s(S'diff-x-pos--97'
p1867
S'prev-action-1'
p1868
tp1869
F-0.6755925859641216
s(S'diff-x-pos--17'
p1870
S'prev-action-4'
p1871
tp1872
F-0.6181511189240644
s(g423
S'prev-action-1'
p1873
tp1874
F0.588775126609461
s(g387
S'prev-action-4'
p1875
tp1876
F-0.2295755360692137
s(S'diff-x-pos-35'
p1877
S'prev-action-3'
p1878
tp1879
F1.283791050841212
s(S'diff-x-pos--77'
p1880
S'prev-action-4'
p1881
tp1882
F0.8214406134289491
s(S'diff-x-pos-46'
p1883
S'action-4'
p1884
tp1885
F-10.673169159461564
s(g1489
S'prev-action-1'
p1886
tp1887
F1.6022724064571512
s(S'diff-x-pos--4'
p1888
S'action-4'
p1889
tp1890
F0.008167902838115748
s(S'diff-x-pos-42'
p1891
S'prev-action-1'
p1892
tp1893
F-1.2000623963509736
s(S'diff-x-pos--116'
p1894
S'prev-action-4'
p1895
tp1896
F-0.4152087262503682
sS'diff-y-pos--9'
p1897
F4.3721750923353655
sS'diff-y-pos--8'
p1898
F7.147036850162385
s(S'diff-x-pos-14'
p1899
S'prev-action-3'
p1900
tp1901
F0.34553415532910825
sS'diff-y-pos--4'
p1902
F0.3296617150770965
sS'diff-y-pos--7'
p1903
F3.8907489301413483
s(S'diff-x-pos-19'
p1904
S'prev-action-1'
p1905
tp1906
F0.383552201853935
sS'diff-y-pos--1'
p1907
F-3.51323164141351
sS'diff-y-pos--3'
p1908
F-0.9424641811434572
sS'diff-y-pos--2'
p1909
F-5.320475825064092
s(g985
S'prev-action-4'
p1910
tp1911
F0.9642056735657121
s(g281
S'prev-action-4'
p1912
tp1913
F-1.3661457120656748
s(S'diff-x-pos--93'
p1914
S'action-3'
p1915
tp1916
F-12.361257206681655
s(S'diff-x-pos-67'
p1917
S'action-1'
p1918
tp1919
F-1.4392359542644653
s(g1827
S'action-1'
p1920
tp1921
F-1.4442779073821164
s(g622
g1341
tp1922
F2.779040616880336
s(S'diff-x-pos--112'
p1923
S'prev-action-3'
p1924
tp1925
F1.1494777322079184
s(S'diff-x-pos--4'
p1926
S'prev-action-1'
p1927
tp1928
F0.015271581200826945
s(S'diff-x-pos--38'
p1929
S'action-3'
p1930
tp1931
F-2.7426183247189133
s(g1347
S'action-3'
p1932
tp1933
F8.233012228178707
s(S'diff-x-pos-57'
p1934
S'action-1'
p1935
tp1936
F3.7413945203631656
sg1492
F-2.1378127113910796
sS'diff-x-pos--86'
p1937
F-2.159856617502044
sg1861
F-0.9907518598119611
sg1606
F0.930798816503216
sS'diff-x-pos--83'
p1938
F-5.293787407574447
sg976
F-1.8185158146793756
sg473
F0.9789016230292875
sg11
F-2.3851298605256215
sg1073
F-1.9331791545414654
sg1083
F-3.9817382235232763
s(S'diff-x-pos--38'
p1939
S'prev-action-3'
p1940
tp1941
F1.1805016181768795
s(S'diff-x-pos-55'
p1942
S'prev-action-3'
p1943
tp1944
F2.459171028477737
s(S'diff-x-pos--116'
p1945
S'prev-action-3'
p1946
tp1947
F0.5332480513065607
s(S'diff-x-pos-3'
p1948
S'prev-action-3'
p1949
tp1950
F1.154863067177133
s(g1512
S'prev-action-4'
p1951
tp1952
F-2.5929698171178712
s(S'diff-x-pos--28'
p1953
S'prev-action-3'
p1954
tp1955
F0.33780011902134577
sg843
F0.5052386447759923
sg778
F3.260284872704691
sg1353
F0.5137595972961944
sg121
F-0.5928589123716121
s(g1769
S'action-4'
p1956
tp1957
F5.945282409106979
s(g206
S'action-3'
p1958
tp1959
F3.5845258326062153
sg921
F2.717550173280656
sg252
F1.0935882082222301
s(g144
S'prev-action-4'
p1960
tp1961
F-1.1984771750126324
sS'diff-x-pos--19'
p1962
F1.105315826589707
s(S'diff-x-pos--55'
p1963
S'prev-action-3'
p1964
tp1965
F-0.6158113314090734
s(S'diff-x-pos-42'
p1966
S'action-1'
p1967
tp1968
F-1.5582961213478232
s(g124
S'prev-action-3'
p1969
tp1970
F1.8471576501620215
s(S'diff-x-pos--22'
p1971
S'prev-action-1'
p1972
tp1973
F-2.5383084287997777
s(g1867
S'action-1'
p1974
tp1975
F1.4064237197772755
s(g1730
S'prev-action-1'
p1976
tp1977
F-0.8132106354026674
s(g983
S'action-1'
p1978
tp1979
F-1.9101693434096862
s(g182
S'action-4'
p1980
tp1981
F1.0185188242892897
s(g617
S'object-0-x-100.0'
p1982
tp1983
F3.464517365730116
s(g629
S'action-1'
p1984
tp1985
F1.124409408067422
s(g967
S'prev-action-3'
p1986
tp1987
F-1.8989463447387194
s(S'diff-x-pos--30'
p1988
S'action-1'
p1989
tp1990
F-0.5169397528504946
s(S'diff-x-pos--71'
p1991
S'prev-action-4'
p1992
tp1993
F0.8503028033673214
s(S'diff-x-pos-47'
p1994
S'prev-action-4'
p1995
tp1996
F-0.5681696418921557
s(S'action-3'
p1997
S'object-1-x-100.0'
p1998
tp1999
F-3.198091842278954
s(g141
S'prev-action-4'
p2000
tp2001
F-1.4478294330151618
s(g1824
S'prev-action-4'
p2002
tp2003
F-0.2591962621051523
s(g1509
S'prev-action-1'
p2004
tp2005
F1.3075635638663352
s(S'diff-x-pos--27'
p2006
S'action-1'
p2007
tp2008
F0.9076065466268859
sg506
F5.976310716275982
sg135
F7.052746451076801
sg650
F3.3979115439612153
sg313
F5.607301042957708
sg26
F2.2868713584817586
sg188
F2.3849454992832597
sg1571
F-0.39220838179127826
sg904
F2.5652814269540682
sg1312
F0.8926915669110129
sS'diff-x-pos-51'
p2009
F2.2630721039826787
s(g1468
S'prev-action-3'
p2010
tp2011
F-0.9833753965707362
s(S'diff-x-pos--94'
p2012
S'action-1'
p2013
tp2014
F0.7261145240808358
s(S'diff-x-pos-45'
p2015
S'action-1'
p2016
tp2017
F1.1934996945026342
s(S'diff-x-pos--73'
p2018
S'action-4'
p2019
tp2020
F5.033107362335785
s(S'diff-x-pos-43'
p2021
S'prev-action-3'
p2022
tp2023
F3.3620040024393365
s(S'diff-x-pos--5'
p2024
S'prev-action-4'
p2025
tp2026
F2.133815988082201
s(g758
S'action-1'
p2027
tp2028
F-0.44148967351503265
sS'object-0-y-10.0'
p2029
F31.803526578855816
s(S'action-4'
p2030
S'object-1-x-90.0'
p2031
tp2032
F5.610386822622873
s(S'diff-x-pos--61'
p2033
S'action-4'
p2034
tp2035
F5.5062868543784305
s(g1571
S'action-1'
p2036
tp2037
F-0.432389290359242
s(g1626
S'prev-action-1'
p2038
tp2039
F0.6593990614007208
s(g1051
g215
tp2040
F4.151814060335926
s(S'diff-x-pos--5'
p2041
S'action-1'
p2042
tp2043
F0.034495597777638054
s(S'diff-x-pos-2'
p2044
S'prev-action-1'
p2045
tp2046
F-2.1048895228103692
s(S'diff-x-pos--39'
p2047
S'action-1'
p2048
tp2049
F0.9465350954105327
s(g520
g1506
tp2050
F-0.47314577815608905
s(S'object-0-dx-1'
p2051
g532
tp2052
F-1.949216316642797
s(S'action-4'
p2053
S'object-0-x-0.0'
p2054
tp2055
F-1.2815479111962143
s(g1585
S'prev-action-4'
p2056
tp2057
F0.9494941121897831
sg174
F-2.974928586681719
s(g85
S'prev-action-1'
p2058
tp2059
F-0.5842962686971245
sg1644
F0.3523796656699033
s(g176
S'prev-action-3'
p2060
tp2061
F-0.3365544046396608
s(g171
S'prev-action-1'
p2062
tp2063
F0.8134308816876188
s(g1715
S'action-4'
p2064
tp2065
F-1.5811753158027302
s(S'diff-x-pos--27'
p2066
S'prev-action-4'
p2067
tp2068
F1.481961117988997
s(g17
S'action-1'
p2069
tp2070
F-0.9808857798207729
s(g1287
S'prev-action-4'
p2071
tp2072
F2.66223921752047
s(S'action-1'
p2073
g627
tp2074
F5.766946299748079
sg376
F2.295687361080225
s(g881
S'action-4'
p2075
tp2076
F1.1627900250136705
s(S'diff-x-pos--94'
p2077
S'prev-action-3'
p2078
tp2079
F1.9200335601210508
s(S'diff-x-pos-48'
p2080
S'prev-action-3'
p2081
tp2082
F0.9327912470073829
s(S'diff-x-pos--104'
p2083
S'prev-action-3'
p2084
tp2085
F0.7996932280013747
s(g1560
S'prev-action-1'
p2086
tp2087
F-2.415592684591095
s(S'diff-x-pos--15'
p2088
S'action-4'
p2089
tp2090
F-3.178118895968886
s(S'action-4'
p2091
g1462
tp2092
F12.704063454449706
s(S'diff-x-pos--56'
p2093
S'prev-action-1'
p2094
tp2095
F0.8402603235942394
s(g129
S'action-1'
p2096
tp2097
F5.437423320951404
s(g1370
S'prev-action-4'
p2098
tp2099
F-1.4894370701170105
s(g438
S'prev-action-3'
p2100
tp2101
F0.8415173370258759
s(S'action-3'
p2102
S'object-0-x-30.0'
p2103
tp2104
F7.78748751574482
sS'diff-x-pos-27'
p2105
F-1.533085573866165
s(S'diff-x-pos--26'
p2106
S'action-4'
p2107
tp2108
F-0.8573305937777546
s(g1598
S'action-1'
p2109
tp2110
F1.9178732960221248
s(S'diff-x-pos--23'
p2111
S'prev-action-3'
p2112
tp2113
F-0.814410356243153
s(g1053
S'action-3'
p2114
tp2115
F-8.716994113207845
s(S'diff-x-pos-65'
p2116
S'action-4'
p2117
tp2118
F0.9705740171421824
sg119
F-3.47791531811012
s(S'diff-x-pos--58'
p2119
S'prev-action-1'
p2120
tp2121
F-0.4798321223332238
s(g350
S'prev-action-4'
p2122
tp2123
F0.49782891660696604
s(g1725
S'prev-action-4'
p2124
tp2125
F-1.268236976063517
s(g1003
S'object-0-x-0.0'
p2126
tp2127
F1.818934112457537
s(g444
g1422
tp2128
F0.32437806971589855
s(S'diff-x-pos-66'
p2129
S'prev-action-1'
p2130
tp2131
F-0.7030108101311101
s(S'diff-x-pos--52'
p2132
S'action-3'
p2133
tp2134
F-5.599827295540711
s(S'diff-x-pos--39'
p2135
S'prev-action-4'
p2136
tp2137
F2.2895202031846162
s(S'diff-x-pos--116'
p2138
S'action-1'
p2139
tp2140
F0.2030335007333368
s(S'diff-x-pos-62'
p2141
S'prev-action-4'
p2142
tp2143
F1.8803221340570486
s(g1524
S'prev-action-3'
p2144
tp2145
F-1.2563859475836296
s(S'diff-x-pos-17'
p2146
S'prev-action-3'
p2147
tp2148
F-0.656044508339388
s(S'diff-x-pos--15'
p2149
S'prev-action-4'
p2150
tp2151
F-1.8135031887493613
s(g1014
S'action-4'
p2152
tp2153
F-9.94223545871072
sg300
F5.112033458593363
s(g1680
S'action-3'
p2154
tp2155
F-3.9504292042668108
s(g223
S'action-3'
p2156
tp2157
F0.1653692930948557
s(S'diff-x-pos--104'
p2158
S'prev-action-4'
p2159
tp2160
F-0.008279106536240241
s(S'diff-x-pos-1'
p2161
S'action-3'
p2162
tp2163
F8.811033098891368
s(S'diff-x-pos-5'
p2164
S'action-4'
p2165
tp2166
F-5.128949063817491
s(g880
S'action-3'
p2167
tp2168
F-5.2954785791905685
s(g472
g224
tp2169
F2.4287791540493573
s(S'diff-x-pos--54'
p2170
S'prev-action-4'
p2171
tp2172
F-0.09962786390803813
s(S'diff-x-pos--3'
p2173
S'action-3'
p2174
tp2175
F4.222202819106804
sg1012
F9.899800171041296
s(S'diff-x-pos--65'
p2176
S'action-3'
p2177
tp2178
F-3.115332658525264
s(g977
S'object-1-x-110.0'
p2179
tp2180
F-6.963214083340654
s(g1492
S'prev-action-1'
p2181
tp2182
F-2.70046746997698
s(S'diff-x-pos--26'
p2183
S'action-3'
p2184
tp2185
F0.59050332991647
s(S'diff-x-pos--35'
p2186
S'prev-action-1'
p2187
tp2188
F-0.47045653519612834
s(S'diff-x-pos--59'
p2189
S'action-1'
p2190
tp2191
F1.5962300937054645
s(S'diff-x-pos-54'
p2192
S'prev-action-3'
p2193
tp2194
F1.7757702737726309
s(g1471
S'prev-action-1'
p2195
tp2196
F1.0058910345984033
s(S'diff-x-pos-24'
p2197
S'action-4'
p2198
tp2199
F-4.320582195737353
s(g79
S'action-3'
p2200
tp2201
F-2.3544934308148884
s(g2044
S'action-1'
p2202
tp2203
F2.09437244122194
s(g1509
S'action-4'
p2204
tp2205
F-5.1160626833042695
s(g1764
S'action-4'
p2206
tp2207
F11.501787783266694
s(S'diff-x-pos-12'
p2208
S'action-1'
p2209
tp2210
F-2.261914650224423
s(S'diff-x-pos-47'
p2211
S'action-3'
p2212
tp2213
F10.87135104307918
s(S'diff-x-pos--41'
p2214
S'action-4'
p2215
tp2216
F-1.1802677289033996
s(S'diff-x-pos--95'
p2217
S'action-3'
p2218
tp2219
F-7.2453252008839195
s(g932
S'action-3'
p2220
tp2221
F-9.660238588434705
s(S'diff-x-pos--76'
p2222
S'prev-action-1'
p2223
tp2224
F-0.49841038845220176
s(g1521
g1364
tp2225
F0.505823920474666
s(S'diff-x-pos--16'
p2226
S'action-3'
p2227
tp2228
F0.5549584788912217
s(S'diff-x-pos-14'
p2229
S'action-4'
p2230
tp2231
F-5.6052082148970594
s(g1422
S'object-0-x-120.0'
p2232
tp2233
F-0.3787163421466485
s(S'diff-x-pos--18'
p2234
S'action-1'
p2235
tp2236
F-1.9953143061468337
s(S'diff-x-pos--6'
p2237
S'prev-action-1'
p2238
tp2239
F2.091439525357304
s(S'diff-x-pos--36'
p2240
S'action-3'
p2241
tp2242
F-0.5744055407996594
s(S'diff-x-pos-53'
p2243
S'prev-action-3'
p2244
tp2245
F4.666636985302069
s(S'diff-x-pos--70'
p2246
S'action-3'
p2247
tp2248
F-7.484658298221742
s(g1489
S'action-4'
p2249
tp2250
F2.036327806303821
s(S'diff-x-pos--34'
p2251
S'prev-action-1'
p2252
tp2253
F-2.712093562070444
s(g545
S'action-3'
p2254
tp2255
F-1.5839844540611074
s(S'diff-x-pos--77'
p2256
S'action-3'
p2257
tp2258
F-5.358802967941073
sS'diff-y-pos--12'
p2259
F1.517945172301717
s(g886
S'action-4'
p2260
tp2261
F-0.9603970209125193
s(S'diff-x-pos--1'
p2262
S'action-4'
p2263
tp2264
F-3.982162964316159
s(g429
S'prev-action-4'
p2265
tp2266
F-2.4079173588620417
s(S'diff-x-pos--17'
p2267
S'action-3'
p2268
tp2269
F-0.6234439530618885
s(S'diff-x-pos-24'
p2270
S'action-3'
p2271
tp2272
F6.244591911557599
s(S'diff-x-pos-29'
p2273
S'action-1'
p2274
tp2275
F0.10281284088527931
s(g1516
S'prev-action-4'
p2276
tp2277
F2.6114175437105485
s(S'diff-x-pos--2'
p2278
S'prev-action-1'
p2279
tp2280
F1.4665402687637357
s(S'diff-x-pos-47'
p2281
S'action-4'
p2282
tp2283
F-10.177912581286902
s(S'diff-x-pos--11'
p2284
S'action-4'
p2285
tp2286
F2.4761299435629547
s(S'object-1-dx--1'
p2287
S'prev-action-3'
p2288
tp2289
F-1.0623292798727129
s(S'diff-x-pos--114'
p2290
S'prev-action-3'
p2291
tp2292
F1.1110277591043625
s(g1300
S'prev-action-4'
p2293
tp2294
F1.6216562395353409
s(S'diff-x-pos-39'
p2295
S'prev-action-3'
p2296
tp2297
F2.1859202972136074
s(g1353
g2288
tp2298
F1.4973708092734428
s(g986
g2030
tp2299
F-2.051140533066054
s(g1490
S'prev-action-1'
p2300
tp2301
F0.18634809105290717
s(S'diff-x-pos--1'
p2302
S'prev-action-1'
p2303
tp2304
F0.2483861749859254
s(S'diff-x-pos--91'
p2305
S'prev-action-3'
p2306
tp2307
F-0.5392156297758113
s(S'diff-x-pos--53'
p2308
S'action-1'
p2309
tp2310
F-0.8284432339112164
s(S'diff-x-pos--45'
p2311
S'prev-action-4'
p2312
tp2313
F-1.0088029151687725
s(g799
S'prev-action-4'
p2314
tp2315
F1.0900436134213374
s(g1251
S'object-0-x-110.0'
p2316
tp2317
F-7.637031473061197
s(g622
S'prev-action-4'
p2318
tp2319
F-0.8833718220959279
s(S'diff-x-pos--10'
p2320
S'action-3'
p2321
tp2322
F-0.08981917651023619
s(g985
S'action-1'
p2323
tp2324
F1.5704781711838194
s(S'diff-x-pos--106'
p2325
S'prev-action-1'
p2326
tp2327
F-1.3582498417214928
s(S'diff-x-pos--40'
p2328
S'action-1'
p2329
tp2330
F-1.445417723104999
s(g1511
S'prev-action-3'
p2331
tp2332
F1.4062394138451593
s(S'diff-x-pos--116'
p2333
S'action-3'
p2334
tp2335
F-7.802477959605389
s(S'diff-x-pos-12'
p2336
S'prev-action-4'
p2337
tp2338
F-0.1034076180748636
s(g1938
g837
tp2339
F-3.6628984975954744
s(g441
S'action-4'
p2340
tp2341
F-4.775759581167715
s(g1500
S'prev-action-4'
p2342
tp2343
F1.016499683913516
sS'object-1-dy-1'
p2344
F-3.3316391625738726
s(S'diff-x-pos--68'
p2345
S'action-1'
p2346
tp2347
F-2.6935998580465683
s(S'diff-x-pos--22'
p2348
S'prev-action-4'
p2349
tp2350
F1.3101456642341232
s(S'diff-x-pos--53'
p2351
S'prev-action-1'
p2352
tp2353
F-4.783902713150211
s(S'diff-x-pos-57'
p2354
S'prev-action-1'
p2355
tp2356
F2.306062770944966
s(g730
S'prev-action-3'
p2357
tp2358
F2.2573334408987655
s(g1852
S'prev-action-4'
p2359
tp2360
F1.0308165821500554
s(g348
S'prev-action-4'
p2361
tp2362
F0.9761046602158105
s(g721
S'action-4'
p2363
tp2364
F7.673995716078653
s(S'diff-x-pos--56'
p2365
S'prev-action-3'
p2366
tp2367
F-0.13994157994257425
s(S'diff-x-pos--14'
p2368
S'prev-action-3'
p2369
tp2370
F-0.16485108842837248
s(S'object-1-dx-1'
p2371
g742
tp2372
F2.1559243372511823
sg79
F1.1976518084316616
s(g1245
S'action-1'
p2373
tp2374
F2.6286300728262426
s(g1239
S'action-1'
p2375
tp2376
F0.37907879440929027
s(g968
S'action-4'
p2377
tp2378
F0.08537189705752249
s(S'diff-x-pos-49'
p2379
S'action-4'
p2380
tp2381
F-7.110567065502389
s(S'diff-x-pos--71'
p2382
S'prev-action-3'
p2383
tp2384
F-1.607566396821793
s(S'diff-x-pos--107'
p2385
S'prev-action-1'
p2386
tp2387
F-0.4285340369200649
s(S'diff-x-pos--64'
p2388
S'action-4'
p2389
tp2390
F6.341976671531707
s(S'diff-x-pos--66'
p2391
S'action-4'
p2392
tp2393
F4.032619095060684
s(S'diff-x-pos-0'
p2394
S'prev-action-1'
p2395
tp2396
F1.7066366917610842
s(S'diff-x-pos--1'
p2397
S'action-1'
p2398
tp2399
F2.3759857715521084
s(S'action-3'
p2400
S'object-0-x-130.0'
p2401
tp2402
F0.4758622826970327
s(S'diff-x-pos-10'
p2403
S'prev-action-1'
p2404
tp2405
F-0.5360541035846247
s(g2105
S'action-1'
p2406
tp2407
F-1.2523461802646862
s(S'diff-x-pos--62'
p2408
S'prev-action-4'
p2409
tp2410
F-2.166935088099883
s(g1281
S'action-3'
p2411
tp2412
F-10.90336868120923
s(S'diff-x-pos--74'
p2413
S'action-1'
p2414
tp2415
F1.6727724936524913
s(S'diff-x-pos--32'
p2416
S'prev-action-4'
p2417
tp2418
F1.7753991671122766
s(g1593
S'prev-action-3'
p2419
tp2420
F-2.7221981032135245
s(S'diff-x-pos-45'
p2421
S'action-4'
p2422
tp2423
F-8.99307383224562
s(g1388
S'action-4'
p2424
tp2425
F6.188974537875719
sg1029
F-1.6071834060617902
sg623
F0.33311230151556964
s(S'diff-x-pos-58'
p2426
S'prev-action-3'
p2427
tp2428
F3.158673077077404
sg915
F5.147651806488335
sS'diff-x-pos-61'
p2429
F2.6204691101621247
sg1115
F6.381721290761061
s(g1171
S'action-3'
p2430
tp2431
F-7.3042636743323675
s(S'diff-x-pos--63'
p2432
S'action-1'
p2433
tp2434
F1.2188625011758438
sg1725
F-1.2744738287541666
sg1380
F1.7933786100915912
s(S'diff-x-pos--90'
p2435
S'action-4'
p2436
tp2437
F6.540630096701212
sS'diff-y-pos--11'
p2438
F-0.1932396850339213
s(S'diff-x-pos-21'
p2439
S'action-3'
p2440
tp2441
F4.477968815175107
s(g1418
S'action-4'
p2442
tp2443
F8.100526804291624
s(g1796
g1252
tp2444
F0.7253077391360886
s(g879
S'action-1'
p2445
tp2446
F-0.5755148516765833
s(S'diff-x-pos--88'
p2447
S'prev-action-1'
p2448
tp2449
F-1.7947721325206505
s(S'diff-x-pos--91'
p2450
S'action-3'
p2451
tp2452
F-8.361908743617533
s(S'diff-x-pos--79'
p2453
S'prev-action-4'
p2454
tp2455
F-1.380301447628152
s(g1861
S'action-1'
p2456
tp2457
F-1.0803435820585459
s(S'diff-x-pos--72'
p2458
S'prev-action-4'
p2459
tp2460
F-1.7967957322561379
s(g986
S'prev-action-4'
p2461
tp2462
F-1.369405610335693
s(S'diff-x-pos--78'
p2463
S'prev-action-3'
p2464
tp2465
F-1.8183096544537742
s(g966
S'prev-action-3'
p2466
tp2467
F-0.5815717746091666
s(g1270
S'action-4'
p2468
tp2469
F4.01272534731399
s(g1601
S'prev-action-3'
p2470
tp2471
F-1.1878082095651306
s(S'diff-x-pos-7'
p2472
S'prev-action-1'
p2473
tp2474
F-1.6462643084930098
s(g1115
S'prev-action-1'
p2475
tp2476
F1.686496200128913
s(S'diff-x-pos-60'
p2477
S'action-1'
p2478
tp2479
F3.7900747793238727
s(S'diff-x-pos-37'
p2480
S'prev-action-4'
p2481
tp2482
F0.2644803172057826
s(S'diff-x-pos--61'
p2483
S'prev-action-1'
p2484
tp2485
F-1.2054997438137034
s(S'diff-x-pos--25'
p2486
S'prev-action-3'
p2487
tp2488
F0.4281476012816602
s(g1937
S'prev-action-3'
p2489
tp2490
F-2.1929653095013926
s(S'diff-x-pos--78'
p2491
S'action-3'
p2492
tp2493
F-7.982991545047027
s(S'diff-x-pos--21'
p2494
S'action-3'
p2495
tp2496
F2.198381463594487
s(g1701
S'action-4'
p2497
tp2498
F4.343974948030533
s(S'diff-x-pos-31'
p2499
S'prev-action-3'
p2500
tp2501
F1.157975799944443
s(S'diff-x-pos--47'
p2502
S'action-3'
p2503
tp2504
F-3.1637488199919206
s(S'object-0-dx--1'
p2505
g1464
tp2506
F0.691718886884682
s(g2458
S'action-4'
p2507
tp2508
F5.881159895448233
s(S'diff-x-pos--118'
p2509
S'action-3'
p2510
tp2511
F-4.383098109035419
s(S'diff-x-pos-13'
p2512
S'prev-action-4'
p2513
tp2514
F-0.7809479808755875
s(S'diff-x-pos--67'
p2515
S'action-3'
p2516
tp2517
F-6.208476846480629
s(g1418
S'prev-action-4'
p2518
tp2519
F1.554197262406722
s(g661
S'action-1'
p2520
tp2521
F-0.3809622503403681
s(g1691
S'action-4'
p2522
tp2523
F-1.9103995719293225
s(S'diff-x-pos-68'
p2524
S'action-4'
p2525
tp2526
F-1.0990784935674598
s(g349
S'action-4'
p2527
tp2528
F2.806059196763061
sg2031
F1.503428264320175
s(g1059
S'prev-action-3'
p2529
tp2530
F-1.7353693559641294
s(S'diff-x-pos--49'
p2531
S'action-1'
p2532
tp2533
F-0.5966948184964576
s(g506
S'action-3'
p2534
tp2535
F6.734221817064079
s(g103
S'action-3'
p2536
tp2537
F-3.443106820283653
s(S'diff-x-pos-56'
p2538
S'action-1'
p2539
tp2540
F-1.9924548310160275
s(S'diff-x-pos-26'
p2541
S'action-1'
p2542
tp2543
F-2.302202019696423
s(S'diff-x-pos-65'
p2544
S'prev-action-1'
p2545
tp2546
F-0.0062368526906497745
sg1629
F2.373899373342029
s(g1593
S'action-3'
p2547
tp2548
F-5.684251297099183
s(g965
S'prev-action-4'
p2549
tp2550
F3.096663498914437
s(g440
S'prev-action-4'
p2551
tp2552
F-2.886554288482273
s(S'diff-x-pos-25'
p2553
S'prev-action-1'
p2554
tp2555
F0.28758063568345804
s(S'diff-x-pos--78'
p2556
S'action-4'
p2557
tp2558
F5.049299523203701
s(S'diff-x-pos--44'
p2559
S'prev-action-3'
p2560
tp2561
F1.5450035578458587
s(S'diff-x-pos--62'
p2562
S'action-4'
p2563
tp2564
F5.456033314714038
s(g1510
S'prev-action-4'
p2565
tp2566
F-1.5975969148297098
s(g244
S'action-1'
p2567
tp2568
F1.507645789264132
s(S'diff-x-pos-59'
p2569
S'action-3'
p2570
tp2571
F9.317220478365636
s(S'diff-x-pos-41'
p2572
S'action-3'
p2573
tp2574
F7.526640382716588
s(S'diff-x-pos--117'
p2575
S'prev-action-3'
p2576
tp2577
F-0.6401295557298738
s(g1511
S'action-4'
p2578
tp2579
F-4.5724154365877965
s(g837
g1419
tp2580
F-2.708547684264611
s(S'diff-x-pos--29'
p2581
S'prev-action-1'
p2582
tp2583
F0.29855562213544273
s(S'diff-x-pos--118'
p2584
S'action-4'
p2585
tp2586
F0.1970355969434916
s(g2575
S'action-4'
p2587
tp2588
F4.636713327115439
s(S'diff-x-pos-5'
p2589
S'action-1'
p2590
tp2591
F-0.6013980725273705
s(g744
S'prev-action-4'
p2592
tp2593
F1.4978071179290178
s(g346
S'prev-action-1'
p2594
tp2595
F-2.5726185350533757
s(g990
S'prev-action-1'
p2596
tp2597
F-1.7529072603575178
s(g1606
S'action-4'
p2598
tp2599
F7.654248069185752
s(g440
S'action-1'
p2600
tp2601
F3.4974600247227583
s(g1765
S'prev-action-4'
p2602
tp2603
F0.7853780825408081
s(g250
S'action-1'
p2604
tp2605
F0.8730288623798991
s(g1667
S'action-3'
p2606
tp2607
F-5.060092881053423
s(g347
g1997
tp2608
F-4.214614435845967
s(g973
S'prev-action-3'
p2609
tp2610
F-1.3090031929261268
sg138
F1.506747397731957
s(g1491
S'prev-action-3'
p2611
tp2612
F1.38886213648536
s(S'diff-x-pos-22'
p2613
S'action-3'
p2614
tp2615
F6.378555259134463
s(S'diff-x-pos-36'
p2616
S'action-4'
p2617
tp2618
F-4.529724176698807
s(g1491
g162
tp2619
F0.3288420176151017
s(S'diff-x-pos--50'
p2620
S'prev-action-1'
p2621
tp2622
F0.09142018833002916
s(S'diff-x-pos--110'
p2623
S'action-1'
p2624
tp2625
F-1.4292122821457616
sS'object-1-y-0.0'
p2626
F2.335248896980967
s(g448
S'prev-action-1'
p2627
tp2628
F0.5981715465952491
s(g1634
S'prev-action-4'
p2629
tp2630
F-0.5322937064635103
s(g2429
S'prev-action-3'
p2631
tp2632
F1.353334664945538
s(g1461
g2091
tp2633
F-5.48666514743865
s(S'diff-x-pos--64'
p2634
S'prev-action-1'
p2635
tp2636
F-2.4451361791496513
s(S'diff-x-pos--101'
p2637
S'prev-action-3'
p2638
tp2639
F-3.491323040154494
s(S'diff-x-pos--89'
p2640
S'prev-action-3'
p2641
tp2642
F0.38002123848621094
s(g100
S'prev-action-3'
p2643
tp2644
F-3.488908109737446
s(g1129
S'action-3'
p2645
tp2646
F-4.624928123114062
s(g1062
S'prev-action-3'
p2647
tp2648
F-1.4297508249877842
s(S'diff-x-pos--87'
p2649
S'action-4'
p2650
tp2651
F6.432539255210566
s(g2365
S'action-4'
p2652
tp2653
F3.817410646014878
s(g443
S'prev-action-4'
p2654
tp2655
F0.8657593725436725
s(S'diff-x-pos--108'
p2656
S'prev-action-1'
p2657
tp2658
F-0.26965912566415984
s(S'diff-x-pos--48'
p2659
S'action-4'
p2660
tp2661
F2.6637243041430234
s(S'diff-x-pos-23'
p2662
S'action-3'
p2663
tp2664
F6.376202268776402
s(g1044
S'prev-action-3'
p2665
tp2666
F1.4959583716084173
s(S'diff-x-pos-3'
p2667
S'prev-action-1'
p2668
tp2669
F2.4155108091977997
s(S'diff-x-pos-67'
p2670
S'action-3'
p2671
tp2672
I1
s(S'diff-x-pos--80'
p2673
S'prev-action-4'
p2674
tp2675
F0.6214583044999522
s(g449
S'prev-action-4'
p2676
tp2677
F-0.787900101708291
s(S'diff-x-pos--40'
p2678
S'prev-action-3'
p2679
tp2680
F0.9594048836657175
s(g233
S'action-3'
p2681
tp2682
F-3.652869494623976
s(g979
S'action-4'
p2683
tp2684
F-8.148973875732654
s(g2453
S'action-1'
p2685
tp2686
F1.3373120411104895
s(S'diff-x-pos--99'
p2687
S'prev-action-1'
p2688
tp2689
F-3.0699904224617547
s(g870
S'prev-action-3'
p2690
tp2691
F1.212852193855086
s(g867
S'action-3'
p2692
tp2693
F0.8308751906637775
s(g2295
S'action-3'
p2694
tp2695
F8.664100230987266
s(g1962
S'prev-action-1'
p2696
tp2697
F-1.2564997003220832
s(g1937
S'action-4'
p2698
tp2699
F7.601730779250782
s(g2246
S'prev-action-3'
p2700
tp2701
F0.3582685760025782
s(S'diff-x-pos--119'
p2702
S'action-1'
p2703
tp2704
F-0.7418586100881939
s(S'diff-x-pos--114'
p2705
S'action-3'
p2706
tp2707
F-9.16992177689545
s(S'diff-x-pos--47'
p2708
S'prev-action-4'
p2709
tp2710
F0.41803931869065547
s(g987
S'action-3'
p2711
tp2712
F-6.812621260988243
s(S'diff-x-pos--121'
p2713
S'prev-action-1'
p2714
tp2715
F-0.5614455114649552
s(S'diff-x-pos--12'
p2716
S'prev-action-4'
p2717
tp2718
F-1.2707829251647136
s(g834
S'action-3'
p2719
tp2720
F-3.5823182927764963
s(S'diff-x-pos--82'
p2721
S'prev-action-3'
p2722
tp2723
F-4.569889277448633
s(g882
S'action-1'
p2724
tp2725
F0.3718257365465947
s(S'diff-x-pos--5'
p2726
S'prev-action-1'
p2727
tp2728
F0.41247818564498984
s(g2673
S'action-1'
p2729
tp2730
F-1.1011345673237987
s(g1917
S'prev-action-4'
p2731
tp2732
F-2.4392359542644653
s(g2256
S'prev-action-3'
p2733
tp2734
F-1.5432562072858578
s(g1490
g1011
tp2735
F-2.5330722159717833
s(g882
S'prev-action-1'
p2736
tp2737
F0.3084260524204868
s(g955
S'action-4'
p2738
tp2739
F10.203359552985521
s(S'diff-x-pos--48'
p2740
S'prev-action-3'
p2741
tp2742
F-2.0797671147828836
s(S'diff-x-pos--12'
p2743
S'action-4'
p2744
tp2745
F0.21378059036999547
s(S'diff-x-pos-53'
p2746
S'action-3'
p2747
tp2748
F9.853040593358594
s(S'diff-x-pos-31'
p2749
S'action-4'
p2750
tp2751
F-5.709514108979627
s(g2379
S'prev-action-1'
p2752
tp2753
F1.1403348709759449
s(S'diff-x-pos--16'
p2754
S'prev-action-3'
p2755
tp2756
F2.5839137697669305
s(g698
S'action-1'
p2757
tp2758
F-0.34899900770938785
s(g772
S'prev-action-3'
p2759
tp2760
F-0.487218460433502
s(g918
S'action-3'
p2761
tp2762
F8.171262611424481
s(S'diff-x-pos-62'
p2763
S'action-3'
p2764
tp2765
F4.582916671944
s(S'object-1-dx-1'
p2766
g565
tp2767
F1.8826130517010817
s(g437
g1720
tp2768
F-1.123315602558221
s(S'diff-x-pos-1'
p2769
S'prev-action-4'
p2770
tp2771
F0.8143895158116823
s(S'diff-x-pos--19'
p2772
S'action-4'
p2773
tp2774
F0.05338835955478832
s(g1026
S'action-4'
p2775
tp2776
F5.522383685072913
s(S'diff-x-pos-16'
p2777
S'action-3'
p2778
tp2779
F6.198750149979563
s(g1764
S'prev-action-4'
p2780
tp2781
F1.1894118408645369
s(g2262
S'prev-action-4'
p2782
tp2783
F-1.1957980366214342
s(g1284
S'action-3'
p2784
tp2785
F-8.257232092292881
s(S'diff-x-pos--111'
p2786
S'prev-action-1'
p2787
tp2788
F-0.2917111745197278
s(S'diff-x-pos--57'
p2789
S'action-1'
p2790
tp2791
F2.2096100536418453
s(g753
S'action-1'
p2792
tp2793
F0.09695649168967384
sS'diff-y-pos--5'
p2794
F-1.432646962827984
s(S'diff-x-pos-36'
p2795
S'prev-action-3'
p2796
tp2797
F1.8732843456821635
s(S'diff-x-pos-24'
p2798
S'prev-action-4'
p2799
tp2800
F-1.3820693721236004
s(g532
S'object-0-x-110.0'
p2801
tp2802
F3.5277301977091553
s(g741
S'action-1'
p2803
tp2804
F-0.04499622668951625
sg1101
F-0.9248674371686239
sg2453
F-1.0241708086802384
s(S'diff-x-pos-67'
p2805
S'prev-action-3'
p2806
tp2807
F0.08209133901603138
sg233
F1.5168225865013918
sg987
F-2.6559787151849843
sg2246
F-2.713323035568315
sg2382
F-0.2205226525004135
sg698
F-1.4780244047504736
s(g2789
S'prev-action-3'
p2808
tp2809
F0.1625389981389087
s(S'diff-x-pos--111'
p2810
S'action-3'
p2811
tp2812
F-8.716811806760274
sg1667
F0.8259113789188827
s(S'diff-x-pos--108'
p2813
S'action-1'
p2814
tp2815
F3.0855903968075284
s(g441
S'prev-action-1'
p2816
tp2817
F-1.0185424495490396
s(g347
S'prev-action-4'
p2818
tp2819
F-2.503833632219574
s(S'action-1'
p2820
g1437
tp2821
F4.149577118636967
s(S'diff-x-pos-62'
p2822
S'prev-action-1'
p2823
tp2824
F1.8134862533599738
s(S'diff-x-pos-32'
p2825
S'prev-action-1'
p2826
tp2827
F2.4044744218436946
s(g704
S'action-1'
p2828
tp2829
F-0.7958443047760733
s(g852
S'prev-action-4'
p2830
tp2831
F-1.716594721988772
s(S'diff-x-pos--54'
p2832
S'action-4'
p2833
tp2834
F0.45232054767935115
s(g880
S'prev-action-3'
p2835
tp2836
F-2.664442267818539
sg36
F6.2446713720532685
s(S'diff-x-pos-32'
p2837
S'action-4'
p2838
tp2839
F-6.528712918204542
s(g683
S'action-1'
p2840
tp2841
F-1.1036232652381934
s(g602
S'prev-action-4'
p2842
tp2843
F-1.1770823792190739
s(S'diff-x-pos-20'
p2844
S'action-4'
p2845
tp2846
F-5.289544551340745
s(g825
S'action-4'
p2847
tp2848
F-7.925652572287065
s(S'diff-x-pos-69'
p2849
S'prev-action-4'
p2850
tp2851
F-1.6322739989759896
s(S'diff-x-pos--110'
p2852
S'prev-action-1'
p2853
tp2854
F-1.9030296546071743
s(g1200
S'prev-action-3'
p2855
tp2856
F0.32134338230219905
s(S'diff-x-pos--29'
p2857
S'action-4'
p2858
tp2859
F-0.6965800532574387
s(S'diff-x-pos--74'
p2860
S'action-4'
p2861
tp2862
F6.974649592254807
s(g444
S'prev-action-1'
p2863
tp2864
F0.8383620379804249
sS'diff-y-pos--6'
p2865
F5.179968762260004
s(g191
S'action-3'
p2866
tp2867
F-10.622157889363812
s(g2721
S'action-1'
p2868
tp2869
F-0.062015771502058836
s(g647
S'action-1'
p2870
tp2871
F-1.8485711634752524
s(S'diff-x-pos--23'
p2872
S'action-3'
p2873
tp2874
F-2.3831203458033503
s(S'diff-x-pos--103'
p2875
S'prev-action-1'
p2876
tp2877
F-0.8843162344705635
s(S'diff-x-pos--121'
p2878
S'action-3'
p2879
tp2880
F-1.8472177665263552
s(g1765
S'action-4'
p2881
tp2882
F5.903952511380623
s(g469
S'prev-action-3'
p2883
tp2884
F-3.006878805922914
s(S'diff-x-pos-13'
p2885
S'action-3'
p2886
tp2887
F3.1402854958380426
s(S'diff-x-pos--73'
p2888
S'prev-action-1'
p2889
tp2890
F-0.4927370342826224
s(g1391
g258
tp2891
F4.822682249404169
s(g2749
S'prev-action-1'
p2892
tp2893
F0.49688277175880624
s(g277
g1305
tp2894
F0.2584624917454186
sg2379
F1.7418062632402034
s(g614
S'action-1'
p2895
tp2896
F-1.4907623633922384
s(S'diff-x-pos-5'
p2897
S'prev-action-1'
p2898
tp2899
F-0.524936237939962
s(S'diff-x-pos--94'
p2900
S'prev-action-4'
p2901
tp2902
F-1.7563887104365377
s(g1847
S'action-1'
p2903
tp2904
F-0.9267573327207685
s(S'diff-x-pos--104'
p2905
S'action-3'
p2906
tp2907
F-9.470192048251336
s(S'diff-x-pos--70'
p2908
S'action-1'
p2909
tp2910
F-0.6925651711464065
s(S'diff-x-pos--88'
p2911
S'prev-action-4'
p2912
tp2913
F-1.0695468276548954
sS'object-0-dy--1'
p2914
F1.9905853715712656
s(g1962
g209
tp2915
F1.493417140549922
s(S'diff-x-pos-41'
p2916
S'prev-action-3'
p2917
tp2918
F-0.30009756229032747
s(S'diff-x-pos-59'
p2919
S'prev-action-3'
p2920
tp2921
F0.8028864471958584
s(g132
S'action-4'
p2922
tp2923
F9.496209344844036
s(S'diff-x-pos--79'
p2924
S'prev-action-3'
p2925
tp2926
F2.2120882234742467
s(g2009
S'prev-action-4'
p2927
tp2928
F-0.17525684169914865
s(g585
S'action-3'
p2929
tp2930
F-3.352091536527043
s(S'diff-x-pos--78'
p2931
S'prev-action-4'
p2932
tp2933
F0.6853470123265751
s(S'diff-x-pos-66'
p2934
S'action-4'
p2935
tp2936
F-0.7719000472580562
s(S'diff-x-pos-15'
p2937
S'action-4'
p2938
tp2939
F-4.394148164706667
s(g727
S'prev-action-4'
p2940
tp2941
F0.528666650659021
s(g805
S'action-1'
p2942
tp2943
F1.0442242230540497
s(g1136
S'prev-action-3'
p2944
tp2945
F-1.7097501258845513
s(g873
S'prev-action-4'
p2946
tp2947
F-2.60527148294707
s(g2713
S'action-4'
p2948
tp2949
F-1.545405501380798
s(g1312
S'action-1'
p2950
tp2951
F1.2464396299817708
sg2126
F14.574574305530499
s(S'diff-x-pos--84'
p2952
S'prev-action-1'
p2953
tp2954
F-0.998073762028768
s(g1354
S'object-0-x-70.0'
p2955
tp2956
F3.0866427289455727
s(S'diff-x-pos--29'
p2957
S'prev-action-4'
p2958
tp2959
F-2.4380867385039746
s(S'diff-x-pos--94'
p2960
S'action-4'
p2961
tp2962
F9.623789908172508
s(g2429
S'action-1'
p2963
tp2964
F2.2124200610941047
s(S'action-3'
p2965
S'object-0-x-60.0'
p2966
tp2967
F-0.18865269280472569
s(S'diff-x-pos--9'
p2968
S'prev-action-4'
p2969
tp2970
F-0.2777803123453447
s(g678
S'action-3'
p2971
tp2972
F5.667982068865572
s(S'diff-x-pos--50'
p2973
S'action-3'
p2974
tp2975
F-5.141332956652657
s(S'action-4'
p2976
g390
tp2977
F7.221455725690994
s(g1222
S'action-1'
p2978
tp2979
F1.2170945771356623
s(S'diff-x-pos--25'
p2980
S'action-3'
p2981
tp2982
F-0.161367547580732
s(S'diff-x-pos--66'
p2983
S'prev-action-1'
p2984
tp2985
F-0.6182446152264983
s(g2873
S'object-0-x-50.0'
p2986
tp2987
F5.911342686415061
s(g650
S'action-4'
p2988
tp2989
F-7.654890443972302
s(S'diff-x-pos--75'
p2990
S'prev-action-1'
p2991
tp2992
F-2.5559016698574224
s(S'diff-x-pos--43'
p2993
S'action-3'
p2994
tp2995
F-8.09278392568703
s(S'diff-x-pos-11'
p2996
S'prev-action-3'
p2997
tp2998
F-0.016326142151743328
s(g2524
S'prev-action-1'
p2999
tp3000
F-1.656485675499053
s(g778
S'action-1'
p3001
tp3002
F-1.477014701445828
s(g2030
g327
tp3003
F1.3997264399663583
s(g686
S'prev-action-4'
p3004
tp3005
F-2.6532802080813918
s(S'diff-x-pos--42'
p3006
S'prev-action-1'
p3007
tp3008
F-1.112999352481019
s(S'diff-x-pos--117'
p3009
S'action-1'
p3010
tp3011
F1.5089308442064926
s(S'diff-x-pos--71'
p3012
g2053
tp3013
F5.283350186361679
s(g448
S'action-4'
p3014
tp3015
F-5.36199326456902
s(g442
S'action-4'
p3016
tp3017
F-2.5817373361748825
s(S'diff-x-pos--92'
p3018
S'action-3'
p3019
tp3020
F-8.702396970088335
s(g2769
S'action-4'
p3021
tp3022
F-5.821267306522564
s(S'action-3'
p3023
g1464
tp3024
F3.5629422094151293
s(S'diff-x-pos--103'
p3025
S'action-4'
p3026
tp3027
F7.843657532514943
s(g2544
g2400
tp3028
F0.40719374971469335
s(g445
S'prev-action-3'
p3029
tp3030
F3.010146693175565
s(S'diff-x-pos-56'
p3031
S'prev-action-3'
p3032
tp3033
F2.206001446885225
s(g2662
S'prev-action-1'
p3034
tp3035
F3.563250973138328
s(S'diff-x-pos--69'
p3036
S'action-1'
p3037
tp3038
F-2.099786209519738
s(S'diff-x-pos--46'
p3039
S'prev-action-1'
p3040
tp3041
F-0.9825658148598702
s(g632
S'prev-action-3'
p3042
tp3043
F-1.7205370723517195
sg1245
F2.3893387793618337
s(g1971
S'action-1'
p3044
tp3045
F-1.3053111553262173
s(S'diff-x-pos--37'
p3046
S'action-3'
p3047
tp3048
F-2.9363808350057075
s(g1796
g1251
tp3049
F0.029587458808345513
s(g2600
S'object-1-x-60.0'
p3050
tp3051
F3.6751188280009157
s(g2403
S'action-1'
p3052
tp3053
F-0.29598373199094474
s(g2088
S'prev-action-3'
p3054
tp3055
F1.2010703937724485
s(S'diff-x-pos--67'
p3056
S'prev-action-1'
p3057
tp3058
F-0.9106525711256435
s(S'diff-x-pos--55'
p3059
S'action-3'
p3060
tp3061
F-4.332262950171028
s(g1086
S'prev-action-4'
p3062
tp3063
F1.8865395925310706
s(S'diff-x-pos--118'
p3064
S'prev-action-1'
p3065
tp3066
F-0.8953381972718977
s(g969
S'action-4'
p3067
tp3068
F4.328877164483814
s(S'diff-x-pos-48'
p3069
S'action-4'
p3070
tp3071
F-8.879102243519906
s(g949
S'prev-action-4'
p3072
tp3073
F-0.8265657863284595
s(S'object-0-dx--1'
p3074
g375
tp3075
F-0.36173126269081934
s(g881
S'prev-action-1'
p3076
tp3077
F-1.5826340113291235
s(S'diff-x-pos--107'
p3078
S'action-1'
p3079
tp3080
F0.15510451598536507
s(g2382
S'action-3'
p3081
tp3082
F-3.2678740644339443
s(S'diff-x-pos--28'
p3083
g296
tp3084
F-1.2384672212308159
s(g1988
S'prev-action-4'
p3085
tp3086
F-0.027035278558735
sg1270
F1.434765504120742
sg747
F-1.187535319130088
s(g1510
S'action-1'
p3087
tp3088
F-1.3101728210878554
s(g523
S'prev-action-1'
p3089
tp3090
F3.7237032758689326
s(S'diff-x-pos-1'
p3091
S'action-1'
p3092
tp3093
F2.6442237890317886
s(S'diff-x-pos-29'
p3094
S'prev-action-4'
p3095
tp3096
F1.239060622030654
s(g1354
g1076
tp3097
F2.8702553495413645
s(S'action-3'
p3098
S'object-0-x-120.0'
p3099
tp3100
F-7.970342914598046
s(g2813
S'prev-action-4'
p3101
tp3102
F-0.39438210258747464
s(g106
S'prev-action-4'
p3103
tp3104
F-1.3164024772701461
sg907
F9.71197974912756
s(S'diff-x-pos-7'
p3105
S'action-3'
p3106
tp3107
F5.722047334422509
s(S'diff-x-pos-64'
p3108
S'prev-action-1'
p3109
tp3110
F0.4882061508079778
s(S'diff-x-pos--32'
p3111
S'action-1'
p3112
tp3113
F-0.8177486683419104
s(S'diff-x-pos--68'
p3114
S'prev-action-1'
p3115
tp3116
F-2.918631471051783
s(S'diff-x-pos--60'
p3117
S'action-3'
p3118
tp3119
F-3.2576398413462186
s(g2009
S'action-3'
p3120
tp3121
F11.874763968681885
s(g434
S'action-4'
p3122
tp3123
F7.678888465732842
sg858
F-0.7998719518355104
s(g1500
S'action-4'
p3124
tp3125
F-6.51167489986601
s(g1784
S'prev-action-3'
p3126
tp3127
F-4.32536661491361
sg575
F10.374722362264887
s(S'diff-x-pos-3'
p3128
S'action-1'
p3129
tp3130
F0.8865600060085985
s(S'diff-x-pos--88'
p3131
S'action-3'
p3132
tp3133
F-7.246713837213757
s(S'diff-x-pos--120'
p3134
S'prev-action-1'
p3135
tp3136
F-0.7002050427358502
s(g2908
S'prev-action-4'
p3137
tp3138
F-1.6730758070294094
s(S'diff-x-pos-44'
p3139
S'prev-action-4'
p3140
tp3141
F-0.04059721612489753
s(S'diff-x-pos--60'
p3142
S'prev-action-1'
p3143
tp3144
F-1.5825278075130795
s(S'diff-x-pos-34'
p3145
S'action-3'
p3146
tp3147
F9.610413363551075
s(S'diff-x-pos-19'
p3148
S'action-1'
p3149
tp3150
F-0.7183203730828428
s(g3108
S'action-3'
p3151
tp3152
F1.9590953530167878
sg2103
F10.779051253391353
s(g443
S'action-3'
p3153
tp3154
F4.084488348460508
s(g328
S'prev-action-3'
p3155
tp3156
F-0.34551867859710694
s(g514
S'prev-action-3'
p3157
tp3158
F2.0366434185277753
s(S'diff-x-pos--45'
p3159
S'action-4'
p3160
tp3161
F2.7968756584846495
s(g3091
S'prev-action-3'
p3162
tp3163
F1.6414410791434784
s(g1877
S'action-3'
p3164
tp3165
F9.762335008895118
sg472
F23.04616082275349
sg375
F31.47247732117894
sg1251
F30.156109548025476
s(g1870
S'action-4'
p3166
tp3167
F0.4991495273934078
s(g2860
S'prev-action-3'
p3168
tp3169
F1.3936751650286132
s(g1281
S'prev-action-1'
p3170
tp3171
F-1.4400373365700003
sS'object-1-y-20.0'
p3172
F-1.7550103977981624
s(g2105
S'prev-action-3'
p3173
tp3174
F0.7359840981838239
s(g1858
S'prev-action-3'
p3175
tp3176
F-1.4878790147419982
s(S'diff-x-pos--60'
p3177
S'action-1'
p3178
tp3179
F-0.1484490844280708
sS'diff-y-pos--10'
p3180
F-0.5226008491893777
sg2256
F-0.8424035781483962
s(S'diff-x-pos-0'
p3181
S'action-3'
p3182
tp3183
F4.574434846080345
s(g409
S'prev-action-4'
p3184
tp3185
F-1.1751477247085607
sg2860
F4.008122699467729
s(g2640
S'action-1'
p3186
tp3187
F-2.7114875165907253
s(g2237
S'action-4'
p3188
tp3189
F-2.1977350013449533
s(g1568
S'action-3'
p3190
tp3191
F11.928552528643305
s(S'diff-x-pos--93'
p3192
S'prev-action-4'
p3193
tp3194
F-1.0163417279945028
s(S'diff-x-pos--33'
p3195
S'action-4'
p3196
tp3197
F0.1767272764089105
s(g2325
S'action-4'
p3198
tp3199
F9.053504452231593
s(g1758
S'action-1'
p3200
tp3201
F-1.2561865694589465
s(g764
S'object-1-x-60.0'
p3202
tp3203
F-0.6358575241471985
s(g1830
S'action-1'
p3204
tp3205
F1.1700991049579352
s(g2822
S'action-4'
p3206
tp3207
F-4.805161577570102
s(S'action-4'
p3208
S'object-0-x-80.0'
p3209
tp3210
F2.7138559143090504
s(g912
S'action-1'
p3211
tp3212
F-0.010833894347694883
s(g350
S'action-4'
p3213
tp3214
F3.049645123378586
s(S'diff-x-pos--14'
p3215
S'action-1'
p3216
tp3217
F-1.3394465462261675
s(S'diff-x-pos--112'
p3218
S'prev-action-1'
p3219
tp3220
F-1.2742103052340081
s(S'diff-x-pos--4'
p3221
S'prev-action-3'
p3222
tp3223
F1.1406009431654558
s(g268
S'action-1'
p3224
tp3225
F0.0016225961664537714
s(g979
S'prev-action-1'
p3226
tp3227
F0.6078637562969881
s(S'diff-x-pos--119'
p3228
S'prev-action-1'
p3229
tp3230
F-0.39365393547510075
s(S'diff-x-pos-57'
p3231
S'action-3'
p3232
tp3233
F10.44508099037779
s(g982
S'prev-action-3'
p3234
tp3235
F0.22588507648833778
s(g1805
g35
tp3236
F-3.090127483174657
s(S'diff-x-pos--17'
p3237
S'prev-action-3'
p3238
tp3239
F0.8417180924559591
sg1847
F-0.0455158213550817
sg61
F1.2674164513388513
s(g549
S'object-0-x-100.0'
p3240
tp3241
F-3.3320534480845945
sg1784
F-1.7790724411864138
sg387
F1.6812716141601323
sg212
F-0.8462163912556182
s(g304
S'prev-action-4'
p3242
tp3243
F1.9198026253007308
sg2262
F0.6866665243355506
s(g188
S'prev-action-1'
p3244
tp3245
F-1.3071546633189512
s(g858
S'action-4'
p3246
tp3247
F1.5486529858202545
s(g1938
S'prev-action-3'
p3248
tp3249
F-0.8773116675450466
sg681
F-1.7778281982871607
sg100
F-3.4233234553439438
sg364
F-4.938591919447868
s(S'diff-x-pos--36'
p3250
S'prev-action-3'
p3251
tp3252
F-1.4159510163955498
s(g1769
S'prev-action-1'
p3253
tp3254
F-1.7722013748212628
sg64
F-0.3259227535567295
sg1701
F0.9378860222562388
sg514
F1.3795495259739674
s(g2176
S'prev-action-4'
p3255
tp3256
F1.744231687319647
sg2176
F1.4633712994848964
sg949
F0.22236147012547552
sg1222
F1.2125048355856947
sg2983
F-0.8546411644240681
s(g2844
S'prev-action-3'
p3257
tp3258
F1.182551097792965
s(S'diff-x-pos--41'
p3259
S'prev-action-4'
p3260
tp3261
F0.6933365211403157
s(g150
S'action-1'
p3262
tp3263
F-1.1915729531217485
s(g2983
g1089
tp3264
F-4.383043041691651
s(g2968
S'action-1'
p3265
tp3266
F-0.7832472418517265
s(S'diff-x-pos--11'
p3267
S'prev-action-4'
p3268
tp3269
F5.005556046922852
s(S'diff-x-pos--63'
p3270
S'prev-action-4'
p3271
tp3272
F-1.227705895525118
s(g2937
S'prev-action-4'
p3273
tp3274
F0.20915973236578878
s(S'diff-x-pos--59'
p3275
S'prev-action-1'
p3276
tp3277
F-0.7947325909301912
sg1805
F-1.0802304014501107
sg564
F0.5878833510186001
s(g1005
S'prev-action-3'
p3278
tp3279
F-0.7790934815464946
sg1824
F3.267205814174491
sg2769
F5.633989581400594
sg2044
F0.9117764549085781
sg165
F-0.7052602529555536
sg206
F-1.4079316374861088
sg2164
F0.7916440178105346
sg1044
F2.623311956355484
sg727
F1.2337368586962132
sg407
F9.512746485162223
s(S'diff-x-pos-13'
p3280
S'action-4'
p3281
tp3282
F-5.257992898006661
s(S'diff-x-pos--65'
p3283
S'prev-action-3'
p3284
tp3285
F1.7712757689729597
s(g2287
g1354
tp3286
F3.5102480606932436
s(g2810
S'prev-action-3'
p3287
tp3288
F-1.4650243485085606
s(S'diff-x-pos--30'
p3289
S'action-3'
p3290
tp3291
F-0.910535952969836
s(g2164
S'prev-action-4'
p3292
tp3293
F1.8714614056026442
s(g608
S'action-4'
p3294
tp3295
F10.399523611668457
s(g969
S'prev-action-3'
p3296
tp3297
F-1.162167767272407
s(S'diff-x-pos--2'
p3298
S'action-3'
p3299
tp3300
F5.84993821794534
s(S'diff-x-pos-49'
p3301
S'action-3'
p3302
tp3303
F10.552238923075793
s(g399
S'prev-action-4'
p3304
tp3305
F-0.9358795349320843
s(g1287
S'action-3'
p3306
tp3307
F-10.066367751131098
s(S'diff-x-pos--27'
p3308
S'action-3'
p3309
tp3310
F-1.288657542293882
s(S'diff-x-pos-50'
p3311
S'action-4'
p3312
tp3313
F-9.834908376169235
s(g2795
S'action-1'
p3314
tp3315
F-3.3239007567894907
s(g965
S'action-1'
p3316
tp3317
F2.3037788227517524
s(g138
S'prev-action-1'
p3318
tp3319
F0.28319369149332063
s(S'diff-x-pos-23'
p3320
S'action-4'
p3321
tp3322
F-2.983680883429705
s(g1658
S'action-4'
p3323
tp3324
F-4.634887344991543
s(S'diff-x-pos--98'
p3325
S'prev-action-3'
p3326
tp3327
F0.16745679101583666
s(g2186
S'action-4'
p3328
tp3329
F1.5430352743791322
s(g564
S'prev-action-1'
p3330
tp3331
F0.17328422492425521
s(S'diff-x-pos--18'
p3332
S'prev-action-3'
p3333
tp3334
F-0.886756149413843
s(g2598
S'object-1-x-110.0'
p3335
tp3336
F6.867462344805625
stp3337
Rp3338
.