ccollections
Counter
p0
((dp1
(S'diff-x-pos--89'
p2
S'action-4'
p3
tp4
cnumpy.core.multiarray
scalar
p5
(cnumpy
dtype
p6
(S'f8'
p7
I0
I1
tp8
Rp9
(I3
S'<'
p10
NNNI-1
I-1
I0
tp11
bS'\x88>q3\x94KW\xbf'
p12
tp13
Rp14
s(S'action-1'
p15
S'object-1-x-60'
p16
tp17
g5
(g9
S'\xd8\x9c\xc8\xbd\xe6=\x9c?'
p18
tp19
Rp20
s(S'diff-x-pos-47'
p21
S'prev-action-1'
p22
tp23
g5
(g9
S'\xa5\xa9_\xbfk\xaa\x90?'
p24
tp25
Rp26
s(S'action-4'
p27
S'object-1-x-100'
p28
tp29
g5
(g9
S"'H\t1\xc4f\x97\xbf"
p30
tp31
Rp32
s(S'diff-x-pos--94'
p33
S'action-3'
p34
tp35
g5
(g9
S'\xbf? \x03\xa0\xf9\x82?'
p36
tp37
Rp38
s(S'diff-x-pos--80'
p39
S'action-4'
p40
tp41
g5
(g9
S"'=\x0eFaMu\xbf"
p42
tp43
Rp44
s(S'action-3'
p45
S'object-0-x-44'
p46
tp47
g5
(g9
S'\xe8\xe6\xf8\x99\x0e\x94\xb9?'
p48
tp49
Rp50
s(S'diff-x-pos-2'
p51
S'prev-action-3'
p52
tp53
g5
(g9
S'\x9d\xa22\xafB\x1fK?'
p54
tp55
Rp56
s(S'diff-x-pos--7'
p57
S'prev-action-1'
p58
tp59
g5
(g9
S'\x08\xcd\rI\xe4"\x80?'
p60
tp61
Rp62
s(S'diff-x-pos--27'
p63
S'action-4'
p64
tp65
g5
(g9
S'\xec/P9\xfa\xfcP\xbf'
p66
tp67
Rp68
s(S'diff-x-pos-40'
p69
S'action-3'
p70
tp71
g5
(g9
S'\xed\xb99\xb5\n\xbf\x8e?'
p72
tp73
Rp74
s(S'diff-x-pos-54'
p75
S'action-1'
p76
tp77
g5
(g9
S'\xc5\xb5*\xa0\x02=\x8e?'
p78
tp79
Rp80
s(S'diff-x-pos--43'
p81
S'prev-action-4'
p82
tp83
g5
(g9
S'\xd0\xce\rS{\xa9\x8e\xbf'
p84
tp85
Rp86
s(S'diff-x-pos--96'
p87
S'prev-action-4'
p88
tp89
g5
(g9
S'\x93\x9f\xc6\xefw\x98}?'
p90
tp91
Rp92
s(S'action-3'
p93
S'object-0-x-92'
p94
tp95
g5
(g9
S'\xc9\xae\x07\x95\xac&\xb8?'
p96
tp97
Rp98
s(S'action-3'
p99
S'object-0-x-64'
p100
tp101
g5
(g9
S'`\xdf\x80\xdd\x17\x15\xc1?'
p102
tp103
Rp104
sS'object-1-x-116'
p105
g5
(g9
S'\xda\xfc\xcf-aP\x9d\xbf'
p106
tp107
Rp108
sS'object-1-x-112'
p109
g5
(g9
S'\xc9r\x91e\x86\xe6\x8d\xbf'
p110
tp111
Rp112
s(S'diff-x-pos--35'
p113
S'action-3'
p114
tp115
g5
(g9
S'\xd4S\x13\xdf_O\x8a\xbf'
p116
tp117
Rp118
s(S'diff-x-pos--25'
p119
S'prev-action-4'
p120
tp121
g5
(g9
S'\xcd\x1a\xe1F\x7f\xf5\x94\xbf'
p122
tp123
Rp124
s(S'diff-x-pos--75'
p125
S'prev-action-4'
p126
tp127
g5
(g9
S'\xe9L?\xfdY(\x8b\xbf'
p128
tp129
Rp130
s(S'diff-x-pos-43'
p131
S'prev-action-4'
p132
tp133
g5
(g9
S'\xb9D\x969\x8f\x1ee?'
p134
tp135
Rp136
s(S'diff-x-pos--26'
p137
S'prev-action-1'
p138
tp139
g5
(g9
S'5\xff\xa0\x03H\x0f\x81?'
p140
tp141
Rp142
s(S'diff-x-pos--9'
p143
S'action-3'
p144
tp145
g5
(g9
S'\x112\x03C\xb97\x89\xbf'
p146
tp147
Rp148
sg46
g5
(g9
S'@\xfc\xb6fj\xd0\xd3?'
p149
tp150
Rp151
s(S'diff-x-pos-40'
p152
S'prev-action-1'
p153
tp154
g5
(g9
S'\xde\x94eTU\xb9\x86?'
p155
tp156
Rp157
sS'object-0-x-48'
p158
g5
(g9
S'K\xc8\x90\xd7\xe1\x00\xd5?'
p159
tp160
Rp161
s(S'diff-x-pos--7'
p162
S'action-3'
p163
tp164
g5
(g9
S']D\xbf\xf8\x88|l\xbf'
p165
tp166
Rp167
s(S'diff-x-pos--61'
p168
S'action-3'
p169
tp170
g5
(g9
S'\xfcet(\xe2\xa0\x8e\xbf'
p171
tp172
Rp173
s(S'action-3'
p174
S'object-1-x-92'
p175
tp176
g5
(g9
S'\x84\xdbGS\x96~V?'
p177
tp178
Rp179
s(S'diff-x-pos-51'
p180
S'action-1'
p181
tp182
g5
(g9
S'V\xbbq\x16\xfb\xc6\x94?'
p183
tp184
Rp185
s(S'diff-x-pos-21'
p186
S'prev-action-1'
p187
tp188
g5
(g9
S'!s\xf5\x16_/\x8d?'
p189
tp190
Rp191
s(S'diff-x-pos-33'
p192
S'prev-action-4'
p193
tp194
g5
(g9
S'\xbeNg%B\xa2\x15?'
p195
tp196
Rp197
s(S'diff-x-pos--79'
p198
S'action-3'
p199
tp200
g5
(g9
S'\xd6K\x18\x85\xaf6\x8d\xbf'
p201
tp202
Rp203
s(S'diff-x-pos--62'
p204
S'prev-action-3'
p205
tp206
g5
(g9
S'\xa5\x90\xa4j\xe3\xc4\xc4\xbf'
p207
tp208
Rp209
s(S'action-4'
p210
S'object-0-x-8'
p211
tp212
g5
(g9
S'\x92\xa1n\xfb \x9f\xc3?'
p213
tp214
Rp215
s(S'diff-x-pos--110'
p216
S'prev-action-1'
p217
tp218
g5
(g9
S'B\x9d\x81x\x7f\xad\x88?'
p219
tp220
Rp221
sS'object-1-x-84'
p222
g5
(g9
S'1AUg%\x14z?'
p223
tp224
Rp225
s(S'diff-x-pos-17'
p226
S'action-1'
p227
tp228
g5
(g9
S'\xa4\x1e\xd6\xca\xae\xc7&\xbf'
p229
tp230
Rp231
s(S'diff-x-pos--13'
p232
S'action-4'
p233
tp234
g5
(g9
S'\xea\xee\xaf\xa0\xf9\td\xbf'
p235
tp236
Rp237
s(S'diff-x-pos-9'
p238
S'action-3'
p239
tp240
g5
(g9
S'Z\xec\xe7\xb9sl\x7f?'
p241
tp242
Rp243
s(S'diff-x-pos--98'
p244
S'action-1'
p245
tp246
g5
(g9
S'\x1f\xe5\x96\xe4p\xeby?'
p247
tp248
Rp249
s(S'action-4'
p250
S'object-1-x-92'
p251
tp252
g5
(g9
S'\xee\xa3^\xe0\x06\x16\x99\xbf'
p253
tp254
Rp255
s(g199
S'object-1-x-100'
p256
tp257
g5
(g9
S'l\x0f\x04\xa1\xa8\x06\x10\xbf'
p258
tp259
Rp260
sS'object-1-y-8'
p261
g5
(g9
S'\x84\x90\x13\xc40\x91\xb2\xbf'
p262
tp263
Rp264
s(S'diff-x-pos--69'
p265
S'action-4'
p266
tp267
g5
(g9
S'W\xfcD\xaa\xbb\x02\x86\xbf'
p268
tp269
Rp270
s(S'diff-x-pos--46'
p271
S'prev-action-4'
p272
tp273
g5
(g9
S'\x8amXm\x9fv\x81\xbf'
p274
tp275
Rp276
s(S'diff-x-pos--53'
p277
S'action-4'
p278
tp279
g5
(g9
S'\x99\xb05+\x95^\x1b\xbf'
p280
tp281
Rp282
s(S'diff-x-pos--49'
p283
S'prev-action-4'
p284
tp285
g5
(g9
S'\xfcm\xa2Rx$s\xbf'
p286
tp287
Rp288
s(S'diff-x-pos-25'
p289
S'action-4'
p290
tp291
g5
(g9
S'\xdf\x19\xa2\xe40\xdd\x8a\xbf'
p292
tp293
Rp294
s(S'diff-x-pos--13'
p295
S'prev-action-4'
p296
tp297
g5
(g9
S'&\x94\x0b\xaa\r\x96\x8b\xbf'
p298
tp299
Rp300
s(S'diff-x-pos--37'
p301
S'action-4'
p302
tp303
g5
(g9
S'ZD\xc1!?\x9em?'
p304
tp305
Rp306
s(S'diff-x-pos--27'
p307
S'prev-action-1'
p308
tp309
g5
(g9
S'\xd3h\x8c@\x9a\xf3u?'
p310
tp311
Rp312
s(S'diff-x-pos--109'
p313
S'prev-action-1'
p314
tp315
g5
(g9
S'Da\xa2\x19\xb3\xde>\xbf'
p316
tp317
Rp318
s(S'diff-x-pos-59'
p319
S'action-4'
p320
tp321
g5
(g9
S'\x8c\xaf\xd8\xf0\xb8-\x7f\xbf'
p322
tp323
Rp324
s(S'diff-x-pos--8'
p325
S'action-1'
p326
tp327
g5
(g9
S'_\xb1\x97\xd1\xdb\x07N?'
p328
tp329
Rp330
sS'object-0-x-0'
p331
g5
(g9
S'\xe2\x89\x08\x1a\xb3\x1e\xc6?'
p332
tp333
Rp334
s(S'diff-x-pos--55'
p335
S'action-4'
p336
tp337
g5
(g9
S'\xfc\x19\x98\x8fjCV?'
p338
tp339
Rp340
sS'object-0-x-4'
p341
g5
(g9
S'{S\xed\x94=\xb1\xd4?'
p342
tp343
Rp344
s(S'diff-x-pos--31'
p345
S'action-1'
p346
tp347
g5
(g9
S'\x19\x8e\x18\xe4C(_\xbf'
p348
tp349
Rp350
s(S'diff-x-pos-48'
p351
S'action-1'
p352
tp353
g5
(g9
S'$\x02L\x88\x91\xef\x8a?'
p354
tp355
Rp356
s(S'diff-x-pos-4'
p357
S'prev-action-4'
p358
tp359
g5
(g9
S't\xdc\xfd%\x02\xb2\x96\xbf'
p360
tp361
Rp362
s(S'action-4'
p363
S'object-0-x-76'
p364
tp365
g5
(g9
S'\xe2\xd1\x04\x1d\xeb\xa6\xb9?'
p366
tp367
Rp368
s(S'diff-x-pos--30'
p369
S'prev-action-1'
p370
tp371
g5
(g9
S'\\\x10\x0fD\x95J\xb0\xbf'
p372
tp373
Rp374
s(S'diff-x-pos--61'
p375
S'action-1'
p376
tp377
g5
(g9
S'+\xc6m)\x07\xc2v\xbf'
p378
tp379
Rp380
s(S'diff-x-pos--63'
p381
S'prev-action-1'
p382
tp383
g5
(g9
S'\xdc\xdd\x8d\x0b#0|\xbf'
p384
tp385
Rp386
s(S'diff-x-pos-3'
p387
S'action-4'
p388
tp389
g5
(g9
S'\xe1;FS\xfa\tn\xbf'
p390
tp391
Rp392
s(S'diff-x-pos-26'
p393
S'action-4'
p394
tp395
g5
(g9
S'\x85\x19-\xd9\xf7\x93r\xbf'
p396
tp397
Rp398
s(S'diff-x-pos--13'
p399
S'action-3'
p400
tp401
g5
(g9
S'\x9e\xd6\xb4k\x06\x8d\x83\xbf'
p402
tp403
Rp404
s(S'diff-x-pos--26'
p405
S'action-1'
p406
tp407
g5
(g9
S'-\xfc\x02\xf5\xe8jS\xbf'
p408
tp409
Rp410
s(g125
S'action-4'
p411
tp412
g5
(g9
S'\xe1N\xc3?\x0b\xe3s\xbf'
p413
tp414
Rp415
s(S'diff-x-pos--23'
p416
S'prev-action-4'
p417
tp418
g5
(g9
S'\xc4\xfcX\x0f\xb3R\x94\xbf'
p419
tp420
Rp421
s(S'diff-x-pos-37'
p422
S'action-3'
p423
tp424
g5
(g9
S'\x07\xd6\xdax\xf7\x15\x86?'
p425
tp426
Rp427
s(S'diff-x-pos-55'
p428
S'action-4'
p429
tp430
g5
(g9
S'/\xd1i\xd7\xf3\x14v\xbf'
p431
tp432
Rp433
s(S'action-3'
p434
S'object-1-x-112'
p435
tp436
g5
(g9
S'\x08\xa0\x8e\xf7\xdaEh\xbf'
p437
tp438
Rp439
s(S'diff-x-pos--105'
p440
S'prev-action-4'
p441
tp442
g5
(g9
S'\xdd\x82_1\\\x88B\xbf'
p443
tp444
Rp445
s(S'diff-x-pos--59'
p446
S'action-3'
p447
tp448
g5
(g9
S'\xb2\xc8\x1b\xf8\x84\x87\x88\xbf'
p449
tp450
Rp451
s(S'action-4'
p452
S'object-1-x-68'
p453
tp454
g5
(g9
S'\x01\xd5\x97Re\xe6\x90\xbf'
p455
tp456
Rp457
s(S'object-0-dx-1'
p458
S'prev-action-3'
p459
tp460
g5
(g9
S'\x8c\x93\xa4$ \xe0\x99?'
p461
tp462
Rp463
sS'object-0-dy-1'
p464
g5
(g9
S'z\xbd}\xf4\x13\x11\x91\xbf'
p465
tp466
Rp467
s(S'diff-x-pos--39'
p468
S'prev-action-3'
p469
tp470
g5
(g9
S'\xef\x18\x10eI\x9a\xb3\xbf'
p471
tp472
Rp473
s(S'diff-x-pos-2'
p474
S'action-3'
p475
tp476
g5
(g9
S'{u\x03i`\xce\x96\xbf'
p477
tp478
Rp479
s(S'action-1'
p480
S'object-0-x-108'
p481
tp482
g5
(g9
S'\x0f\xdaJ\xf1\xc0=\xbc?'
p483
tp484
Rp485
s(S'diff-x-pos-4'
p486
S'prev-action-3'
p487
tp488
g5
(g9
S'!\x10\x96\xb0\x8d\xba{\xbf'
p489
tp490
Rp491
s(S'diff-x-pos--3'
p492
S'action-4'
p493
tp494
g5
(g9
S'\xbf$\x05\xfb:8~\xbf'
p495
tp496
Rp497
s(S'diff-x-pos-3'
p498
S'action-3'
p499
tp500
g5
(g9
S'\xae\xf3\xcb\x02)\xad\x84\xbf'
p501
tp502
Rp503
sS'prev-action-0'
p504
g5
(g9
S'\xf1\xad\xb52\xe8=\xff?'
p505
tp506
Rp507
sS'prev-action-1'
p508
g5
(g9
S'eH&\xff8 \x04@'
p509
tp510
Rp511
s(S'diff-x-pos--90'
p512
S'prev-action-3'
p513
tp514
g5
(g9
S'\xfa\x03\xa1Njp\x90?'
p515
tp516
Rp517
sS'diff-x-pos--120'
p518
g5
(g9
S'\n/\xc3\xbc\x855\x8e?'
p519
tp520
Rp521
sS'prev-action-4'
p522
g5
(g9
S'\x95\x80=\x08\xe0\x9d\x04@'
p523
tp524
Rp525
s(S'diff-x-pos-1'
p526
S'prev-action-1'
p527
tp528
g5
(g9
S'*\xb6\xb5\xa3\xaa\x8aS\xbf'
p529
tp530
Rp531
s(S'diff-x-pos--36'
p532
S'action-1'
p533
tp534
g5
(g9
S'~\xe4\xaeXGwn\xbf'
p535
tp536
Rp537
s(S'diff-x-pos-43'
p538
S'action-1'
p539
tp540
g5
(g9
S'51i\x83\xf2\xb3\x80?'
p541
tp542
Rp543
s(S'diff-x-pos--79'
p544
S'action-4'
p545
tp546
g5
(g9
S'\xa8\x10\xceb\x85\xae\x89?'
p547
tp548
Rp549
s(g113
S'prev-action-4'
p550
tp551
g5
(g9
S'\xce\xc9}q&X\x92\xbf'
p552
tp553
Rp554
s(S'diff-x-pos-55'
p555
S'action-3'
p556
tp557
g5
(g9
S'^\xd5\xeau\xd2\xd3q?'
p558
tp559
Rp560
s(S'diff-x-pos-45'
p561
S'prev-action-3'
p562
tp563
g5
(g9
S'\x84\xdc\xc0\xa23\xba>\xbf'
p564
tp565
Rp566
s(S'diff-x-pos--34'
p567
S'prev-action-3'
p568
tp569
g5
(g9
S'\x89CP\xb1\xe3.6\xbf'
p570
tp571
Rp572
s(S'diff-x-pos-6'
p573
S'prev-action-4'
p574
tp575
g5
(g9
S'J\xc8\xd1HJN\x94\xbf'
p576
tp577
Rp578
s(S'diff-x-pos--96'
p579
S'action-1'
p580
tp581
g5
(g9
S'\xdb\xb2T\xdd\xb7\xec\x83?'
p582
tp583
Rp584
s(S'diff-x-pos-10'
p585
S'action-4'
p586
tp587
g5
(g9
S'\xa8\x84\x00\x8bw\xa2\x9c\xbf'
p588
tp589
Rp590
sS'diff-y-pos-0'
p591
g5
(g9
S'$\x92#\x95\x02\xebc\xbf'
p592
tp593
Rp594
s(S'diff-x-pos--17'
p595
S'action-1'
p596
tp597
g5
(g9
S',\xf5J\xf7\xaa\xe2S?'
p598
tp599
Rp600
s(S'diff-x-pos--100'
p601
S'prev-action-4'
p602
tp603
g5
(g9
S'I\xa6\xd5W\xfan{?'
p604
tp605
Rp606
s(S'action-1'
p607
S'object-0-x-36'
p608
tp609
g5
(g9
S'\xf4\x12\x9f\xdb\xbfO\xbe?'
p610
tp611
Rp612
s(S'diff-x-pos-24'
p613
S'action-1'
p614
tp615
g5
(g9
S'\xf5k\x04p\x95\xf2j?'
p616
tp617
Rp618
s(S'diff-x-pos-2'
p619
S'action-4'
p620
tp621
g5
(g9
S'\xcerg\xfb\xc6<\x81\xbf'
p622
tp623
Rp624
s(S'diff-x-pos-29'
p625
S'action-3'
p626
tp627
g5
(g9
S'~\xd4!\x9d\xd4\xa9\x8b?'
p628
tp629
Rp630
s(S'diff-x-pos-30'
p631
S'action-3'
p632
tp633
g5
(g9
S'\x9b\xba\xdf\x80\x83-\x93?'
p634
tp635
Rp636
s(S'diff-x-pos-38'
p637
S'prev-action-3'
p638
tp639
g5
(g9
S'\xe6\x9b;V\xaf\xfc}?'
p640
tp641
Rp642
s(S'diff-x-pos--4'
p643
S'action-1'
p644
tp645
g5
(g9
S'`\x82\x05\x9a\x81\xd2i?'
p646
tp647
Rp648
s(S'diff-x-pos--112'
p649
S'action-3'
p650
tp651
g5
(g9
S'\x90R\xcbXF+R?'
p652
tp653
Rp654
sS'object-1-dx--1'
p655
g5
(g9
S'\xac5S\x91\x12J\xa2?'
p656
tp657
Rp658
s(S'diff-x-pos-63'
p659
S'action-3'
p660
tp661
g5
(g9
S'Hq\xb3\x1a\xe8%F?'
p662
tp663
Rp664
s(S'diff-x-pos--95'
p665
S'action-4'
p666
tp667
g5
(g9
S'\xcf\xf2h\xbf\x01\x92w?'
p668
tp669
Rp670
s(S'diff-x-pos--33'
p671
S'action-1'
p672
tp673
g5
(g9
S'd\x98\xac\xaaF\xc14?'
p674
tp675
Rp676
s(S'action-4'
p677
S'object-0-x-104'
p678
tp679
g5
(g9
S"\xa7\xef'\x04\x81I\xbb?"
p680
tp681
Rp682
s(S'action-3'
p683
S'object-1-x-88'
p684
tp685
g5
(g9
S'#J\xfdy\xf3xb?'
p686
tp687
Rp688
s(S'action-4'
p689
S'object-1-x-124'
p690
tp691
g5
(g9
S'\xe8\x8bb,6\xbe\xa6\xbf'
p692
tp693
Rp694
s(S'diff-x-pos--51'
p695
S'action-1'
p696
tp697
g5
(g9
S'\xcc\xd2\xe3\xa4\xf8xj\xbf'
p698
tp699
Rp700
s(g518
S'action-4'
p701
tp702
g5
(g9
S'\x9a\xcb\x98\xa4R0w?'
p703
tp704
Rp705
s(S'diff-x-pos-25'
p706
S'action-3'
p707
tp708
g5
(g9
S'\x9c7\xb0\xf1\x15\x99\x8c?'
p709
tp710
Rp711
s(S'diff-x-pos--4'
p712
S'prev-action-4'
p713
tp714
g5
(g9
S'\xc2\xd7-\xfb!\xf8I?'
p715
tp716
Rp717
s(S'diff-x-pos--24'
p718
S'action-1'
p719
tp720
g5
(g9
S'n\xd4n\x1f\x8b\xceh?'
p721
tp722
Rp723
s(g655
S'action-4'
p724
tp725
g5
(g9
S"8'=\x8f\rV\xb5?"
p726
tp727
Rp728
s(S'diff-x-pos-38'
p729
S'action-4'
p730
tp731
g5
(g9
S'\x14a\xe6b\xa3Zp\xbf'
p732
tp733
Rp734
s(S'diff-x-pos--77'
p735
S'action-4'
p736
tp737
g5
(g9
S'\xfd\x0c\xd6KQ\x98\x86\xbf'
p738
tp739
Rp740
s(g620
S'object-1-x-80'
p741
tp742
g5
(g9
S'\x19\x83M\xd4\xdb\x95\x9d\xbf'
p743
tp744
Rp745
s(S'diff-x-pos-57'
p746
S'action-4'
p747
tp748
g5
(g9
S"\xbaOQ\xfec'v\xbf"
p749
tp750
Rp751
s(S'diff-x-pos--97'
p752
S'prev-action-3'
p753
tp754
g5
(g9
S'OKQF\xa9\xder?'
p755
tp756
Rp757
s(S'diff-x-pos-35'
p758
S'prev-action-1'
p759
tp760
g5
(g9
S'\x80\xd7px,e\x84?'
p761
tp762
Rp763
s(S'action-4'
p764
S'object-0-x-16'
p765
tp766
g5
(g9
S'\x11\x81\xbd\xf77M\xc2?'
p767
tp768
Rp769
s(S'diff-x-pos-42'
p770
S'prev-action-3'
p771
tp772
g5
(g9
S'\x07\xee\x8c\xf04\x8c\x85?'
p773
tp774
Rp775
sS'object-0-x-120'
p776
g5
(g9
S'@"\xd3\xafO\x9b\xce?'
p777
tp778
Rp779
sS'object-0-x-124'
p780
g5
(g9
S']_\x1br<o\xc8?'
p781
tp782
Rp783
sS'object-0-x-128'
p784
g5
(g9
S'\xf4:\x82\xab\xe6\x9e\xaa?'
p785
tp786
Rp787
s(S'diff-x-pos--10'
p788
S'action-1'
p789
tp790
g5
(g9
S'\xabT\xa9\x90\xfc\xc4e?'
p791
tp792
Rp793
s(S'action-1'
p794
S'object-0-x-80'
p795
tp796
g5
(g9
S'V)\xc0S\xbb\x9c\xb6?'
p797
tp798
Rp799
sS'object-0-x-40'
p800
g5
(g9
S'\x11-\xdbM\xc2+\xd4?'
p801
tp802
Rp803
s(S'diff-x-pos-19'
p804
S'prev-action-3'
p805
tp806
g5
(g9
S'\xf32\xebs\x9d\xc6P?'
p807
tp808
Rp809
s(S'diff-x-pos--114'
p810
S'prev-action-4'
p811
tp812
g5
(g9
S'\x0e\xb8,`t\xf7\x90\xbf'
p813
tp814
Rp815
s(S'diff-x-pos-34'
p816
S'prev-action-1'
p817
tp818
g5
(g9
S'\xda\xdax\xc1\xf4h\x8a?'
p819
tp820
Rp821
s(S'action-3'
p822
S'object-1-x-96'
p823
tp824
g5
(g9
S's"E\x91\x14\xfds?'
p825
tp826
Rp827
sS'diff-x-pos--54'
p828
g5
(g9
S'(\x01: \xd7\xc1\x85\xbf'
p829
tp830
Rp831
sg335
g5
(g9
S';G\xac\xb5s\x98\x8d\xbf'
p832
tp833
Rp834
sS'diff-x-pos--56'
p835
g5
(g9
S'O\xe5s\xb9,\xa8\x87\xbf'
p836
tp837
Rp838
sS'diff-x-pos--57'
p839
g5
(g9
S'D\xad\xd1w<\x19\x93\xbf'
p840
tp841
Rp842
sS'diff-x-pos--50'
p843
g5
(g9
S'l\x89\xe8\x1d\x94\x11\x8b\xbf'
p844
tp845
Rp846
sS'diff-x-pos--51'
p847
g5
(g9
S'\xa9\r\xce\xed\xb2L\x87\xbf'
p848
tp849
Rp850
sS'diff-x-pos--52'
p851
g5
(g9
S'\x02\xdb\xcah\x90\x02\x8c\xbf'
p852
tp853
Rp854
sg277
g5
(g9
S'\x9f\x17G\x013@\x92\xbf'
p855
tp856
Rp857
sS'diff-x-pos--58'
p858
g5
(g9
S'\x89\xc3\x95\x1bBL\x9b\xbf'
p859
tp860
Rp861
sS'diff-x-pos--59'
p862
g5
(g9
S'l\xa2\xaa\x0b\x00\xf8\x94\xbf'
p863
tp864
Rp865
s(S'diff-x-pos--102'
p866
S'action-4'
p867
tp868
g5
(g9
S'\x1a\xddA\xca\xadu\x89?'
p869
tp870
Rp871
s(S'diff-x-pos--38'
p872
S'action-1'
p873
tp874
g5
(g9
S'.G\xd7V \x98c\xbf'
p875
tp876
Rp877
s(S'diff-x-pos--68'
p878
S'action-3'
p879
tp880
g5
(g9
S'\x13D\xc9\x01q1x\xbf'
p881
tp882
Rp883
sS'object-1-y-20'
p884
g5
(g9
S'H\x91\xd3^\xb6jD\xbf'
p885
tp886
Rp887
s(S'diff-x-pos--59'
p888
S'prev-action-4'
p889
tp890
g5
(g9
S'_\x1e\xaa\xbe/\x1c\x90\xbf'
p891
tp892
Rp893
s(S'diff-x-pos-57'
p894
S'prev-action-3'
p895
tp896
g5
(g9
S'\xf5\xa0C\xd5,>J\xbf'
p897
tp898
Rp899
s(S'diff-x-pos--38'
p900
S'prev-action-1'
p901
tp902
g5
(g9
S'VL{\x1f\xec w?'
p903
tp904
Rp905
s(S'diff-x-pos--14'
p906
S'prev-action-1'
p907
tp908
g5
(g9
S';\x92\xfb\xb8\x02O\x81?'
p909
tp910
Rp911
s(S'object-1-dx-1'
p912
S'prev-action-1'
p913
tp914
g5
(g9
S'aIW\xbcM\xf9\x81?'
p915
tp916
Rp917
s(S'diff-x-pos--2'
p918
S'action-4'
p919
tp920
g5
(g9
S'\xd4Q]\xb0\x97\xcc\x8b\xbf'
p921
tp922
Rp923
s(S'diff-x-pos--106'
p924
S'prev-action-4'
p925
tp926
g5
(g9
S'\xea\xddm\xcc\x9bhj?'
p927
tp928
Rp929
s(S'diff-x-pos--3'
p930
S'prev-action-1'
p931
tp932
g5
(g9
S'\xf0\n\x14\x84\xaaJC\xbf'
p933
tp934
Rp935
s(S'diff-x-pos--28'
p936
g913
tp937
g5
(g9
S'9 i\xcc\xff\xb9{?'
p938
tp939
Rp940
s(S'diff-x-pos--71'
p941
S'prev-action-1'
p942
tp943
g5
(g9
S'\xf4w\xbcD\xa9\x8fo\xbf'
p944
tp945
Rp946
s(S'diff-x-pos--107'
p947
S'prev-action-3'
p948
tp949
g5
(g9
S'~v\xcfld+s?'
p950
tp951
Rp952
s(g406
S'object-0-x-40'
p953
tp954
g5
(g9
S'\x01\x9e\xf0C\xc4\xa9\xbb?'
p955
tp956
Rp957
sS'object-1-dx-1'
p958
g5
(g9
S'G\tG\x1d\xda\xa1\xa1?'
p959
tp960
Rp961
s(S'diff-x-pos--83'
p962
g689
tp963
g5
(g9
S"'\xf1\xf0g\x98T9\xbf"
p964
tp965
Rp966
s(S'diff-x-pos--55'
p967
S'prev-action-1'
p968
tp969
g5
(g9
S'\x9c2^\xd4\xaf7N?'
p970
tp971
Rp972
s(S'diff-x-pos-42'
p973
S'action-3'
p974
tp975
g5
(g9
S'\xb5\x11\xed\xc9k\x89\x96?'
p976
tp977
Rp978
s(S'diff-x-pos-10'
p979
S'prev-action-3'
p980
tp981
g5
(g9
S'u\x04\xb4\xfb(*C?'
p982
tp983
Rp984
s(S'diff-x-pos--37'
p985
S'prev-action-1'
p986
tp987
g5
(g9
S'\xfcI8ASkr?'
p988
tp989
Rp990
s(S'diff-x-pos--74'
p991
S'action-3'
p992
tp993
g5
(g9
S'\x15Dy=\xdb]\x82\xbf'
p994
tp995
Rp996
s(S'diff-x-pos-52'
p997
S'prev-action-1'
p998
tp999
g5
(g9
S'\x13K\xf4E\xc8\xfc\x82?'
p1000
tp1001
Rp1002
s(S'diff-x-pos--97'
p1003
S'action-3'
p1004
tp1005
g5
(g9
S'~En\x0f\xfd\xed\x82?'
p1006
tp1007
Rp1008
s(S'diff-x-pos-57'
p1009
S'prev-action-4'
p1010
tp1011
g5
(g9
S"0l\x9d\xa6'\xfcj?"
p1012
tp1013
Rp1014
s(S'diff-x-pos--91'
p1015
S'prev-action-1'
p1016
tp1017
g5
(g9
S'\xd7\xf2\xc1\x98M\x14x?'
p1018
tp1019
Rp1020
sS'diff-x-pos-12'
p1021
g5
(g9
S'a\xd4i\x04\x94\xea\x95\xbf'
p1022
tp1023
Rp1024
sS'diff-x-pos-13'
p1025
g5
(g9
S'\xe9#\x1a\xe5G\x14\x99\xbf'
p1026
tp1027
Rp1028
sg585
g5
(g9
S'\x85l\xbc\x01\xd5\xd7\x93\xbf'
p1029
tp1030
Rp1031
sS'diff-x-pos-11'
p1032
g5
(g9
S'\xae\xa2\xe3\xf2\xe3qz\xbf'
p1033
tp1034
Rp1035
sS'diff-x-pos-16'
p1036
g5
(g9
S'\x9f\x97\xa0].\xe0y\xbf'
p1037
tp1038
Rp1039
sS'diff-x-pos-17'
p1040
g5
(g9
S',\xe5\xfc?2\xady\xbf'
p1041
tp1042
Rp1043
sS'diff-x-pos-14'
p1044
g5
(g9
S'\x99-w\xc9\xa8sv\xbf'
p1045
tp1046
Rp1047
sS'diff-x-pos-15'
p1048
g5
(g9
S'%\x1bd\x05x\x0bq\xbf'
p1049
tp1050
Rp1051
s(S'diff-x-pos-28'
p1052
S'action-1'
p1053
tp1054
g5
(g9
S'\xb9\xfe\x99O\xf8Os?'
p1055
tp1056
Rp1057
sS'diff-x-pos-18'
p1058
g5
(g9
S'\x90\x070\xb46\xb5\xfd>'
p1059
tp1060
Rp1061
sS'diff-x-pos-19'
p1062
g5
(g9
S'\x98\x01i\xe9\x16mP?'
p1063
tp1064
Rp1065
s(S'diff-x-pos--51'
p1066
S'prev-action-1'
p1067
tp1068
g5
(g9
S'O\xc9\x83\x83`\xd2\x80?'
p1069
tp1070
Rp1071
s(g381
S'action-3'
p1072
tp1073
g5
(g9
S's\xe0Y\x84\x963\x98\xbf'
p1074
tp1075
Rp1076
s(S'diff-x-pos-45'
p1077
S'prev-action-4'
p1078
tp1079
g5
(g9
S'.\x8fp;f\xbax?'
p1080
tp1081
Rp1082
s(g33
S'prev-action-1'
p1083
tp1084
g5
(g9
S'\xed\xc61\x0e\xf7(P?'
p1085
tp1086
Rp1087
s(S'diff-x-pos--44'
p1088
S'action-3'
p1089
tp1090
g5
(g9
S'U\x0c(w\x04\x87\x92\xbf'
p1091
tp1092
Rp1093
s(S'diff-x-pos--33'
p1094
S'prev-action-1'
p1095
tp1096
g5
(g9
S'V<60\xeb[f?'
p1097
tp1098
Rp1099
s(S'diff-x-pos--42'
p1100
S'action-3'
p1101
tp1102
g5
(g9
S'^2\xabL[\xa4\x82\xbf'
p1103
tp1104
Rp1105
s(S'diff-x-pos-30'
p1106
S'prev-action-3'
p1107
tp1108
g5
(g9
S'B\xea<\xd1\xb3\xf0n?'
p1109
tp1110
Rp1111
s(S'diff-x-pos--85'
p1112
S'action-3'
p1113
tp1114
g5
(g9
S'\x1b\xbd;\x8a\x01Zb?'
p1115
tp1116
Rp1117
s(g619
S'prev-action-4'
p1118
tp1119
g5
(g9
S'Q\xeb\x07*l\x97\x91\xbf'
p1120
tp1121
Rp1122
s(S'diff-x-pos--44'
p1123
S'action-4'
p1124
tp1125
g5
(g9
S'\xb6\xa1\x98\xc3\xe8Cx?'
p1126
tp1127
Rp1128
s(S'diff-x-pos--100'
p1129
S'action-4'
p1130
tp1131
g5
(g9
S'\xbdIU\x91\xa2\xeeX?'
p1132
tp1133
Rp1134
s(S'diff-x-pos--32'
p1135
S'prev-action-1'
p1136
tp1137
g5
(g9
S'\xe93z\xd20\xa1{?'
p1138
tp1139
Rp1140
s(S'diff-x-pos--43'
p1141
S'prev-action-1'
p1142
tp1143
g5
(g9
S'\x80H\xbc\x94=zi?'
p1144
tp1145
Rp1146
s(S'diff-x-pos--81'
p1147
S'prev-action-4'
p1148
tp1149
g5
(g9
S'\x94\x86\xce\x8b;,\x8c\xbf'
p1150
tp1151
Rp1152
s(S'diff-x-pos--96'
p1153
S'prev-action-1'
p1154
tp1155
g5
(g9
S'\x06\xb4\xb0:\x0b\xe7\x81?'
p1156
tp1157
Rp1158
s(g174
S'object-0-x-12'
p1159
tp1160
g5
(g9
S'\xedy\r\xd2\xe1@\xbb?'
p1161
tp1162
Rp1163
s(S'diff-x-pos-6'
p1164
S'prev-action-1'
p1165
tp1166
g5
(g9
S'\xf9F<\x01c\x87u?'
p1167
tp1168
Rp1169
s(g561
S'action-3'
p1170
tp1171
g5
(g9
S'8\\\x8f\x97h\x1a\x89?'
p1172
tp1173
Rp1174
s(S'action-1'
p1175
S'object-1-x-124'
p1176
tp1177
g5
(g9
S'\xeb\xe4d3\x95\x06l?'
p1178
tp1179
Rp1180
s(S'diff-x-pos--25'
p1181
S'prev-action-1'
p1182
tp1183
g5
(g9
S'\x8c\x95\xf0\x1e\x05\rs?'
p1184
tp1185
Rp1186
s(S'diff-x-pos-58'
p1187
S'prev-action-4'
p1188
tp1189
g5
(g9
S'\xf0\xeaP\xe2\xaa\x84q?'
p1190
tp1191
Rp1192
s(S'diff-x-pos-43'
p1193
S'prev-action-1'
p1194
tp1195
g5
(g9
S'\xa4"\xc5\xa5\t}\x8a?'
p1196
tp1197
Rp1198
s(S'action-1'
p1199
S'object-1-x-84'
p1200
tp1201
g5
(g9
S'\xf4Ny\x17\xec7\x9c?'
p1202
tp1203
Rp1204
s(S'diff-x-pos-1'
p1205
S'action-1'
p1206
tp1207
g5
(g9
S'\x83\xd37Ue\xd8{?'
p1208
tp1209
Rp1210
s(S'action-1'
p1211
S'object-1-x-108'
p1212
tp1213
g5
(g9
S'l`\xc9+\x9fz\xa3?'
p1214
tp1215
Rp1216
s(S'diff-x-pos--90'
p1217
S'action-3'
p1218
tp1219
g5
(g9
S'\xa9\xbb \xd4\x0f\xfc~?'
p1220
tp1221
Rp1222
s(S'diff-x-pos-40'
p1223
S'prev-action-4'
p1224
tp1225
g5
(g9
S'\x99\x15\x13,#\x171?'
p1226
tp1227
Rp1228
s(S'diff-x-pos--21'
p1229
S'action-1'
p1230
tp1231
g5
(g9
S'\x14\xb3\xd1\xc9\\)_\xbf'
p1232
tp1233
Rp1234
s(g57
S'action-4'
p1235
tp1236
g5
(g9
S'\xe5}{\x97\xb8\xb7\x82\xbf'
p1237
tp1238
Rp1239
s(g492
S'prev-action-4'
p1240
tp1241
g5
(g9
S'\xab\x83\x94\x1cw-\x83\xbf'
p1242
tp1243
Rp1244
s(g15
g1224
tp1245
g5
(g9
S'\xd5o\xceKm\x18\xec?'
p1246
tp1247
Rp1248
s(S'object-1-dx-1'
p1249
S'action-3'
p1250
tp1251
g5
(g9
S'\x1c^\x9d?\x87h\x87?'
p1252
tp1253
Rp1254
s(S'action-1'
p1255
S'object-1-x-64'
p1256
tp1257
g5
(g9
S'@@\x96\x7f\xfb\xee\x96?'
p1258
tp1259
Rp1260
s(S'diff-x-pos--47'
p1261
S'action-1'
p1262
tp1263
g5
(g9
S'\x07\x19\xb9\xee\r\xc3V\xbf'
p1264
tp1265
Rp1266
s(S'object-0-dx--1'
p1267
S'prev-action-1'
p1268
tp1269
g5
(g9
S'\xf6\x1ck\x9a\xf6\xe3\x92?'
p1270
tp1271
Rp1272
s(S'diff-x-pos-33'
p1273
S'prev-action-3'
p1274
tp1275
g5
(g9
S'\x06\xcb\xd9\xb6\xe3\x1dV?'
p1276
tp1277
Rp1278
s(S'action-4'
p1279
S'object-1-x-104'
p1280
tp1281
g5
(g9
S'\xfb\x0cv\xd2\xf9\xdd\xa1\xbf'
p1282
tp1283
Rp1284
s(S'diff-x-pos--8'
p1285
S'prev-action-4'
p1286
tp1287
g5
(g9
S'\x9e\xff\x14\xc2X\x04\x8c\xbf'
p1288
tp1289
Rp1290
s(S'action-3'
p1291
S'object-0-x-48'
p1292
tp1293
g5
(g9
S'N\xda7\xe8\x83\xb8\xbe?'
p1294
tp1295
Rp1296
s(S'diff-x-pos--11'
p1297
S'prev-action-4'
p1298
tp1299
g5
(g9
S'eh\x17\xd6\x08\x06\x91\xbf'
p1300
tp1301
Rp1302
s(S'diff-x-pos--39'
p1303
S'action-3'
p1304
tp1305
g5
(g9
S'\x84\n\xf3\x07:\xd0\x87?'
p1306
tp1307
Rp1308
sS'object-1-y-12'
p1309
g5
(g9
S'q\x01\x87=]\n\x8f\xbf'
p1310
tp1311
Rp1312
s(S'object-0-dx-1'
p1313
g1250
tp1314
g5
(g9
S'MN"I\xecr\xa7\xbf'
p1315
tp1316
Rp1317
s(S'diff-x-pos--86'
p1318
S'action-3'
p1319
tp1320
g5
(g9
S'\xe3p\x89\x0bzw|?'
p1321
tp1322
Rp1323
s(g283
S'action-3'
p1324
tp1325
g5
(g9
S'\x9a\xd40\x83\x0c\xeb\x8c\xbf'
p1326
tp1327
Rp1328
s(S'diff-x-pos-9'
p1329
S'action-4'
p1330
tp1331
g5
(g9
S'\x05tq\xbfwS\x93\xbf'
p1332
tp1333
Rp1334
s(S'action-3'
p1335
S'object-0-x-96'
p1336
tp1337
g5
(g9
S'\xe4\xd8\x18\x7f#\xc6\xb8?'
p1338
tp1339
Rp1340
s(S'diff-x-pos--98'
p1341
S'action-4'
p1342
tp1343
g5
(g9
S'\xc1E;\xf87}u?'
p1344
tp1345
Rp1346
s(S'diff-x-pos--58'
p1347
S'prev-action-4'
p1348
tp1349
g5
(g9
S'\x9d\x10x\x1e\xcbQ\x9b\xbf'
p1350
tp1351
Rp1352
s(S'diff-x-pos-60'
p1353
S'prev-action-4'
p1354
tp1355
g5
(g9
S'b\x90y\xb3\xd4\xca\x90\xbf'
p1356
tp1357
Rp1358
s(S'action-3'
p1359
S'object-0-x-28'
p1360
tp1361
g5
(g9
S'\xb4\x93\x80\xcdH\x97\xb9?'
p1362
tp1363
Rp1364
s(S'diff-x-pos-65'
p1365
S'prev-action-3'
p1366
tp1367
g5
(g9
S'\x1f\xed\xf4l\xf7\x7f\x02\xbf'
p1368
tp1369
Rp1370
s(S'diff-x-pos-37'
p1371
S'prev-action-3'
p1372
tp1373
g5
(g9
S'\xa5Q\x1dy\xa7\xd6\x81?'
p1374
tp1375
Rp1376
s(g232
S'prev-action-3'
p1377
tp1378
g5
(g9
S'\xffV\x0b\xfa^\xe0i\xbf'
p1379
tp1380
Rp1381
s(g393
S'prev-action-4'
p1382
tp1383
g5
(g9
S'\xa6s\xeco\x0c/i\xbf'
p1384
tp1385
Rp1386
s(g1123
S'prev-action-1'
p1387
tp1388
g5
(g9
S'\x02\xbd\xbc\xf8I+f\xbf'
p1389
tp1390
Rp1391
s(S'action-1'
p1392
S'object-0-x-60'
p1393
tp1394
g5
(g9
S'\xbc\t\xc2\xf2\n\xd3\xb8?'
p1395
tp1396
Rp1397
s(S'diff-x-pos--92'
p1398
S'prev-action-3'
p1399
tp1400
g5
(g9
S'0\xcf\x99y\x9b\x9fn?'
p1401
tp1402
Rp1403
s(S'diff-x-pos-52'
p1404
S'action-3'
p1405
tp1406
g5
(g9
S'\xe8\xca\x1b+Nr\x96?'
p1407
tp1408
Rp1409
s(g1255
S'prev-action-3'
p1410
tp1411
g5
(g9
S'\xb4\x87\x88\xd6\x91{\xeb?'
p1412
tp1413
Rp1414
s(S'diff-x-pos-59'
p1415
S'action-1'
p1416
tp1417
g5
(g9
S'|~\xc3\xf5}\xe6\x8b?'
p1418
tp1419
Rp1420
s(S'diff-x-pos-41'
p1421
S'action-1'
p1422
tp1423
g5
(g9
S'&\xc4Bg`\x03\x80?'
p1424
tp1425
Rp1426
s(S'diff-x-pos-48'
p1427
g508
tp1428
g5
(g9
S'\xcf\xa8\x87\xb5\xaaR\x8d?'
p1429
tp1430
Rp1431
s(S'diff-x-pos--104'
p1432
S'prev-action-1'
p1433
tp1434
g5
(g9
S'8w\xc7\xdb=K\x80?'
p1435
tp1436
Rp1437
sS'object-1-x-96'
p1438
g5
(g9
S'sx.\xd2l\xc0^?'
p1439
tp1440
Rp1441
s(S'diff-x-pos-5'
p1442
S'action-3'
p1443
tp1444
g5
(g9
S'\x86\xfe=\xa9\x17\xb7a?'
p1445
tp1446
Rp1447
s(S'diff-x-pos--115'
p1448
S'prev-action-3'
p1449
tp1450
g5
(g9
S'R\xfa\xdfY\xeaL|?'
p1451
tp1452
Rp1453
s(S'action-4'
p1454
g508
tp1455
g5
(g9
S'2=\x80f\xc1\xdf\xe9?'
p1456
tp1457
Rp1458
s(S'action-1'
p1459
S'object-1-x-68'
p1460
tp1461
g5
(g9
S'N{\xfc\x8fRt\x9d?'
p1462
tp1463
Rp1464
s(S'diff-x-pos-27'
p1465
S'prev-action-1'
p1466
tp1467
g5
(g9
S'!\x8bC\x02h\xfe\x95?'
p1468
tp1469
Rp1470
sS'diff-x-pos--14'
p1471
g5
(g9
S'/RGS\xe9\xff\x85\xbf'
p1472
tp1473
Rp1474
s(S'diff-x-pos-68'
p1475
S'action-1'
p1476
tp1477
g5
(g9
S'\x85\x1d\xa5\x82\xc0\xadg?'
p1478
tp1479
Rp1480
s(S'diff-x-pos-13'
p1481
S'prev-action-1'
p1482
tp1483
g5
(g9
S'\x93\xf4V<{\xeb\x91?'
p1484
tp1485
Rp1486
s(g45
g504
tp1487
g5
(g9
S'\x15F\x7f\xe94\x11\xe3?'
p1488
tp1489
Rp1490
s(S'diff-x-pos--49'
p1491
S'action-4'
p1492
tp1493
g5
(g9
S'\xc6\x17L\x10]\xe4\x7f?'
p1494
tp1495
Rp1496
s(S'diff-x-pos--103'
p1497
S'action-3'
p1498
tp1499
g5
(g9
S'\x92|\xa4+\xeeQb?'
p1500
tp1501
Rp1502
s(S'diff-x-pos--75'
p1503
S'action-1'
p1504
tp1505
g5
(g9
S'c\xbf\xbaz\xca\xe1\x86\xbf'
p1506
tp1507
Rp1508
s(S'diff-x-pos--46'
p1509
S'action-4'
p1510
tp1511
g5
(g9
S'\xc6z\x7f\x10\x0c\x08\x91?'
p1512
tp1513
Rp1514
s(S'diff-x-pos--23'
p1515
S'prev-action-1'
p1516
tp1517
g5
(g9
S'\x9bk\xc4\xe2\x88\xdbo?'
p1518
tp1519
Rp1520
s(S'diff-x-pos--58'
p1521
S'prev-action-3'
p1522
tp1523
g5
(g9
S"^\xf6\xad\xd9'\xee8?"
p1524
tp1525
Rp1526
s(S'diff-x-pos-56'
p1527
S'prev-action-4'
p1528
tp1529
g5
(g9
S'E{\xcb\xa9\x07m\x82?'
p1530
tp1531
Rp1532
s(S'diff-x-pos--105'
p1533
S'prev-action-1'
p1534
tp1535
g5
(g9
S'\xa6\xd8+3jP~?'
p1536
tp1537
Rp1538
s(S'action-3'
p1539
S'object-1-x-104'
p1540
tp1541
g5
(g9
S'cA"d4\x1ar?'
p1542
tp1543
Rp1544
sS'object-0-x-56'
p1545
g5
(g9
S'\xa1oW\xd1/P\xd5?'
p1546
tp1547
Rp1548
s(S'diff-x-pos--3'
p1549
S'action-1'
p1550
tp1551
g5
(g9
S'a\xdb\x8f\t\xd5\xe6F\xbf'
p1552
tp1553
Rp1554
sS'object-0-x-52'
p1555
g5
(g9
S'\x8dE\x1fi\x90*\xd5?'
p1556
tp1557
Rp1558
s(S'diff-x-pos--12'
p1559
S'action-1'
p1560
tp1561
g5
(g9
S'w\xc2P9#\xabr?'
p1562
tp1563
Rp1564
sS'diff-x-pos--15'
p1565
g5
(g9
S'\xc3\xf7\xcb&B\xd6\x8d\xbf'
p1566
tp1567
Rp1568
s(S'diff-x-pos-15'
p1569
S'action-3'
p1570
tp1571
g5
(g9
S'q\xb9\xc9\xdc\x95xt?'
p1572
tp1573
Rp1574
s(S'diff-x-pos--29'
p1575
S'action-1'
p1576
tp1577
g5
(g9
S'\x1dw\xd2\xdb"\xe9o?'
p1578
tp1579
Rp1580
s(S'diff-x-pos--52'
p1581
S'action-1'
p1582
tp1583
g5
(g9
S'\x1c\x0eK\xe7g\xc7{\xbf'
p1584
tp1585
Rp1586
s(S'diff-x-pos--110'
p1587
S'action-3'
p1588
tp1589
g5
(g9
S'*&=\xf3r#\x8b?'
p1590
tp1591
Rp1592
s(S'diff-x-pos--62'
p1593
S'action-1'
p1594
tp1595
g5
(g9
S'y4d1\xf6\x8f\xa7?'
p1596
tp1597
Rp1598
s(g1040
S'prev-action-1'
p1599
tp1600
g5
(g9
S'1\xb3\x7f\xdd]\x9d\x83?'
p1601
tp1602
Rp1603
s(S'diff-x-pos-18'
p1604
S'prev-action-3'
p1605
tp1606
g5
(g9
S'i#\xc5\x9a\xd9\x01a?'
p1607
tp1608
Rp1609
s(S'diff-x-pos--9'
p1610
S'action-4'
p1611
tp1612
g5
(g9
S'\\\xf4\xad\xd8\x18\xd8s\xbf'
p1613
tp1614
Rp1615
s(S'action-1'
p1616
S'object-0-x-104'
p1617
tp1618
g5
(g9
S'\xa6S\xf1\xd7\x1d\\\xba?'
p1619
tp1620
Rp1621
s(S'diff-x-pos--64'
p1622
S'prev-action-3'
p1623
tp1624
g5
(g9
S'n-\x162\\\x88f\xbf'
p1625
tp1626
Rp1627
s(S'diff-x-pos-21'
p1628
S'action-1'
p1629
tp1630
g5
(g9
S'}\xa7Z\xb4x\x04\\?'
p1631
tp1632
Rp1633
s(S'diff-x-pos--101'
p1634
S'prev-action-1'
p1635
tp1636
g5
(g9
S'\x87b\xf5%$\xa3\x87?'
p1637
tp1638
Rp1639
s(S'diff-x-pos--41'
p1640
S'action-1'
p1641
tp1642
g5
(g9
S'>i\xe1\xe6zon\xbf'
p1643
tp1644
Rp1645
s(g168
S'prev-action-3'
p1646
tp1647
g5
(g9
S'cd\xa7\x81\xd9Pg\xbf'
p1648
tp1649
Rp1650
s(S'diff-x-pos--76'
p1651
S'prev-action-4'
p1652
tp1653
g5
(g9
S'\x90#1\x90\x06j\x91\xbf'
p1654
tp1655
Rp1656
s(S'diff-x-pos-46'
p1657
S'prev-action-4'
p1658
tp1659
g5
(g9
S'\x93o\x82u\xd9\xcap?'
p1660
tp1661
Rp1662
s(S'diff-x-pos--87'
p1663
S'prev-action-3'
p1664
tp1665
g5
(g9
S'\xb3\xed\xa4\xda\x0f\x80|?'
p1666
tp1667
Rp1668
s(S'diff-x-pos--84'
p1669
S'action-1'
p1670
tp1671
g5
(g9
S'\xd00\xf4\xb0\xe0\x987\xbf'
p1672
tp1673
Rp1674
s(S'diff-x-pos--36'
p1675
S'action-4'
p1676
tp1677
g5
(g9
S'\x9e\xaa\xa4LZd\x7f?'
p1678
tp1679
Rp1680
s(g1193
S'action-4'
p1681
tp1682
g5
(g9
S'\xaev\xd2+Z\x88n\xbf'
p1683
tp1684
Rp1685
sS'object-1-y-4'
p1686
g5
(g9
S'\xd2Y\xc7_}\x85\xb0?'
p1687
tp1688
Rp1689
s(S'diff-x-pos--108'
p1690
S'prev-action-3'
p1691
tp1692
g5
(g9
S'2v\x90\x9f\xb6\xe6\x81?'
p1693
tp1694
Rp1695
s(S'diff-x-pos--34'
p1696
S'prev-action-4'
p1697
tp1698
g5
(g9
S'\xdb\xe4\xd3\x00\xdf\x06\x93\xbf'
p1699
tp1700
Rp1701
s(S'diff-x-pos-7'
p1702
S'action-4'
p1703
tp1704
g5
(g9
S'\xbao\xdb\xc5\x9d\xe4\x94\xbf'
p1705
tp1706
Rp1707
s(S'diff-x-pos-22'
p1708
S'action-4'
p1709
tp1710
g5
(g9
S'\xfe\xb7\xc5\xd2y\xda\x82\xbf'
p1711
tp1712
Rp1713
s(g87
S'action-4'
p1714
tp1715
g5
(g9
S'\xf4\xf8}\x80\xce\xd9{?'
p1716
tp1717
Rp1718
s(S'diff-x-pos--20'
p1719
S'prev-action-3'
p1720
tp1721
g5
(g9
S'l\xae\xf8\x9e\x05\x10n\xbf'
p1722
tp1723
Rp1724
s(S'diff-x-pos-54'
p1725
S'prev-action-1'
p1726
tp1727
g5
(g9
S'\xe0\xa8)\xbd\x10\x93\xa1?'
p1728
tp1729
Rp1730
s(S'diff-x-pos-8'
p1731
S'prev-action-3'
p1732
tp1733
g5
(g9
S'\xae(\x85v,\x98m\xbf'
p1734
tp1735
Rp1736
s(S'diff-x-pos--101'
p1737
S'action-1'
p1738
tp1739
g5
(g9
S'\xe2\xc3\xc0\x06\x89\xb5u?'
p1740
tp1741
Rp1742
s(S'diff-x-pos--110'
p1743
S'action-4'
p1744
tp1745
g5
(g9
S'\x08M\xfd2Jv~?'
p1746
tp1747
Rp1748
s(S'diff-x-pos--72'
p1749
g1175
tp1750
g5
(g9
S'\x8dw\x8d\xea\x8a^\x8c\xbf'
p1751
tp1752
Rp1753
s(S'diff-x-pos--99'
p1754
S'prev-action-3'
p1755
tp1756
g5
(g9
S'\x96j\xc6\xc4\xd0\xfc]?'
p1757
tp1758
Rp1759
s(S'diff-x-pos--102'
p1760
S'prev-action-1'
p1761
tp1762
g5
(g9
S'u\x9c\xb7%J\x89S\xbf'
p1763
tp1764
Rp1765
s(S'diff-x-pos--19'
p1766
S'prev-action-3'
p1767
tp1768
g5
(g9
S'K\x9c\x92\xeblLw\xbf'
p1769
tp1770
Rp1771
s(S'diff-x-pos--88'
p1772
S'action-4'
p1773
tp1774
g5
(g9
S"\x1b'\x82\xe2Y0x?"
p1775
tp1776
Rp1777
s(S'action-4'
p1778
S'object-1-x-60'
p1779
tp1780
g5
(g9
S'\xbdY\xbdD\x80\x8fu\xbf'
p1781
tp1782
Rp1783
s(S'diff-x-pos-47'
p1784
g1255
tp1785
g5
(g9
S'\x13x|\x9dJ\x8b\x8c?'
p1786
tp1787
Rp1788
s(S'diff-x-pos--35'
p1789
S'prev-action-3'
p1790
tp1791
g5
(g9
S'D\x82\xb0T\x10\xf2r?'
p1792
tp1793
Rp1794
s(S'diff-x-pos--89'
p1795
S'prev-action-4'
p1796
tp1797
g5
(g9
S'$\xe6\xc2\xa2P\x1fv?'
p1798
tp1799
Rp1800
s(S'diff-x-pos--95'
p1801
S'action-1'
p1802
tp1803
g5
(g9
S'\xfb2\x89\x1fq\xe7b?'
p1804
tp1805
Rp1806
s(S'diff-x-pos--76'
p1807
S'prev-action-3'
p1808
tp1809
g5
(g9
S';\xda\x95\x125\xbcW?'
p1810
tp1811
Rp1812
s(S'diff-x-pos--11'
p1813
S'prev-action-1'
p1814
tp1815
g5
(g9
S'\x94\x8f\xa6\x99\x0ea\x7f?'
p1816
tp1817
Rp1818
s(S'diff-x-pos--16'
p1819
S'action-1'
p1820
tp1821
g5
(g9
S'Cf5\xd7\xa1\xb27?'
p1822
tp1823
Rp1824
s(S'diff-x-pos--10'
p1825
S'prev-action-4'
p1826
tp1827
g5
(g9
S'\x17k\x03q\x05\xc0p\xbf'
p1828
tp1829
Rp1830
s(S'diff-x-pos-50'
p1831
S'prev-action-4'
p1832
tp1833
g5
(g9
S'\x18\xcf\xf2\xabKq_\xbf'
p1834
tp1835
Rp1836
s(S'diff-x-pos--6'
p1837
S'prev-action-3'
p1838
tp1839
g5
(g9
S'\xb1`hK\x10\xfew\xbf'
p1840
tp1841
Rp1842
s(S'diff-x-pos--121'
p1843
S'prev-action-3'
p1844
tp1845
g5
(g9
S'\xf6\xe0S\xd7\x1e\xb1Y?'
p1846
tp1847
Rp1848
s(S'diff-x-pos-53'
p1849
g1268
tp1850
g5
(g9
S'\xb8\x16\xbdJ%\xf1\x9b?'
p1851
tp1852
Rp1853
s(S'diff-x-pos--48'
p1854
S'action-1'
p1855
tp1856
g5
(g9
S'\x1dg\x01\x0b\x15\x9a\x83\xbf'
p1857
tp1858
Rp1859
s(S'diff-x-pos--45'
p1860
S'action-3'
p1861
tp1862
g5
(g9
S'\xad|\xb4\xa8\x0b\xf2\x88\xbf'
p1863
tp1864
Rp1865
s(S'diff-x-pos--66'
p1866
S'prev-action-3'
p1867
tp1868
g5
(g9
S'CS\xbc\x8c\xe5fb\xbf'
p1869
tp1870
Rp1871
s(S'diff-x-pos--77'
p1872
S'action-1'
p1873
tp1874
g5
(g9
S'\xfa\xee\xd6.b,{\xbf'
p1875
tp1876
Rp1877
s(g39
S'prev-action-3'
p1878
tp1879
g5
(g9
S'\xe6j?\x13\xcakp?'
p1880
tp1881
Rp1882
s(S'diff-x-pos-36'
p1883
S'prev-action-1'
p1884
tp1885
g5
(g9
S'\xc9\xf9\x19\xb9\x00Q\x91?'
p1886
tp1887
Rp1888
s(S'action-1'
p1889
S'object-0-x-32'
p1890
tp1891
g5
(g9
S'F\x93\xc1eH\xe1\xbb?'
p1892
tp1893
Rp1894
s(S'diff-x-pos-35'
p1895
S'prev-action-4'
p1896
tp1897
g5
(g9
S'\xf2K\xe7\xf3\xdcEg?'
p1898
tp1899
Rp1900
s(S'diff-x-pos--99'
p1901
S'prev-action-4'
p1902
tp1903
g5
(g9
S'\x8bV\xdeOC\x05k?'
p1904
tp1905
Rp1906
s(S'diff-x-pos-27'
p1907
S'prev-action-4'
p1908
tp1909
g5
(g9
S'"\xa5\x14\xf4\xc0\xe3p\xbf'
p1910
tp1911
Rp1912
s(S'diff-x-pos--45'
p1913
S'prev-action-3'
p1914
tp1915
g5
(g9
S'H\xa0\xdd@\xbcLR?'
p1916
tp1917
Rp1918
s(S'diff-x-pos-52'
p1919
S'action-4'
p1920
tp1921
g5
(g9
S'\xa3\xbb)4<\x04\x92\xbf'
p1922
tp1923
Rp1924
s(S'diff-x-pos--48'
p1925
S'prev-action-1'
p1926
tp1927
g5
(g9
S'\x01\x9a\xc2\x8e8\xedP?'
p1928
tp1929
Rp1930
s(S'action-3'
p1931
S'object-0-x-112'
p1932
tp1933
g5
(g9
S'\xf2\xd5tDq+\xb9?'
p1934
tp1935
Rp1936
s(S'diff-x-pos--60'
p1937
S'action-1'
p1938
tp1939
g5
(g9
S'\xe6\x8c@=>\x9b~\xbf'
p1940
tp1941
Rp1942
s(S'diff-x-pos--10'
p1943
S'action-4'
p1944
tp1945
g5
(g9
S'3\xe2\xe8U\x95\xbbk?'
p1946
tp1947
Rp1948
s(S'object-1-dx--1'
p1949
g508
tp1950
g5
(g9
S'";m\xa7f@h?'
p1951
tp1952
Rp1953
s(S'diff-x-pos--114'
p1954
S'prev-action-1'
p1955
tp1956
g5
(g9
S'\x0c\xbas\xe435w?'
p1957
tp1958
Rp1959
s(S'diff-x-pos--40'
p1960
S'action-4'
p1961
tp1962
g5
(g9
S'\x82\x8a\xea\xf7s\xffm?'
p1963
tp1964
Rp1965
s(S'diff-x-pos--119'
p1966
S'prev-action-3'
p1967
tp1968
g5
(g9
S'{l8)\xcd\xbfF?'
p1969
tp1970
Rp1971
s(S'action-4'
p1972
S'object-1-x-120'
p1973
tp1974
g5
(g9
S'Bx\x04\xcbF&\xa0\xbf'
p1975
tp1976
Rp1977
s(S'diff-x-pos-16'
p1978
S'action-1'
p1979
tp1980
g5
(g9
S'\xb3\xb3K/g-i?'
p1981
tp1982
Rp1983
s(S'diff-x-pos-39'
p1984
S'prev-action-1'
p1985
tp1986
g5
(g9
S'\xe6\x1b:0\x85\x1b}?'
p1987
tp1988
Rp1989
s(S'diff-x-pos--12'
p1990
S'prev-action-1'
p1991
tp1992
g5
(g9
S',\xb18\x7f\xb0[{?'
p1993
tp1994
Rp1995
s(S'diff-x-pos--102'
p1996
S'action-1'
p1997
tp1998
g5
(g9
S'\xf5\xd6\x1cL\xc6\x16p?'
p1999
tp2000
Rp2001
s(S'diff-x-pos--38'
p2002
S'action-4'
p2003
tp2004
g5
(g9
S'\x17\xba7x\x0c\xea\x88?'
p2005
tp2006
Rp2007
s(S'diff-x-pos--99'
p2008
S'action-3'
p2009
tp2010
g5
(g9
S'\xdc\xed\xd8]\xab\xa6X?'
p2011
tp2012
Rp2013
sS'object-0-y-4'
p2014
g5
(g9
S'aT\xd0\x1a\xdbI\x03@'
p2015
tp2016
Rp2017
s(S'action-4'
p2018
g222
tp2019
g5
(g9
S'\xb4W\x83\xb4p\xa3\x98\xbf'
p2020
tp2021
Rp2022
sS'diff-x-pos--43'
p2023
g5
(g9
S'\xa7S8\xa7K\xc6\x8e\xbf'
p2024
tp2025
Rp2026
sg1100
g5
(g9
S'b\xe5\x04\xdfZN\x86?'
p2027
tp2028
Rp2029
sg1640
g5
(g9
S'@)\x1e\x08\xcd\x8b\x8d\xbf'
p2030
tp2031
Rp2032
sS'diff-x-pos--40'
p2033
g5
(g9
S'\xb5\x1fV\xb2\x808\x89\xbf'
p2034
tp2035
Rp2036
sS'diff-x-pos--47'
p2037
g5
(g9
S'\x84(\x12\x92a\x03\x90\xbf'
p2038
tp2039
Rp2040
sg1509
g5
(g9
S'<Q\xcfU\xe7\xdf\x86\xbf'
p2041
tp2042
Rp2043
sS'diff-x-pos--45'
p2044
g5
(g9
S'\x9dRs\xfaLG\x8a\xbf'
p2045
tp2046
Rp2047
sg1123
g5
(g9
S'\x89")\xf7\x01\xd2\x92\xbf'
p2048
tp2049
Rp2050
s(S'diff-x-pos--1'
p2051
S'prev-action-3'
p2052
tp2053
g5
(g9
S'cg{\x86U,Q?'
p2054
tp2055
Rp2056
sg283
g5
(g9
S' \xba\x86tN\xa8\x8a\xbf'
p2057
tp2058
Rp2059
sS'diff-x-pos--48'
p2060
g5
(g9
S'\xe9\xd4\xde\xf9?j\x8e\xbf'
p2061
tp2062
Rp2063
s(S'diff-x-pos-67'
p2064
S'prev-action-1'
p2065
tp2066
g5
(g9
S'{\xb4G\x18-\xaem?'
p2067
tp2068
Rp2069
s(S'diff-x-pos-28'
p2070
S'action-3'
p2071
tp2072
g5
(g9
S'{\x99=\xb5\x8e%\x8d?'
p2073
tp2074
Rp2075
s(S'diff-x-pos--53'
p2076
S'action-3'
p2077
tp2078
g5
(g9
S'\xfbt\x7f\x8b\xcc\xdf\x8c\xbf'
p2079
tp2080
Rp2081
s(S'diff-x-pos--57'
p2082
S'prev-action-1'
p2083
tp2084
g5
(g9
S'\x966\xe9\xdb4\x1b.\xbf'
p2085
tp2086
Rp2087
s(S'diff-x-pos--111'
p2088
S'action-1'
p2089
tp2090
g5
(g9
S'\xe4\x94\xdbW\x85\xf5\x87?'
p2091
tp2092
Rp2093
s(S'diff-x-pos--108'
p2094
S'action-3'
p2095
tp2096
g5
(g9
S'rF\x8d\xe7\xa1W,\xbf'
p2097
tp2098
Rp2099
s(S'diff-x-pos-53'
p2100
S'action-4'
p2101
tp2102
g5
(g9
S'\xbc#\x8dn\xaa\x9b\x8b\xbf'
p2103
tp2104
Rp2105
sS'object-0-x-8'
p2106
g5
(g9
S'\x84a`\x93\xfa\xd5\xd2?'
p2107
tp2108
Rp2109
s(g532
S'prev-action-4'
p2110
tp2111
g5
(g9
S'\x85\xc4\x8b\xf2\xd6\xb7\x86\xbf'
p2112
tp2113
Rp2114
s(g1249
S'prev-action-4'
p2115
tp2116
g5
(g9
S'\xf368X\x05\x86\xa5?'
p2117
tp2118
Rp2119
s(S'diff-x-pos-62'
p2120
S'prev-action-3'
p2121
tp2122
g5
(g9
S'\x9a\rD/\x9eDz\xbf'
p2123
tp2124
Rp2125
s(S'diff-x-pos-32'
p2126
S'prev-action-3'
p2127
tp2128
g5
(g9
S'\x9a\x10\x93\xef\xba\x07q?'
p2129
tp2130
Rp2131
s(g64
S'object-0-x-72'
p2132
tp2133
g5
(g9
S'|\x01H\x0e\xd5\xef\xb5?'
p2134
tp2135
Rp2136
s(S'diff-x-pos--16'
p2137
S'prev-action-4'
p2138
tp2139
g5
(g9
S'\xc3\x8dc\x8a\xd17\x91\xbf'
p2140
tp2141
Rp2142
s(S'diff-x-pos-20'
p2143
S'action-3'
p2144
tp2145
g5
(g9
S'\x887\x9e\x0e\x1a\x11z?'
p2146
tp2147
Rp2148
s(S'diff-x-pos-51'
p2149
S'action-4'
p2150
tp2151
g5
(g9
S'\x0f\xba\x8ed\xc0\xaf\x81\xbf'
p2152
tp2153
Rp2154
s(S'diff-x-pos--76'
p2155
S'action-4'
p2156
tp2157
g5
(g9
S'k\x16K\xc2\x03\x87#?'
p2158
tp2159
Rp2160
s(S'diff-x-pos--106'
p2161
S'prev-action-3'
p2162
tp2163
g5
(g9
S'IwqT\xdeo\x8c?'
p2164
tp2165
Rp2166
s(g2033
S'action-3'
p2167
tp2168
g5
(g9
S'\xee\xa7\x1f\xdd\xbc\xf8\x8c\xbf'
p2169
tp2170
Rp2171
sS'diff-x-pos-63'
p2172
g5
(g9
S'\x8d\xb5\xd8`\x18\xe0\x86?'
p2173
tp2174
Rp2175
s(S'diff-x-pos--28'
p2176
S'prev-action-4'
p2177
tp2178
g5
(g9
S'r\xc4\xa1d\xd31\x92\xbf'
p2179
tp2180
Rp2181
s(g2149
S'prev-action-4'
p2182
tp2183
g5
(g9
S'\x8e91\x81\x1c\xc5f?'
p2184
tp2185
Rp2186
s(S'diff-x-pos--107'
p2187
S'prev-action-4'
p2188
tp2189
g5
(g9
S'\x1bA\xcb;\x814t?'
p2190
tp2191
Rp2192
sS'diff-x-pos-62'
p2193
g5
(g9
S'l\xa1?\xb6Q\xec\x87\xbf'
p2194
tp2195
Rp2196
s(S'diff-x-pos--64'
p2197
g45
tp2198
g5
(g9
S'\x18\x96\xc4\xc1\x8b\x13\x9c\xbf'
p2199
tp2200
Rp2201
s(S'action-4'
p2202
g780
tp2203
g5
(g9
S'\x83=\xa7I\x14"\xae?'
p2204
tp2205
Rp2206
s(S'diff-x-pos--83'
p2207
S'action-3'
p2208
tp2209
g5
(g9
S'+\xb7\xa6\xd1\xd5\xe4\x85\xbf'
p2210
tp2211
Rp2212
s(S'diff-x-pos--111'
p2213
S'prev-action-4'
p2214
tp2215
g5
(g9
S'\xeb\x08\x7fH\xcd+*?'
p2216
tp2217
Rp2218
s(g585
S'prev-action-4'
p2219
tp2220
g5
(g9
S'\xe2\xc4\x82\xafN\xb9\xa2\xbf'
p2221
tp2222
Rp2223
sg1813
g5
(g9
S'\t\xda\xc0WN\xa6`\xbf'
p2224
tp2225
Rp2226
sS'diff-x-pos-67'
p2227
g5
(g9
S'\xaero\xceK\xb1u?'
p2228
tp2229
Rp2230
s(g1593
S'prev-action-1'
p2231
tp2232
g5
(g9
S'\x81\xbb\xf5|\x85}\xc4\xbf'
p2233
tp2234
Rp2235
s(S'diff-x-pos--110'
p2236
S'prev-action-3'
p2237
tp2238
g5
(g9
S'\x85\xe7\x1a\x06\xcee`?'
p2239
tp2240
Rp2241
sS'diff-x-pos-66'
p2242
g5
(g9
S'H)\xf2?-\xf4p?'
p2243
tp2244
Rp2245
sg532
g5
(g9
S'9E,\xd0\xe8\xa7\x87\xbf'
p2246
tp2247
Rp2248
sg301
g5
(g9
S'\x99^\xcff\x8b\xd8\x8a\xbf'
p2249
tp2250
Rp2251
sg567
g5
(g9
S'\xbb\xeem\x97\x97\xc3\x8f\xbf'
p2252
tp2253
Rp2254
sS'diff-x-pos--35'
p2255
g5
(g9
S'y\xba\x92\xd9x\xd3\x86\xbf'
p2256
tp2257
Rp2258
sg1135
g5
(g9
S'\xb3\x0e\xc2\x103F\x86\xbf'
p2259
tp2260
Rp2261
sg671
g5
(g9
S'\x87\xd2h\xbc\xa4\xfd\x89\xbf'
p2262
tp2263
Rp2264
sS'diff-x-pos--30'
p2265
g5
(g9
S'\xbdWs\x16=A\xa1?'
p2266
tp2267
Rp2268
sS'diff-x-pos--31'
p2269
g5
(g9
S'\x07 *[y\xa0\x87\xbf'
p2270
tp2271
Rp2272
s(S'diff-x-pos-22'
p2273
S'prev-action-1'
p2274
tp2275
g5
(g9
S'\xba\xb1\xeaF\xb0|\x90?'
p2276
tp2277
Rp2278
sg2002
g5
(g9
S'a\xb8\xd1\x90d\xe6s\xbf'
p2279
tp2280
Rp2281
sS'diff-x-pos--39'
p2282
g5
(g9
S')U@4\xa3^\xab?'
p2283
tp2284
Rp2285
s(S'diff-x-pos--82'
p2286
S'action-3'
p2287
tp2288
g5
(g9
S'\xe9z\x7f\xbe\x0bEz\xbf'
p2289
tp2290
Rp2291
sS'diff-x-pos-29'
p2292
g5
(g9
S'\x08\x17\x1b\xec3f}?'
p2293
tp2294
Rp2295
sS'diff-x-pos-28'
p2296
g5
(g9
S'\xe0\x1e\xc0[\xcd\n\x85?'
p2297
tp2298
Rp2299
sg1907
g5
(g9
S'Xkc\x94\x03\xf7\x8b?'
p2300
tp2301
Rp2302
sg393
g5
(g9
S'\x91e9\xaf\xec\x98\x85?'
p2303
tp2304
Rp2305
sS'diff-x-pos-25'
p2306
g5
(g9
S'\xeb\x9dL\xc9-l|?'
p2307
tp2308
Rp2309
sS'diff-x-pos-24'
p2310
g5
(g9
S'\x03g\xc7\x00`\n\x86?'
p2311
tp2312
Rp2313
sS'diff-x-pos-23'
p2314
g5
(g9
S'+\xdb\xac\x1a;\xb0X?'
p2315
tp2316
Rp2317
sg1708
g5
(g9
S'\xc1\xf4\xfe\xf7\x8d\xe5|?'
p2318
tp2319
Rp2320
s(S'diff-x-pos-62'
p2321
S'prev-action-4'
p2322
tp2323
g5
(g9
S'\x9d\xe6\xc9\xb8z\\q\xbf'
p2324
tp2325
Rp2326
sS'diff-x-pos-20'
p2327
g5
(g9
S'B8\xbaFO\xdcK\xbf'
p2328
tp2329
Rp2330
sS'diff-x-pos--18'
p2331
g5
(g9
S'\x92lm\xf6\x1d\x85\x90\xbf'
p2332
tp2333
Rp2334
s(S'diff-x-pos--73'
p2335
S'prev-action-3'
p2336
tp2337
g5
(g9
S',\xcfqV\x85\xa2|\xbf'
p2338
tp2339
Rp2340
s(S'diff-x-pos-46'
p2341
S'action-3'
p2342
tp2343
g5
(g9
S'Ju\xa8\xc9\x9d\xd2\x8f?'
p2344
tp2345
Rp2346
s(g828
g1250
tp2347
g5
(g9
S'\xd3\xc3\xb8\x8e`&\x81\xbf'
p2348
tp2349
Rp2350
s(g671
S'prev-action-4'
p2351
tp2352
g5
(g9
S'\xf5|\xdc\xb4\x87\xa5\x8a\xbf'
p2353
tp2354
Rp2355
s(S'diff-x-pos--17'
p2356
S'prev-action-1'
p2357
tp2358
g5
(g9
S'\xec\xd4\xc0Q\xbe\xd6\x04\xbf'
p2359
tp2360
Rp2361
s(S'diff-x-pos-5'
p2362
S'prev-action-3'
p2363
tp2364
g5
(g9
S',$\x11\x9cU\xfcY\xbf'
p2365
tp2366
Rp2367
s(S'diff-x-pos--65'
p2368
S'action-1'
p2369
tp2370
g5
(g9
S'\x98\xe4wH\xef\xeb\xe8\xbe'
p2371
tp2372
Rp2373
s(S'diff-x-pos--29'
p2374
S'action-3'
p2375
tp2376
g5
(g9
S'/\xfd\x19\xbfwA\x93\xbf'
p2377
tp2378
Rp2379
s(S'diff-x-pos-0'
p2380
S'prev-action-3'
p2381
tp2382
g5
(g9
S'\xe8\xc1\x80\xac\x99GS\xbf'
p2383
tp2384
Rp2385
s(S'diff-x-pos-41'
p2386
S'prev-action-1'
p2387
tp2388
g5
(g9
S'\xaf\xd2\xf4\x8c<8\x98?'
p2389
tp2390
Rp2391
s(S'diff-x-pos-59'
p2392
S'prev-action-1'
p2393
tp2394
g5
(g9
S'R\xa8Z1I\x7fT?'
p2395
tp2396
Rp2397
s(S'diff-x-pos--20'
p2398
S'prev-action-1'
p2399
tp2400
g5
(g9
S'Im\xdb!\xdfiu?'
p2401
tp2402
Rp2403
s(S'diff-x-pos--79'
p2404
S'prev-action-1'
p2405
tp2406
g5
(g9
S'G!\x1e\x14t\xd9\x82?'
p2407
tp2408
Rp2409
s(S'diff-x-pos-69'
p2410
S'prev-action-1'
p2411
tp2412
g5
(g9
S'\x85\x8d\xbc\xa7]\x07d?'
p2413
tp2414
Rp2415
s(S'diff-x-pos-12'
p2416
S'action-3'
p2417
tp2418
g5
(g9
S'\x98\x8f@`P\xa4Z?'
p2419
tp2420
Rp2421
s(S'diff-x-pos--44'
p2422
S'action-1'
p2423
tp2424
g5
(g9
S'\x85\xfa\x9c\xc3\xdeoy\xbf'
p2425
tp2426
Rp2427
s(g851
S'prev-action-4'
p2428
tp2429
g5
(g9
S' 6\x82\x1f\xdd{w\xbf'
p2430
tp2431
Rp2432
s(S'diff-x-pos--100'
p2433
S'action-1'
p2434
tp2435
g5
(g9
S'\xb9\xb9 \x91\x15\x05\x80?'
p2436
tp2437
Rp2438
s(S'diff-x-pos--81'
p2439
S'prev-action-1'
p2440
tp2441
g5
(g9
S'* ]M\x8c!\x86\xbf'
p2442
tp2443
Rp2444
s(S'diff-x-pos-6'
p2445
S'action-3'
p2446
tp2447
g5
(g9
S'\xf2\xb2!I\xe1\xfc6\xbf'
p2448
tp2449
Rp2450
s(g1353
S'action-4'
p2451
tp2452
g5
(g9
S'\xcb\x92C\xe6t\xe5\x92\xbf'
p2453
tp2454
Rp2455
s(g858
S'action-4'
p2456
tp2457
g5
(g9
S'I\xeeIe\xde<U\xbf'
p2458
tp2459
Rp2460
s(S'diff-x-pos--98'
p2461
S'prev-action-4'
p2462
tp2463
g5
(g9
S'\x89\x12\x1063\xfe\x80?'
p2464
tp2465
Rp2466
s(S'diff-x-pos-58'
p2467
S'prev-action-1'
p2468
tp2469
g5
(g9
S"m\xb4\xb7'\x9b\xeb\x8a?"
p2470
tp2471
Rp2472
s(S'diff-x-pos--113'
p2473
S'action-1'
p2474
tp2475
g5
(g9
S'\x00\xe4\xa8\x98\xdf T?'
p2476
tp2477
Rp2478
s(S'diff-x-pos-50'
p2479
S'action-3'
p2480
tp2481
g5
(g9
S'sS\x1f\x0c\xc7d\x94?'
p2482
tp2483
Rp2484
s(g289
S'prev-action-3'
p2485
tp2486
g5
(g9
S'yo\xf5\x9d~bc\xbf'
p2487
tp2488
Rp2489
s(S'diff-x-pos--73'
p2490
S'prev-action-4'
p2491
tp2492
g5
(g9
S"'\xa4\xd8\x01\x83)\x90\xbf"
p2493
tp2494
Rp2495
s(S'diff-x-pos--89'
p2496
S'action-3'
p2497
tp2498
g5
(g9
S'\xf4\x86P6ev~?'
p2499
tp2500
Rp2501
s(S'diff-x-pos-44'
p2502
g677
tp2503
g5
(g9
S'\x9a\x99\t\x0e\xea\xd5|\xbf'
p2504
tp2505
Rp2506
s(S'diff-x-pos--70'
p2507
S'action-4'
p2508
tp2509
g5
(g9
S'\xbe)\x03D\xa0\xaf`\xbf'
p2510
tp2511
Rp2512
s(S'action-4'
p2513
S'object-1-x-64'
p2514
tp2515
g5
(g9
S'\xdf\x892\x90&\xc6\x88\xbf'
p2516
tp2517
Rp2518
s(S'diff-x-pos-61'
p2519
S'action-3'
p2520
tp2521
g5
(g9
S'>V\xb8\x07\xbc\xb9]?'
p2522
tp2523
Rp2524
s(S'action-1'
p2525
S'object-0-x-96'
p2526
tp2527
g5
(g9
S'\x07`V\x87\xa7y\xb8?'
p2528
tp2529
Rp2530
s(S'diff-x-pos--91'
p2531
S'prev-action-4'
p2532
tp2533
g5
(g9
S'0\xb4kpRTo?'
p2534
tp2535
Rp2536
s(S'diff-x-pos-51'
p2537
S'prev-action-3'
p2538
tp2539
g5
(g9
S'\xcb]C\xd1L\xafv?'
p2540
tp2541
Rp2542
s(g843
S'action-1'
p2543
tp2544
g5
(g9
S'\xc9\x8f\x08\xd5\xaf\xdbr\xbf'
p2545
tp2546
Rp2547
s(S'diff-x-pos--78'
p2548
S'prev-action-1'
p2549
tp2550
g5
(g9
S'\xd7[MC\xe3\xcc\x82\xbf'
p2551
tp2552
Rp2553
s(S'action-1'
p2554
S'object-0-x-16'
p2555
tp2556
g5
(g9
S'\x0cN\xe4W\x91[\xb3?'
p2557
tp2558
Rp2559
s(S'diff-x-pos--25'
p2560
S'action-1'
p2561
tp2562
g5
(g9
S'\t\x00\x83\x01\xe3ad\xbf'
p2563
tp2564
Rp2565
s(S'diff-x-pos-7'
p2566
S'prev-action-3'
p2567
tp2568
g5
(g9
S'\x8f\x1bp\x12E\xdbr\xbf'
p2569
tp2570
Rp2571
s(S'diff-x-pos-60'
p2572
S'action-3'
p2573
tp2574
g5
(g9
S'"r)V\xad\x8fs\xbf'
p2575
tp2576
Rp2577
s(S'diff-x-pos--57'
p2578
S'action-3'
p2579
tp2580
g5
(g9
S'P\xe8\x1b\x98\x07"\x88\xbf'
p2581
tp2582
Rp2583
s(S'diff-x-pos--43'
p2584
S'action-1'
p2585
tp2586
g5
(g9
S'\xe0\\\x8e*\x15\xa6v\xbf'
p2587
tp2588
Rp2589
s(g1032
S'prev-action-1'
p2590
tp2591
g5
(g9
S'\xc8\x8f:\x85|Gq?'
p2592
tp2593
Rp2594
s(S'diff-x-pos--84'
p2595
S'prev-action-4'
p2596
tp2597
g5
(g9
S'\x85\xce1\x8c[\x80o?'
p2598
tp2599
Rp2600
s(S'diff-x-pos--78'
p2601
S'action-1'
p2602
tp2603
g5
(g9
S'\xc6\x88\x7f\xf0^\xc3u\xbf'
p2604
tp2605
Rp2606
s(S'diff-x-pos--44'
p2607
S'prev-action-4'
p2608
tp2609
g5
(g9
S'\xb4-|\x99\x17\x8d\x90\xbf'
p2610
tp2611
Rp2612
s(S'diff-x-pos--11'
p2613
S'action-3'
p2614
tp2615
g5
(g9
S'\x1e\xaf\xa1\xb7\xca\xfa\x88?'
p2616
tp2617
Rp2618
s(S'diff-x-pos--92'
p2619
S'prev-action-4'
p2620
tp2621
g5
(g9
S'Y_\xcari\xe1\x82?'
p2622
tp2623
Rp2624
s(S'action-1'
p2625
S'prev-action-0'
p2626
tp2627
g5
(g9
S'G\x1e(Q\x9a\xdd\xe2?'
p2628
tp2629
Rp2630
s(S'diff-x-pos--101'
p2631
S'action-4'
p2632
tp2633
g5
(g9
S'\x19\xdb\xfc\x089\x0e\x80?'
p2634
tp2635
Rp2636
s(S'action-4'
p2637
S'object-1-x-108'
p2638
tp2639
g5
(g9
S'\xeaJ]$\xf1\xcb\x9d\xbf'
p2640
tp2641
Rp2642
s(S'diff-x-pos--42'
p2643
S'prev-action-3'
p2644
tp2645
g5
(g9
S'\xce~\xfd\x8d\xa2\xc2\x97\xbf'
p2646
tp2647
Rp2648
s(S'diff-x-pos--118'
p2649
S'action-1'
p2650
tp2651
g5
(g9
S'\x00^ \xef\xb0\xb8|?'
p2652
tp2653
Rp2654
s(S'diff-x-pos-61'
p2655
S'action-4'
p2656
tp2657
g5
(g9
S'\x16\x1a\xb3p\xc4!\x82\xbf'
p2658
tp2659
Rp2660
s(S'diff-x-pos--9'
p2661
S'prev-action-3'
p2662
tp2663
g5
(g9
S'\xb9\x85&\x0cc\xcct\xbf'
p2664
tp2665
Rp2666
s(S'action-3'
p2667
S'object-0-x-76'
p2668
tp2669
g5
(g9
S'd\x16i\x17\x8e\x06\xba?'
p2670
tp2671
Rp2672
s(S'diff-x-pos--18'
p2673
S'action-3'
p2674
tp2675
g5
(g9
S'\x80<[Z\xe2N\x7f\xbf'
p2676
tp2677
Rp2678
s(S'diff-x-pos-11'
p2679
S'action-4'
p2680
tp2681
g5
(g9
S'\x0f\xbe\x83\xdf\xdf\xc9\x95\xbf'
p2682
tp2683
Rp2684
s(S'diff-x-pos--113'
p2685
S'prev-action-1'
p2686
tp2687
g5
(g9
S'p\xfd\x18\xea\xce\xdc.\xbf'
p2688
tp2689
Rp2690
s(S'diff-x-pos-58'
p2691
S'action-1'
p2692
tp2693
g5
(g9
S'p\xae^\x8c$\xbdv?'
p2694
tp2695
Rp2696
s(S'diff-x-pos--46'
p2697
S'action-1'
p2698
tp2699
g5
(g9
S' \x82\xd3R\xca\x18\x8b\xbf'
p2700
tp2701
Rp2702
s(g2071
S'object-0-x-88'
p2703
tp2704
g5
(g9
S'\x162\x0fc\xc62\xbb?'
p2705
tp2706
Rp2707
s(S'diff-x-pos-28'
p2708
S'prev-action-1'
p2709
tp2710
g5
(g9
S':ux\xc9\xb7\xf2\x8d?'
p2711
tp2712
Rp2713
s(S'diff-x-pos-56'
p2714
S'prev-action-1'
p2715
tp2716
g5
(g9
S'\x83\xbd\xf8[\x97p\x87?'
p2717
tp2718
Rp2719
s(g2714
S'action-3'
p2720
tp2721
g5
(g9
S'\xf0k^.\xf8\x9b^?'
p2722
tp2723
Rp2724
s(S'diff-x-pos--46'
p2725
S'prev-action-3'
p2726
tp2727
g5
(g9
S' g\xb4j\xa6x\x86\xbf'
p2728
tp2729
Rp2730
s(g1147
S'action-1'
p2731
tp2732
g5
(g9
S'}\xf6\xaa\xa4\xcc.p\xbf'
p2733
tp2734
Rp2735
s(S'diff-x-pos--72'
p2736
S'prev-action-4'
p2737
tp2738
g5
(g9
S'ZB\xc2\xf9\xb5\xb8\x8d\xbf'
p2739
tp2740
Rp2741
sS'object-0-x-28'
p2742
g5
(g9
S"\xa2\xcd\xc0'\xe8\x0c\xd2?"
p2743
tp2744
Rp2745
s(g851
S'action-4'
p2746
tp2747
g5
(g9
S'\xf8\x02"r\x125\x81?'
p2748
tp2749
Rp2750
s(g843
S'prev-action-4'
p2751
tp2752
g5
(g9
S"\xdd\xfc\xab'\xa9\xae\x8d\xbf"
p2753
tp2754
Rp2755
s(S'action-1'
p2756
S'object-0-x-64'
p2757
tp2758
g5
(g9
S'\xf0!\x12\rP\x80\xb6?'
p2759
tp2760
Rp2761
s(g2410
S'action-1'
p2762
tp2763
g5
(g9
S'\x1e\xb21\xf3{3r?'
p2764
tp2765
Rp2766
s(S'diff-x-pos-63'
p2767
S'prev-action-4'
p2768
tp2769
g5
(g9
S"q'J\xe0w\x92\\?"
p2770
tp2771
Rp2772
sS'object-0-x-20'
p2773
g5
(g9
S"')n\xb3\x0c*\xd3?"
p2774
tp2775
Rp2776
s(S'diff-x-pos-17'
p2777
S'prev-action-4'
p2778
tp2779
g5
(g9
S'\x05\x93|\xdf3f\x93\xbf'
p2780
tp2781
Rp2782
s(S'diff-x-pos-10'
p2783
S'action-3'
p2784
tp2785
g5
(g9
S'\xda\xc7\xd7\x03K1|?'
p2786
tp2787
Rp2788
s(g1058
S'prev-action-4'
p2789
tp2790
g5
(g9
S'\x98\xf4G\x9f\x1e\xe1\x91\xbf'
p2791
tp2792
Rp2793
s(S'diff-x-pos--76'
p2794
S'action-3'
p2795
tp2796
g5
(g9
S'\xf5J\x7fD\xf6\xa6z\xbf'
p2797
tp2798
Rp2799
s(S'diff-x-pos--67'
p2800
S'prev-action-3'
p2801
tp2802
g5
(g9
S'\xee\x7f\xde\x98\x9al\xc5\xbf'
p2803
tp2804
Rp2805
sS'object-0-y-12'
p2806
g5
(g9
S'\xe9m\x9f\xc3\x00v\x03@'
p2807
tp2808
Rp2809
sS'diff-x-pos--112'
p2810
g5
(g9
S'\x974!"\xe0U\x88?'
p2811
tp2812
Rp2813
sS'object-0-y-16'
p2814
g5
(g9
S'\x17\x11myJ#\x03@'
p2815
tp2816
Rp2817
s(g1100
S'prev-action-4'
p2818
tp2819
g5
(g9
S'\xf73\xc2?\xb0a\xaa?'
p2820
tp2821
Rp2822
s(g186
S'action-4'
p2823
tp2824
g5
(g9
S'\x11\t\xe41\xae\xba\x82\xbf'
p2825
tp2826
Rp2827
s(S'diff-x-pos--107'
p2828
S'action-3'
p2829
tp2830
g5
(g9
S'\x08\xaee\xc4?\x15\x80?'
p2831
tp2832
Rp2833
s(S'diff-x-pos--71'
p2834
S'action-1'
p2835
tp2836
g5
(g9
S'X>\x02|Y\xf3y\xbf'
p2837
tp2838
Rp2839
s(S'diff-x-pos--54'
p2840
S'prev-action-3'
p2841
tp2842
g5
(g9
S'\r\x0c\xd0O\xf3Gw\xbf'
p2843
tp2844
Rp2845
s(S'diff-x-pos-31'
p2846
S'action-3'
p2847
tp2848
g5
(g9
S'\xe0\xd5\x1axY\x16\x91?'
p2849
tp2850
Rp2851
s(S'diff-x-pos-46'
p2852
S'prev-action-3'
p2853
tp2854
g5
(g9
S'\xde\xf8{\x1c)\x06_?'
p2855
tp2856
Rp2857
s(S'diff-x-pos-11'
p2858
S'action-3'
p2859
tp2860
g5
(g9
S'G\x1dT\x87R\xee\x94?'
p2861
tp2862
Rp2863
s(g1250
g2115
tp2864
g5
(g9
S'\x17\x97\xd1f\x9bq\xec?'
p2865
tp2866
Rp2867
s(S'diff-x-pos--56'
p2868
S'action-1'
p2869
tp2870
g5
(g9
S'h\x06\x1b\xfc\xe6\xedu\xbf'
p2871
tp2872
Rp2873
s(S'diff-x-pos-37'
p2874
S'action-4'
p2875
tp2876
g5
(g9
S'\x0e\xce\xde\xdb\x19\x19S?'
p2877
tp2878
Rp2879
s(g302
S'object-1-x-76'
p2880
tp2881
g5
(g9
S'\xbc@\xde\x90\xf6\xc4\x99\xbf'
p2882
tp2883
Rp2884
s(g45
S'object-1-x-108'
p2885
tp2886
g5
(g9
S'\xc7\xb8U\x9f\xd92x\xbf'
p2887
tp2888
Rp2889
s(S'diff-x-pos-32'
p2890
S'action-1'
p2891
tp2892
g5
(g9
S'r\xb9C\xa8K#g?'
p2893
tp2894
Rp2895
s(S'diff-x-pos-7'
p2896
S'action-1'
p2897
tp2898
g5
(g9
S'\xc4\xd0\x1bBH\x96:\xbf'
p2899
tp2900
Rp2901
s(S'diff-x-pos-22'
p2902
S'action-1'
p2903
tp2904
g5
(g9
S'\xaaN\x90R\xbe\\f?'
p2905
tp2906
Rp2907
s(S'object-0-dx-1'
p2908
g522
tp2909
g5
(g9
S'\xe9\x91EY\x93=\xb5\xbf'
p2910
tp2911
Rp2912
s(S'diff-x-pos--68'
p2913
S'prev-action-3'
p2914
tp2915
g5
(g9
S'\xa5\xbcVE\x0c\xb0:\xbf'
p2916
tp2917
Rp2918
s(S'diff-x-pos--50'
p2919
S'prev-action-3'
p2920
tp2921
g5
(g9
S'\x1a\xba\x9f\x8d3\x03V?'
p2922
tp2923
Rp2924
sg440
g5
(g9
S'4\x88\xba\x01\xcc\xd9\x87?'
p2925
tp2926
Rp2927
sS'diff-x-pos--104'
p2928
g5
(g9
S'\xf3\x9ck\xd8\x10\x05\x8f?'
p2929
tp2930
Rp2931
sg947
g5
(g9
S'U\xafXu\xc4\x00\x92?'
p2932
tp2933
Rp2934
sS'diff-x-pos--106'
p2935
g5
(g9
S'"\x1b\x8c\x9f\x94\xf8\x93?'
p2936
tp2937
Rp2938
sS'diff-x-pos--101'
p2939
g5
(g9
S'\xa2\xde\x8fW\x96\xa3\x93?'
p2940
tp2941
Rp2942
sg1129
g5
(g9
S'\xf6\xd7\xe4\xac-\x11\x8f?'
p2943
tp2944
Rp2945
sg1497
g5
(g9
S'\xc6]D\x08\xb5\xfc\x93?'
p2946
tp2947
Rp2948
sS'diff-x-pos--102'
p2949
g5
(g9
S'\xb6\nO\x97\xcc\x1c\x9b?'
p2950
tp2951
Rp2952
s(g2949
S'prev-action-4'
p2953
tp2954
g5
(g9
S'\x85\xecT\tP\xfcm?'
p2955
tp2956
Rp2957
s(g15
S'object-0-x-100'
p2958
tp2959
g5
(g9
S'\xdf\x88\xf2\xb6\xc9\x90\xb8?'
p2960
tp2961
Rp2962
sg1690
g5
(g9
S'\xdb\x8c[\x8d\x83\xae\x8e?'
p2963
tp2964
Rp2965
sS'object-1-dy--1'
p2966
g5
(g9
S'\xf6\xbd\xd1\x05\xfe\xb6\xa5?'
p2967
tp2968
Rp2969
s(S'diff-x-pos--88'
p2970
S'action-1'
p2971
tp2972
g5
(g9
S'\xf7\xf2|\xb2\xf9\n[\xbf'
p2973
tp2974
Rp2975
s(g1267
S'action-4'
p2976
tp2977
g5
(g9
S'\x88u\xd2\xc3\xd8&\xa2?'
p2978
tp2979
Rp2980
s(g947
S'action-4'
p2981
tp2982
g5
(g9
S'\x97\x86e y\x0eu?'
p2983
tp2984
Rp2985
s(S'diff-x-pos--28'
p2986
S'action-4'
p2987
tp2988
g5
(g9
S'Z\x0c\xc1\xd0N\xc7\x07?'
p2989
tp2990
Rp2991
s(g2
S'prev-action-1'
p2992
tp2993
g5
(g9
S'\x00\xdb\x8eM\xb0\xc7w\xbf'
p2994
tp2995
Rp2996
s(g816
S'action-1'
p2997
tp2998
g5
(g9
S'\xe4nr\x1c\xac\\P\xbf'
p2999
tp3000
Rp3001
s(g192
S'action-1'
p3002
tp3003
g5
(g9
S'\x0b\x07\xeb\x18\xbdaf?'
p3004
tp3005
Rp3006
s(g2137
S'action-4'
p3007
tp3008
g5
(g9
S'}\xa3\x93j\xf6\x01l?'
p3009
tp3010
Rp3011
s(g2572
S'prev-action-1'
p3012
tp3013
g5
(g9
S'\x94\r\x19\xd1Y\xd9|?'
p3014
tp3015
Rp3016
s(g1217
S'prev-action-4'
p3017
tp3018
g5
(g9
S',\xb0\x85\xf6\x12L|?'
p3019
tp3020
Rp3021
s(g1943
S'prev-action-1'
p3022
tp3023
g5
(g9
S'\xc7\xe2N\x198\xe9t?'
p3024
tp3025
Rp3026
s(S'diff-x-pos-50'
p3027
S'prev-action-1'
p3028
tp3029
g5
(g9
S'\xa8>\x11\xb9\xb7\x0e\x9a?'
p3030
tp3031
Rp3032
s(g2100
S'prev-action-4'
p3033
tp3034
g5
(g9
S'-\xe5~]\xf4\xa0\x80?'
p3035
tp3036
Rp3037
sg2531
g5
(g9
S'\xefk"\x0f\xdb\x02z?'
p3038
tp3039
Rp3040
s(g277
S'prev-action-3'
p3041
tp3042
g5
(g9
S'\x96\x1a*\xf6j\xa6z\xbf'
p3043
tp3044
Rp3045
s(g1285
S'action-4'
p3046
tp3047
g5
(g9
S'j\xa9\xa0\xea\xd1\x85|\xbf'
p3048
tp3049
Rp3050
s(S'diff-x-pos--19'
p3051
S'action-1'
p3052
tp3053
g5
(g9
S'\x07d\x07?\xb5zk\xbf'
p3054
tp3055
Rp3056
s(S'diff-x-pos--1'
p3057
S'action-3'
p3058
tp3059
g5
(g9
S'w2\x19\x88\xe1hv\xbf'
p3060
tp3061
Rp3062
s(g1135
S'action-4'
p3063
tp3064
g5
(g9
S'B\xb3\\\xe5\x08Mt?'
p3065
tp3066
Rp3067
s(g2197
g504
tp3068
g5
(g9
S'\x00\x00\x00\x00\x00\x00\x00\x00'
p3069
tp3070
Rp3071
s(S'diff-x-pos--68'
p3072
S'prev-action-4'
p3073
tp3074
g5
(g9
S'\x14\x84\x1d\xb4S\xf6\x90\xbf'
p3075
tp3076
Rp3077
s(g1129
S'prev-action-3'
p3078
tp3079
g5
(g9
S'\x1e\xcf\x92rF{f?'
p3080
tp3081
Rp3082
s(g2531
S'action-1'
p3083
tp3084
g5
(g9
S'V\xe4\x90\x97?\x16;\xbf'
p3085
tp3086
Rp3087
s(g729
S'prev-action-4'
p3088
tp3089
g5
(g9
S'\xb4\xd3\xf1Y\xa0@p\xbf'
p3090
tp3091
Rp3092
s(S'diff-x-pos--20'
p3093
S'action-3'
p3094
tp3095
g5
(g9
S'\x83\x0e7\x976\xed\x90\xbf'
p3096
tp3097
Rp3098
s(S'diff-x-pos--86'
p3099
S'prev-action-1'
p3100
tp3101
g5
(g9
S'\x18"b\x98\xc3\xae\x85\xbf'
p3102
tp3103
Rp3104
s(S'diff-x-pos-39'
p3105
S'action-1'
p3106
tp3107
g5
(g9
S'H\x17o\xeb\x93y}?'
p3108
tp3109
Rp3110
s(S'diff-x-pos-0'
p3111
S'action-1'
p3112
tp3113
g5
(g9
S'\xf9\xb5\x1b\xf8 N\x80?'
p3114
tp3115
Rp3116
s(S'diff-x-pos--120'
p3117
S'prev-action-4'
p3118
tp3119
g5
(g9
S'H\xaf5\xc5\x8f8w?'
p3120
tp3121
Rp3122
s(S'diff-x-pos--70'
p3123
S'prev-action-1'
p3124
tp3125
g5
(g9
S'\xab\rNX}\xfa)?'
p3126
tp3127
Rp3128
s(S'diff-x-pos-49'
p3129
S'prev-action-4'
p3130
tp3131
g5
(g9
S'\x13\x8b\xf8\x05\x04\xe4\x82?'
p3132
tp3133
Rp3134
s(S'diff-x-pos-64'
p3135
S'action-3'
p3136
tp3137
g5
(g9
S')\\\xb5h\xc3<E\xbf'
p3138
tp3139
Rp3140
s(S'diff-x-pos--114'
p3141
S'action-1'
p3142
tp3143
g5
(g9
S'\xba;\xafY@)\x8d\xbf'
p3144
tp3145
Rp3146
s(g655
g522
tp3147
g5
(g9
S'A\xab`\xd3\xeeJ\xac?'
p3148
tp3149
Rp3150
s(S'diff-x-pos--73'
p3151
S'action-1'
p3152
tp3153
g5
(g9
S'\x863\xde\xfd\xe7\xce\x84\xbf'
p3154
tp3155
Rp3156
s(S'diff-x-pos-64'
p3157
S'prev-action-4'
p3158
tp3159
g5
(g9
S'\x15lg\x83\xbdle\xbf'
p3160
tp3161
Rp3162
s(S'action-3'
p3163
S'object-0-x-32'
p3164
tp3165
g5
(g9
S'\x05\xd7D\xbd\xc0|\xbc?'
p3166
tp3167
Rp3168
s(S'diff-x-pos--82'
p3169
S'prev-action-1'
p3170
tp3171
g5
(g9
S'\xfb\xae\x1e}l\x13`\xbf'
p3172
tp3173
Rp3174
s(S'diff-x-pos--57'
p3175
S'action-4'
p3176
tp3177
g5
(g9
S'\x88\x9d\xc5\xf1\xc9\x14x\xbf'
p3178
tp3179
Rp3180
s(S'diff-x-pos--99'
p3181
S'action-4'
p3182
tp3183
g5
(g9
S"\x15\x128\n'<\x84?"
p3184
tp3185
Rp3186
s(S'diff-x-pos-29'
p3187
S'prev-action-3'
p3188
tp3189
g5
(g9
S'\x9f\x88f\xbf)\x97V\xbf'
p3190
tp3191
Rp3192
s(g1895
S'action-4'
p3193
tp3194
g5
(g9
S'\xab#\xfdt\xef\xb0U?'
p3195
tp3196
Rp3197
s(S'diff-x-pos-24'
p3198
S'prev-action-1'
p3199
tp3200
g5
(g9
S'\xdb\xc8)\xb2S\x98\x89?'
p3201
tp3202
Rp3203
s(S'diff-x-pos--21'
p3204
S'action-3'
p3205
tp3206
g5
(g9
S'\xdd\xbe\x14>\x8b\xfc\x8d\xbf'
p3207
tp3208
Rp3209
s(S'diff-x-pos--74'
p3210
S'prev-action-4'
p3211
tp3212
g5
(g9
S')/\x82%\xea\xa8\x95\xbf'
p3213
tp3214
Rp3215
s(S'diff-x-pos--80'
p3216
S'action-3'
p3217
tp3218
g5
(g9
S'B\xa7\x03\x9d)\xa4\x80\xbf'
p3219
tp3220
Rp3221
s(S'diff-x-pos--2'
p3222
S'prev-action-3'
p3223
tp3224
g5
(g9
S'\x01\x89\x00\x05z)v?'
p3225
tp3226
Rp3227
sS'diff-x-pos--115'
p3228
g5
(g9
S'\x05\xd7JvY\xa9\x87?'
p3229
tp3230
Rp3231
s(g735
S'prev-action-1'
p3232
tp3233
g5
(g9
S'D\xc3\x91\x1f\x84\xac>?'
p3234
tp3235
Rp3236
s(S'diff-x-pos--34'
p3237
S'action-3'
p3238
tp3239
g5
(g9
S'\x13\xba\x1e\xfd\xef\xde\x8e\xbf'
p3240
tp3241
Rp3242
s(S'diff-x-pos-56'
p3243
S'prev-action-3'
p3244
tp3245
g5
(g9
S'\x8aP\xda\x8f<4d\xbf'
p3246
tp3247
Rp3248
s(S'action-3'
p3249
S'object-0-x-116'
p3250
tp3251
g5
(g9
S'\xb4d\xc4\x88\xb7x\xb4?'
p3252
tp3253
Rp3254
s(S'diff-x-pos-53'
p3255
S'action-1'
p3256
tp3257
g5
(g9
S'\x879\xb8\xbb_G\x99?'
p3258
tp3259
Rp3260
s(g1036
S'prev-action-4'
p3261
tp3262
g5
(g9
S'\x9e<\xe5\r\x98i\x98\xbf'
p3263
tp3264
Rp3265
s(S'diff-x-pos--83'
p3266
S'prev-action-1'
p3267
tp3268
g5
(g9
S'\xf8\xb4\xda\x11N\xaf\x83?'
p3269
tp3270
Rp3271
s(g335
S'prev-action-4'
p3272
tp3273
g5
(g9
S'\xed\xcf\x16\x05\ne\x8d\xbf'
p3274
tp3275
Rp3276
s(S'diff-x-pos--36'
p3277
S'prev-action-1'
p3278
tp3279
g5
(g9
S'+\x7f} u?\x80?'
p3280
tp3281
Rp3282
s(S'diff-x-pos--6'
p3283
S'action-3'
p3284
tp3285
g5
(g9
S'\x16\xbbpl\xcc8z\xbf'
p3286
tp3287
Rp3288
s(S'diff-x-pos-32'
p3289
S'prev-action-4'
p3290
tp3291
g5
(g9
S'k\xf8*\x16k%v\xbf'
p3292
tp3293
Rp3294
s(S'diff-x-pos-49'
p3295
S'prev-action-3'
p3296
tp3297
g5
(g9
S'"\xbb\x06\xb2\x81\x80p?'
p3298
tp3299
Rp3300
s(S'diff-x-pos--16'
p3301
S'prev-action-1'
p3302
tp3303
g5
(g9
S'r\x93\xcc!\x1c|\x8b?'
p3304
tp3305
Rp3306
s(g1960
S'prev-action-1'
p3307
tp3308
g5
(g9
S'U\xed_2Ntb?'
p3309
tp3310
Rp3311
s(S'diff-x-pos--106'
p3312
S'action-1'
p3313
tp3314
g5
(g9
S'\xa7\xa4\xd4\xa08\x07t?'
p3315
tp3316
Rp3317
s(S'action-4'
p3318
S'object-0-x-64'
p3319
tp3320
g5
(g9
S"\xfc\x9e\xa8'\xca\x15\xbc?"
p3321
tp3322
Rp3323
s(S'diff-x-pos-20'
p3324
S'prev-action-1'
p3325
tp3326
g5
(g9
S'\xee\x1d\xa7.\x82\x18\x8b?'
p3327
tp3328
Rp3329
s(g665
S'prev-action-1'
p3330
tp3331
g5
(g9
S'\xe0-\x1bh\xa3\xf1v?'
p3332
tp3333
Rp3334
s(g2451
g776
tp3335
g5
(g9
S'd<\xedQY\xfa\xb5?'
p3336
tp3337
Rp3338
s(S'action-3'
p3339
S'object-1-x-80'
p3340
tp3341
g5
(g9
S'*\x92\xea.\xb5 e?'
p3342
tp3343
Rp3344
s(g2321
S'action-1'
p3345
tp3346
g5
(g9
S'\\\x83mV\x1c~f?'
p3347
tp3348
Rp3349
sg2461
g5
(g9
S'\xfd\xa0p@\xf9W\x9a?'
p3350
tp3351
Rp3352
sS'diff-x-pos--99'
p3353
g5
(g9
S'\x00\x94\xfbq\x9a*\x92?'
p3354
tp3355
Rp3356
s(S'diff-x-pos-12'
p3357
S'prev-action-3'
p3358
tp3359
g5
(g9
S'i\x18\xef\x81f\xf5n?'
p3360
tp3361
Rp3362
sg459
g5
(g9
S'\x991\x03\xd5\x952\x04@'
p3363
tp3364
Rp3365
s(g1471
g250
tp3366
g5
(g9
S'\xbfD\x90\xb1\xcbsq\xbf'
p3367
tp3368
Rp3369
sS'diff-x-pos--90'
p3370
g5
(g9
S'n\xf4\x0c\x0f\xce\xd2\x8c?'
p3371
tp3372
Rp3373
s(g2543
g2106
tp3374
g5
(g9
S'\x05D\xda4\xdez\xb2?'
p3375
tp3376
Rp3377
sg1398
g5
(g9
S'\xb3?\xc1\xe4\x0eg\x94?'
p3378
tp3379
Rp3380
sS'diff-x-pos--93'
p3381
g5
(g9
S'x\xe2\x1c\x9c\xe0\xed\x84?'
p3382
tp3383
Rp3384
sS'diff-x-pos--94'
p3385
g5
(g9
S'W\xea+\xc7\t4\x93?'
p3386
tp3387
Rp3388
sS'diff-x-pos--95'
p3389
g5
(g9
S'\xfeH\x8f\x83\xf6\xb2\x91?'
p3390
tp3391
Rp3392
sS'diff-x-pos--96'
p3393
g5
(g9
S'&\x05\xfe\xe4p\x8b\x91?'
p3394
tp3395
Rp3396
sg752
g5
(g9
S'PtEw\x91\x9c\x95?'
p3397
tp3398
Rp3399
s(S'diff-x-pos--110'
p3400
S'prev-action-4'
p3401
tp3402
g5
(g9
S'\x1f\x92\xa8?q<\x80?'
p3403
tp3404
Rp3405
s(S'diff-x-pos-8'
p3406
S'action-3'
p3407
tp3408
g5
(g9
S'\xd0\x8d\x1a\x97\x04\xbc^?'
p3409
tp3410
Rp3411
s(S'action-3'
p3412
S'object-0-x-4'
p3413
tp3414
g5
(g9
S'i\x0e\xa2\x17\xca0\xb6?'
p3415
tp3416
Rp3417
s(g1708
S'prev-action-4'
p3418
tp3419
g5
(g9
S'\x84N\x02\x1e/8\x84\xbf'
p3420
tp3421
Rp3422
sS'diff-x-pos--29'
p3423
g5
(g9
S'2\x84G\xf0\x89 \x8f\xbf'
p3424
tp3425
Rp3426
s(g567
g3318
tp3427
g5
(g9
S'\xfa\x1a\x8eAG\xbea?'
p3428
tp3429
Rp3430
s(g440
S'action-4'
p3431
tp3432
g5
(g9
S'gy\xe90\x07Xh\xbf'
p3433
tp3434
Rp3435
s(g428
S'prev-action-4'
p3436
tp3437
g5
(g9
S'\xc0\xf6D\xba\x84B\x90?'
p3438
tp3439
Rp3440
s(S'diff-x-pos-16'
p3441
S'prev-action-3'
p3442
tp3443
g5
(g9
S'\x8d\xd68H\xe4\xb8u?'
p3444
tp3445
Rp3446
sS'diff-x-pos--25'
p3447
g5
(g9
S'\xe4\x85\x0cw\xf7W\x8f\xbf'
p3448
tp3449
Rp3450
sS'diff-x-pos--24'
p3451
g5
(g9
S'^\x06/<\xbeY\x89\xbf'
p3452
tp3453
Rp3454
sg63
g5
(g9
S"'g\xa6z\xb5[\x90\xbf"
p3455
tp3456
Rp3457
sg405
g5
(g9
S'\x9fB\xf0\x16\x8a\n\x89\xbf'
p3458
tp3459
Rp3460
sS'diff-x-pos--21'
p3461
g5
(g9
S'\xa2\xa7\xee\x97y\xf1\x8f\xbf'
p3462
tp3463
Rp3464
sS'diff-x-pos--20'
p3465
g5
(g9
S'\xc8k\xe7Hp\x1e\x92\xbf'
p3466
tp3467
Rp3468
sS'diff-x-pos--23'
p3469
g5
(g9
S'\xa0\x0c,\x0cdf\x8e\xbf'
p3470
tp3471
Rp3472
sS'diff-x-pos--22'
p3473
g5
(g9
S'\xfe\xc1e\x8b\xad\xa2\x92\xbf'
p3474
tp3475
Rp3476
s(S'diff-x-pos--87'
p3477
S'action-3'
p3478
tp3479
g5
(g9
S'p0\x14\xf9\x02\x04{?'
p3480
tp3481
Rp3482
s(S'action-1'
p3483
S'object-0-x-88'
p3484
tp3485
g5
(g9
S'\xe8%(\xc1\xbb~\xb8?'
p3486
tp3487
Rp3488
s(S'diff-x-pos--65'
p3489
S'prev-action-1'
p3490
tp3491
g5
(g9
S'\xbd\x8e\xb1\x17\x1b{\x83\xbf'
p3492
tp3493
Rp3494
sg936
g5
(g9
S'P\xec\x86\xa7\xab\xbd\x88\xbf'
p3495
tp3496
Rp3497
s(S'object-1-dx--1'
p3498
g1931
tp3499
g5
(g9
S"\xea#'\x97o\x16j\xbf"
p3500
tp3501
Rp3502
sS'diff-x-pos-39'
p3503
g5
(g9
S't\xdf\xb4\t.\x84\x94?'
p3504
tp3505
Rp3506
s(S'diff-x-pos--37'
p3507
S'prev-action-4'
p3508
tp3509
g5
(g9
S'\x1e\xee\x0e\xf8\x11&\x8d\xbf'
p3510
tp3511
Rp3512
s(S'diff-x-pos--41'
p3513
S'prev-action-1'
p3514
tp3515
g5
(g9
S'\x9e\x83\xf3$\x87B]?'
p3516
tp3517
Rp3518
sS'diff-x-pos-30'
p3519
g5
(g9
S'\x18n\xb5\xa0\xd8=\x94?'
p3520
tp3521
Rp3522
sS'diff-x-pos-31'
p3523
g5
(g9
S'\x98I\xd7\xea\x96\xa1\x93?'
p3524
tp3525
Rp3526
sg2126
g5
(g9
S'\xa9!\x0fJ\xf8Q\x89?'
p3527
tp3528
Rp3529
sg192
g5
(g9
S'\xf1\x14\xc1&\x97\x80\x96?'
p3530
tp3531
Rp3532
sS'diff-x-pos-34'
p3533
g5
(g9
S'\xc6\xcf\x90\xd0\x89\x1a\x94?'
p3534
tp3535
Rp3536
sg758
g5
(g9
S'\x03\xf6\\iX\xd3\x91?'
p3537
tp3538
Rp3539
sS'diff-x-pos-36'
p3540
g5
(g9
S'o\xb3\x1a\xaf\xfc\x0c\x95?'
p3541
tp3542
Rp3543
sg2874
g5
(g9
S'\xdf\xba}\xe2\xa8\x1a\x92?'
p3544
tp3545
Rp3546
s(S'diff-x-pos--2'
p3547
S'action-1'
p3548
tp3549
g5
(g9
S'5O\xdd\xfb\xae\xaa@?'
p3550
tp3551
Rp3552
s(S'diff-x-pos-42'
p3553
S'action-4'
p3554
tp3555
g5
(g9
S'\xd2i\xef\x1a\xfb$e\xbf'
p3556
tp3557
Rp3558
s(g1415
S'prev-action-4'
p3559
tp3560
g5
(g9
S'a\xbe/\x1a2\tx?'
p3561
tp3562
Rp3563
s(g3465
S'prev-action-4'
p3564
tp3565
g5
(g9
S'a1\x7f]\xe7\xb6\x93\xbf'
p3566
tp3567
Rp3568
s(S'diff-x-pos--109'
p3569
S'action-1'
p3570
tp3571
g5
(g9
S"\x8f\x1a\x08\xf2'\xb2v?"
p3572
tp3573
Rp3574
sS'diff-x-pos-54'
p3575
g5
(g9
S'y\x80+\xca*7\xa5?'
p3576
tp3577
Rp3578
s(g1170
S'object-0-x-108'
p3579
tp3580
g5
(g9
S'\xe5>\xa8\xe5\x9a\xc8\xb6?'
p3581
tp3582
Rp3583
s(S'diff-x-pos--97'
p3584
S'action-4'
p3585
tp3586
g5
(g9
S'J\\d\xb8Kzx?'
p3587
tp3588
Rp3589
s(S'diff-x-pos-15'
p3590
S'prev-action-3'
p3591
tp3592
g5
(g9
S"\xb9\xe9\xe4'\xb7Dp\xbf"
p3593
tp3594
Rp3595
s(S'diff-x-pos--9'
p3596
S'prev-action-1'
p3597
tp3598
g5
(g9
S'(\xe9\x8f\xf3\xb6\xfcy?'
p3599
tp3600
Rp3601
s(S'diff-x-pos--69'
p3602
S'prev-action-4'
p3603
tp3604
g5
(g9
S'l\x7fl\xf7T<\x8f\xbf'
p3605
tp3606
Rp3607
s(S'diff-x-pos--8'
p3608
S'prev-action-3'
p3609
tp3610
g5
(g9
S'4A\xe5\xe1e\x8ay\xbf'
p3611
tp3612
Rp3613
s(S'diff-x-pos--58'
p3614
g822
tp3615
g5
(g9
S'\xfd;\xed\x8c\x98\xf3\x94\xbf'
p3616
tp3617
Rp3618
s(g1341
S'prev-action-1'
p3619
tp3620
g5
(g9
S'\xb4\x0fR\xc7\xb5\x8eR?'
p3621
tp3622
Rp3623
s(S'diff-x-pos--23'
p3624
S'action-1'
p3625
tp3626
g5
(g9
S'\xba\xd8\x9e\xac#\xdaM?'
p3627
tp3628
Rp3629
s(S'action-1'
p3630
S'object-0-x-124'
p3631
tp3632
g5
(g9
S'\xc2\xa0\x06*\xec\xe1\xb7?'
p3633
tp3634
Rp3635
s(g1329
S'prev-action-3'
p3636
tp3637
g5
(g9
S'\x04\xcd\x8c\xc6\x19\x14V?'
p3638
tp3639
Rp3640
s(g1843
S'action-1'
p3641
tp3642
g5
(g9
S'\xf6\xe0S\xd7\x1e\xb1Y?'
p3643
tp3644
Rp3645
s(g2331
S'prev-action-1'
p3646
tp3647
g5
(g9
S'TzQC\xae\x98n?'
p3648
tp3649
Rp3650
s(S'action-4'
p3651
S'object-0-x-24'
p3652
tp3653
g5
(g9
S'\xde\x88\xcc\xf7\xa2B\xb8?'
p3654
tp3655
Rp3656
s(S'diff-x-pos-13'
p3657
S'action-1'
p3658
tp3659
g5
(g9
S'\x8e\xb3h\x1bbZ\x80?'
p3660
tp3661
Rp3662
s(g696
S'object-1-x-92'
p3663
tp3664
g5
(g9
S'+I\x87$\t\xd4\x9c?'
p3665
tp3666
Rp3667
s(S'diff-x-pos--15'
p3668
S'prev-action-3'
p3669
tp3670
g5
(g9
S'\x0e\xd34\x1c\xf2\x8aq?'
p3671
tp3672
Rp3673
s(g3228
S'action-3'
p3674
tp3675
g5
(g9
S'\xe4\xea)\xe0\xe6\xe2B\xbf'
p3676
tp3677
Rp3678
s(g1784
g1410
tp3679
g5
(g9
S'/\x07\x90Kq\x03\x83?'
p3680
tp3681
Rp3682
sg1427
g5
(g9
S'\xe5\xca\xe7\xd2\xae\xe4\x95?'
p3683
tp3684
Rp3685
s(S'diff-x-pos--104'
p3686
S'action-1'
p3687
tp3688
g5
(g9
S'\x11\xb2t/\x1a\xc3d?'
p3689
tp3690
Rp3691
sS'diff-x-pos-45'
p3692
g5
(g9
S'\xe5\x1d3\x1cay\x96?'
p3693
tp3694
Rp3695
sg2502
g5
(g9
S'vK&~\xae\xfa\x96?'
p3696
tp3697
Rp3698
sg1784
g5
(g9
S'\xf2\x05\xba7e\x9a\x94?'
p3699
tp3700
Rp3701
s(g1273
S'action-4'
p3702
tp3703
g5
(g9
S'\xc0\xdd\xa5@\xd3\x83c\xbf'
p3704
tp3705
Rp3706
sS'diff-x-pos-41'
p3707
g5
(g9
S'\xe6\x18b.\xa3\xc8\x99?'
p3708
tp3709
Rp3710
sg1223
g5
(g9
S'\xc2\xc0\x1f\xfa\x8e!\x96?'
p3711
tp3712
Rp3713
s(g1937
S'prev-action-4'
p3714
tp3715
g5
(g9
S'I\x11\xcd\x8a\xb3S\x90\xbf'
p3716
tp3717
Rp3718
sg3553
g5
(g9
S'm\x07\xbc\x99m\xbe\x97?'
p3719
tp3720
Rp3721
s(S'diff-x-pos-52'
p3722
S'prev-action-3'
p3723
tp3724
g5
(g9
S'2\xb2O\xd8_k\x86?'
p3725
tp3726
Rp3727
s(g3519
S'prev-action-4'
p3728
tp3729
g5
(g9
S'\xd6\xfb{\x88\xbb\x95E\xbf'
p3730
tp3731
Rp3732
s(g387
S'prev-action-4'
p3733
tp3734
g5
(g9
S'\xf3\x81\x08\x93\xc6\xa4\x8e\xbf'
p3735
tp3736
Rp3737
s(S'diff-x-pos--72'
p3738
S'prev-action-3'
p3739
tp3740
g5
(g9
S'\xb2M\xec\xa2H\ns\xbf'
p3741
tp3742
Rp3743
s(S'diff-x-pos--7'
p3744
S'prev-action-3'
p3745
tp3746
g5
(g9
S'\x8b\xb8M\xe8\x00l\x7f\xbf'
p3747
tp3748
Rp3749
s(S'diff-x-pos-54'
p3750
S'action-3'
p3751
tp3752
g5
(g9
S'\x97K\xa9\xa70\xf3\x98?'
p3753
tp3754
Rp3755
s(S'diff-x-pos--25'
p3756
S'action-4'
p3757
tp3758
g5
(g9
S'\x04[E\xc2xvX\xbf'
p3759
tp3760
Rp3761
sg729
g5
(g9
S'C\x83\xbb\x05\x04h\x93?'
p3762
tp3763
Rp3764
s(g1789
S'action-1'
p3765
tp3766
g5
(g9
S'\x833\x85S\xee\\h\xbf'
p3767
tp3768
Rp3769
s(S'diff-x-pos--86'
p3770
S'action-1'
p3771
tp3772
g5
(g9
S'\xc2f\xa2\xd57"v\xbf'
p3773
tp3774
Rp3775
s(g238
S'prev-action-4'
p3776
tp3777
g5
(g9
S'\xb4\xdd\xd2\xf6\xabu\x93\xbf'
p3778
tp3779
Rp3780
s(g2023
S'action-4'
p3781
tp3782
g5
(g9
S'\t\xca\xfd\xa8k\x08e?'
p3783
tp3784
Rp3785
s(S'diff-x-pos--84'
p3786
S'prev-action-3'
p3787
tp3788
g5
(g9
S'u\xd6G\xcb`ad?'
p3789
tp3790
Rp3791
s(S'diff-x-pos-40'
p3792
S'prev-action-3'
p3793
tp3794
g5
(g9
S'\x04Ty\x86\x0f\x01\x85?'
p3795
tp3796
Rp3797
s(S'diff-x-pos-44'
p3798
S'prev-action-3'
p3799
tp3800
g5
(g9
S'\xd4\x86_k;6\x83?'
p3801
tp3802
Rp3803
s(g1112
S'prev-action-4'
p3804
tp3805
g5
(g9
S'\xbbF\xe0\x1e\xbcUy\xbf'
p3806
tp3807
Rp3808
s(S'diff-x-pos--3'
p3809
S'prev-action-3'
p3810
tp3811
g5
(g9
S'2\xd3\xc9J\xe9%w\xbf'
p3812
tp3813
Rp3814
s(g2939
S'action-3'
p3815
tp3816
g5
(g9
S'_\x00\x85E^\xbcx?'
p3817
tp3818
Rp3819
s(S'diff-x-pos-21'
p3820
S'prev-action-3'
p3821
tp3822
g5
(g9
S'\x7f\xdaN\xa9\x1c\x8dJ?'
p3823
tp3824
Rp3825
s(S'diff-x-pos-33'
p3826
S'action-3'
p3827
tp3828
g5
(g9
S'\xcdo\xb8\xeb\xd9$\x96?'
p3829
tp3830
Rp3831
s(S'diff-x-pos--67'
p3832
g2637
tp3833
g5
(g9
S'=\xe0\xe8\x8f\xdd\x80\xb3\xbf'
p3834
tp3835
Rp3836
s(S'diff-x-pos-18'
p3837
S'action-1'
p3838
tp3839
g5
(g9
S'\xf8c\x9b\xeb\xb6\x99e\xbf'
p3840
tp3841
Rp3842
s(g1040
S'action-3'
p3843
tp3844
g5
(g9
S'v4\x1b\xe8\xfa\xae\x83?'
p3845
tp3846
Rp3847
s(S'diff-x-pos--7'
p3848
S'prev-action-4'
p3849
tp3850
g5
(g9
S'!\xed\x88\x97\xf5\xc7\x8d\xbf'
p3851
tp3852
Rp3853
s(g2282
S'action-4'
p3854
tp3855
g5
(g9
S'\x03\x90\xe9z8\xdf\x99?'
p3856
tp3857
Rp3858
s(S'diff-x-pos-40'
p3859
S'action-4'
p3860
tp3861
g5
(g9
S'\xa1@\xeaxA\xf3;?'
p3862
tp3863
Rp3864
s(g3575
S'action-4'
p3865
tp3866
g5
(g9
S'\xf6\xd2\xc2\xe4\x1c\xe5b?'
p3867
tp3868
Rp3869
s(g2698
S'object-0-x-12'
p3870
tp3871
g5
(g9
S'u\x98\xdc\x02W!\xb5?'
p3872
tp3873
Rp3874
s(S'diff-x-pos-58'
p3875
S'action-4'
p3876
tp3877
g5
(g9
S'\xa4\x00i\xb0\xc2\xf9l?'
p3878
tp3879
Rp3880
sS'object-0-x-88'
p3881
g5
(g9
S'PY\\/\xb7$\xd3?'
p3882
tp3883
Rp3884
s(g2296
S'prev-action-4'
p3885
tp3886
g5
(g9
S'\x18\xb5\x10`\xcbWn\xbf'
p3887
tp3888
Rp3889
s(g357
S'action-4'
p3890
tp3891
g5
(g9
S'7\x1b\xa8\xad\r\xe8\x91\xbf'
p3892
tp3893
Rp3894
s(S'diff-x-pos-23'
p3895
S'prev-action-4'
p3896
tp3897
g5
(g9
S'b#\x90\x8e\x1f1\x80\xbf'
p3898
tp3899
Rp3900
sS'object-0-x-80'
p3901
g5
(g9
S'\xf0\x97\xc5\x9a\xc2\x02\xd3?'
p3902
tp3903
Rp3904
s(S'diff-x-pos--75'
p3905
S'prev-action-3'
p3906
tp3907
g5
(g9
S"H'\xaf\xe0\xdb\xaf`?"
p3908
tp3909
Rp3910
s(S'diff-x-pos--81'
p3911
S'action-4'
p3912
tp3913
g5
(g9
S'\x08n\xa7\x18lIz\xbf'
p3914
tp3915
Rp3916
s(S'diff-x-pos--26'
p3917
S'prev-action-4'
p3918
tp3919
g5
(g9
S'-\x05\x0ey\xfdK\x94\xbf'
p3920
tp3921
Rp3922
s(g1398
S'action-4'
p3923
tp3924
g5
(g9
S'S\xfc\x86\xe7M\r\x82?'
p3925
tp3926
Rp3927
s(g1938
S'object-1-x-100'
p3928
tp3929
g5
(g9
S'\xdfH\xf0+\xf3K\x9d?'
p3930
tp3931
Rp3932
s(S'diff-x-pos--31'
p3933
S'prev-action-1'
p3934
tp3935
g5
(g9
S'~\x9b_*\x81\r\x87?'
p3936
tp3937
Rp3938
s(S'diff-x-pos--27'
p3939
S'prev-action-3'
p3940
tp3941
g5
(g9
S'u\xf8\x0f\xff\xd1\xc0p\xbf'
p3942
tp3943
Rp3944
s(S'diff-x-pos--68'
p3945
S'action-4'
p3946
tp3947
g5
(g9
S'\xe6-\x01VW\xff\x86\xbf'
p3948
tp3949
Rp3950
s(g2172
S'prev-action-1'
p3951
tp3952
g5
(g9
S'\x9fp\xcfd\xc9M\x83?'
p3953
tp3954
Rp3955
s(S'diff-x-pos--92'
p3956
S'prev-action-0'
p3957
tp3958
g5
(g9
S'\x156\xc2\x1e\xd5\xb6i?'
p3959
tp3960
Rp3961
s(S'diff-x-pos--117'
p3962
S'prev-action-4'
p3963
tp3964
g5
(g9
S'|\x84q\xf4\x8c\xa2j?'
p3965
tp3966
Rp3967
s(S'diff-x-pos--118'
p3968
S'prev-action-4'
p3969
tp3970
g5
(g9
S'\xe1\xffU5r\xf6x?'
p3971
tp3972
Rp3973
s(S'diff-x-pos-48'
p3974
S'action-3'
p3975
tp3976
g5
(g9
S'O\xce\xfbp3\x0f\x93?'
p3977
tp3978
Rp3979
s(S'diff-x-pos--60'
p3980
S'prev-action-3'
p3981
tp3982
g5
(g9
S'\x80\x83\x1f\xaf?/s\xbf'
p3983
tp3984
Rp3985
s(S'diff-x-pos--30'
p3986
S'prev-action-3'
p3987
tp3988
g5
(g9
S'\x1bWC\xa6\xa1\x91\xb2\xbf'
p3989
tp3990
Rp3991
s(S'action-3'
p3992
S'object-0-x-72'
p3993
tp3994
g5
(g9
S'+c\xcb\x14\x9fH\xbd?'
p3995
tp3996
Rp3997
s(S'action-4'
p3998
S'prev-action-0'
p3999
tp4000
g5
(g9
S's\xf7\xc3*\x01\x8d\xe8?'
p4001
tp4002
Rp4003
sS'object-0-x-36'
p4004
g5
(g9
S'\x13u\x16x\xfeO\xd3?'
p4005
tp4006
Rp4007
s(S'diff-x-pos--92'
p4008
S'action-1'
p4009
tp4010
g5
(g9
S'D\xa4 \x0cRbr?'
p4011
tp4012
Rp4013
s(S'diff-x-pos--42'
p4014
S'action-4'
p4015
tp4016
g5
(g9
S'>\xd5\xde>x>\x99?'
p4017
tp4018
Rp4019
s(g3157
S'action-1'
p4020
tp4021
g5
(g9
S'\xcd\xc4x\x90\x8e\x05X\xbf'
p4022
tp4023
Rp4024
s(S'action-3'
p4025
S'object-0-x-0'
p4026
tp4027
g5
(g9
S'{\x93\xd7\x8c\xe9\x87\x94?'
p4028
tp4029
Rp4030
s(S'diff-x-pos--13'
p4031
S'action-1'
p4032
tp4033
g5
(g9
S'\x8a-v\x17#\x81[?'
p4034
tp4035
Rp4036
s(S'diff-x-pos--19'
p4037
S'prev-action-4'
p4038
tp4039
g5
(g9
S'\xf8\xd6\x86P\x1b[\x91\xbf'
p4040
tp4041
Rp4042
s(S'action-1'
p4043
S'object-1-x-112'
p4044
tp4045
g5
(g9
S'qC\x8a\x05\xd9\xf9\x99?'
p4046
tp4047
Rp4048
s(S'action-3'
p4049
S'prev-action-1'
p4050
tp4051
g5
(g9
S'\xbe:Y0\x953\xeb?'
p4052
tp4053
Rp4054
s(g1371
S'action-1'
p4055
tp4056
g5
(g9
S'\xfc\x8bI!nxw?'
p4057
tp4058
Rp4059
s(S'diff-x-pos-65'
p4060
S'action-1'
p4061
tp4062
g5
(g9
S'=\x0e\xbf\xae\xe1jW?'
p4063
tp4064
Rp4065
s(S'diff-x-pos-23'
p4066
S'prev-action-3'
p4067
tp4068
g5
(g9
S'2Ni9\x1d6l\xbf'
p4069
tp4070
Rp4071
s(S'diff-x-pos-61'
p4072
S'prev-action-1'
p4073
tp4074
g5
(g9
S'S\x14\xf1\xc8\x19LV?'
p4075
tp4076
Rp4077
s(g3602
S'action-3'
p4078
tp4079
g5
(g9
S'\x038\x8e\xf1\xfe\xcdv\xbf'
p4080
tp4081
Rp4082
s(g1491
S'prev-action-1'
p4083
tp4084
g5
(g9
S'RVgu\xfbRD?'
p4085
tp4086
Rp4087
s(g3381
S'prev-action-3'
p4088
tp4089
g5
(g9
S'\x93\x93\xca\xa9\xeb;x?'
p4090
tp4091
Rp4092
s(S'object-0-dx-1'
p4093
g508
tp4094
g5
(g9
S'\r\xe0$2\x14}\x95?'
p4095
tp4096
Rp4097
s(S'diff-x-pos--22'
p4098
S'action-3'
p4099
tp4100
g5
(g9
S'\x06n\xd0\x08\x14\xf6\x92\xbf'
p4101
tp4102
Rp4103
s(S'diff-x-pos-52'
p4104
S'prev-action-4'
p4105
tp4106
g5
(g9
S's\x02\xbd\xf76\xfcX\xbf'
p4107
tp4108
Rp4109
s(S'diff-x-pos--37'
p4110
S'action-1'
p4111
tp4112
g5
(g9
S'\x1cM\x98R@\x86u\xbf'
p4113
tp4114
Rp4115
s(S'diff-x-pos--39'
p4116
S'prev-action-1'
p4117
tp4118
g5
(g9
S'0\xc6\xcc\x94\xe1\xa3\xb2\xbf'
p4119
tp4120
Rp4121
s(S'action-1'
p4122
S'object-0-x-92'
p4123
tp4124
g5
(g9
S'\xf9]N\x10-\xe6\xb8?'
p4125
tp4126
Rp4127
s(S'action-4'
p4128
S'object-0-x-32'
p4129
tp4130
g5
(g9
S'\xc5\xc7\xab\x97\x88\xb2\xb2?'
p4131
tp4132
Rp4133
sS'object-0-x-12'
p4134
g5
(g9
S'\xd1]\x80<\xce\xab\xd3?'
p4135
tp4136
Rp4137
sS'object-0-y-8'
p4138
g5
(g9
S'\x04\xfe\xe4\x9d|\xac\x02@'
p4139
tp4140
Rp4141
s(S'diff-x-pos--15'
p4142
S'prev-action-1'
p4143
tp4144
g5
(g9
S'T\n\x06y\xe0\x80\x93?'
p4145
tp4146
Rp4147
s(g967
S'action-1'
p4148
tp4149
g5
(g9
S'\x1ap\xb9P\x10jh\xbf'
p4150
tp4151
Rp4152
sg765
g5
(g9
S'\xd2"\x82\xad?V\xd4?'
p4153
tp4154
Rp4155
s(S'diff-x-pos-4'
p4156
S'prev-action-1'
p4157
tp4158
g5
(g9
S'\xa4u\xb0;M"\x85?'
p4159
tp4160
Rp4161
s(S'diff-x-pos-44'
p4162
S'prev-action-1'
p4163
tp4164
g5
(g9
S'\xd5R(\x82\xa1\x01\x95?'
p4165
tp4166
Rp4167
s(S'diff-x-pos--47'
p4168
S'prev-action-3'
p4169
tp4170
g5
(g9
S'J\x07\x8e*]\x1fx\xbf'
p4171
tp4172
Rp4173
s(g1778
S'object-0-x-92'
p4174
tp4175
g5
(g9
S'\xe3\x8afr\xdeO\xba?'
p4176
tp4177
Rp4178
sg2473
g5
(g9
S'J=5\x05\xf4\xb6y?'
p4179
tp4180
Rp4181
s(g936
g1459
tp4182
g5
(g9
S'\xd8\\\xfay%\x18F?'
p4183
tp4184
Rp4185
sS'diff-x-pos--111'
p4186
g5
(g9
S'7\x8c\x94t.W\x99?'
p4187
tp4188
Rp4189
sS'diff-x-pos--116'
p4190
g5
(g9
S'\x99\xc3\x8a\x83\x1e\xf8W?'
p4191
tp4192
Rp4193
sS'diff-x-pos--117'
p4194
g5
(g9
S'\xbeO\x9b\xfa\xfb\x00;?'
p4195
tp4196
Rp4197
sg810
g5
(g9
S'\xee\xd9\xe4\xe1\xe6\x10\x83?'
p4198
tp4199
Rp4200
s(S'diff-x-pos--61'
p4201
S'prev-action-4'
p4202
tp4203
g5
(g9
S'd\xe9E\\:j\x9a\xbf'
p4204
tp4205
Rp4206
sg3968
g5
(g9
S'gwy\xa6\nW\x89?'
p4207
tp4208
Rp4209
s(g1062
S'action-4'
p4210
tp4211
g5
(g9
S'\x02\x89\xf9\xffzS\x8b\xbf'
p4212
tp4213
Rp4214
s(S'diff-x-pos--65'
p4215
g1279
tp4216
g5
(g9
S'\x99h\x05\xb2K\xdf\x90\xbf'
p4217
tp4218
Rp4219
s(g1581
S'prev-action-1'
p4220
tp4221
g5
(g9
S'\xaf\xa4h\xa4\xa7\xf0s\xbf'
p4222
tp4223
Rp4224
s(g3461
S'prev-action-3'
p4225
tp4226
g5
(g9
S'u\x1a\x8enX+|\xbf'
p4227
tp4228
Rp4229
s(S'diff-x-pos--87'
p4230
S'prev-action-4'
p4231
tp4232
g5
(g9
S'\x9b\x8a\xbd\x84\xc461?'
p4233
tp4234
Rp4235
s(g3370
S'prev-action-1'
p4236
tp4237
g5
(g9
S'g\xebw\t\x104\x82\xbf'
p4238
tp4239
Rp4240
s(S'diff-x-pos--5'
p4241
S'action-4'
p4242
tp4243
g5
(g9
S'\xf8\xb7_\x0b6\xc9\x81\xbf'
p4244
tp4245
Rp4246
s(S'diff-x-pos-43'
p4247
S'action-3'
p4248
tp4249
g5
(g9
S'1:\x1f\xa4\xbe&\x8c?'
p4250
tp4251
Rp4252
s(S'diff-x-pos-55'
p4253
S'action-1'
p4254
tp4255
g5
(g9
S'\xd7\xc8\rU4\xba\x83?'
p4256
tp4257
Rp4258
s(g3860
S'object-1-x-72'
p4259
tp4260
g5
(g9
S'\xdc\x1c\xd74\xa6;\x94\xbf'
p4261
tp4262
Rp4263
s(g3692
S'prev-action-1'
p4264
tp4265
g5
(g9
S'\x81\xfd\xe1[\xb0\xc5\x90?'
p4266
tp4267
Rp4268
s(S'diff-x-pos--12'
p4269
S'action-4'
p4270
tp4271
g5
(g9
S'\x83\x90\xbaj\xef,r\xbf'
p4272
tp4273
Rp4274
sg1267
g5
(g9
S'\x95\x94\xc2\x19Z\x02|\xbf'
p4275
tp4276
Rp4277
s(g3393
S'action-3'
p4278
tp4279
g5
(g9
S'<\xae\x85\xc6*\xd4C?'
p4280
tp4281
Rp4282
s(g2573
S'object-0-x-120'
p4283
tp4284
g5
(g9
S'\xf6\xb6\xa6R\n\x83\xb1?'
p4285
tp4286
Rp4287
s(g862
S'action-4'
p4288
tp4289
g5
(g9
S'\x99\x82\xeb\xc6\xe9!`\xbf'
p4290
tp4291
Rp4292
s(S'diff-x-pos-36'
p4293
S'action-3'
p4294
tp4295
g5
(g9
S'\x07\x9fSZiy\x94?'
p4296
tp4297
Rp4298
s(S'diff-x-pos--32'
p4299
S'action-3'
p4300
tp4301
g5
(g9
S'\x9e\x06F$\x88&\x90\xbf'
p4302
tp4303
Rp4304
s(S'diff-x-pos-8'
p4305
S'prev-action-4'
p4306
tp4307
g5
(g9
S'0\x0b\xb8\xd3$\xf3\x90\xbf'
p4308
tp4309
Rp4310
s(g4008
S'prev-action-1'
p4311
tp4312
g5
(g9
S'\xeaz\x84\xc2`\\o?'
p4313
tp4314
Rp4315
s(g1106
S'action-1'
p4316
tp4317
g5
(g9
S'4\xb1\x8ckRbB?'
p4318
tp4319
Rp4320
s(S'diff-x-pos-38'
p4321
S'prev-action-1'
p4322
tp4323
g5
(g9
S'\xbc"R\x8d\x00\xf2\x8f?'
p4324
tp4325
Rp4326
s(S'diff-x-pos--109'
p4327
S'action-3'
p4328
tp4329
g5
(g9
S'\xa4\xa4)\xf2#vY?'
p4330
tp4331
Rp4332
s(S'diff-x-pos--4'
p4333
S'action-3'
p4334
tp4335
g5
(g9
S'"\x8a#\x1d\x11N{\xbf'
p4336
tp4337
Rp4338
s(S'diff-x-pos--102'
p4339
S'prev-action-0'
p4340
tp4341
g5
(g9
S'\x87\xc2\xbeZ^y\x96?'
p4342
tp4343
Rp4344
s(g2810
S'action-1'
p4345
tp4346
g5
(g9
S'\xb3\xb3O\xb1\x1cvu?'
p4347
tp4348
Rp4349
s(S'diff-x-pos-0'
p4350
S'action-4'
p4351
tp4352
g5
(g9
S'\x0b\xcd\t\x1fd\x90P\xbf'
p4353
tp4354
Rp4355
s(S'diff-x-pos--120'
p4356
S'prev-action-3'
p4357
tp4358
g5
(g9
S'\xe1\xfe\r\xed5\xb0b?'
p4359
tp4360
Rp4361
s(S'diff-x-pos--93'
p4362
S'prev-action-1'
p4363
tp4364
g5
(g9
S'\xe6\xb4\xb6X\x87np\xbf'
p4365
tp4366
Rp4367
s(S'diff-x-pos--33'
p4368
S'action-3'
p4369
tp4370
g5
(g9
S'h\xf0\x9a\xfe#\x89\x89\xbf'
p4371
tp4372
Rp4373
s(g810
S'action-4'
p4374
tp4375
g5
(g9
S'\x8by\xb1\x952\xe5\xa2?'
p4376
tp4377
Rp4378
s(g804
S'action-3'
p4379
tp4380
g5
(g9
S'0M\x8c\x01B8\x87?'
p4381
tp4382
Rp4383
s(g1044
g794
tp4384
g5
(g9
S'\x8f\xe3\xf5\x9c\xd0up\xbf'
p4385
tp4386
Rp4387
s(g4362
S'action-4'
p4388
tp4389
g5
(g9
S'\xc1\t\x8fR\xdb\xd3Z?'
p4390
tp4391
Rp4392
s(S'diff-x-pos--5'
p4393
S'action-3'
p4394
tp4395
g5
(g9
S'\x9eQp\xd56\xff\x7f\xbf'
p4396
tp4397
Rp4398
s(S'diff-x-pos--6'
p4399
S'prev-action-4'
p4400
tp4401
g5
(g9
S'\x1fV\xfb\xdb$\xc1\x8b\xbf'
p4402
tp4403
Rp4404
s(S'diff-x-pos--51'
p4405
S'action-3'
p4406
tp4407
g5
(g9
S'J\x93\x00\xb2-\xcf\x8b\xbf'
p4408
tp4409
Rp4410
s(S'diff-x-pos--66'
p4411
S'action-1'
p4412
tp4413
g5
(g9
S'\xc5\xf5P\r\x82\xac\x84\xbf'
p4414
tp4415
Rp4416
s(S'action-1'
p4417
S'object-0-x-84'
p4418
tp4419
g5
(g9
S'\xa2\x923B\xf9\x95\xb7?'
p4420
tp4421
Rp4422
s(S'diff-x-pos--82'
p4423
S'prev-action-4'
p4424
tp4425
g5
(g9
S'\xc1w\xcbq;\xa1\x91\xbf'
p4426
tp4427
Rp4428
s(S'diff-x-pos--24'
p4429
S'action-3'
p4430
tp4431
g5
(g9
S'$\xd9\xc62\xeb\x93\x86\xbf'
p4432
tp4433
Rp4434
s(S'diff-x-pos--85'
p4435
S'prev-action-1'
p4436
tp4437
g5
(g9
S't\xf7w\x8a\x89\x90 ?'
p4438
tp4439
Rp4440
s(g758
g4122
tp4441
g5
(g9
S'|7H\x03ATg?'
p4442
tp4443
Rp4444
s(S'diff-x-pos--32'
p4445
S'action-1'
p4446
tp4447
g5
(g9
S'n\xb2Z\xe4:\xa7\x0f\xbf'
p4448
tp4449
Rp4450
s(S'diff-x-pos--97'
p4451
S'prev-action-1'
p4452
tp4453
g5
(g9
S'\xa0\xe0\xbc\xb8((w?'
p4454
tp4455
Rp4456
s(S'diff-x-pos--17'
p4457
S'prev-action-4'
p4458
tp4459
g5
(g9
S'\x16\x88\xe1\x96 `\x8e\xbf'
p4460
tp4461
Rp4462
s(S'diff-x-pos--74'
p4463
S'prev-action-1'
p4464
tp4465
g5
(g9
S',\xdeL\\\xdf\xf3r\xbf'
p4466
tp4467
Rp4468
s(g3547
S'prev-action-4'
p4469
tp4470
g5
(g9
S'\x1eY.\xcb%\x04\x97\xbf'
p4471
tp4472
Rp4473
s(S'diff-x-pos-35'
p4474
S'prev-action-3'
p4475
tp4476
g5
(g9
S'3\x83\x9e:\x1a\xe0r?'
p4477
tp4478
Rp4479
s(S'diff-x-pos--77'
p4480
S'prev-action-4'
p4481
tp4482
g5
(g9
S'i\x95.\x81b\x9f\x93\xbf'
p4483
tp4484
Rp4485
s(g1657
S'action-4'
p4486
tp4487
g5
(g9
S'\xfc\x0f\xbd\xcc\xf6#h?'
p4488
tp4489
Rp4490
s(S'diff-x-pos--24'
p4491
S'prev-action-1'
p4492
tp4493
g5
(g9
S'\x08\x16\xb8\x18\x80\xd2y?'
p4494
tp4495
Rp4496
s(g712
S'action-4'
p4497
tp4498
g5
(g9
S'(Q\xae\x8bDo\x81\xbf'
p4499
tp4500
Rp4501
s(S'diff-x-pos-42'
p4502
S'prev-action-1'
p4503
tp4504
g5
(g9
S"\xfb'\x0c\xe8\xc7\xe3\x88?"
p4505
tp4506
Rp4507
s(S'diff-x-pos--116'
p4508
S'prev-action-4'
p4509
tp4510
g5
(g9
S'q\xcdd\x82\xe8#:?'
p4511
tp4512
Rp4513
sS'diff-y-pos--9'
p4514
g5
(g9
S"\xba\xe9!'\x1c\xa9\x89\xbf"
p4515
tp4516
Rp4517
sS'diff-y-pos--8'
p4518
g5
(g9
S'\xe2Z@\xa8\xd7\xf4\x86?'
p4519
tp4520
Rp4521
s(g1044
S'prev-action-3'
p4522
tp4523
g5
(g9
S'\xa2Y\xc0\xac\xb7vz\xbf'
p4524
tp4525
Rp4526
sS'diff-y-pos--4'
p4527
g5
(g9
S'\xf5\xb7\x1d\x0es\xc0\x85\xbf'
p4528
tp4529
Rp4530
sS'diff-y-pos--7'
p4531
g5
(g9
S'\xb0\xb5\xb93fc\x80\xbf'
p4532
tp4533
Rp4534
s(g1062
S'prev-action-1'
p4535
tp4536
g5
(g9
S'4\xb6\xc8\xf2\x12k\x91?'
p4537
tp4538
Rp4539
sS'diff-y-pos--1'
p4540
g5
(g9
S'P{\xff\xc9%\xe9^?'
p4541
tp4542
Rp4543
sS'diff-y-pos--3'
p4544
g5
(g9
S'\x8c\xd8\x1b\x05S\xcem?'
p4545
tp4546
Rp4547
sS'diff-y-pos--2'
p4548
g5
(g9
S'\x07`C;\xf3\x03\x88\xbf'
p4549
tp4550
Rp4551
s(g2327
S'prev-action-4'
p4552
tp4553
g5
(g9
S'\xd0T\x0e\xbd\xec\x02\x85\xbf'
p4554
tp4555
Rp4556
s(S'diff-x-pos--95'
p4557
S'prev-action-4'
p4558
tp4559
g5
(g9
S'\\Z\x074\xfb\xd2v?'
p4560
tp4561
Rp4562
s(g3381
S'action-3'
p4563
tp4564
g5
(g9
S'*\xd7o\x04\xe7\xf1}?'
p4565
tp4566
Rp4567
s(g2064
S'action-1'
p4568
tp4569
g5
(g9
S'\x90\xb8\xd6\x01\xd0\x00v?'
p4570
tp4571
Rp4572
s(S'diff-x-pos--120'
p4573
S'action-1'
p4574
tp4575
g5
(g9
S'=\xc9vj\\\x9d\x82?'
p4576
tp4577
Rp4578
s(S'diff-x-pos--14'
p4579
S'action-3'
p4580
tp4581
g5
(g9
S'\xcd\\a\x87{<\x82\xbf'
p4582
tp4583
Rp4584
s(S'action-3'
p4585
S'object-0-x-36'
p4586
tp4587
g5
(g9
S'\x8cSh\xb6t\xbe\xbb?'
p4588
tp4589
Rp4590
s(S'diff-x-pos--112'
p4591
S'prev-action-3'
p4592
tp4593
g5
(g9
S'fJ+/\xe5\xc9{?'
p4594
tp4595
Rp4596
s(S'diff-x-pos-49'
p4597
S'action-1'
p4598
tp4599
g5
(g9
S'a\x96HS6\xc8\x86?'
p4600
tp4601
Rp4602
s(S'diff-x-pos--4'
p4603
S'prev-action-1'
p4604
tp4605
g5
(g9
S'\xac\xb1g\x13\xd5\xd4\x7f\xbf'
p4606
tp4607
Rp4608
s(S'diff-x-pos--38'
p4609
S'action-3'
p4610
tp4611
g5
(g9
S'\x9e\xc4\xea\xaa6\xf7\x8d\xbf'
p4612
tp4613
Rp4614
s(S'diff-x-pos-38'
p4615
S'action-3'
p4616
tp4617
g5
(g9
S'\x0b\xc7\xd9/\x8d\x7f\x95?'
p4618
tp4619
Rp4620
sg251
g5
(g9
S'\xa6\x8ct\xa5\xae\x97t?'
p4621
tp4622
Rp4623
s(g1009
S'action-1'
p4624
tp4625
g5
(g9
S'\x94\xdd\x1eX0\x05\x9d?'
p4626
tp4627
Rp4628
sg1663
g5
(g9
S'N,\xf6\xaa\xc0\x1bo?'
p4629
tp4630
Rp4631
sg3770
g5
(g9
S'w\n\xc5\x83\xf1\xc1l?'
p4632
tp4633
Rp4634
sg1112
g5
(g9
S'\xae\n\xa9\xde\x8c\x17p\xbf'
p4635
tp4636
Rp4637
sS'diff-x-pos--84'
p4638
g5
(g9
S'\xad\x14\xb7X\x8b\xa7f?'
p4639
tp4640
Rp4641
sg962
g5
(g9
S'B\xba\xf0t\xd6\xbc~\xbf'
p4642
tp4643
Rp4644
sg2286
g5
(g9
S'\x84\xc4\xb5\xcc\\\xd6\x91\xbf'
p4645
tp4646
Rp4647
sg2439
g5
(g9
S'\xa7Pi\xebzS\x8f\xbf'
p4648
tp4649
Rp4650
sS'diff-x-pos--80'
p4651
g5
(g9
S'/q\x9a\x17\xaf\xc7\x93\xbf'
p4652
tp4653
Rp4654
s(g672
S'object-0-x-24'
p4655
tp4656
g5
(g9
S'^\x83\xb3\x91\x152\xb7?'
p4657
tp4658
Rp4659
sg2
g5
(g9
S'\x17\x9f\xa1\xc9\xeb8\x84?'
p4660
tp4661
Rp4662
sS'diff-x-pos--88'
p4663
g5
(g9
S"\x0c\x00\xf7o6'\x81?"
p4664
tp4665
Rp4666
s(S'diff-x-pos--38'
p4667
S'prev-action-3'
p4668
tp4669
g5
(g9
S'`c\x8db\xc5?c?'
p4670
tp4671
Rp4672
s(S'diff-x-pos-55'
p4673
S'prev-action-3'
p4674
tp4675
g5
(g9
S'\xba\x19\x16\xc3\xe0\x95c\xbf'
p4676
tp4677
Rp4678
s(S'action-3'
p4679
S'object-1-x-64'
p4680
tp4681
g5
(g9
S'\xcd9Z\xad\x89 v?'
p4682
tp4683
Rp4684
s(S'action-1'
p4685
S'object-1-x-120'
p4686
tp4687
g5
(g9
S'2pw\xb2\x0c\x97\x92?'
p4688
tp4689
Rp4690
s(g4190
S'prev-action-3'
p4691
tp4692
g5
(g9
S'\x10\x8eZ\xe3\x84v\x1c\xbf'
p4693
tp4694
Rp4695
s(S'diff-x-pos-3'
p4696
S'prev-action-3'
p4697
tp4698
g5
(g9
S'Q%\xaf\xc2F\xbe|\xbf'
p4699
tp4700
Rp4701
s(g3540
S'prev-action-4'
p4702
tp4703
g5
(g9
S'tV\x17\xc3\xa0\xffq\xbf'
p4704
tp4705
Rp4706
s(g3854
S'object-0-x-60'
p4707
tp4708
g5
(g9
S'Z\xcfd\x8d\xeaE\xba?'
p4709
tp4710
Rp4711
s(g2986
S'prev-action-3'
p4712
tp4713
g5
(g9
S'\x02\x9d\xbf#&\xb8Q\xbf'
p4714
tp4715
Rp4716
sg1825
g5
(g9
S'\xc4\x1d\xf1;5&\x82\xbf'
p4717
tp4718
Rp4719
s(S'action-3'
p4720
S'object-1-x-84'
p4721
tp4722
g5
(g9
S'\x13\xc7\xfa\xb6o\x84g?'
p4723
tp4724
Rp4725
sg4269
g5
(g9
S'\xc9c\x88\xb6]\x94\x8b\xbf'
p4726
tp4727
Rp4728
sg232
g5
(g9
S'\xa1\x0c\xf2p`\x1f\x85\xbf'
p4729
tp4730
Rp4731
s(S'diff-x-pos--116'
p4732
S'action-4'
p4733
tp4734
g5
(g9
S'H\x8fc\x0c\xfc\xaba?'
p4735
tp4736
Rp4737
s(S'diff-x-pos-4'
p4738
S'action-3'
p4739
tp4740
g5
(g9
S'l\x16\xca\xff\x83%G\xbf'
p4741
tp4742
Rp4743
sg2137
g5
(g9
S'\xcc\xd4\xa0*\xedb\x83\xbf'
p4744
tp4745
Rp4746
sS'diff-x-pos--17'
p4747
g5
(g9
S'\x86\xb2\xa6,V;\x84\xbf'
p4748
tp4749
Rp4750
s(g2269
S'prev-action-4'
p4751
tp4752
g5
(g9
S'\x99:S\xab5\xd6\x97\xbf'
p4753
tp4754
Rp4755
sS'diff-x-pos--19'
p4756
g5
(g9
S'\x9dO\xefJ\xdf\x87\x87\xbf'
p4757
tp4758
Rp4759
s(S'diff-x-pos--55'
p4760
S'prev-action-3'
p4761
tp4762
g5
(g9
S'\xc3\xd3\xdan%\xb7P\xbf'
p4763
tp4764
Rp4765
s(S'action-1'
p4766
S'object-0-x-4'
p4767
tp4768
g5
(g9
S'%\xc84\x03\x19"\xbc?'
p4769
tp4770
Rp4771
s(S'diff-x-pos-42'
p4772
S'action-1'
p4773
tp4774
g5
(g9
S'\x91\x17g\x99\t\xcdn?'
p4775
tp4776
Rp4777
s(S'diff-x-pos--62'
p4778
g3999
tp4779
g5
(g9
S'|\x861\xf8\xc4y\xe2?'
p4780
tp4781
Rp4782
s(g301
S'prev-action-3'
p4783
tp4784
g5
(g9
S'eWr=\x8c\xa0k\xbf'
p4785
tp4786
Rp4787
s(S'diff-x-pos--22'
p4788
S'prev-action-1'
p4789
tp4790
g5
(g9
S'493\x1f\x95\xd6r?'
p4791
tp4792
Rp4793
s(g752
S'action-1'
p4794
tp4795
g5
(g9
S'\xeb\xe9\xd4\x05\x00\x1cx?'
p4796
tp4797
Rp4798
s(S'action-3'
p4799
S'object-0-x-8'
p4800
tp4801
g5
(g9
S'\xba\xfe\xc9!\xca\x9e\xb1?'
p4802
tp4803
Rp4804
s(g4049
S'object-0-x-60'
p4805
tp4806
g5
(g9
S'\xbf*]ecU\xc4?'
p4807
tp4808
Rp4809
s(S'diff-x-pos--69'
p4810
S'prev-action-1'
p4811
tp4812
g5
(g9
S'\xc3\xbf\x13\x9c\x01\xa0\x87\xbf'
p4813
tp4814
Rp4815
s(g2314
S'action-1'
p4816
tp4817
g5
(g9
S' \xbb\xebZ\xdb\x8bm?'
p4818
tp4819
Rp4820
s(g3469
g2513
tp4821
g5
(g9
S'\xf7Q\\(n8B\xbf'
p4822
tp4823
Rp4824
s(S'diff-x-pos--51'
p4825
g459
tp4826
g5
(g9
S'>\xe7\xb65\xb3\x88\x8b\xbf'
p4827
tp4828
Rp4829
s(g2306
g4417
tp4830
g5
(g9
S'}b0\xafc\xf4x?'
p4831
tp4832
Rp4833
s(g1944
S'object-0-x-56'
p4834
tp4835
g5
(g9
S',N%\xaeYh\xbd?'
p4836
tp4837
Rp4838
s(S'diff-x-pos--33'
p4839
S'prev-action-3'
p4840
tp4841
g5
(g9
S'\x19\x94gN_\xbcc\xbf'
p4842
tp4843
Rp4844
s(g369
S'action-1'
p4845
tp4846
g5
(g9
S'\x87{\x97\x93\xb0\x05\x8b?'
p4847
tp4848
Rp4849
s(S'diff-x-pos--71'
p4850
S'prev-action-4'
p4851
tp4852
g5
(g9
S'x\xb6\xbc\x15\xf6m\x8a\xbf'
p4853
tp4854
Rp4855
s(S'diff-x-pos-47'
p4856
S'prev-action-4'
p4857
tp4858
g5
(g9
S'\xf0\x9c\xb6\xb5\xfcFv\xbf'
p4859
tp4860
Rp4861
sg690
g5
(g9
S'4\xfc`\t}N\xb1\xbf'
p4862
tp4863
Rp4864
sg4686
g5
(g9
S'L\xd3\xd59\x1b5\x9d\xbf'
p4865
tp4866
Rp4867
s(g4350
S'prev-action-4'
p4868
tp4869
g5
(g9
S'-\x00\x03\xcd\x88\xa6\xa0\xbf'
p4870
tp4871
Rp4872
s(S'diff-x-pos--60'
p4873
S'prev-action-1'
p4874
tp4875
g5
(g9
S'%\xfc\x017\x15\xc4B?'
p4876
tp4877
Rp4878
s(g250
g3901
tp4879
g5
(g9
S'\xf6;\xcf|\xa9 \xb9?'
p4880
tp4881
Rp4882
s(S'diff-x-pos-30'
p4883
S'prev-action-1'
p4884
tp4885
g5
(g9
S'\xb8\xb0\xd1\x02p\x0c\x91?'
p4886
tp4887
Rp4888
s(S'diff-x-pos--27'
p4889
S'action-1'
p4890
tp4891
g5
(g9
S'm\xe9X\xe5;_^\xbf'
p4892
tp4893
Rp4894
sg2467
g5
(g9
S'\x03\xf7j[\xf2l\x8b?'
p4895
tp4896
Rp4897
sg1415
g5
(g9
S'\x88\xa1&\xbc\x9d\xbc~?'
p4898
tp4899
Rp4900
sg1527
g5
(g9
S'P\xd2\xe6\xf0Gh\x92?'
p4901
tp4902
Rp4903
sg746
g5
(g9
S'\t\xbcG\x19T\xd7\x9b?'
p4904
tp4905
Rp4906
sS'diff-x-pos--109'
p4907
g5
(g9
S'\x9fA\xf7\x91\xeb*\x81?'
p4908
tp4909
Rp4910
sg428
g5
(g9
S'\xedJN\xa4\xa3\x99\x81?'
p4911
tp4912
Rp4913
sg4104
g5
(g9
S'\x80.\xa6\x9fP$\x93?'
p4914
tp4915
Rp4916
sg2100
g5
(g9
S'\x7fC\x13\x132\xda\xa2?'
p4917
tp4918
Rp4919
sS'diff-x-pos-50'
p4920
g5
(g9
S'\xde\x12p\xc7\xbe\xae\x9c?'
p4921
tp4922
Rp4923
sg2149
g5
(g9
S'\xe8U\x00G\x97$\x9b?'
p4924
tp4925
Rp4926
s(g3393
S'prev-action-3'
p4927
tp4928
g5
(g9
S'@3@\xbb\xd4\x1cS?'
p4929
tp4930
Rp4931
sg1657
g5
(g9
S'\x95o\xcd\x86\x9et\x9d?'
p4932
tp4933
Rp4934
s(S'diff-x-pos-45'
p4935
S'action-1'
p4936
tp4937
g5
(g9
S'\xd6\x8c\xdf\xce\x18M\x8a?'
p4938
tp4939
Rp4940
s(g1416
S'object-0-x-120'
p4941
tp4942
g5
(g9
S'\xc7P\x12\xbb;\xb9\xb5?'
p4943
tp4944
Rp4945
s(g2335
S'action-4'
p4946
tp4947
g5
(g9
S'=e\tP\x8eiv\xbf'
p4948
tp4949
Rp4950
s(S'diff-x-pos-43'
p4951
S'prev-action-3'
p4952
tp4953
g5
(g9
S'\xafg\xa4\xa1\xb4\xcfe?'
p4954
tp4955
Rp4956
s(g4241
S'prev-action-4'
p4957
tp4958
g5
(g9
S'\xb6bVa\xd5K\x8e\xbf'
p4959
tp4960
Rp4961
sg1193
g5
(g9
S'\xd7\xe6INM\x9c\x92?'
p4962
tp4963
Rp4964
s(S'diff-x-pos--90'
p4965
S'action-1'
p4966
tp4967
g5
(g9
S'gS\xb0\xd9\xd0\xeaZ?'
p4968
tp4969
Rp4970
s(S'action-1'
p4971
S'object-1-x-96'
p4972
tp4973
g5
(g9
S'?\xba\xf9M=\xab\x9d?'
p4974
tp4975
Rp4976
s(g4201
S'action-4'
p4977
tp4978
g5
(g9
S'.?\xc4t\nmj\xbf'
p4979
tp4980
Rp4981
s(g4104
S'action-1'
p4982
tp4983
g5
(g9
S'_>hQ}l\x8d?'
p4984
tp4985
Rp4986
s(S'diff-x-pos-33'
p4987
S'prev-action-1'
p4988
tp4989
g5
(g9
S'\xf9\x10.\xa9\x16\t\x95?'
p4990
tp4991
Rp4992
s(S'diff-x-pos--5'
p4993
S'action-1'
p4994
tp4995
g5
(g9
S'\x08\xe5\xe3\xba7\xddy?'
p4996
tp4997
Rp4998
s(S'diff-x-pos-2'
p4999
S'prev-action-1'
p5000
tp5001
g5
(g9
S'\x0e\xf1\x1a\xc8\xc99~\xbf'
p5002
tp5003
Rp5004
s(S'diff-x-pos--39'
p5005
S'action-1'
p5006
tp5007
g5
(g9
S'\xfe\x94\x9d\xe9\xf0\xf5\x90?'
p5008
tp5009
Rp5010
s(g1223
g15
tp5011
g5
(g9
S'C\xeb|f\xf2Hy?'
p5012
tp5013
Rp5014
s(S'object-0-dx-1'
p5015
g15
tp5016
g5
(g9
S'S=u\x7f\xe2\x1d\xa3?'
p5017
tp5018
Rp5019
s(S'diff-x-pos-14'
p5020
S'prev-action-1'
p5021
tp5022
g5
(g9
S'\xd0`)\xdf\xb31\x8d?'
p5023
tp5024
Rp5025
s(g3575
S'prev-action-4'
p5026
tp5027
g5
(g9
S'\x12\xb8\x96\xc4U\xdc\x89?'
p5028
tp5029
Rp5030
s(S'diff-x-pos-37'
p5031
S'prev-action-1'
p5032
tp5033
g5
(g9
S'Q\xc1\xde\x11`\xa2\x88?'
p5034
tp5035
Rp5036
s(S'diff-x-pos--105'
p5037
S'action-1'
p5038
tp5039
g5
(g9
S'\xd7:a,Z%\x84?'
p5040
tp5041
Rp5042
s(g405
S'prev-action-3'
p5043
tp5044
g5
(g9
S'\xb5{S\x87r\x1dH\xbf'
p5045
tp5046
Rp5047
s(S'diff-x-pos--13'
p5048
S'prev-action-1'
p5049
tp5050
g5
(g9
S'y\xba8\xef\x89\xddy?'
p5051
tp5052
Rp5053
s(g3461
S'action-4'
p5054
tp5055
g5
(g9
S'T\xdb\x04\xf6\xd3\x03O?'
p5056
tp5057
Rp5058
s(g63
S'prev-action-4'
p5059
tp5060
g5
(g9
S'n\x83\x05\x8bg\xa8\x91\xbf'
p5061
tp5062
Rp5063
s(S'diff-x-pos--7'
p5064
S'action-1'
p5065
tp5066
g5
(g9
S'\x8el\xb5g\xb7!\\\xbf'
p5067
tp5068
Rp5069
sg4174
g5
(g9
S'\x1f&\xef\x05.\xd7\xd2?'
p5070
tp5071
Rp5072
s(S'diff-x-pos--109'
p5073
S'prev-action-4'
p5074
tp5075
g5
(g9
S'\xf9\x07\x08\x93\xf1\xc70?'
p5076
tp5077
Rp5078
s(g1459
g913
tp5079
g5
(g9
S':\xb3\xbfe\x8dm\xeb?'
p5080
tp5081
Rp5082
sS'object-0-x-96'
p5083
g5
(g9
S'z\xccFB\x08\x1e\xd3?'
p5084
tp5085
Rp5086
s(S'diff-x-pos--47'
p5087
S'action-4'
p5088
tp5089
g5
(g9
S'Q\x01\xb3\xa9\x1a\x9b}?'
p5090
tp5091
Rp5092
s(S'diff-x-pos--94'
p5093
S'prev-action-3'
p5094
tp5095
g5
(g9
S'30m\n\xd1\x8c\x88?'
p5096
tp5097
Rp5098
s(S'diff-x-pos-48'
p5099
S'prev-action-3'
p5100
tp5101
g5
(g9
S'\x15\xc1\xfc\xf4WQ\x83?'
p5102
tp5103
Rp5104
s(S'diff-x-pos--50'
p5105
S'prev-action-1'
p5106
tp5107
g5
(g9
S'\xf4\x06B\xf8\xb3\xa8\x11\xbf'
p5108
tp5109
Rp5110
s(S'diff-x-pos--104'
p5111
S'prev-action-3'
p5112
tp5113
g5
(g9
S'-\xc1\xa5?S\x91t?'
p5114
tp5115
Rp5116
s(S'diff-x-pos--115'
p5117
S'prev-action-1'
p5118
tp5119
g5
(g9
S'Hq\x85^\xcc\x7fd?'
p5120
tp5121
Rp5122
s(S'diff-x-pos--15'
p5123
S'action-4'
p5124
tp5125
g5
(g9
S'rE\x9c\xe1\xe2\xae\x91?'
p5126
tp5127
Rp5128
s(g27
g459
tp5129
g5
(g9
S'\xe1i\xd6\xf0F\xe2\xe9?'
p5130
tp5131
Rp5132
s(S'diff-x-pos--56'
p5133
S'prev-action-1'
p5134
tp5135
g5
(g9
S'\xf3GAz\x9b\xeex\xbf'
p5136
tp5137
Rp5138
s(S'diff-x-pos-63'
p5139
S'action-1'
p5140
tp5141
g5
(g9
S'\x12:\x19\x0e\xe9U\x91?'
p5142
tp5143
Rp5144
s(S'diff-x-pos--119'
p5145
S'prev-action-4'
p5146
tp5147
g5
(g9
S'>^o\xa9j\xb3W?'
p5148
tp5149
Rp5150
s(S'diff-x-pos-13'
p5151
S'prev-action-3'
p5152
tp5153
g5
(g9
S'\xad\xfc\x81\xc2H\xe5r\xbf'
p5154
tp5155
Rp5156
s(S'diff-x-pos--103'
p5157
S'prev-action-3'
p5158
tp5159
g5
(g9
S"\x0c;X'\x8b\xb3^?"
p5160
tp5161
Rp5162
s(g3917
S'action-4'
p5163
tp5164
g5
(g9
S'S\xd6\xf9G3CP?'
p5165
tp5166
Rp5167
s(S'diff-x-pos-9'
p5168
S'action-1'
p5169
tp5170
g5
(g9
S'\xb0\xbd\xdd\xaa#>;?'
p5171
tp5172
Rp5173
s(g3469
S'prev-action-3'
p5174
tp5175
g5
(g9
S'N\x8f\xa6\xce\xfe@R?'
p5176
tp5177
Rp5178
s(g2461
S'action-3'
p5179
tp5180
g5
(g9
S'\xb3,x\x12\x9e\xfb\x8c?'
p5181
tp5182
Rp5183
s(g1365
g2202
tp5184
g5
(g9
S'n\xb8\xf6\xcf\xdf\x1fQ?'
p5185
tp5186
Rp5187
s(g858
S'prev-action-1'
p5188
tp5189
g5
(g9
S'.\xab\x1a!\xe7\x8b7\xbf'
p5190
tp5191
Rp5192
s(g847
g522
tp5193
g5
(g9
S'\xb4\xdf5w\xc0,y\xbf'
p5194
tp5195
Rp5196
s(S'diff-x-pos-65'
p5197
S'prev-action-4'
p5198
tp5199
g5
(g9
S'\n\xff6\xb0}wD?'
p5200
tp5201
Rp5202
s(S'action-1'
p5203
S'object-1-x-88'
p5204
tp5205
g5
(g9
S'\xc8x\xe2|\xd8@\x9a?'
p5206
tp5207
Rp5208
s(S'diff-x-pos-15'
p5209
S'action-1'
p5210
tp5211
g5
(g9
S'\xd4+\xd4}")!?'
p5212
tp5213
Rp5214
s(g2242
S'prev-action-1'
p5215
tp5216
g5
(g9
S'\xc3\t(s\x98\xf9`?'
p5217
tp5218
Rp5219
s(S'diff-x-pos--52'
p5220
S'action-3'
p5221
tp5222
g5
(g9
S'\xd9VG\xe7\xeeS\x8f\xbf'
p5223
tp5224
Rp5225
s(g2282
S'prev-action-4'
p5226
tp5227
g5
(g9
S'\xf8\xf9\xc5\xb2\xb1\x97\xb7\xbf'
p5228
tp5229
Rp5230
s(S'diff-x-pos--116'
p5231
S'action-1'
p5232
tp5233
g5
(g9
S'\x9a\xb5NnES`?'
p5234
tp5235
Rp5236
sg186
g5
(g9
S'\r\xef\x8a\xa9\x0f\xc1y?'
p5237
tp5238
Rp5239
s(g4907
S'prev-action-3'
p5240
tp5241
g5
(g9
S'k\x14,\x9e\xa1\x9b\x81?'
p5242
tp5243
Rp5244
s(S'diff-x-pos-17'
p5245
S'prev-action-3'
p5246
tp5247
g5
(g9
S'I\x01\xec\x05\xc3ai?'
p5248
tp5249
Rp5250
s(S'action-4'
p5251
g2773
tp5252
g5
(g9
S'\xc9\xfa\x99\xec\x0b+\xbf?'
p5253
tp5254
Rp5255
s(g1565
S'prev-action-4'
p5256
tp5257
g5
(g9
S'\x87\x9d\xbc\t_g\xa3\xbf'
p5258
tp5259
Rp5260
s(g3707
S'action-4'
p5261
tp5262
g5
(g9
S'gU\x12\xa7\x11\x11r\xbf'
p5263
tp5264
Rp5265
s(S'diff-x-pos--67'
p5266
S'prev-action-0'
p5267
tp5268
g5
(g9
S'.\x15\x96\xc5\xbd0\xe3?'
p5269
tp5270
Rp5271
s(S'diff-x-pos--31'
p5272
S'action-3'
p5273
tp5274
g5
(g9
S',\x8b@\xedr\xcd|\xbf'
p5275
tp5276
Rp5277
s(g2928
S'prev-action-4'
p5278
tp5279
g5
(g9
S'\x88\x14Es\xa5\xc4a?'
p5280
tp5281
Rp5282
s(S'diff-x-pos-1'
p5283
S'action-3'
p5284
tp5285
g5
(g9
S"'\xf3X\x81\x85\xcb\x91\xbf"
p5286
tp5287
Rp5288
s(S'diff-x-pos-5'
p5289
S'action-4'
p5290
tp5291
g5
(g9
S'2\xaa\xe0\x80f\x96\x8c\xbf'
p5292
tp5293
Rp5294
s(S'diff-x-pos--41'
p5295
S'action-3'
p5296
tp5297
g5
(g9
S'z\xf7\x16\x00nw\x95\xbf'
p5298
tp5299
Rp5300
s(g724
g522
tp5301
g5
(g9
S'\x04\xfeUnw\xed\xe9?'
p5302
tp5303
Rp5304
s(g828
g2115
tp5305
g5
(g9
S'\x89\x7fywD,C\xbf'
p5306
tp5307
Rp5308
s(g930
S'action-3'
p5309
tp5310
g5
(g9
S'\x93;>8\x17\xd5~\xbf'
p5311
tp5312
Rp5313
s(g1454
S'object-0-x-108'
p5314
tp5315
g5
(g9
S'\x12\x8f%\x8bk*\xbc?'
p5316
tp5317
Rp5318
s(g1025
S'prev-action-4'
p5319
tp5320
g5
(g9
S'\x97Lhx8#\xa3\xbf'
p5321
tp5322
Rp5323
s(g4610
S'object-1-x-76'
p5324
tp5325
g5
(g9
S'\x8e9\xfeWwH~?'
p5326
tp5327
Rp5328
s(S'action-1'
p5329
g105
tp5330
g5
(g9
S'R\xd7C\xe0\x82)\x90?'
p5331
tp5332
Rp5333
s(S'diff-x-pos--26'
p5334
g3163
tp5335
g5
(g9
S'\x18\x1eOa\x93\xa5\x88\xbf'
p5336
tp5337
Rp5338
s(g2255
S'prev-action-1'
p5339
tp5340
g5
(g9
S'|`B|/\x8fa?'
p5341
tp5342
Rp5343
s(S'action-3'
p5344
S'object-0-x-80'
p5345
tp5346
g5
(g9
S'j\xfa\x86\x9a\xa5M\xbc?'
p5347
tp5348
Rp5349
s(S'diff-x-pos--59'
p5350
S'action-1'
p5351
tp5352
g5
(g9
S'|6\xfdZ\x01\xc0z\xbf'
p5353
tp5354
Rp5355
s(S'diff-x-pos-54'
p5356
S'prev-action-3'
p5357
tp5358
g5
(g9
S'\x86\xb3\x1e!\xdb\x97v\xbf'
p5359
tp5360
Rp5361
s(S'diff-x-pos-8'
p5362
S'prev-action-1'
p5363
tp5364
g5
(g9
S'\x7f\x84%pe\xec\x80?'
p5365
tp5366
Rp5367
s(S'diff-x-pos-1'
p5368
S'prev-action-4'
p5369
tp5370
g5
(g9
S'\xc6\xb8\xbe\x87\xf8 \x93\xbf'
p5371
tp5372
Rp5373
s(S'diff-x-pos-24'
p5374
S'action-4'
p5375
tp5376
g5
(g9
S'i\x1b@Xx#\x82\xbf'
p5377
tp5378
Rp5379
s(S'diff-x-pos-2'
p5380
S'action-1'
p5381
tp5382
g5
(g9
S'@q\x88\x80}\x7f|?'
p5383
tp5384
Rp5385
s(S'action-4'
p5386
g4004
tp5387
g5
(g9
S'\xe3mRN\xc51\xb3?'
p5388
tp5389
Rp5390
s(g3519
S'action-4'
p5391
tp5392
g5
(g9
S'<\x7fS\x1e\xa3P??'
p5393
tp5394
Rp5395
s(S'diff-x-pos--112'
p5396
S'action-4'
p5397
tp5398
g5
(g9
S'\xce\xe0\xbf\xfc\xd1\xaav?'
p5399
tp5400
Rp5401
s(S'diff-x-pos-12'
p5402
S'action-1'
p5403
tp5404
g5
(g9
S'P\xcey\xd7\xb2\x96q?'
p5405
tp5406
Rp5407
s(S'diff-x-pos-47'
p5408
S'action-3'
p5409
tp5410
g5
(g9
S'\r\x08\xca\xa2\xb1\xbf\x97?'
p5411
tp5412
Rp5413
s(S'action-4'
p5414
g5083
tp5415
g5
(g9
S'|\xf9\xab\x02V8\xbb?'
p5416
tp5417
Rp5418
s(S'diff-x-pos--41'
p5419
g764
tp5420
g5
(g9
S'\x11 \xc8\xb1\xed\xfe\x84?'
p5421
tp5422
Rp5423
s(g3389
S'action-3'
p5424
tp5425
g5
(g9
S'\xcf\xcb\x87\xdf\x0f\xe3\x82?'
p5426
tp5427
Rp5428
s(S'diff-x-pos--76'
p5429
S'prev-action-1'
p5430
tp5431
g5
(g9
S'\xe6 up+\xe4{\xbf'
p5432
tp5433
Rp5434
s(S'diff-x-pos-27'
p5435
S'prev-action-3'
p5436
tp5437
g5
(g9
S'\xecae\xd8\xafOn\xbf'
p5438
tp5439
Rp5440
s(S'diff-x-pos--16'
p5441
S'action-3'
p5442
tp5443
g5
(g9
S'\xe0h\xff\xd3\xff \x8b\xbf'
p5444
tp5445
Rp5446
s(S'diff-x-pos-14'
p5447
S'action-4'
p5448
tp5449
g5
(g9
S'%*;\xe1pfz\xbf'
p5450
tp5451
Rp5452
s(S'diff-x-pos--18'
p5453
S'action-1'
p5454
tp5455
g5
(g9
S'\\"\x04\x06\x88\xe6g\xbf'
p5456
tp5457
Rp5458
s(S'diff-x-pos--6'
p5459
S'prev-action-1'
p5460
tp5461
g5
(g9
S'\xda\x9a\xfd\xa4\x04\xb2t?'
p5462
tp5463
Rp5464
s(S'diff-x-pos--36'
p5465
S'action-3'
p5466
tp5467
g5
(g9
S'n\xe1R D\xbc\x8f\xbf'
p5468
tp5469
Rp5470
s(S'diff-x-pos-53'
p5471
S'prev-action-3'
p5472
tp5473
g5
(g9
S'\xb8\xdb\x9f\xcaJ,W?'
p5474
tp5475
Rp5476
s(S'diff-x-pos--70'
p5477
S'action-3'
p5478
tp5479
g5
(g9
S'\xdc\x00\x1fud\xfe}\xbf'
p5480
tp5481
Rp5482
s(g3451
S'action-4'
p5483
tp5484
g5
(g9
S'\x86\xc4\x87\xa2\xeb\xf2q\xbf'
p5485
tp5486
Rp5487
s(S'diff-x-pos--34'
p5488
S'prev-action-1'
p5489
tp5490
g5
(g9
S'[s\x11\x1fv\xeek?'
p5491
tp5492
Rp5493
s(S'diff-x-pos--8'
p5494
S'action-3'
p5495
tp5496
g5
(g9
S'ieX\xff\x19fw\xbf'
p5497
tp5498
Rp5499
s(S'diff-x-pos--77'
p5500
S'action-3'
p5501
tp5502
g5
(g9
S'S\x00\xe6\xdd+\xfbt\xbf'
p5503
tp5504
Rp5505
sS'diff-y-pos--12'
p5506
g5
(g9
S'#\xf0\xae\xbci\xba{?'
p5507
tp5508
Rp5509
s(g2227
S'action-4'
p5510
tp5511
g5
(g9
S'\x8fx\xd1\xd9\x0c\xe1\x13\xbf'
p5512
tp5513
Rp5514
s(S'diff-x-pos--1'
p5515
S'action-4'
p5516
tp5517
g5
(g9
S'\t\xe1^\xe3\xe0]\x92\xbf'
p5518
tp5519
Rp5520
s(g1003
S'prev-action-4'
p5521
tp5522
g5
(g9
S'\x97\xd2\x03\xef\xb95\x86?'
p5523
tp5524
Rp5525
s(g4747
S'action-3'
p5526
tp5527
g5
(g9
S'\xa6d\xac\xdaR\xbc|\xbf'
p5528
tp5529
Rp5530
s(g2310
S'action-3'
p5531
tp5532
g5
(g9
S'\xb33\x83~\x99\xb8\x90?'
p5533
tp5534
Rp5535
s(S'diff-x-pos-29'
p5536
S'action-1'
p5537
tp5538
g5
(g9
S'\x14\xc6%$\xcf\x1ep?'
p5539
tp5540
Rp5541
s(g1206
S'object-1-x-72'
p5542
tp5543
g5
(g9
S'\xd2\xe4\xfb\xfd_\xbd\x9a?'
p5544
tp5545
Rp5546
s(g3553
S'prev-action-4'
p5547
tp5548
g5
(g9
S'\xb3\x8d\xef\xad\xe5\xcd@?'
p5549
tp5550
Rp5551
s(S'diff-x-pos--2'
p5552
S'prev-action-1'
p5553
tp5554
g5
(g9
S'F\x8f\x02\xc5\xe0Q\x00?'
p5555
tp5556
Rp5557
s(S'action-4'
p5558
g800
tp5559
g5
(g9
S'\x0b\xd2\t\\\n\xe0\xb4?'
p5560
tp5561
Rp5562
s(S'diff-x-pos-47'
p5563
S'action-4'
p5564
tp5565
g5
(g9
S'#>\xce\xb9\xf1j\x91\xbf'
p5566
tp5567
Rp5568
s(g1813
S'action-4'
p5569
tp5570
g5
(g9
S'\xd2mE\x7f\xcb{\x8d\xbf'
p5571
tp5572
Rp5573
s(S'object-1-dx--1'
p5574
g568
tp5575
g5
(g9
S'\x9b\x91\x08Y\xc5\t\x97\xbf'
p5576
tp5577
Rp5578
s(g3141
S'prev-action-3'
p5579
tp5580
g5
(g9
S'\x906\x02\xd8\x9a\xb2\x94?'
p5581
tp5582
Rp5583
s(g3533
S'prev-action-4'
p5584
tp5585
g5
(g9
S'n|Liu1\x17\xbf'
p5586
tp5587
Rp5588
s(g3503
S'prev-action-3'
p5589
tp5590
g5
(g9
S'\x8a\xd7wdA {?'
p5591
tp5592
Rp5593
s(S'diff-x-pos--12'
p5594
S'prev-action-3'
p5595
tp5596
g5
(g9
S'AVj\x88s\xc8E?'
p5597
tp5598
Rp5599
s(g2331
S'action-4'
p5600
tp5601
g5
(g9
S'\x84eX|Q\xd2v\xbf'
p5602
tp5603
Rp5604
s(S'diff-x-pos-27'
p5605
S'action-3'
p5606
tp5607
g5
(g9
S'\xbf\x89k\xbb\xf3W\x8f?'
p5608
tp5609
Rp5610
s(g3057
S'prev-action-1'
p5611
tp5612
g5
(g9
S'W\x95(u4\xb4u?'
p5613
tp5614
Rp5615
sS'object-1-x-88'
p5616
g5
(g9
S'\xcb%\xd2&\xb1R`?'
p5617
tp5618
Rp5619
s(S'diff-x-pos--91'
p5620
S'prev-action-3'
p5621
tp5622
g5
(g9
S'\x9f\xc1\xaa\x837wk\xbf'
p5623
tp5624
Rp5625
s(S'diff-x-pos--53'
p5626
S'action-1'
p5627
tp5628
g5
(g9
S'\xc3;\xe12q\xa7m\xbf'
p5629
tp5630
Rp5631
s(S'diff-x-pos--45'
p5632
S'prev-action-4'
p5633
tp5634
g5
(g9
S'\xadD\x16\x19\x0b\xc9\x95\xbf'
p5635
tp5636
Rp5637
s(g2060
S'prev-action-4'
p5638
tp5639
g5
(g9
S'\x116\xb3\xa4\x1c\x14\x89\xbf'
p5640
tp5641
Rp5642
s(g1471
S'prev-action-4'
p5643
tp5644
g5
(g9
S'\xab\x03$\xefQ\xca\x83\xbf'
p5645
tp5646
Rp5647
sS'object-0-x-112'
p5648
g5
(g9
S'q\x90Mq\x89\xb4\xd4?'
p5649
tp5650
Rp5651
s(g1825
g1291
tp5652
g5
(g9
S'\xaa\xab\x95\xb5Y\x86\x8e\xbf'
p5653
tp5654
Rp5655
sg3250
g5
(g9
S'#ci\xe3~\x8a\xd1?'
p5656
tp5657
Rp5658
s(S'diff-x-pos-20'
p5659
S'action-1'
p5660
tp5661
g5
(g9
S'3V\xdd}j.p?'
p5662
tp5663
Rp5664
s(g2935
S'prev-action-1'
p5665
tp5666
g5
(g9
S'\x06\x1e-\xde\x8f\x9cc?'
p5667
tp5668
Rp5669
s(S'diff-x-pos--40'
p5670
S'action-1'
p5671
tp5672
g5
(g9
S'.\xd2\x88\x99\x06\xfd]\xbf'
p5673
tp5674
Rp5675
s(S'diff-x-pos-34'
p5676
S'prev-action-3'
p5677
tp5678
g5
(g9
S'N\xbb\xf6\x94\x03\xf5{?'
p5679
tp5680
Rp5681
s(g4190
S'action-3'
p5682
tp5683
g5
(g9
S'\x15\xe3\xec82\x03f\xbf'
p5684
tp5685
Rp5686
s(g1021
S'prev-action-4'
p5687
tp5688
g5
(g9
S'\t\x0b\xea\x7fq\xb3\xa5\xbf'
p5689
tp5690
Rp5691
sS'object-1-y-16'
p5692
g5
(g9
S'Eq\x13\xb4\x93\x17\x96\xbf'
p5693
tp5694
Rp5695
s(S'diff-x-pos--83'
p5696
S'action-1'
p5697
tp5698
g5
(g9
S'\\\x88\xb7i=Dm?'
p5699
tp5700
Rp5701
s(S'diff-x-pos-16'
p5702
S'action-4'
p5703
tp5704
g5
(g9
S'\xa2\xc0;"\xb1\\\x85\xbf'
p5705
tp5706
Rp5707
s(S'action-1'
p5708
S'object-0-x-52'
p5709
tp5710
g5
(g9
S'6S\xe9B\xd0\xd6\xbd?'
p5711
tp5712
Rp5713
s(S'diff-x-pos-39'
p5714
S'prev-action-4'
p5715
tp5716
g5
(g9
S'\x9c\x8a!\x92\xf1\xd4y?'
p5717
tp5718
Rp5719
sS'object-1-dy-1'
p5720
g5
(g9
S'\x1b\x02\x91Q\xddi\x9c?'
p5721
tp5722
Rp5723
s(S'diff-x-pos--68'
p5724
g4043
tp5725
g5
(g9
S':\x8f\xe9\xe8\xf2\xb6y\xbf'
p5726
tp5727
Rp5728
s(S'diff-x-pos--22'
p5729
S'prev-action-4'
p5730
tp5731
g5
(g9
S'\x8eq\x0e\xcfM\x84\x8c\xbf'
p5732
tp5733
Rp5734
s(S'diff-x-pos--53'
p5735
S'prev-action-1'
p5736
tp5737
g5
(g9
S"*'\x94>\xad\x9bG\xbf"
p5738
tp5739
Rp5740
s(g1641
S'object-0-x-20'
p5741
tp5742
g5
(g9
S'Uh\xa9+V\xb3\xb4?'
p5743
tp5744
Rp5745
s(g746
S'prev-action-1'
p5746
tp5747
g5
(g9
S'\x8d+\x1e\x8b\xc0I\x99?'
p5748
tp5749
Rp5750
s(S'diff-x-pos-22'
p5751
S'prev-action-3'
p5752
tp5753
g5
(g9
S'NZ\xc6\xc2X\x19K?'
p5754
tp5755
Rp5756
s(S'diff-x-pos--66'
p5757
S'prev-action-4'
p5758
tp5759
g5
(g9
S'\x1c\x1f$z\\\x8c\x91\xbf'
p5760
tp5761
Rp5762
s(S'diff-x-pos--57'
p5763
S'prev-action-4'
p5764
tp5765
g5
(g9
S'E\xb0]Us\xc6\x90\xbf'
p5766
tp5767
Rp5768
s(g1690
S'action-4'
p5769
tp5770
g5
(g9
S'\xaa\x03\x02}"\xac{?'
p5771
tp5772
Rp5773
s(g835
S'prev-action-3'
p5774
tp5775
g5
(g9
S'\xf5\xb0t\xeb\x01\xe2g\xbf'
p5776
tp5777
Rp5778
s(S'diff-x-pos--14'
p5779
S'prev-action-3'
p5780
tp5781
g5
(g9
S'\xe1\xe0\x1e\x1d\x9a\x84\x83\xbf'
p5782
tp5783
Rp5784
s(g1931
S'object-1-x-60'
p5785
tp5786
g5
(g9
S'g\x07\xf7b0\x93Q?'
p5787
tp5788
Rp5789
s(g958
g459
tp5790
g5
(g9
S'!\x02\x0eT\xfd\xc4\x90\xbf'
p5791
tp5792
Rp5793
sg4778
g5
(g9
S'\xebc\x87\x18\xad\x13\xb6?'
p5794
tp5795
Rp5796
s(S'diff-x-pos-46'
p5797
S'action-1'
p5798
tp5799
g5
(g9
S'\xe7%\xc3\x90\xa1\r\x85?'
p5800
tp5801
Rp5802
s(S'diff-x-pos--54'
p5803
S'action-1'
p5804
tp5805
g5
(g9
S'n\xd5?\x1b\xff\x14K\xbf'
p5806
tp5807
Rp5808
s(g2265
g4128
tp5809
g5
(g9
S'I\x87\xd9\xa9C1\x94?'
p5810
tp5811
Rp5812
s(S'action-4'
p5813
S'object-0-x-128'
p5814
tp5815
g5
(g9
S'\x9a\x85{\xfd\xfaEs?'
p5816
tp5817
Rp5818
s(g3129
S'action-4'
p5819
tp5820
g5
(g9
S'y\x07hD\xc7\xc5o?'
p5821
tp5822
Rp5823
s(S'diff-x-pos--71'
p5824
S'prev-action-3'
p5825
tp5826
g5
(g9
S'\x17\xe2U\x93#\xf3g\xbf'
p5827
tp5828
Rp5829
s(g2828
S'prev-action-1'
p5830
tp5831
g5
(g9
S'\xdb\x02d\x16\x96Q\x80?'
p5832
tp5833
Rp5834
s(S'diff-x-pos--64'
p5835
S'action-4'
p5836
tp5837
g5
(g9
S'^7A`\xf6\xf6|?'
p5838
tp5839
Rp5840
s(S'diff-x-pos--66'
p5841
S'action-4'
p5842
tp5843
g5
(g9
S'Y\x02kbh\x9f|\xbf'
p5844
tp5845
Rp5846
s(S'diff-x-pos-0'
p5847
S'prev-action-1'
p5848
tp5849
g5
(g9
S'\xb1$\x86\xbf\xcd.}?'
p5850
tp5851
Rp5852
s(S'action-1'
p5853
S'object-0-x-0'
p5854
tp5855
g5
(g9
S'\x18\x8b\xf6\xc6\xf5\xc7\xc1?'
p5856
tp5857
Rp5858
s(S'diff-x-pos-10'
p5859
S'prev-action-1'
p5860
tp5861
g5
(g9
S'5}k\x15w\x01\x91?'
p5862
tp5863
Rp5864
s(S'diff-x-pos-27'
p5865
S'action-1'
p5866
tp5867
g5
(g9
S"\xe5\xdf\xfc\xd8='k?"
p5868
tp5869
Rp5870
s(S'diff-x-pos--62'
p5871
S'prev-action-4'
p5872
tp5873
g5
(g9
S'\xc0\x1b\xe8l\xd4\x9a\xc5\xbf'
p5874
tp5875
Rp5876
s(S'diff-x-pos--100'
p5877
S'action-3'
p5878
tp5879
g5
(g9
S'\n\xea2\x93\x87\xdcw?'
p5880
tp5881
Rp5882
s(S'diff-x-pos--74'
p5883
S'action-1'
p5884
tp5885
g5
(g9
S'\x18\x01\xe8\xc6\xc8\xbei\xbf'
p5886
tp5887
Rp5888
s(S'diff-x-pos--32'
p5889
S'prev-action-4'
p5890
tp5891
g5
(g9
S'.\x0e\xfa\x7f\xff \x85\xbf'
p5892
tp5893
Rp5894
s(S'diff-x-pos--81'
p5895
S'prev-action-3'
p5896
tp5897
g5
(g9
S'\xf3U\xc2\xedL\xfa\x82?'
p5898
tp5899
Rp5900
s(g3692
S'action-4'
p5901
tp5902
g5
(g9
S'`\xb5"\xb8\xfc\xd2i\xbf'
p5903
tp5904
Rp5905
s(g3169
S'action-4'
p5906
tp5907
g5
(g9
S'\xb2\xf6\x15\xa2\xfbxp\xbf'
p5908
tp5909
Rp5910
sg2410
g5
(g9
S'\x1e\xb21\xf3{3r?'
p5911
tp5912
Rp5913
sg1475
g5
(g9
S'\x85\x1d\xa5\x82\xc0\xadg?'
p5914
tp5915
Rp5916
s(S'diff-x-pos-58'
p5917
S'prev-action-3'
p5918
tp5919
g5
(g9
S'\xc2e\xeaz\xfc\x81p\xbf'
p5920
tp5921
Rp5922
s(g1497
S'prev-action-4'
p5923
tp5924
g5
(g9
S'\x0e4J\x07j*\x83?'
p5925
tp5926
Rp5927
sg2655
g5
(g9
S'r\x10\x86\x9c\xcc\x15s\xbf'
p5928
tp5929
Rp5930
sg1353
g5
(g9
S'\xfd\x99f~\xfc(\x83\xbf'
p5931
tp5932
Rp5933
s(S'diff-x-pos--113'
p5934
S'action-3'
p5935
tp5936
g5
(g9
S'\xcd\\\x9cC\x11\x9cS?'
p5937
tp5938
Rp5939
s(S'diff-x-pos--63'
p5940
S'action-1'
p5941
tp5942
g5
(g9
S'\xd1\r.\xad\x0c\xado\xbf'
p5943
tp5944
Rp5945
sg1365
g5
(g9
S'W\xe3Z\xbf`Ed?'
p5946
tp5947
Rp5948
sg3135
g5
(g9
S'p\xb9i"\xf8Qa\xbf'
p5949
tp5950
Rp5951
s(g3370
S'action-4'
p5952
tp5953
g5
(g9
S'\xab\x18\x8d\x13\xd8\xees?'
p5954
tp5955
Rp5956
s(g27
g1555
tp5957
g5
(g9
S'\x92\xea\x1e\x94W(\xb6?'
p5958
tp5959
Rp5960
s(g3523
g1778
tp5961
g5
(g9
S'0A*U\xcbce\xbf'
p5962
tp5963
Rp5964
s(S'diff-x-pos-21'
p5965
g5344
tp5966
g5
(g9
S'\xae+\x1e\xf0\xa6\x1a\x8c?'
p5967
tp5968
Rp5969
s(S'diff-x-pos--115'
p5970
S'action-4'
p5971
tp5972
g5
(g9
S'{\xe09<\xd9\x02l?'
p5973
tp5974
Rp5975
s(S'object-0-dx--1'
p5976
S'prev-action-4'
p5977
tp5978
g5
(g9
S'b/\x88\t\x8a\xcb\xab\xbf'
p5979
tp5980
Rp5981
s(S'diff-x-pos--42'
p5982
g2554
tp5983
g5
(g9
S'@%\x1b\xa4t\x14s\xbf'
p5984
tp5985
Rp5986
s(S'diff-x-pos--88'
p5987
S'prev-action-1'
p5988
tp5989
g5
(g9
S'z]Vs\xc7\xd8}?'
p5990
tp5991
Rp5992
s(S'action-4'
p5993
g331
tp5994
g5
(g9
S'\xe9\xc5p\x17\x02\\\x8c?'
p5995
tp5996
Rp5997
s(g5620
S'action-3'
p5998
tp5999
g5
(g9
S'\xc4`\t\xd1\x95\x08q?'
p6000
tp6001
Rp6002
s(S'action-3'
p6003
S'object-1-x-120'
p6004
tp6005
g5
(g9
S'\xd4\xa6\x88\xac4\xff\x8e\xbf'
p6006
tp6007
Rp6008
s(g544
S'prev-action-4'
p6009
tp6010
g5
(g9
S'\xea\xf2\t|\xa4\x86\x99\xbf'
p6011
tp6012
Rp6013
s(S'diff-x-pos--85'
p6014
S'action-1'
p6015
tp6016
g5
(g9
S'>\xdf\x01\xb7g*r\xbf'
p6017
tp6018
Rp6019
s(S'diff-x-pos-51'
p6020
S'prev-action-1'
p6021
tp6022
g5
(g9
S'OW\x89\x82 \xa0\x92?'
p6023
tp6024
Rp6025
s(g70
S'object-0-x-100'
p6026
tp6027
g5
(g9
S'\x9a[c\x08A]\xb9?'
p6028
tp6029
Rp6030
s(S'diff-x-pos--18'
p6031
S'prev-action-4'
p6032
tp6033
g5
(g9
S'^\xe3\x953e\xf1\x94\xbf'
p6034
tp6035
Rp6036
s(S'diff-x-pos--78'
p6037
S'prev-action-3'
p6038
tp6039
g5
(g9
S'\xab\xd3\xdc\xe3\xd8\x03\x87?'
p6040
tp6041
Rp6042
s(S'diff-x-pos--32'
p6043
S'prev-action-3'
p6044
tp6045
g5
(g9
S'f4\n\xf4\x97\xeb}\xbf'
p6046
tp6047
Rp6048
s(g2908
g724
tp6049
g5
(g9
S'\x97\xb2\xf2z\x05\xef\x9c\xbf'
p6050
tp6051
Rp6052
s(g2023
S'prev-action-3'
p6053
tp6054
g5
(g9
S'\xdc[f\xe5~\xedi\xbf'
p6055
tp6056
Rp6057
s(S'diff-x-pos-7'
p6058
S'prev-action-1'
p6059
tp6060
g5
(g9
S'\x834v\xa6\xbdy\x84?'
p6061
tp6062
Rp6063
s(g452
g3881
tp6064
g5
(g9
S'\x02\x0e:\x99Z\xe1\xb8?'
p6065
tp6066
Rp6067
s(S'diff-x-pos-60'
p6068
S'action-1'
p6069
tp6070
g5
(g9
S'\xacD5\xf9\xc3i\x8c?'
p6071
tp6072
Rp6073
s(g2874
S'prev-action-4'
p6074
tp6075
g5
(g9
S'\xbet\x02\x18\xd7\x0ei\xbf'
p6076
tp6077
Rp6078
s(g375
S'prev-action-1'
p6079
tp6080
g5
(g9
S'!\xa62}\x05\x17t?'
p6081
tp6082
Rp6083
s(g3447
S'prev-action-3'
p6084
tp6085
g5
(g9
S'\xe4L\xd6sH\xc8@?'
p6086
tp6087
Rp6088
s(g3770
S'prev-action-3'
p6089
tp6090
g5
(g9
S'8\xd8\x9cz\xba\xe2\x8d?'
p6091
tp6092
Rp6093
s(g6037
S'action-3'
p6094
tp6095
g5
(g9
S'w\n"\xf8Q\x08q\xbf'
p6096
tp6097
Rp6098
s(S'diff-x-pos-26'
p6099
S'prev-action-1'
p6100
tp6101
g5
(g9
S'\xec\x1d\x16g\xd3\xb6\x90?'
p6102
tp6103
Rp6104
s(g3980
S'action-4'
p6105
tp6106
g5
(g9
S'\xa8B\x97i\xd5\xda]?'
p6107
tp6108
Rp6109
s(S'diff-x-pos-31'
p6110
S'prev-action-3'
p6111
tp6112
g5
(g9
S'\xdf\x0f\xdfgb\xa19?'
p6113
tp6114
Rp6115
s(g2037
g683
tp6116
g5
(g9
S'3W\x93]\xf7\xfd\x95\xbf'
p6117
tp6118
Rp6119
s(S'object-0-dx--1'
p6120
g1410
tp6121
g5
(g9
S'\x8a\x9e4\xf2\x86\xb2\x9d?'
p6122
tp6123
Rp6124
s(S'diff-x-pos--65'
p6125
S'action-3'
p6126
tp6127
g5
(g9
S'Y!\x9f\x90\xb5\x90\x86\xbf'
p6128
tp6129
Rp6130
sg3319
g5
(g9
S'\xd4\x1f\xef{\x120\xd5?'
p6131
tp6132
Rp6133
sS'object-0-x-84'
p6134
g5
(g9
S'\xca n\xfb\xe8\xbd\xd2?'
p6135
tp6136
Rp6137
sg4707
g5
(g9
S'\xd8K\xb8\x12\xef\xf0\xd6?'
p6138
tp6139
Rp6140
s(g5266
S'action-3'
p6141
tp6142
g5
(g9
S'\xf2\x8f;3\x9c`\xad?'
p6143
tp6144
Rp6145
s(g3228
S'prev-action-4'
p6146
tp6147
g5
(g9
S')\xf6\xe5\xc6\xc4\x8ba?'
p6148
tp6149
Rp6150
s(g1565
S'action-1'
p6151
tp6152
g5
(g9
S'\x0f\xd8\x08?>\x8b\x87\xbf'
p6153
tp6154
Rp6155
sS'object-0-x-68'
p6156
g5
(g9
S'\xb7\xf1\x0fS\xa8\xfe\xd3?'
p6157
tp6158
Rp6159
s(g2172
S'action-4'
p6160
tp6161
g5
(g9
S'X\xeb\tz0\\z\xbf'
p6162
tp6163
Rp6164
s(S'diff-x-pos--87'
p6165
S'prev-action-1'
p6166
tp6167
g5
(g9
S'\xad_\xeb\x9a7\x0bl\xbf'
p6168
tp6169
Rp6170
s(S'diff-x-pos--50'
p6171
S'action-4'
p6172
tp6173
g5
(g9
S'\xc5\xea(\xb1\x94\xa9\x80?'
p6174
tp6175
Rp6176
s(g2473
S'prev-action-3'
p6177
tp6178
g5
(g9
S'\xf7\x07-\xa7l\x10p?'
p6179
tp6180
Rp6181
s(S'diff-x-pos--49'
p6182
S'action-1'
p6183
tp6184
g5
(g9
S'\xf4\xe2\xf7\xf2\xe0^{\xbf'
p6185
tp6186
Rp6187
s(g2467
S'action-3'
p6188
tp6189
g5
(g9
S'@\xbfB\xd2\xde\x9fq?'
p6190
tp6191
Rp6192
s(S'diff-x-pos--46'
p6193
S'action-3'
p6194
tp6195
g5
(g9
S'\xa0\xc4\xfa#5\xd7\x8d\xbf'
p6196
tp6197
Rp6198
s(S'diff-x-pos-56'
p6199
S'action-1'
p6200
tp6201
g5
(g9
S'\xc4\xb6\xc4\xde\xebA\x88?'
p6202
tp6203
Rp6204
s(S'diff-x-pos-26'
p6205
S'action-1'
p6206
tp6207
g5
(g9
S'\x10\r\xf6\x9c\xa1RP\xbf'
p6208
tp6209
Rp6210
s(g4060
S'prev-action-1'
p6211
tp6212
g5
(g9
S'\x90\xee\x01b\x02\xe3^?'
p6213
tp6214
Rp6215
s(g2439
g174
tp6216
g5
(g9
S'\x1a=\x80\x19\xbd.t\xbf'
p6217
tp6218
Rp6219
s(S'diff-x-pos-66'
p6220
S'prev-action-4'
p6221
tp6222
g5
(g9
S'\xcdH\xbc\x0c\xc2\xee`?'
p6223
tp6224
Rp6225
s(S'diff-x-pos-11'
p6226
S'prev-action-4'
p6227
tp6228
g5
(g9
S'\x88\x07\xcd\x11\xf0\x93H\xbf'
p6229
tp6230
Rp6231
s(S'diff-x-pos-25'
p6232
S'prev-action-1'
p6233
tp6234
g5
(g9
S'\xee!\xec\x16\x0e\xb7\x8c?'
p6235
tp6236
Rp6237
s(g2548
S'action-4'
p6238
tp6239
g5
(g9
S'\x8c:\xd2d\xf4Gs\xbf'
p6240
tp6241
Rp6242
s(S'diff-x-pos--44'
p6243
S'prev-action-3'
p6244
tp6245
g5
(g9
S'\xd9YT-\xdc\x0f@?'
p6246
tp6247
Rp6248
s(g4778
g3998
tp6249
g5
(g9
S'i\x9f\xb5\x1b\x9e\xd1\x87?'
p6250
tp6251
Rp6252
s(g3523
S'prev-action-4'
p6253
tp6254
g5
(g9
S'\n3\xc4\xe7E\xeb8\xbf'
p6255
tp6256
Rp6257
s(S'diff-x-pos--34'
p6258
S'action-1'
p6259
tp6260
g5
(g9
S'\x8d\xed\xca\xaa\xe5Pe\xbf'
p6261
tp6262
Rp6263
s(S'diff-x-pos-59'
p6264
S'action-3'
p6265
tp6266
g5
(g9
S'HP\xe1\x05kuX?'
p6267
tp6268
Rp6269
s(S'diff-x-pos-41'
p6270
S'action-3'
p6271
tp6272
g5
(g9
S'/L\x85d7K\x96?'
p6273
tp6274
Rp6275
s(g4194
S'prev-action-3'
p6276
tp6277
g5
(g9
S'\xc7\t\xd0w{\x82s\xbf'
p6278
tp6279
Rp6280
s(g3533
S'action-4'
p6281
tp6282
g5
(g9
S'\xf0\xf9~\xd1\xc4\xd5G?'
p6283
tp6284
Rp6285
s(S'diff-x-pos--29'
p6286
S'prev-action-1'
p6287
tp6288
g5
(g9
S'\x17h\x80\xb10fc?'
p6289
tp6290
Rp6291
s(S'diff-x-pos--118'
p6292
S'action-4'
p6293
tp6294
g5
(g9
S'\xb8\xfc\x94\x91\xa9\xd2o?'
p6295
tp6296
Rp6297
s(g3962
S'action-4'
p6298
tp6299
g5
(g9
S'\xd7\xfb\xa9\x86\x8bBY?'
p6300
tp6301
Rp6302
s(S'diff-x-pos-5'
p6303
S'action-1'
p6304
tp6305
g5
(g9
S"W\x19}~'\x8dd\xbf"
p6306
tp6307
Rp6308
s(g2939
S'prev-action-4'
p6309
tp6310
g5
(g9
S'\xb8]\x1c"\xf4ut?'
p6311
tp6312
Rp6313
s(S'diff-x-pos--30'
p6314
S'prev-action-0'
p6315
tp6316
g5
(g9
S'w\x93I\xcan2\xd0?'
p6317
tp6318
Rp6319
s(S'diff-x-pos--54'
p6320
S'prev-action-1'
p6321
tp6322
g5
(g9
S'\xa0\xc6\xb4a2\xd6q\xbf'
p6323
tp6324
Rp6325
s(S'diff-x-pos-46'
p6326
S'prev-action-1'
p6327
tp6328
g5
(g9
S'$\x14\xa5\x97\x85Q\x97?'
p6329
tp6330
Rp6331
s(g4638
S'action-4'
p6332
tp6333
g5
(g9
S'DH#\xad/h[\xbf'
p6334
tp6335
Rp6336
s(g1032
S'action-1'
p6337
tp6338
g5
(g9
S'\x7f\x1f%\x92\xae\x03w\xbf'
p6339
tp6340
Rp6341
s(S'diff-x-pos--113'
p6342
S'prev-action-4'
p6343
tp6344
g5
(g9
S'{\xfa\xb1\xaa\xdb:e?'
p6345
tp6346
Rp6347
s(g4663
S'prev-action-3'
p6348
tp6349
g5
(g9
S'\xb0\xbc\\\x8f\x1e\x840?'
p6350
tp6351
Rp6352
s(S'diff-x-pos--103'
p6353
S'action-1'
p6354
tp6355
g5
(g9
S'(\xe4\xb2\x94ML{?'
p6356
tp6357
Rp6358
s(S'diff-x-pos--75'
p6359
S'action-3'
p6360
tp6361
g5
(g9
S'~_\xf8\xf5\x82\xb8y\xbf'
p6362
tp6363
Rp6364
s(S'diff-x-pos--56'
p6365
S'action-3'
p6366
tp6367
g5
(g9
S'\x90\xfe\x88t\xa7\xa1\x88\xbf'
p6368
tp6369
Rp6370
s(g5037
S'prev-action-3'
p6371
tp6372
g5
(g9
S'+(uV9\xb4s?'
p6373
tp6374
Rp6375
sg1285
g5
(g9
S'\xc2\x0c\xe37x\x15\x88\xbf'
p6376
tp6377
Rp6378
s(g3473
S'prev-action-3'
p6379
tp6380
g5
(g9
S'\x00\xafV\xd7W,\x82\xbf'
p6381
tp6382
Rp6383
s(S'diff-x-pos-22'
p6384
g93
tp6385
g5
(g9
S'\xea\x1e!:\x11\xb6\x8b?'
p6386
tp6387
Rp6388
s(S'action-1'
p6389
S'object-0-x-116'
p6390
tp6391
g5
(g9
S'\x1e\x01k\xe5f\x17\xb7?'
p6392
tp6393
Rp6394
s(g3540
g5414
tp6395
g5
(g9
S'y\xe8]\xb7`\xe3o\xbf'
p6396
tp6397
Rp6398
s(g3473
g363
tp6399
g5
(g9
S'\xf2I\xee\x98l\xe2e?'
p6400
tp6401
Rp6402
s(g1866
S'action-3'
p6403
tp6404
g5
(g9
S'\xf6q}_\x9f\x89|\xbf'
p6405
tp6406
Rp6407
s(g1250
g1545
tp6408
g5
(g9
S'\x1a%=\xe1\x95\xce\xbd?'
p6409
tp6410
Rp6411
s(S'diff-x-pos--39'
p6412
S'prev-action-0'
p6413
tp6414
g5
(g9
S'\xe9\xc0\xb0\x91K\xe1\xd2?'
p6415
tp6416
Rp6417
s(g216
S'action-1'
p6418
tp6419
g5
(g9
S'9\xe5\xa8ga&U?'
p6420
tp6421
Rp6422
s(S'diff-x-pos--62'
p6423
g1539
tp6424
g5
(g9
S'\x1bWz\xf1\xf8E\x9d?'
p6425
tp6426
Rp6427
sg5724
g5
(g9
S'\x85K\xad\xa5\xc4\xf9\x97\xbf'
p6428
tp6429
Rp6430
s(S'diff-x-pos-18'
p6431
S'prev-action-1'
p6432
tp6433
g5
(g9
S'\x0b\xb88s\xa1\x90\x8f?'
p6434
tp6435
Rp6436
s(S'diff-x-pos--67'
p6437
S'prev-action-4'
p6438
tp6439
g5
(g9
S'H\x80\x07\xa2\xa1p\xc8\xbf'
p6440
tp6441
Rp6442
s(g724
g158
tp6443
g5
(g9
S'\x85\xd1\x9e\xb2\xdf\r\xb9?'
p6444
tp6445
Rp6446
s(S'diff-x-pos-61'
p6447
S'prev-action-3'
p6448
tp6449
g5
(g9
S'{\xcc\xa5\xb9\x05\x07F?'
p6450
tp6451
Rp6452
s(g1021
S'action-4'
p6453
tp6454
g5
(g9
S'\xfaPL\xc0\x85\xfa\x9b\xbf'
p6455
tp6456
Rp6457
s(S'diff-x-pos--64'
p6458
S'prev-action-1'
p6459
tp6460
g5
(g9
S'b\xea\r\x19\xc6\x1e\x88\xbf'
p6461
tp6462
Rp6463
s(g1737
S'prev-action-3'
p6464
tp6465
g5
(g9
S'}\xafp\xe09\xa4e?'
p6466
tp6467
Rp6468
s(S'diff-x-pos--89'
p6469
S'prev-action-3'
p6470
tp6471
g5
(g9
S'\x81\x99\x07\x9f\x1b\r\x85?'
p6472
tp6473
Rp6474
s(g620
g6134
tp6475
g5
(g9
S'K\x8fgQEb\xb9?'
p6476
tp6477
Rp6478
s(S'action-3'
p6479
S'object-1-x-72'
p6480
tp6481
g5
(g9
S'\x8c\x05\x85\xcc\x06\xc8n?'
p6482
tp6483
Rp6484
s(S'diff-x-pos--69'
p6485
S'prev-action-3'
p6486
tp6487
g5
(g9
S'\xf4\xe5\xa4\xcf\x1dpa?'
p6488
tp6489
Rp6490
s(g3786
S'action-3'
p6491
tp6492
g5
(g9
S'\x0f\x9f\xb3\xa2_\xa7s?'
p6493
tp6494
Rp6495
s(g4920
S'prev-action-3'
p6496
tp6497
g5
(g9
S'\x88\x04x$o\\r?'
p6498
tp6499
Rp6500
s(g1663
S'action-4'
p6501
tp6502
g5
(g9
S'\xf0\xe1G\x12T\x1c\xfd\xbe'
p6503
tp6504
Rp6505
s(g835
S'action-4'
p6506
tp6507
g5
(g9
S'@8Er\xdc\xe0w?'
p6508
tp6509
Rp6510
sg1937
g5
(g9
S'\x89\xe2\xdc\xccb\x89\x94\xbf'
p6511
tp6512
Rp6513
s(S'diff-x-pos--108'
p6514
S'prev-action-1'
p6515
tp6516
g5
(g9
S'Q\xd6\x81W\xc4sr?'
p6517
tp6518
Rp6519
s(S'diff-x-pos--48'
p6520
S'action-4'
p6521
tp6522
g5
(g9
S'\xfax\xce_:\xf9\\?'
p6523
tp6524
Rp6525
s(S'diff-x-pos-23'
p6526
S'action-3'
p6527
tp6528
g5
(g9
S'\xe9@\x0f\xfd">\x8a?'
p6529
tp6530
Rp6531
s(S'diff-x-pos-6'
p6532
S'prev-action-3'
p6533
tp6534
g5
(g9
S'\xea\xf8\n[\xa1uy\xbf'
p6535
tp6536
Rp6537
s(g6172
g5616
tp6538
g5
(g9
S'd\xddG\xc7\xa0\x85\x9a\xbf'
p6539
tp6540
Rp6541
s(S'diff-x-pos-3'
p6542
S'prev-action-1'
p6543
tp6544
g5
(g9
S'\xd9#\xc1V2K{?'
p6545
tp6546
Rp6547
s(g4651
S'prev-action-4'
p6548
tp6549
g5
(g9
S'r\xca\x0f\xfe\x85\x95\x94\xbf'
p6550
tp6551
Rp6552
s(S'diff-x-pos-19'
p6553
S'prev-action-4'
p6554
tp6555
g5
(g9
S'Y\xd9p[\xabp\x91\xbf'
p6556
tp6557
Rp6558
s(S'diff-x-pos--40'
p6559
S'prev-action-3'
p6560
tp6561
g5
(g9
S'j\x8f\x9a\xd1\xd5,O?'
p6562
tp6563
Rp6564
s(S'diff-x-pos--72'
p6565
S'action-3'
p6566
tp6567
g5
(g9
S'6`_%H\x0c{\xbf'
p6568
tp6569
Rp6570
s(g2292
S'action-4'
p6571
tp6572
g5
(g9
S'\x0b,\'9"\x06\x85\xbf'
p6573
tp6574
Rp6575
s(S'diff-x-pos--79'
p6576
g5203
tp6577
g5
(g9
S'V$O\xff r\x93\xbf'
p6578
tp6579
Rp6580
s(g3353
S'prev-action-1'
p6581
tp6582
g5
(g9
S'\x18\xc5f\xf7I\xd4\x89?'
p6583
tp6584
Rp6585
s(g866
S'prev-action-3'
p6586
tp6587
g5
(g9
S'R#\t\xee\xc6\xe3`?'
p6588
tp6589
Rp6590
s(g1990
S'action-3'
p6591
tp6592
g5
(g9
S'\xe6|\xd3\x9dw\xd3\x8b\xbf'
p6593
tp6594
Rp6595
s(S'diff-x-pos-39'
p6596
S'action-3'
p6597
tp6598
g5
(g9
S'1>\x9d^\x8e$\x81?'
p6599
tp6600
Rp6601
s(g4756
S'prev-action-1'
p6602
tp6603
g5
(g9
S'\xaa\xac\xe7\xcb\x8d\xd4\x86?'
p6604
tp6605
Rp6606
s(S'diff-x-pos--86'
p6607
S'action-4'
p6608
tp6609
g5
(g9
S'D\xf7\xf6\x17m\x17`?'
p6610
tp6611
Rp6612
s(S'diff-x-pos--70'
p6613
S'prev-action-3'
p6614
tp6615
g5
(g9
S'x\xb0\xcc)#\x94o\xbf'
p6616
tp6617
Rp6618
s(S'diff-x-pos--119'
p6619
S'action-1'
p6620
tp6621
g5
(g9
S'\xe1\xfaVQ:@\x06\xbf'
p6622
tp6623
Rp6624
s(S'diff-x-pos--114'
p6625
S'action-3'
p6626
tp6627
g5
(g9
S';\xd01\x1b\xa3Z\x8b\xbf'
p6628
tp6629
Rp6630
s(g2037
S'prev-action-4'
p6631
tp6632
g5
(g9
S'\xa6\xc1E[)\x9a\x8b\xbf'
p6633
tp6634
Rp6635
s(S'diff-x-pos--73'
p6636
S'action-3'
p6637
tp6638
g5
(g9
S'\xee\xdd\x83\x08\xb3\x81\x81\xbf'
p6639
tp6640
Rp6641
s(g2101
S'object-0-x-112'
p6642
tp6643
g5
(g9
S'\xa8\x1a\x1f$\xa9Q\xbf?'
p6644
tp6645
Rp6646
s(g4269
S'prev-action-4'
p6647
tp6648
g5
(g9
S'\xfc\xb0U\x97^O\x95\xbf'
p6649
tp6650
Rp6651
s(g2060
g4720
tp6652
g5
(g9
S'Zz\xaeu\xa4\xde|\xbf'
p6653
tp6654
Rp6655
s(g2286
S'prev-action-3'
p6656
tp6657
g5
(g9
S'<\x97\x98K\xc3\xd4\\?'
p6658
tp6659
Rp6660
s(g2044
S'action-1'
p6661
tp6662
g5
(g9
S'\xfa\xf0\xb7\x02P\xe6l\xbf'
p6663
tp6664
Rp6665
s(g5501
S'object-1-x-124'
p6666
tp6667
g5
(g9
S'Zv+sZ>\x9b\xbf'
p6668
tp6669
Rp6670
s(S'action-3'
p6671
S'object-0-x-128'
p6672
tp6673
g5
(g9
S'\x8f\xbc\xdc\x13o\xac\x85?'
p6674
tp6675
Rp6676
sg4129
g5
(g9
S'l\x8c\xacn$\xc4\xd2?'
p6677
tp6678
Rp6679
s(g4393
S'prev-action-1'
p6680
tp6681
g5
(g9
S"\xfa\xce\xfe\xfd\x03x'\xbf"
p6682
tp6683
Rp6684
s(g4651
g4685
tp6685
g5
(g9
S'I9T\xde\x07\x89x\xbf'
p6686
tp6687
Rp6688
sg5266
g5
(g9
S'\xdf\xbf}\x18\xe7\x96\xb3?'
p6689
tp6690
Rp6691
s(g862
S'prev-action-3'
p6692
tp6693
g5
(g9
S'3\xcd\xb2:\xe1Aj\xbf'
p6694
tp6695
Rp6696
s(g1101
S'object-0-x-16'
p6697
tp6698
g5
(g9
S'6;\xa9n\xfdb\xb9?'
p6699
tp6700
Rp6701
s(g3765
S'object-1-x-76'
p6702
tp6703
g5
(g9
S'\x99G\xa4A\x9f\xab\x97?'
p6704
tp6705
Rp6706
s(g5500
S'prev-action-3'
p6707
tp6708
g5
(g9
S'\xdf\xcf\xa7\xe1n\xc5p\xbf'
p6709
tp6710
Rp6711
s(g3465
S'action-4'
p6712
tp6713
g5
(g9
S"!\x10\xd8\xd5\xcd'i\xbf"
p6714
tp6715
Rp6716
s(g2044
S'prev-action-1'
p6717
tp6718
g5
(g9
S'\xfd\x05;_c\x02~?'
p6719
tp6720
Rp6721
s(g4186
S'action-4'
p6722
tp6723
g5
(g9
S'\x8b+\xe8\x00\xdb\x7f\x86?'
p6724
tp6725
Rp6726
s(S'diff-x-pos--48'
p6727
S'prev-action-3'
p6728
tp6729
g5
(g9
S'l\xc9\x0f\x9c)\xcfm\xbf'
p6730
tp6731
Rp6732
s(g6607
S'prev-action-4'
p6733
tp6734
g5
(g9
S'*2\x97\x14\xa87@\xbf'
p6735
tp6736
Rp6737
s(S'diff-x-pos-53'
p6738
g1931
tp6739
g5
(g9
S'\\\xdf\xb4\xa1\xd9:\x9a?'
p6740
tp6741
Rp6742
s(g5054
S'object-0-x-44'
p6743
tp6744
g5
(g9
S'\x9b\xe9\x1a5h\xe3\xba?'
p6745
tp6746
Rp6747
sg2880
g5
(g9
S'\x12U\x16\x1b\x1a\xe3u?'
p6748
tp6749
Rp6750
s(g4597
S'prev-action-1'
p6751
tp6752
g5
(g9
S'\x0b\xbd\xdd\xb5\x8f\x91\x81?'
p6753
tp6754
Rp6755
sg4259
g5
(g9
S'?\xd1jEu\xb5\x84?'
p6756
tp6757
Rp6758
s(g1819
S'prev-action-3'
p6759
tp6760
g5
(g9
S'.\x99Lo\xcc\xdex\xbf'
p6761
tp6762
Rp6763
s(g1651
S'action-1'
p6764
tp6765
g5
(g9
S'\x88\xd1\x89\x91\x9ed\x90\xbf'
p6766
tp6767
Rp6768
s(g3389
S'prev-action-3'
p6769
tp6770
g5
(g9
S'\xae\x9b\x1ar;\x07y?'
p6771
tp6772
Rp6773
sg5314
g5
(g9
S'\xf0)\x86\xd81\xcc\xd3?'
p6774
tp6775
Rp6776
s(S'diff-x-pos-32'
p6777
S'action-3'
p6778
tp6779
g5
(g9
S'\xfe\xbf\xa1\xdd\xb5\xfb\x85?'
p6780
tp6781
Rp6782
s(S'diff-x-pos-62'
p6783
S'action-3'
p6784
tp6785
g5
(g9
S'\x14\xee~\x05\xa6\xf1g?'
p6786
tp6787
Rp6788
s(S'action-1'
p6789
S'object-0-x-48'
p6790
tp6791
g5
(g9
S'htl\xc3#=\xbc?'
p6792
tp6793
Rp6794
s(g958
g27
tp6795
g5
(g9
S'\xc0\xafw\xe8e\xb4\xb3?'
p6796
tp6797
Rp6798
s(S'diff-x-pos-12'
p6799
S'prev-action-1'
p6800
tp6801
g5
(g9
S'v^,+\xa2\x9d\x91?'
p6802
tp6803
Rp6804
sg2958
g5
(g9
S'5\xde\xc6?\xc2(\xd3?'
p6805
tp6806
Rp6807
sg678
g5
(g9
S'C\x06\xc1\xcb(k\xd3?'
p6808
tp6809
Rp6810
s(g2810
S'prev-action-4'
p6811
tp6812
g5
(g9
S'\x02\xef\xa8\x8bO=4?'
p6813
tp6814
Rp6815
s(g5515
S'prev-action-4'
p6816
tp6817
g5
(g9
S'-|\x80\xa6\xb24\x9a\xbf'
p6818
tp6819
Rp6820
s(g2949
S'action-3'
p6821
tp6822
g5
(g9
S'\xcd\xccM>\x88\xb8\x84?'
p6823
tp6824
Rp6825
s(S'diff-x-pos--111'
p6826
S'prev-action-1'
p6827
tp6828
g5
(g9
S'\xd8D$\xe9\xeb\x16\x92?'
p6829
tp6830
Rp6831
s(g839
S'action-1'
p6832
tp6833
g5
(g9
S'\x0b\x1b%\xf5b0P\xbf'
p6834
tp6835
Rp6836
s(g3353
S'action-1'
p6837
tp6838
g5
(g9
S'\x86\xf0\x07\xdcp\x08z?'
p6839
tp6840
Rp6841
sS'diff-y-pos--5'
p6842
g5
(g9
S'\xda\x14Ilk\x1ew\xbf'
p6843
tp6844
Rp6845
s(S'diff-x-pos-36'
p6846
S'prev-action-3'
p6847
tp6848
g5
(g9
S'\x8b\x1e\x8dM\xc8w\x80?'
p6849
tp6850
Rp6851
s(g2310
S'prev-action-4'
p6852
tp6853
g5
(g9
S'\xed\x8fh\xbe\x8e\xf2u\xbf'
p6854
tp6855
Rp6856
s(g5362
S'action-1'
p6857
tp6858
g5
(g9
S'E_\xb9OUuD\xbf'
p6859
tp6860
Rp6861
sg2548
g5
(g9
S'\xc1\xe6\xb9\xa6\xd2\t\x8d\xbf'
p6862
tp6863
Rp6864
s(g2227
S'prev-action-4'
p6865
tp6866
g5
(g9
S'\x8fx\xd1\xd9\x0c\xe1\x13\xbf'
p6867
tp6868
Rp6869
s(S'diff-x-pos-67'
p6870
S'prev-action-3'
p6871
tp6872
g5
(g9
S'Hy\xcb\xd6\xe5\xa6\\?'
p6873
tp6874
Rp6875
sg2736
g5
(g9
S'V\x04\xa8K-\x9c\x9b\xbf'
p6876
tp6877
Rp6878
sg2335
g5
(g9
S'Lb3\x17\xb1\xc2\x98\xbf'
p6879
tp6880
Rp6881
sg2507
g5
(g9
S'\xdajy?\xc4\xb5\x96\xbf'
p6882
tp6883
Rp6884
sg5824
g5
(g9
S"}\xa6\xe0\xa5T'\x94\xbf"
p6885
tp6886
Rp6887
sg1651
g5
(g9
S'\xff\r%\x1bN\xe7\x96\xbf'
p6888
tp6889
Rp6890
s(g839
S'prev-action-3'
p6891
tp6892
g5
(g9
S'zT\xe1\xc5\x95\xb4`\xbf'
p6893
tp6894
Rp6895
s(S'diff-x-pos--111'
p6896
S'action-3'
p6897
tp6898
g5
(g9
S'\xd6_\x95A\xf2\xe3`?'
p6899
tp6900
Rp6901
sg125
g5
(g9
S'#K\xcc\xca\xc8\xd7\x96\xbf'
p6902
tp6903
Rp6904
s(g6514
S'action-1'
p6905
tp6906
g5
(g9
S'$\xc0x\xd6\xd0I\x81?'
p6907
tp6908
Rp6909
s(S'diff-x-pos-16'
p6910
S'prev-action-1'
p6911
tp6912
g5
(g9
S'"\xc2\xdd\xc8\xa6\x06\x89?'
p6913
tp6914
Rp6915
s(S'diff-x-pos--56'
p6916
S'prev-action-4'
p6917
tp6918
g5
(g9
S'\x1bU\xd8\x05z\xe1d\xbf'
p6919
tp6920
Rp6921
s(S'action-1'
p6922
S'object-1-x-80'
p6923
tp6924
g5
(g9
S'\xbanh\xe6\xcfo\x9b?'
p6925
tp6926
Rp6927
s(g2193
S'prev-action-1'
p6928
tp6929
g5
(g9
S'\xa8:\xc5\x11*\xdeP\xbf'
p6930
tp6931
Rp6932
s(S'diff-x-pos-32'
p6933
S'prev-action-1'
p6934
tp6935
g5
(g9
S'\x8f\x15[]\xd0\xe0\x8b?'
p6936
tp6937
Rp6938
s(g6165
S'action-1'
p6939
tp6940
g5
(g9
S'<\xa4\r\x9f\x0c\xb2f\xbf'
p6941
tp6942
Rp6943
s(g2033
S'prev-action-4'
p6944
tp6945
g5
(g9
S'\xcb\xc3\x07\x9ca\xc8\x8f\xbf'
p6946
tp6947
Rp6948
s(S'diff-x-pos--54'
p6949
S'action-4'
p6950
tp6951
g5
(g9
S'5\x00j\xfe4QW\xbf'
p6952
tp6953
Rp6954
s(S'diff-x-pos--41'
p6955
S'prev-action-3'
p6956
tp6957
g5
(g9
S'\x818\xe3\xf7\xc0\x91s\xbf'
p6958
tp6959
Rp6960
s(S'action-4'
p6961
S'object-1-x-116'
p6962
tp6963
g5
(g9
S'\xbf9\xa2\xfa\xea\xb5\xa1\xbf'
p6964
tp6965
Rp6966
s(g2126
S'action-4'
p6967
tp6968
g5
(g9
S'\x17e\x1c\xed\x83\x94S\xbf'
p6969
tp6970
Rp6971
s(S'diff-x-pos--80'
p6972
S'prev-action-1'
p6973
tp6974
g5
(g9
S'\xd3\x0b\xd4\xf2\xdchj\xbf'
p6975
tp6976
Rp6977
s(S'diff-x-pos--64'
p6978
S'action-1'
p6979
tp6980
g5
(g9
S'\n+\xab[\xcf\xdcp\xbf'
p6981
tp6982
Rp6983
s(g5941
S'object-1-x-104'
p6984
tp6985
g5
(g9
S'A1\xb0c\xef\xe2\x9e?'
p6986
tp6987
Rp6988
s(S'action-1'
p6989
S'object-0-x-56'
p6990
tp6991
g5
(g9
S'2I\xfb\xb5\xcf\t\xba?'
p6992
tp6993
Rp6994
s(g199
S'object-0-x-20'
p6995
tp6996
g5
(g9
S'\nAu\xb5\xd0\xc9\xb8?'
p6997
tp6998
Rp6999
s(g3707
S'prev-action-4'
p7000
tp7001
g5
(g9
S'p\x9a&j\n>T?'
p7002
tp7003
Rp7004
s(g2327
S'action-4'
p7005
tp7006
g5
(g9
S'[j\xa9:\x87\xdd\x86\xbf'
p7007
tp7008
Rp7009
s(g1907
S'action-4'
p7010
tp7011
g5
(g9
S'\xc1\xac\x8e:\x7fUt\xbf'
p7012
tp7013
Rp7014
s(g2144
S'object-0-x-84'
p7015
tp7016
g5
(g9
S'\x86`\x1dZe\xff\xb9?'
p7017
tp7018
Rp7019
s(S'diff-x-pos-69'
p7020
S'prev-action-4'
p7021
tp7022
g5
(g9
S'\xb8\xd6\xa6>\x9a_`?'
p7023
tp7024
Rp7025
s(g3385
S'action-1'
p7026
tp7027
g5
(g9
S'\xfe#\xa4v"\xa4k?'
p7028
tp7029
Rp7030
s(S'diff-x-pos--52'
p7031
S'prev-action-3'
p7032
tp7033
g5
(g9
S'\xe0\xb5U\x1b81i\xbf'
p7034
tp7035
Rp7036
s(g3423
S'action-4'
p7037
tp7038
g5
(g9
S'\xde\xf8\x04!e\xfc2\xbf'
p7039
tp7040
Rp7041
s(g4463
S'action-4'
p7042
tp7043
g5
(g9
S'\x17z\xc8\x9b=\xb8\x80\xbf'
p7044
tp7045
Rp7046
s(S'diff-x-pos-15'
p7047
S'prev-action-1'
p7048
tp7049
g5
(g9
S'\xc6\xe6\xfa!u\xf3\x8e?'
p7050
tp7051
Rp7052
sS'diff-y-pos--6'
p7053
g5
(g9
S'\x10*\xef\x18\x8b,\x9a\xbf'
p7054
tp7055
Rp7056
s(S'diff-x-pos--105'
p7057
S'action-3'
p7058
tp7059
g5
(g9
S"pW'C\xe7\x94s?"
p7060
tp7061
Rp7062
s(S'diff-x-pos--82'
p7063
S'action-1'
p7064
tp7065
g5
(g9
S'n\x9fA\xd2k\x9b|\xbf'
p7066
tp7067
Rp7068
s(g1347
g4971
tp7069
g5
(g9
S'\x8b\xa2O\xa1n\x13t\xbf'
p7070
tp7071
Rp7072
s(g416
S'action-3'
p7073
tp7074
g5
(g9
S'05pd\x7f \x8f\xbf'
p7075
tp7076
Rp7077
sg28
g5
(g9
S'J\xf7\x17I\xa1Tw?'
p7078
tp7079
Rp7080
s(S'diff-x-pos--103'
p7081
S'prev-action-1'
p7082
tp7083
g5
(g9
S'(\x80S\xa4\x8e\xf8\x80?'
p7084
tp7085
Rp7086
sg1280
g5
(g9
S'\x14,\xd6\x0c\xca\x9d4\xbf'
p7087
tp7088
Rp7089
s(g6342
S'action-4'
p7090
tp7091
g5
(g9
S')\xdaG\x9co\x8fo?'
p7092
tp7093
Rp7094
sg2885
g5
(g9
S'\x0eA\x00[\xb6\xe4h?'
p7095
tp7096
Rp7097
s(S'diff-x-pos--85'
p7098
S'prev-action-3'
p7099
tp7100
g5
(g9
S'*\xf9\xc6\xe7Usa?'
p7101
tp7102
Rp7103
s(S'diff-x-pos-13'
p7104
g3992
tp7105
g5
(g9
S'\x81_\xdd\xce\rn\x85?'
p7106
tp7107
Rp7108
s(S'diff-x-pos--73'
p7109
S'prev-action-1'
p7110
tp7111
g5
(g9
S'*\xa2\xe4\xfb\xcb\x08W\xbf'
p7112
tp7113
Rp7114
s(S'diff-x-pos-31'
p7115
S'prev-action-1'
p7116
tp7117
g5
(g9
S'#\xde\xd6x\xbe\x9e\x93?'
p7118
tp7119
Rp7120
s(S'action-4'
p7121
S'object-0-x-68'
p7122
tp7123
g5
(g9
S';\xea\x8ba\xc2\xa0\xbd?'
p7124
tp7125
Rp7126
sg3129
g5
(g9
S'\xcf\xd2lJ\xeaZ\x96?'
p7127
tp7128
Rp7129
s(g1448
S'action-1'
p7130
tp7131
g5
(g9
S'\x95\xfd>\x95\xd1\xd6\x81?'
p7132
tp7133
Rp7134
s(S'diff-x-pos-5'
p7135
S'prev-action-1'
p7136
tp7137
g5
(g9
S'/.\xcf\x82\xad=x?'
p7138
tp7139
Rp7140
s(g3385
S'prev-action-4'
p7141
tp7142
g5
(g9
S'\xfa\xd7HDG\xacw?'
p7143
tp7144
Rp7145
s(g1837
S'action-1'
p7146
tp7147
g5
(g9
S'\xf5_\x94wY{k\xbf'
p7148
tp7149
Rp7150
s(S'diff-x-pos--104'
p7151
S'action-3'
p7152
tp7153
g5
(g9
S'\xd5\xc4\xfdF*\x07\x88?'
p7154
tp7155
Rp7156
s(S'diff-x-pos--70'
p7157
g1211
tp7158
g5
(g9
S'2\x8bb3n@\x8a\xbf'
p7159
tp7160
Rp7161
s(g2970
S'prev-action-4'
p7162
tp7163
g5
(g9
S'\xc6\xb5\x0e\x1d\x1ckK?'
p7164
tp7165
Rp7166
s(g3968
S'action-3'
p7167
tp7168
g5
(g9
S'\xc3I T>0X?'
p7169
tp7170
Rp7171
sS'object-0-dy--1'
p7172
g5
(g9
S'N\xbd?\xa0\x9b\x88\x9b\xbf'
p7173
tp7174
Rp7175
s(g4037
S'action-3'
p7176
tp7177
g5
(g9
S'\xf1\xe9}\xf2\xbf-q\xbf'
p7178
tp7179
Rp7180
s(S'diff-x-pos-41'
p7181
S'prev-action-3'
p7182
tp7183
g5
(g9
S'\x05#\xb7\xb2~!3?'
p7184
tp7185
Rp7186
s(g7176
S'object-0-x-40'
p7187
tp7188
g5
(g9
S'\x0c"\xb9K\x9d\x12\xc0?'
p7189
tp7190
Rp7191
s(g6264
S'prev-action-3'
p7192
tp7193
g5
(g9
S'\x1f\x91\x03Z\x9599?'
p7194
tp7195
Rp7196
s(g4907
S'action-4'
p7197
tp7198
g5
(g9
S'\x1e\xfeo\xd5\x98\x18U?'
p7199
tp7200
Rp7201
s(g6576
S'prev-action-3'
p7202
tp7203
g5
(g9
S'\x99~\xe5y.qt\xbf'
p7204
tp7205
Rp7206
s(g1749
S'prev-action-1'
p7207
tp7208
g5
(g9
S'<?/\x98\x00\xf5\x7f\xbf'
p7209
tp7210
Rp7211
s(g2736
S'action-4'
p7212
tp7213
g5
(g9
S'#\xc2%4W\xa7z\xbf'
p7214
tp7215
Rp7216
s(g2601
S'prev-action-4'
p7217
tp7218
g5
(g9
S'U\xaf\xa4#d\xa0\x90\xbf'
p7219
tp7220
Rp7221
s(g2242
S'action-4'
p7222
tp7223
g5
(g9
S'\\_\xb3Q\x8c\xdaB\xbf'
p7224
tp7225
Rp7226
sg1843
g5
(g9
S'\xf6\xe0S\xd7\x1e\xb1Y?'
p7227
tp7228
Rp7229
s(g1048
S'action-4'
p7230
tp7231
g5
(g9
S'%;\x0e{\xab\x06\x83\xbf'
p7232
tp7233
Rp7234
s(g2167
g6156
tp7235
g5
(g9
S'\xc8\x1dh\x99?\x02\xbc?'
p7236
tp7237
Rp7238
s(g1702
S'prev-action-4'
p7239
tp7240
g5
(g9
S'\xa34\xec\xc3;\x01\x97\xbf'
p7241
tp7242
Rp7243
s(S'diff-x-pos-6'
p7244
S'action-1'
p7245
tp7246
g5
(g9
S'n\x1fDt*\x94q\xbf'
p7247
tp7248
Rp7249
s(S'diff-x-pos--11'
p7250
S'prev-action-3'
p7251
tp7252
g5
(g9
S'\x95\xa4\xd6\x92\xedc|?'
p7253
tp7254
Rp7255
sg1329
g5
(g9
S'\xc8\x03\x98\x84\xc4\x16\x86\xbf'
p7256
tp7257
Rp7258
s(S'diff-x-pos-50'
p7259
S'action-1'
p7260
tp7261
g5
(g9
S'\xa3N\xba\xef\xcd\x84\x94?'
p7262
tp7263
Rp7264
s(g4638
S'prev-action-1'
p7265
tp7266
g5
(g9
S'\xd4\x90\xc2\xfe0:m\xbf'
p7267
tp7268
Rp7269
s(g7146
S'object-0-x-68'
p7270
tp7271
g5
(g9
S'\x14\xbeKQ\x9fW\xb6?'
p7272
tp7273
Rp7274
s(S'diff-x-pos-48'
p7275
S'prev-action-4'
p7276
tp7277
g5
(g9
S'&P\xd3\x12\x94jc\xbf'
p7278
tp7279
Rp7280
s(g1795
S'action-1'
p7281
tp7282
g5
(g9
S'\x9c\r\x9e\xd3\xae\x9co?'
p7283
tp7284
Rp7285
s(g3423
S'prev-action-4'
p7286
tp7287
g5
(g9
S'\xb8\x88\x8d\xefu\x03\x8c\xbf'
p7288
tp7289
Rp7290
sg741
g5
(g9
S'\x0f\x9b\x0f\xfe\xad\x82??'
p7291
tp7292
Rp7293
s(S'diff-x-pos--94'
p7294
S'action-4'
p7295
tp7296
g5
(g9
S'\x94\x18\x1d\xdb\xd5\ny?'
p7297
tp7298
Rp7299
s(g4072
S'action-1'
p7300
tp7301
g5
(g9
S'[\x1c\xe4\x85\x9a~c?'
p7302
tp7303
Rp7304
s(g1610
S'prev-action-4'
p7305
tp7306
g5
(g9
S'\xb0N)\xcf\xa9\xb0\x8a\xbf'
p7307
tp7308
Rp7309
s(S'diff-x-pos-18'
p7310
S'action-3'
p7311
tp7312
g5
(g9
S'V1\x07@\xb6\xa7\x8a?'
p7313
tp7314
Rp7315
s(S'diff-x-pos--50'
p7316
g4799
tp7317
g5
(g9
S'9\x96Fr\xa8&\x91\xbf'
p7318
tp7319
Rp7320
s(S'action-3'
p7321
S'object-0-x-104'
p7322
tp7323
g5
(g9
S'\xa6\xd6\xeaR\x04\x07\xb8?'
p7324
tp7325
Rp7326
sg364
g5
(g9
S'\xf7\x17%\xe0\xfd\x1a\xd3?'
p7327
tp7328
Rp7329
sg2132
g5
(g9
S'&\xa2Z\xe5jZ\xd3?'
p7330
tp7331
Rp7332
s(S'diff-x-pos--67'
p7333
g2625
tp7334
g5
(g9
S'+\xd8\xc8\x8evg\xb8?'
p7335
tp7336
Rp7337
s(g3447
g4679
tp7338
g5
(g9
S'\x98\x1ac\x9e\xaf0\x87\xbf'
p7339
tp7340
Rp7341
s(S'diff-x-pos--66'
p7342
S'prev-action-1'
p7343
tp7344
g5
(g9
S"\xad\xb9\x9b-'\x1ds\xbf"
p7345
tp7346
Rp7347
s(g724
g1438
tp7348
g5
(g9
S'\x06\x0e\x94\xd2=_\xa0\xbf'
p7349
tp7350
Rp7351
s(g1527
S'action-4'
p7352
tp7353
g5
(g9
S'\xc6@z\xfaIvq?'
p7354
tp7355
Rp7356
s(S'diff-x-pos--75'
p7357
S'prev-action-1'
p7358
tp7359
g5
(g9
S'@\x13\x85\x90.\xb3\x86\xbf'
p7360
tp7361
Rp7362
s(S'diff-x-pos--43'
p7363
S'action-3'
p7364
tp7365
g5
(g9
S'\xc4\x970\xfc[\xb5\x88\xbf'
p7366
tp7367
Rp7368
s(g2679
S'prev-action-3'
p7369
tp7370
g5
(g9
S'\xb1H\xf2:qS\x84\xbf'
p7371
tp7372
Rp7373
s(g1475
S'prev-action-1'
p7374
tp7375
g5
(g9
S'\x85\x1d\xa5\x82\xc0\xadg?'
p7376
tp7377
Rp7378
s(g1297
g6789
tp7379
g5
(g9
S'\xdd\xff\xe1lL\xdb%?'
p7380
tp7381
Rp7382
s(S'action-3'
p7383
S'object-0-x-124'
p7384
tp7385
g5
(g9
S'\xbf\xf8\xb8*\x05\xd7\xa3?'
p7386
tp7387
Rp7388
s(S'diff-x-pos-21'
p7389
S'prev-action-4'
p7390
tp7391
g5
(g9
S'T\xe9\xc4\x0c\xa9\xf7\x81\xbf'
p7392
tp7393
Rp7394
s(g5982
S'prev-action-1'
p7395
tp7396
g5
(g9
S'`v\x04\x82\x90\xd9\x91\xbf'
p7397
tp7398
Rp7399
s(g4194
S'action-1'
p7400
tp7401
g5
(g9
S"\xea'\x03\x88L\x82R\xbf"
p7402
tp7403
Rp7404
s(g5824
S'action-4'
p7405
tp7406
g5
(g9
S'\xb2\x12\x1e\xf8,o\x80\xbf'
p7407
tp7408
Rp7409
s(g1058
g452
tp7410
g5
(g9
S'd@\xc6\xe9m2\x85\xbf'
p7411
tp7412
Rp7413
s(g2777
S'action-4'
p7414
tp7415
g5
(g9
S"H'w\xa6:\x15\x90\xbf"
p7416
tp7417
Rp7418
s(S'diff-x-pos--92'
p7419
S'action-3'
p7420
tp7421
g5
(g9
S'\xe7a\xd6\xb7M\x1f{?'
p7422
tp7423
Rp7424
s(g526
S'action-4'
p7425
tp7426
g5
(g9
S'A<s@r\xae\x86\xbf'
p7427
tp7428
Rp7429
s(g1036
g2667
tp7430
g5
(g9
S'\xee>\xc4<\x01\nQ?'
p7431
tp7432
Rp7433
s(g4679
g6084
tp7434
g5
(g9
S'\x1e\xd4\xad\x8c~l\xeb?'
p7435
tp7436
Rp7437
s(g7081
S'action-4'
p7438
tp7439
g5
(g9
S']*F\xbb\xc7\xbe\x85?'
p7440
tp7441
Rp7442
s(g1052
S'prev-action-3'
p7443
tp7444
g5
(g9
S'g\x92B[y\x1fE\xbf'
p7445
tp7446
Rp7447
s(S'action-3'
p7448
S'object-1-x-116'
p7449
tp7450
g5
(g9
S';\xc2\x9e1\x1c\x1c\x84\xbf'
p7451
tp7452
Rp7453
s(g2314
S'prev-action-1'
p7454
tp7455
g5
(g9
S'@\x12@@\xaeT\x8a?'
p7456
tp7457
Rp7458
s(g4810
S'action-1'
p7459
tp7460
g5
(g9
S'b\xed\x8a\xfc\x93\x16\x81\xbf'
p7461
tp7462
Rp7463
s(g1509
S'prev-action-1'
p7464
tp7465
g5
(g9
S'\x93\x83=\x82^\x0f\x81?'
p7466
tp7467
Rp7468
s(S'diff-x-pos--49'
p7469
S'prev-action-3'
p7470
tp7471
g5
(g9
S'\x81\xf8\x8b\x02B[\x82\xbf'
p7472
tp7473
Rp7474
s(S'diff-x-pos--22'
p7475
S'action-1'
p7476
tp7477
g5
(g9
S'\xeb\xe9\x98\xad8Gc\xbf'
p7478
tp7479
Rp7480
s(S'diff-x-pos--37'
p7481
S'action-3'
p7482
tp7483
g5
(g9
S'\\\x89\xf3\x05\xfb|\x87\xbf'
p7484
tp7485
Rp7486
s(g5976
g1931
tp7487
g5
(g9
S'\x00\xc9<\xe4\xc5\xa6\xae\xbf'
p7488
tp7489
Rp7490
s(S'diff-x-pos-10'
p7491
S'action-1'
p7492
tp7493
g5
(g9
S'\x1dc\xe2\x84\xfc\xe4[?'
p7494
tp7495
Rp7496
s(S'diff-x-pos--21'
p7497
S'prev-action-4'
p7498
tp7499
g5
(g9
S'\x8e\x96h\xfb(U\x84\xbf'
p7500
tp7501
Rp7502
s(S'diff-x-pos--67'
p7503
S'prev-action-1'
p7504
tp7505
g5
(g9
S'Yt3OG\x1a\xc5\xbf'
p7506
tp7507
Rp7508
s(g4760
S'action-3'
p7509
tp7510
g5
(g9
S'a\xeep\xf3\\F\x8a\xbf'
p7511
tp7512
Rp7513
s(g2655
S'prev-action-4'
p7514
tp7515
g5
(g9
S'\x12\x0f\xf7\xc5\xb3i{\xbf'
p7516
tp7517
Rp7518
s(g2649
S'prev-action-1'
p7519
tp7520
g5
(g9
S'\xec\xee\x9c\x17\xa3\xb7y?'
p7521
tp7522
Rp7523
s(g2269
S'action-4'
p7524
tp7525
g5
(g9
S't"\x1b\xa0\xddRe\xbf'
p7526
tp7527
Rp7528
s(g1427
g1454
tp7529
g5
(g9
S'\xeb\x08t\xc4\x9aD\x85\xbf'
p7530
tp7531
Rp7532
s(g5835
S'prev-action-4'
p7533
tp7534
g5
(g9
S'F\xb0\xaa\xdb&Y\x84\xbf'
p7535
tp7536
Rp7537
s(g6120
g1255
tp7538
g5
(g9
S'(\x01d\xbaC\xff\x91?'
p7539
tp7540
Rp7541
s(S'diff-x-pos--47'
p7542
S'prev-action-1'
p7543
tp7544
g5
(g9
S'\\\xd1\xa11S\x8cn?'
p7545
tp7546
Rp7547
s(S'diff-x-pos--107'
p7548
S'action-1'
p7549
tp7550
g5
(g9
S'\xa5\xda1,\x19\xcar?'
p7551
tp7552
Rp7553
s(g4850
S'action-3'
p7554
tp7555
g5
(g9
S'x6D+\x9f\xcbu\xbf'
p7556
tp7557
Rp7558
s(S'diff-x-pos--28'
p7559
S'action-3'
p7560
tp7561
g5
(g9
S'\x17S\xf7M\xf56\x8a\xbf'
p7562
tp7563
Rp7564
s(g2265
S'prev-action-4'
p7565
tp7566
g5
(g9
S'k:\x9a\xb3\xe5L\xb5\xbf'
p7567
tp7568
Rp7569
sg2908
g5
(g9
S';j&\x87\x8c\xcc\xa2\xbf'
p7570
tp7571
Rp7572
sg216
g5
(g9
S'\x9ct\xd8\x1c\xb2\x81\x96?'
p7573
tp7574
Rp7575
s(g7115
S'action-1'
p7576
tp7577
g5
(g9
S'\x81\xef\x86u\xdb\xdet?'
p7578
tp7579
Rp7580
s(S'diff-x-pos--21'
p7581
S'prev-action-1'
p7582
tp7583
g5
(g9
S'm\xe1\x07\xd6\xdc\xcaS?'
p7584
tp7585
Rp7586
s(S'diff-x-pos--63'
p7587
S'action-4'
p7588
tp7589
g5
(g9
S'\x02^zV\xb0{t?'
p7590
tp7591
Rp7592
s(g2292
S'prev-action-4'
p7593
tp7594
g5
(g9
S'\xf0\x89.ts#~\xbf'
p7595
tp7596
Rp7597
s(S'action-4'
p7598
g341
tp7599
g5
(g9
S'\xcb;o\x9c\t9\xc0?'
p7600
tp7601
Rp7602
s(g2094
S'prev-action-4'
p7603
tp7604
g5
(g9
S'-\\Q\x10Vo\\?'
p7605
tp7606
Rp7607
s(S'diff-x-pos--53'
p7608
S'prev-action-4'
p7609
tp7610
g5
(g9
S'\xa5\xdf\x8f\xb3u\xb3\x85\xbf'
p7611
tp7612
Rp7613
s(g2566
S'action-3'
p7614
tp7615
g5
(g9
S'E\xee\xb5\x8cE\x9en?'
p7616
tp7617
Rp7618
s(g3135
S'prev-action-1'
p7619
tp7620
g5
(g9
S'\x8e\xca\xf6\x83\x15k@?'
p7621
tp7622
Rp7623
s(g4982
g5648
tp7624
g5
(g9
S'<P\xa2\\\x0bU\xba?'
p7625
tp7626
Rp7627
s(S'diff-x-pos-26'
p7628
S'prev-action-3'
p7629
tp7630
g5
(g9
S's\xe5\xde\x0b\xdc#f\xbf'
p7631
tp7632
Rp7633
s(g5724
S'prev-action-1'
p7634
tp7635
g5
(g9
S'\xb4\xb2\xe9\x01\xc3bz\xbf'
p7636
tp7637
Rp7638
s(g2674
S'object-0-x-52'
p7639
tp7640
g5
(g9
S'\xd6k\xba\xe6\x8cU\xc0?'
p7641
tp7642
Rp7643
s(S'diff-x-pos--60'
p7644
S'action-3'
p7645
tp7646
g5
(g9
S'\x88fL(\x81\x80\x8d\xbf'
p7647
tp7648
Rp7649
s(S'diff-x-pos-51'
p7650
S'action-3'
p7651
tp7652
g5
(g9
S'L\xef\xab\xc5\xf8j\x8e?'
p7653
tp7654
Rp7655
s(S'diff-x-pos--91'
p7656
S'action-4'
p7657
tp7658
g5
(g9
S'f3$oRWe?'
p7659
tp7660
Rp7661
sg5145
g5
(g9
S'\xd7\xfb\x14\x9f\xc8\xb0c?'
p7662
tp7663
Rp7664
s(g3503
S'action-4'
p7665
tp7666
g5
(g9
S'Y\xea)~\x07Nr?'
p7667
tp7668
Rp7669
s(g4993
S'prev-action-3'
p7670
tp7671
g5
(g9
S'V\xdfP\xb1\xff\x9es?'
p7672
tp7673
Rp7674
s(g6542
S'action-1'
p7675
tp7676
g5
(g9
S'Z\xff\x0f\x8bIuY\xbf'
p7677
tp7678
Rp7679
s(g4663
S'action-3'
p7680
tp7681
g5
(g9
S'\xa4\x15\x0bj\xd1\xe0p?'
p7682
tp7683
Rp7684
s(g518
S'prev-action-1'
p7685
tp7686
g5
(g9
S'\\\xaf\xc9\xbd`\xda{?'
p7687
tp7688
Rp7689
s(g2507
S'prev-action-4'
p7690
tp7691
g5
(g9
S'\x1bq\xf0\xd44\xf7\x92\xbf'
p7692
tp7693
Rp7694
s(g2502
S'prev-action-4'
p7695
tp7696
g5
(g9
S'\xb8*\xc7\xe6B\x88~\xbf'
p7697
tp7698
Rp7699
s(g4756
g5558
tp7700
g5
(g9
S'\xbc\x02\xdd\x03\xa4$p\xbf'
p7701
tp7702
Rp7703
s(S'diff-x-pos-26'
p7704
S'action-3'
p7705
tp7706
g5
(g9
S'\xf4Y\xb7g\x9ev\x90?'
p7707
tp7708
Rp7709
sg6576
g5
(g9
S'\x05Bt\x1066\x95\xbf'
p7710
tp7711
Rp7712
s(S'diff-x-pos-34'
p7713
S'action-3'
p7714
tp7715
g5
(g9
S'\xe1\xfe\xcbk\xa6a\x94?'
p7716
tp7717
Rp7718
s(S'action-1'
p7719
S'object-0-x-76'
p7720
tp7721
g5
(g9
S'Ix&L~\xbe\xb8?'
p7722
tp7723
Rp7724
s(S'diff-x-pos--1'
p7725
S'action-1'
p7726
tp7727
g5
(g9
S'F5ZR\xe4\x0cq?'
p7728
tp7729
Rp7730
s(S'diff-x-pos-19'
p7731
S'action-1'
p7732
tp7733
g5
(g9
S'\x84oino\xa3h?'
p7734
tp7735
Rp7736
s(S'action-4'
p7737
S'object-0-x-100'
p7738
tp7739
g5
(g9
S'\x12\x94\xc5?\xfe\xb4\xba?'
p7740
tp7741
Rp7742
s(S'diff-x-pos-14'
p7743
S'action-3'
p7744
tp7745
g5
(g9
S'\xfc\xdf\xb9\xb4\x98ht?'
p7746
tp7747
Rp7748
s(g788
S'prev-action-3'
p7749
tp7750
g5
(g9
S'\xcd\xd9\x16\x90\xce:\x84\xbf'
p7751
tp7752
Rp7753
s(g7587
S'prev-action-3'
p7754
tp7755
g5
(g9
S"v\xc57d\x89\x8a'\xbf"
p7756
tp7757
Rp7758
s(S'diff-x-pos--45'
p7759
S'action-4'
p7760
tp7761
g5
(g9
S'"\x9a\xbc\xbbJ\x91g?'
p7762
tp7763
Rp7764
s(S'diff-x-pos-1'
p7765
S'prev-action-3'
p7766
tp7767
g5
(g9
S'D\x84\xa8\xa4!0]\xbf'
p7768
tp7769
Rp7770
s(g4474
S'action-3'
p7771
tp7772
g5
(g9
S'\xc39H\xa3\x82\x1b\x8b?'
p7773
tp7774
Rp7775
sg724
g5
(g9
S'\xdf$\x1c< \x8f\t@'
p7776
tp7777
Rp7778
sg15
g5
(g9
S'\x16\xb2O\xb6\xc9w\t@'
p7779
tp7780
Rp7781
sg45
g5
(g9
S'\xfa\xfaU\x03\xb9\x88\t@'
p7782
tp7783
Rp7784
s(S'diff-x-pos--17'
p7785
S'action-4'
p7786
tp7787
g5
(g9
S'\xc8\xbds<\x04\xb3p\xbf'
p7788
tp7789
Rp7790
s(g5883
S'prev-action-3'
p7791
tp7792
g5
(g9
S'\xfc\x1d^\xdc\xf1\x8bv?'
p7793
tp7794
Rp7795
s(S'diff-x-pos--100'
p7796
S'prev-action-1'
p7797
tp7798
g5
(g9
S'\x0c\xa2\xaa\xc8\xbduw?'
p7799
tp7800
Rp7801
s(S'action-1'
p7802
g784
tp7803
g5
(g9
S'\x1e\x9b\xdb\x86\x0b\xcb\xa2?'
p7804
tp7805
Rp7806
s(g1510
g4134
tp7807
g5
(g9
S'\xb8d\x17\x1d\x00M\xbe?'
p7808
tp7809
Rp7810
s(S'diff-x-pos--20'
p7811
S'action-1'
p7812
tp7813
g5
(g9
S'#L\xaa\x90\x00<_?'
p7814
tp7815
Rp7816
s(S'diff-x-pos--24'
p7817
S'prev-action-3'
p7818
tp7819
g5
(g9
S'\x98\xe2[\xd3s\x00f\xbf'
p7820
tp7821
Rp7822
sS'diff-y-pos--11'
p7823
g5
(g9
S'\xfcf\x02\x00A\x9f\x90?'
p7824
tp7825
Rp7826
sS'diff-y-pos--10'
p7827
g5
(g9
S'\x91\xee\x97\xfd\x1d\x8b\x81\xbf'
p7828
tp7829
Rp7830
sg735
g5
(g9
S'\\B\x1a)\x0cV\x97\xbf'
p7831
tp7832
Rp7833
s(S'diff-x-pos-0'
p7834
S'action-3'
p7835
tp7836
g5
(g9
S'\xb1\xe0\x84\xff\xf0)\xa1\xbf'
p7837
tp7838
Rp7839
s(S'diff-x-pos--83'
p7840
S'prev-action-4'
p7841
tp7842
g5
(g9
S'\xe8Cq\xb3m\x14\x97\xbf'
p7843
tp7844
Rp7845
sg4463
g5
(g9
S'_\xdf}\x85\xe5\xc2\x94\xbf'
p7846
tp7847
Rp7848
s(g4399
S'action-4'
p7849
tp7850
g5
(g9
S'5\x87&6\xdc\xd7r\xbf'
p7851
tp7852
Rp7853
s(S'diff-x-pos-44'
p7854
S'action-3'
p7855
tp7856
g5
(g9
S'\xc7\xf8U\xd8`m\x93?'
p7857
tp7858
Rp7859
s(S'diff-x-pos--93'
p7860
S'prev-action-4'
p7861
tp7862
g5
(g9
S'#\xf3\x92s.\x07\x81?'
p7863
tp7864
Rp7865
s(S'diff-x-pos--33'
p7866
S'action-4'
p7867
tp7868
g5
(g9
S'\xcds42\xaf\xa8A\xbf'
p7869
tp7870
Rp7871
s(g2935
S'action-4'
p7872
tp7873
g5
(g9
S'5T!J\xcc\x13e?'
p7874
tp7875
Rp7876
s(S'diff-x-pos-44'
p7877
g1616
tp7878
g5
(g9
S'Yr\xa5R\x90\x85\x85?'
p7879
tp7880
Rp7881
s(S'diff-x-pos--93'
p7882
S'action-1'
p7883
tp7884
g5
(g9
S'~\xad\x98|\x8d\xd3T?'
p7885
tp7886
Rp7887
s(g2193
S'action-4'
p7888
tp7889
g5
(g9
S'\xe7^\x9d&!\xc4\x91\xbf'
p7890
tp7891
Rp7892
s(g7352
S'object-0-x-116'
p7893
tp7894
g5
(g9
S":'v\x1f\xdd\x99\xba?"
p7895
tp7896
Rp7897
s(S'object-1-dx-1'
p7898
g1255
tp7899
g5
(g9
S'L\xae\x8f\x83\x13\xa1\xab\xbf'
p7900
tp7901
Rp7902
s(g847
g724
tp7903
g5
(g9
S'N\xf4\xd6\xdaqAv?'
p7904
tp7905
Rp7906
sg1256
g5
(g9
S'\xc0\x8a\xd3\xa2\n\x14\x90?'
p7907
tp7908
Rp7909
s(S'diff-x-pos--14'
p7910
S'action-1'
p7911
tp7912
g5
(g9
S'Y\xb3\x883\xe0\xd9c?'
p7913
tp7914
Rp7915
sg1779
g5
(g9
S'\xd9\xb7\xc8\xb29\xf3\x97?'
p7916
tp7917
Rp7918
s(S'diff-x-pos--112'
p7919
S'prev-action-1'
p7920
tp7921
g5
(g9
S'\xcc\x8f\\\x1c\x06\x9es?'
p7922
tp7923
Rp7924
s(S'diff-x-pos--4'
p7925
S'prev-action-3'
p7926
tp7927
g5
(g9
S'\xb5t{\x93\x88\xadt\xbf'
p7928
tp7929
Rp7930
sg453
g5
(g9
S'\xca{\x84\x0e\xc8T\x8f?'
p7931
tp7932
Rp7933
s(S'diff-x-pos-38'
p7934
g2525
tp7935
g5
(g9
S'mI\xb5\xe9\xfa\xf1_?'
p7936
tp7937
Rp7938
s(g625
S'prev-action-1'
p7939
tp7940
g5
(g9
S'\xc8\xd0\x08t\xdcK\x90?'
p7941
tp7942
Rp7943
s(S'diff-x-pos--119'
p7944
S'prev-action-1'
p7945
tp7946
g5
(g9
S'\xcd\x8cy\x00\x0091?'
p7947
tp7948
Rp7949
s(S'diff-x-pos-57'
p7950
S'action-3'
p7951
tp7952
g5
(g9
S'\x9a\xc9\xf4\x02\xf3oq?'
p7953
tp7954
Rp7955
s(S'diff-x-pos-24'
p7956
S'prev-action-3'
p7957
tp7958
g5
(g9
S'\x14\x98G\xb7N\xadm?'
p7959
tp7960
Rp7961
s(g4305
S'action-4'
p7962
tp7963
g5
(g9
S'\xdb\x97\xd3\x92\x1a\xf0\x8a\xbf'
p7964
tp7965
Rp7966
s(g4747
S'prev-action-3'
p7967
tp7968
g5
(g9
S'\x89,\x19QBst?'
p7969
tp7970
Rp7971
sg4399
g5
(g9
S'L\xb90\xaf*g\x8d\xbf'
p7972
tp7973
Rp7974
sg57
g5
(g9
S'\xa3\xfc\xa1\xc2\x11[\x8d\xbf'
p7975
tp7976
Rp7977
sg712
g5
(g9
S'L\xb5\xbe\xb3\xac\xa1\x88\xbf'
p7978
tp7979
Rp7980
sg4993
g5
(g9
S'C\xee\xa5\x985\xda\x84\xbf'
p7981
tp7982
Rp7983
sg3222
g5
(g9
S'\x8b\xb5\x8bY\x9eq\x91\xbf'
p7984
tp7985
Rp7986
sg492
g5
(g9
S'\xd0\xad:j\x16\xf5\x8f\xbf'
p7987
tp7988
Rp7989
s(g3451
S'prev-action-4'
p7990
tp7991
g5
(g9
S'X\x0c\xda\xa9pa\x90\xbf'
p7992
tp7993
Rp7994
sg5515
g5
(g9
S'\x80\xa0\xce0\xe0\xb4\x93\xbf'
p7995
tp7996
Rp7997
s(S'diff-x-pos-55'
p7998
S'prev-action-1'
p7999
tp8000
g5
(g9
S'F8\xec>\xdb\x0bt\xbf'
p8001
tp8002
Rp8003
s(g5145
S'action-4'
p8004
tp8005
g5
(g9
S'\xc3WZ\x88\xc9\td?'
p8006
tp8007
Rp8008
s(g962
S'prev-action-3'
p8009
tp8010
g5
(g9
S'\xff\xeb\x1e5D6v?'
p8011
tp8012
Rp8013
sg1610
g5
(g9
S'\xf0\x9ct\xdb\x7f\x18\x88\xbf'
p8014
tp8015
Rp8016
sg4810
g5
(g9
S"\xfc\x82\xcb\x8f'@\x99\xbf"
p8017
tp8018
Rp8019
s(S'diff-x-pos--15'
p8020
S'action-3'
p8021
tp8022
g5
(g9
S',\xd5}\xd5d\xd4\x94\xbf'
p8023
tp8024
Rp8025
s(S'diff-x-pos--36'
p8026
S'prev-action-3'
p8027
tp8028
g5
(g9
S'\xdb\xff\x1d\xfe\x86/\x81\xbf'
p8029
tp8030
Rp8031
s(g2306
S'prev-action-4'
p8032
tp8033
g5
(g9
S'\x10\xee\x90\x15\xafPs\xbf'
p8034
tp8035
Rp8036
s(g4732
S'prev-action-1'
p8037
tp8038
g5
(g9
S"\x1e9'\xb1\x8c6S?"
p8039
tp8040
Rp8041
s(g7037
g2742
tp8042
g5
(g9
S'\xb6\xb01\\\xd88\xb3?'
p8043
tp8044
Rp8045
sg4201
g5
(g9
S'd,.-\x94N\x98\xbf'
p8046
tp8047
Rp8048
s(g5447
S'prev-action-4'
p8049
tp8050
g5
(g9
S'\xdd\xca\x84m,0\x8b\xbf'
p8051
tp8052
Rp8053
sg381
g5
(g9
S'\xb1\na\x04L\n\x97\xbf'
p8054
tp8055
Rp8056
s(S'diff-x-pos--65'
p8057
S'prev-action-4'
p8058
tp8059
g5
(g9
S'\xecWE\\\x14\n\x91\xbf'
p8060
tp8061
Rp8062
sg4215
g5
(g9
S']\x08>\xf8\xc3*\x9c\xbf'
p8063
tp8064
Rp8065
sg2197
g5
(g9
S'"\x13\x9f\x00\x02\r\x99\xbf'
p8066
tp8067
Rp8068
s(g2161
S'action-3'
p8069
tp8070
g5
(g9
S'\xdd\x8e%\xdc\x99\xa8\x88?'
p8071
tp8072
Rp8073
sg1866
g5
(g9
S'\xc8\x97"\xf7\x82\xa0\x98\xbf'
p8074
tp8075
Rp8076
s(g2143
S'prev-action-3'
p8077
tp8078
g5
(g9
S'\xe2\xb1\x11\x98iMo\xbf'
p8079
tp8080
Rp8081
s(g1640
S'prev-action-4'
p8082
tp8083
g5
(g9
S'\\\xfd\xcap=k\x87\xbf'
p8084
tp8085
Rp8086
s(g6151
S'object-0-x-44'
p8087
tp8088
g5
(g9
S'j \xc8\xcb2\xca\xba?'
p8089
tp8090
Rp8091
s(g486
S'action-1'
p8092
tp8093
g5
(g9
S'\xaep.\xa9I\x91;\xbf'
p8094
tp8095
Rp8096
s(g573
S'action-4'
p8097
tp8098
g5
(g9
S'!\xe6\x0f\xbd\xdb\x88\x90\xbf'
p8099
tp8100
Rp8101
s(g2661
S'action-1'
p8102
tp8103
g5
(g9
S'\x87\x1e\xcb\xa7\x8b\x16v?'
p8104
tp8105
Rp8106
s(S'action-1'
p8107
S'object-0-x-72'
p8108
tp8109
g5
(g9
S'V#Wr71\xba?'
p8110
tp8111
Rp8112
s(g4435
S'action-4'
p8113
tp8114
g5
(g9
S'\xa4&\x14\xb3\x97h\\\xbf'
p8115
tp8116
Rp8117
s(S'diff-x-pos--117'
p8118
S'prev-action-1'
p8119
tp8120
g5
(g9
S'\x13\xf2\x03\xf5\x12\x85_?'
p8121
tp8122
Rp8123
s(g5940
S'prev-action-4'
p8124
tp8125
g5
(g9
S'SGj]\\\x9e\x8f\xbf'
p8126
tp8127
Rp8128
s(g1048
S'prev-action-4'
p8129
tp8130
g5
(g9
S'\x84\x7f\xba\x90\xd5V\x8f\xbf'
p8131
tp8132
Rp8133
s(g446
S'prev-action-1'
p8134
tp8135
g5
(g9
S'\xcc\xa5\xa2ZB9Y\xbf'
p8136
tp8137
Rp8138
sg4305
g5
(g9
S'\x14\xdc\xebT\xef_\x88\xbf'
p8139
tp8140
Rp8141
s(g2002
S'prev-action-4'
p8142
tp8143
g5
(g9
S'V\xdb\xc9\xb0\x99S\x8a\xbf'
p8144
tp8145
Rp8146
s(S'diff-x-pos--29'
p8147
S'prev-action-3'
p8148
tp8149
g5
(g9
S'wVh\xb4\x80\xdao\xbf'
p8150
tp8151
Rp8152
sg4350
g5
(g9
S']\x83\xec\xc4\xd75\x9b\xbf'
p8153
tp8154
Rp8155
sg526
g5
(g9
S'k\x9cDL\xa5,\x96\xbf'
p8156
tp8157
Rp8158
sg619
g5
(g9
S'?\x12\x95\x86\xe4L\x98\xbf'
p8159
tp8160
Rp8161
sg387
g5
(g9
S'\xaa\x82\xff\xc8P^\x8f\xbf'
p8162
tp8163
Rp8164
sg357
g5
(g9
S'\x9c%K\xf4~\x0f\x93\xbf'
p8165
tp8166
Rp8167
sg5289
g5
(g9
S'\x9dp0v\xeaK\x8d\xbf'
p8168
tp8169
Rp8170
sg573
g5
(g9
S'\xadtE\xdf\xd9I\x95\xbf'
p8171
tp8172
Rp8173
sg1702
g5
(g9
S'@!M5.{\x91\xbf'
p8174
tp8175
Rp8176
s(g1025
S'action-4'
p8177
tp8178
g5
(g9
S'\xb3\x96\x1e\xed?\xfc\xa5\xbf'
p8179
tp8180
Rp8181
s(g4215
S'prev-action-3'
p8182
tp8183
g5
(g9
S'#\x90\xfe\x01!2V\xbf'
p8184
tp8185
Rp8186
s(S'object-1-dx--1'
p8187
g15
tp8188
g5
(g9
S'\x16\xa6\xb4\x93\xa1\xc0\xa6\xbf'
p8189
tp8190
Rp8191
s(g4186
S'prev-action-3'
p8192
tp8193
g5
(g9
S'&%}\xc3\xab/|?'
p8194
tp8195
Rp8196
s(S'diff-x-pos--30'
p8197
g1359
tp8198
g5
(g9
S'\x1a\\-(\xc7\xcbI?'
p8199
tp8200
Rp8201
s(g4946
g109
tp8202
g5
(g9
S'_\x94\xb0l0\xf2\xa2\xbf'
p8203
tp8204
Rp8205
s(g5289
S'prev-action-4'
p8206
tp8207
g5
(g9
S'\xb0\xf1\nB\x9b\x15\x93\xbf'
p8208
tp8209
Rp8210
s(g2928
S'action-4'
p8211
tp8212
g5
(g9
S'\x87\xb9\nY\x00\xd2L?'
p8213
tp8214
Rp8215
s(S'diff-x-pos--31'
p8216
S'prev-action-3'
p8217
tp8218
g5
(g9
S'"7\x97#\x1a\xce??'
p8219
tp8220
Rp8221
s(g3222
g6479
tp8222
g5
(g9
S'\x00\xdd\xef\xe4\x9fBp\xbf'
p8223
tp8224
Rp8225
s(g114
S'object-0-x-24'
p8226
tp8227
g5
(g9
S'\x0ex\x93>\xbeq\xb9?'
p8228
tp8229
Rp8230
s(S'diff-x-pos-49'
p8231
S'action-3'
p8232
tp8233
g5
(g9
S'\xe2\x1a\xee\xe0X\xf8{?'
p8234
tp8235
Rp8236
sg4655
g5
(g9
S'\x01\xe1\x04\xb2\x9d9\xd2?'
p8237
tp8238
Rp8239
s(S'diff-x-pos--27'
p8240
S'action-3'
p8241
tp8242
g5
(g9
S'g\xabw1\xe4\xcb\x8a\xbf'
p8243
tp8244
Rp8245
s(g4920
S'action-4'
p8246
tp8247
g5
(g9
S'~\x1e\xd3h\xacu\x88\xbf'
p8248
tp8249
Rp8250
s(g6846
S'action-1'
p8251
tp8252
g5
(g9
S'\x1dF\xcb\xae\xfd?r?'
p8253
tp8254
Rp8255
s(g6220
S'action-1'
p8256
tp8257
g5
(g9
S'4\x95(\xca~Os?'
p8258
tp8259
Rp8260
s(g4845
S'object-0-x-28'
p8261
tp8262
g5
(g9
S'\x03\xf2Pu\x7fc\xbb?'
p8263
tp8264
Rp8265
s(S'diff-x-pos--8'
p8266
S'prev-action-1'
p8267
tp8268
g5
(g9
S'\t\x94${\x13\xb4\x80?'
p8269
tp8270
Rp8271
s(g3895
S'action-4'
p8272
tp8273
g5
(g9
S'i\x94tp\x12\x8b\x8e\xbf'
p8274
tp8275
Rp8276
s(g2296
S'action-4'
p8277
tp8278
g5
(g9
S'\x12zJ\x81\xbd\xc2\x81\xbf'
p8279
tp8280
Rp8281
s(g244
S'prev-action-3'
p8282
tp8283
g5
(g9
S'\xd0v\xf3H\xf4\xaf\x90?'
p8284
tp8285
Rp8286
s(g2255
S'action-4'
p8287
tp8288
g5
(g9
S'\xc7\xcc\xc34E&s?'
p8289
tp8290
Rp8291
s(S'diff-x-pos-9'
p8292
S'prev-action-1'
p8293
tp8294
g5
(g9
S'\xb8;x` $|?'
p8295
tp8296
Rp8297
s(g2342
S'object-1-x-68'
p8298
tp8299
g5
(g9
S'>\xbc\xecN\xb6\xe3h?'
p8300
tp8301
Rp8302
s(S'diff-x-pos--18'
p8303
S'prev-action-3'
p8304
tp8305
g5
(g9
S'\xb1\xe9\xc8\x97.&C?'
p8306
tp8307
Rp8308
stp8309
Rp8310
.