ccollections
Counter
p0
((dp1
(S'diff-x-pos--89'
p2
S'action-4'
p3
tp4
F7.768549134670966
s(S'diff-x-pos-47'
p5
S'prev-action-1'
p6
tp7
F-0.7669355063589622
s(S'diff-x-pos--94'
p8
S'action-3'
p9
tp10
F-12.10989984374866
s(S'diff-x-pos--1'
p11
S'prev-action-1'
p12
tp13
F-0.05649501809207802
s(S'diff-x-pos-2'
p14
S'prev-action-3'
p15
tp16
F2.460691505072016
s(S'diff-x-pos--7'
p17
S'prev-action-1'
p18
tp19
F-1.1083576051319444
s(S'diff-x-pos--27'
p20
S'action-4'
p21
tp22
F-0.11847758199127528
s(S'diff-x-pos-40'
p23
S'action-3'
p24
tp25
F8.87219989007111
s(S'diff-x-pos-54'
p26
S'action-1'
p27
tp28
F-1.3093758694547963
s(S'diff-x-pos--43'
p29
S'prev-action-4'
p30
tp31
F0.8421599669703613
s(S'diff-x-pos--96'
p32
S'prev-action-4'
p33
tp34
F3.1033513698627164
s(S'action-4'
p35
S'object-1-x-60.0'
p36
tp37
F5.969792311930859
s(S'diff-x-pos--35'
p38
S'action-3'
p39
tp40
F-2.3582450090415277
s(S'diff-x-pos--25'
p41
S'prev-action-4'
p42
tp43
F-1.318236373758283
s(S'diff-x-pos--75'
p44
S'prev-action-4'
p45
tp46
F0.08033495210258801
s(S'diff-x-pos-43'
p47
S'prev-action-4'
p48
tp49
F-2.667898256242139
s(S'diff-x-pos--26'
p50
S'prev-action-1'
p51
tp52
F2.3018063650196092
s(g23
S'prev-action-1'
p53
tp54
F0.2531143440759116
s(S'diff-x-pos--7'
p55
S'action-3'
p56
tp57
F-0.26453178235650876
s(S'diff-x-pos--61'
p58
S'action-3'
p59
tp60
F-5.341121091276502
s(S'action-4'
p61
S'object-1-x-80.0'
p62
tp63
F5.525500763770382
s(S'diff-x-pos-21'
p64
S'prev-action-1'
p65
tp66
F-1.9800232183181283
s(S'diff-x-pos-33'
p67
S'prev-action-4'
p68
tp69
F2.5651122740173222
s(S'diff-x-pos-69'
p70
S'prev-action-4'
p71
tp72
F-1.6322739989759896
s(S'diff-x-pos-17'
p73
S'action-1'
p74
tp75
F-0.4989692718399519
s(S'diff-x-pos-37'
p76
S'action-4'
p77
tp78
F-6.330032436308921
s(S'diff-x-pos--13'
p79
S'action-4'
p80
tp81
F-4.010971623032064
s(S'diff-x-pos-9'
p82
S'action-3'
p83
tp84
F3.148849372981397
s(S'diff-x-pos--98'
p85
S'action-1'
p86
tp87
F-0.05233394301865013
s(S'action-3'
p88
S'object-1-x-80.0'
p89
tp90
F-5.57346940928375
s(S'diff-x-pos--69'
p91
S'action-4'
p92
tp93
F4.8549137073705655
s(S'diff-x-pos--46'
p94
S'prev-action-4'
p95
tp96
F2.1539564881261444
s(S'diff-x-pos--49'
p97
S'prev-action-4'
p98
tp99
F-2.5713039415785777
s(S'diff-x-pos-25'
p100
S'action-4'
p101
tp102
F-5.104193308469335
s(S'diff-x-pos-66'
p103
S'prev-action-3'
p104
tp105
F-0.17023872788893613
s(S'action-4'
p106
S'object-0-x-120.0'
p107
tp108
F9.259331371769411
s(S'diff-x-pos--13'
p109
S'prev-action-4'
p110
tp111
F-0.4931629592694564
s(S'diff-x-pos--37'
p112
S'action-4'
p113
tp114
F0.4623210709711051
s(g20
S'prev-action-1'
p115
tp116
F-0.085914627223248
s(S'diff-x-pos-63'
p117
S'prev-action-3'
p118
tp119
F0.466626460036602
s(S'diff-x-pos-52'
p120
S'action-4'
p121
tp122
F-8.007434285822576
s(S'diff-x-pos-59'
p123
S'action-4'
p124
tp125
F-4.0347795774748825
s(S'diff-x-pos--55'
p126
S'action-4'
p127
tp128
F2.3880459876201816
s(S'diff-x-pos--31'
p129
S'action-1'
p130
tp131
F0.7322435966021011
s(S'diff-x-pos-48'
p132
S'action-1'
p133
tp134
F0.4418694146548896
s(S'diff-x-pos-4'
p135
S'prev-action-4'
p136
tp137
F-1.502259229249264
s(S'diff-x-pos--30'
p138
S'prev-action-1'
p139
tp140
F-3.6462600886475873
s(S'diff-x-pos--5'
p141
S'action-3'
p142
tp143
F1.2653227901277193
s(S'action-4'
p144
S'object-0-x-50.0'
p145
tp146
F2.5850111430578693
s(S'diff-x-pos-3'
p147
S'action-4'
p148
tp149
F-5.840101921904184
s(S'diff-x-pos-26'
p150
S'action-4'
p151
tp152
F-6.393547557440663
s(S'diff-x-pos--13'
p153
S'action-3'
p154
tp155
F0.9960106118686949
s(g77
S'object-0-x-130.0'
p156
tp157
F-4.836674163621297
s(S'diff-x-pos--26'
p158
S'action-1'
p159
tp160
F1.763773468618742
s(S'diff-x-pos--75'
p161
S'action-4'
p162
tp163
F7.154421687660424
s(S'diff-x-pos--23'
p164
S'prev-action-4'
p165
tp166
F0.631285185780738
s(S'diff-x-pos-37'
p167
S'action-3'
p168
tp169
F6.990765276844812
s(S'diff-x-pos-55'
p170
S'action-4'
p171
tp172
F-11.014915058412305
s(S'diff-x-pos--105'
p173
S'prev-action-4'
p174
tp175
F2.4046886755900894
s(S'diff-x-pos--59'
p176
S'action-3'
p177
tp178
F-7.019229724044692
s(S'object-0-dx-1'
p179
S'prev-action-3'
p180
tp181
F-1.1407300636512232
s(S'diff-x-pos--39'
p182
S'prev-action-3'
p183
tp184
F2.086260304795289
s(S'diff-x-pos-2'
p185
S'action-3'
p186
tp187
F3.3451544647401765
s(S'diff-x-pos-4'
p188
S'prev-action-3'
p189
tp190
F0.360514042681063
s(S'action-3'
p191
S'object-0-x-40.0'
p192
tp193
F4.755501410896647
s(S'diff-x-pos--3'
p194
S'action-4'
p195
tp196
F-1.3819675946684284
sS'object-1-x-120.0'
p197
F-3.180715406156815
s(S'diff-x-pos-3'
p198
S'action-3'
p199
tp200
F5.741140694698198
sS'prev-action-1'
p201
F53.327169353799626
s(S'diff-x-pos--90'
p202
S'prev-action-3'
p203
tp204
F-1.121169035314663
sS'prev-action-3'
p205
F54.85545971962229
s(S'action-3'
p206
S'object-1-x-110.0'
p207
tp208
F-1.2767843772882959
s(S'diff-x-pos-1'
p209
S'prev-action-1'
p210
tp211
F0.26384232088481613
s(S'diff-x-pos--36'
p212
S'action-1'
p213
tp214
F1.0853629871624393
s(g47
S'action-1'
p215
tp216
F-2.7728832016547096
s(S'diff-x-pos--79'
p217
S'action-4'
p218
tp219
F6.404183313586041
s(g38
S'prev-action-4'
p220
tp221
F-0.10371150395467565
s(S'diff-x-pos-55'
p222
S'action-3'
p223
tp224
F14.746997084884288
s(S'diff-x-pos-45'
p225
S'prev-action-3'
p226
tp227
F2.2765952994402707
s(S'diff-x-pos--34'
p228
S'prev-action-3'
p229
tp230
F0.5147284430437021
s(S'diff-x-pos-6'
p231
S'prev-action-4'
p232
tp233
F-0.5111922140594296
s(S'diff-x-pos--96'
p234
S'action-1'
p235
tp236
F1.8153716157338837
sS'diff-x-pos--103'
p237
F-1.9046750753662869
sS'diff-y-pos-0'
p238
F-4.768760412118073
s(S'diff-x-pos--17'
p239
S'action-1'
p240
tp241
F1.1771161564991282
s(S'diff-x-pos--100'
p242
S'prev-action-4'
p243
tp244
F1.3675791680218994
sS'object-1-x-100.0'
p245
F-3.4219689776039903
s(S'diff-x-pos-2'
p246
S'action-4'
p247
tp248
F-3.9944436862810604
s(S'diff-x-pos-29'
p249
S'action-3'
p250
tp251
F8.875779241595522
s(g195
S'object-1-x-70.0'
p252
tp253
F3.0152021606995643
s(S'diff-x-pos-38'
p254
S'prev-action-3'
p255
tp256
F1.2230388880142287
s(S'diff-x-pos--4'
p257
S'action-1'
p258
tp259
F-0.3881807864970289
s(S'diff-x-pos--112'
p260
S'action-3'
p261
tp262
F-8.42902373403047
sS'object-1-dx--1'
p263
F1.0599496784371187
s(S'diff-x-pos--95'
p264
S'action-4'
p265
tp266
F7.847780551164792
s(S'diff-x-pos--33'
p267
S'action-1'
p268
tp269
F1.2092435116064233
s(g39
S'object-0-x-90.0'
p270
tp271
F-0.8822895509667412
sS'object-1-dy--1'
p272
F1.395042360541707
s(S'diff-x-pos--51'
p273
S'action-1'
p274
tp275
F-2.2186227549222304
s(S'diff-x-pos--120'
p276
S'action-4'
p277
tp278
F-2.1854127571727977
s(S'action-3'
p279
S'object-1-x-70.0'
p280
tp281
F-1.2644532358409322
s(S'action-4'
p282
S'object-0-x-60.0'
p283
tp284
F5.351039095316429
s(g257
S'prev-action-4'
p285
tp286
F2.5806929208701566
s(S'diff-x-pos--24'
p287
S'action-1'
p288
tp289
F-0.10354728241314409
s(S'diff-x-pos-38'
p290
S'action-4'
p291
tp292
F-5.450533583885861
s(S'diff-x-pos--77'
p293
S'action-4'
p294
tp295
F7.14591057068999
s(S'diff-x-pos-57'
p296
S'action-4'
p297
tp298
F-8.579174467783245
s(S'diff-x-pos-3'
p299
S'prev-action-1'
p300
tp301
F0.7564525665587709
s(S'diff-x-pos--97'
p302
S'prev-action-3'
p303
tp304
F0.5124371879709076
s(g159
S'object-1-x-70.0'
p305
tp306
F1.1163681020714202
s(S'diff-x-pos-35'
p307
S'prev-action-1'
p308
tp309
F1.8427083830443391
s(S'diff-x-pos-42'
p310
S'prev-action-3'
p311
tp312
F1.4045220538607157
s(S'diff-x-pos--10'
p313
S'action-1'
p314
tp315
F0.5017295717170573
s(S'diff-x-pos-14'
p316
S'prev-action-1'
p317
tp318
F1.5010354373196537
s(S'diff-x-pos-25'
p319
S'action-3'
p320
tp321
F6.595077704119462
s(S'diff-x-pos-19'
p322
S'prev-action-3'
p323
tp324
F0.47124325930239463
s(S'diff-x-pos--114'
p325
S'prev-action-4'
p326
tp327
F-4.248380656838062
s(S'diff-x-pos-34'
p328
S'prev-action-1'
p329
tp330
F-1.0010202642069008
sS'diff-x-pos--54'
p331
F-1.425292167930312
sg126
F-2.272280441713958
sS'diff-x-pos--56'
p332
F-3.1992820969849256
sS'diff-x-pos--57'
p333
F-4.297695939182101
sS'diff-x-pos--50'
p334
F0.6778818450299509
sS'diff-x-pos--51'
p335
F-3.8451951815863428
sS'diff-x-pos--52'
p336
F-0.6108051908680818
sS'diff-x-pos--53'
p337
F-1.0882516717834465
s(S'action-1'
p338
S'object-0-x-60.0'
p339
tp340
F5.403036729617377
sS'diff-x-pos--58'
p341
F-2.4995884290100343
sS'diff-x-pos--59'
p342
F-0.19006673902187254
s(S'diff-x-pos--102'
p343
S'action-4'
p344
tp345
F8.693397867817625
s(S'diff-x-pos--38'
p346
S'action-1'
p347
tp348
F0.20467809360665812
sS'object-0-y-0.0'
p349
F53.014156333423365
s(g58
S'prev-action-4'
p350
tp351
F-0.8709067307166063
s(S'diff-x-pos--68'
p352
S'action-3'
p353
tp354
F-4.018961705205843
s(g176
S'prev-action-4'
p355
tp356
F1.0689150301162165
s(S'diff-x-pos-57'
p357
S'prev-action-3'
p358
tp359
F1.9070450151999974
s(S'action-1'
p360
S'object-0-x-100.0'
p361
tp362
F6.577632281051816
s(S'diff-x-pos--38'
p363
S'prev-action-1'
p364
tp365
F-0.2477245519562975
s(S'diff-x-pos--14'
p366
S'prev-action-1'
p367
tp368
F1.5697179665516137
s(S'object-1-dx-1'
p369
S'prev-action-1'
p370
tp371
F-2.443788054789017
s(S'diff-x-pos--19'
p372
g191
tp373
F0.8110112756139762
sS'object-0-x-90.0'
p374
F8.912666544448845
s(S'diff-x-pos--106'
p375
S'prev-action-4'
p376
tp377
F-1.1196416862312566
s(g194
S'prev-action-1'
p378
tp379
F2.433613873971985
s(S'diff-x-pos--28'
p380
S'prev-action-1'
p381
tp382
F-2.3664101734540948
s(S'diff-x-pos--71'
p383
S'prev-action-1'
p384
tp385
F-1.324412653759363
s(S'diff-x-pos--107'
p386
S'prev-action-3'
p387
tp388
F-0.06378803305447597
sg369
F-2.1486085805825197
s(S'diff-x-pos--116'
p389
S'prev-action-4'
p390
tp391
F-0.4152087262503682
s(S'diff-x-pos--83'
p392
S'action-4'
p393
tp394
F6.909759081456959
s(S'diff-x-pos--55'
p395
S'prev-action-1'
p396
tp397
F-2.9639667119365702
s(g310
S'action-3'
p398
tp399
F7.978990476731408
s(S'diff-x-pos-10'
p400
S'prev-action-3'
p401
tp402
F1.4267095221845247
s(S'diff-x-pos--37'
p403
S'prev-action-1'
p404
tp405
F-1.9349384665143794
s(S'diff-x-pos--74'
p406
S'action-3'
p407
tp408
F-3.52733500651433
s(S'diff-x-pos--22'
p409
S'prev-action-3'
p410
tp411
F0.14109066294688866
s(S'diff-x-pos--97'
p412
S'action-3'
p413
tp414
F-11.552076993744326
s(g296
S'prev-action-4'
p415
tp416
F1.394193256812742
s(S'diff-x-pos--79'
p417
S'prev-action-3'
p418
tp419
F0.7716596347513603
sS'diff-x-pos-12'
p420
F1.0696176786764022
sS'diff-x-pos-13'
p421
F2.3109075594235087
sS'diff-x-pos-10'
p422
F3.0107981205477206
sS'diff-x-pos-11'
p423
F2.0398952520321436
sS'diff-x-pos-16'
p424
F0.3677686325815223
sS'diff-x-pos-17'
p425
F1.8177256804426918
sS'diff-x-pos-14'
p426
F0.13450691211614707
sS'diff-x-pos-15'
p427
F-0.539453719159251
s(S'diff-x-pos-28'
p428
S'action-1'
p429
tp430
F0.05374358267933976
sS'diff-x-pos-18'
p431
F-1.6540971960768465
sS'diff-x-pos-19'
p432
F1.8525971555938536
s(S'diff-x-pos--51'
p433
S'prev-action-1'
p434
tp435
F0.789968528898431
s(S'diff-x-pos--63'
p436
S'action-3'
p437
tp438
F-5.638241103121861
s(g8
S'prev-action-1'
p439
tp440
F-1.2083818138591704
s(S'diff-x-pos--44'
p441
S'action-3'
p442
tp443
F-2.930017745932844
s(S'diff-x-pos--33'
p444
S'prev-action-1'
p445
tp446
F-1.03478660038314
s(S'diff-x-pos--42'
p447
S'action-3'
p448
tp449
F-4.124976726800412
s(S'diff-x-pos-30'
p450
S'prev-action-3'
p451
tp452
F4.27147955629974
s(S'diff-x-pos--85'
p453
S'action-3'
p454
tp455
F-6.92078547101574
s(S'action-4'
p456
S'object-0-x-110.0'
p457
tp458
F12.179519912611118
s(S'diff-x-pos-2'
p459
S'prev-action-4'
p460
tp461
F0.9114614191868302
s(S'diff-x-pos--44'
p462
S'action-4'
p463
tp464
F2.027811717932738
s(S'diff-x-pos--100'
p465
S'action-4'
p466
tp467
F9.096715480879272
s(S'diff-x-pos--32'
p468
S'prev-action-1'
p469
tp470
F-1.700573627732012
s(S'diff-x-pos--43'
p471
S'prev-action-1'
p472
tp473
F0.7931471825918093
s(S'diff-x-pos--81'
p474
S'prev-action-4'
p475
tp476
F0.9012593215176311
s(g234
S'prev-action-1'
p477
tp478
F-0.713244444282964
s(S'diff-x-pos--8'
p479
S'action-4'
p480
tp481
F0.7375027846809112
s(S'diff-x-pos-45'
p482
S'action-3'
p483
tp484
F11.324806339134705
s(g425
S'prev-action-1'
p485
tp486
F1.0349567579562708
s(S'diff-x-pos--25'
p487
S'prev-action-1'
p488
tp489
F1.5581473518391744
s(S'diff-x-pos-58'
p490
S'prev-action-4'
p491
tp492
F3.738516022291728
s(S'diff-x-pos-43'
p493
S'prev-action-1'
p494
tp495
F-0.2503334971814303
s(S'diff-x-pos--63'
p496
S'action-4'
p497
tp498
F4.884277888275337
s(S'diff-x-pos--90'
p499
S'action-3'
p500
tp501
F-9.520105313903722
s(S'diff-x-pos-40'
p502
S'prev-action-4'
p503
tp504
F0.4629958388130929
s(S'diff-x-pos-26'
p505
S'prev-action-3'
p506
tp507
F0.2536800602674173
s(S'diff-x-pos--7'
p508
S'action-4'
p509
tp510
F-0.1858118165335344
s(S'diff-x-pos--3'
p511
S'prev-action-4'
p512
tp513
F-0.8474690450624289
s(S'action-1'
p514
S'prev-action-4'
p515
tp516
F18.607721410994074
s(S'diff-x-pos--47'
p517
S'action-1'
p518
tp519
F0.5697899431183961
s(S'object-0-dx--1'
p520
g201
tp521
F0.2730105062548147
s(S'diff-x-pos-33'
p522
S'prev-action-3'
p523
tp524
F0.07873982801927515
s(g231
S'action-1'
p525
tp526
F-1.3293909122348886
s(S'diff-x-pos--15'
p527
S'action-3'
p528
tp529
F3.5588003508990784
s(S'diff-x-pos--11'
p530
S'prev-action-4'
p531
tp532
F1.8261739463349196
s(S'diff-x-pos--39'
p533
g88
tp534
F-3.1154658706303144
s(S'object-0-dx-1'
p535
S'action-3'
p536
tp537
F-2.324566522442315
s(g97
S'action-3'
p538
tp539
F-3.023979879251642
s(S'diff-x-pos-9'
p540
S'action-4'
p541
tp542
F-1.485221766272208
s(S'diff-x-pos--98'
p543
S'action-4'
p544
tp545
F7.046151514186142
s(g341
S'prev-action-4'
p546
tp547
F0.2727445249185185
s(S'diff-x-pos-60'
p548
S'prev-action-4'
p549
tp550
F4.317404176438397
s(g288
S'object-0-x-50.0'
p551
tp552
F8.100296787929352
s(S'diff-x-pos-37'
p553
S'prev-action-3'
p554
tp555
F0.9551704637327925
s(g79
S'prev-action-3'
p556
tp557
F1.3137946885129295
s(S'diff-x-pos-26'
p558
S'prev-action-4'
p559
tp560
F1.8596444659046643
s(g441
S'prev-action-1'
p561
tp562
F-1.7423329852736895
s(S'diff-x-pos--92'
p563
S'prev-action-3'
p564
tp565
F-1.4521119861809844
s(S'diff-x-pos-52'
p566
S'action-3'
p567
tp568
F9.04761519439052
s(g360
S'prev-action-3'
p569
tp570
F20.452461691273832
s(S'diff-x-pos-59'
p571
S'action-1'
p572
tp573
F1.7703055501860476
s(S'action-3'
p574
S'object-0-x-10.0'
p575
tp576
F10.22347861049174
s(S'diff-x-pos-41'
p577
S'action-1'
p578
tp579
F1.746152877715876
s(S'diff-x-pos-48'
p580
S'prev-action-1'
p581
tp582
F1.8629128311318803
s(S'diff-x-pos--104'
p583
S'prev-action-1'
p584
tp585
F-1.5418993119833262
s(S'diff-x-pos-5'
p586
S'action-3'
p587
tp588
F4.836689041304456
s(S'diff-x-pos--115'
p589
S'prev-action-3'
p590
tp591
F-1.4102380943068504
s(S'action-4'
p592
g201
tp593
F18.429995123208293
s(S'diff-x-pos-63'
p594
S'action-3'
p595
tp596
F2.9024952830356585
s(S'diff-x-pos-68'
p597
S'action-1'
p598
tp599
F1.4321907950830295
s(S'diff-x-pos-13'
p600
S'prev-action-1'
p601
tp602
F1.4778033750480732
s(S'diff-x-pos-25'
p603
S'prev-action-4'
p604
tp605
F0.12754064642218588
s(S'diff-x-pos--49'
p606
S'action-4'
p607
tp608
F2.351748783855051
s(S'diff-x-pos--103'
p609
S'action-3'
p610
tp611
F-8.562955740181101
s(S'diff-x-pos--75'
p612
S'action-1'
p613
tp614
F0.6106245215075334
s(S'diff-x-pos--46'
p615
S'action-4'
p616
tp617
F1.452576422357379
s(S'diff-x-pos--23'
p618
S'prev-action-1'
p619
tp620
F-1.9921206850673623
s(S'diff-x-pos--58'
p621
S'prev-action-3'
p622
tp623
F-1.745085183585195
s(S'diff-x-pos-56'
p624
S'prev-action-4'
p625
tp626
F1.0445338918799294
s(S'diff-x-pos--105'
p627
S'prev-action-1'
p628
tp629
F-1.7406944672248605
s(S'diff-x-pos--61'
p630
S'prev-action-3'
p631
tp632
F-0.08176757768631343
s(S'diff-x-pos--86'
p633
S'prev-action-1'
p634
tp635
F-1.9824071675701815
s(S'diff-x-pos-15'
p636
S'action-3'
p637
tp638
F3.0088457204005428
s(g336
S'action-1'
p639
tp640
F2.1176624934400237
s(S'diff-x-pos--110'
p641
S'action-3'
p642
tp643
F-9.356894156040386
s(S'diff-x-pos--62'
p644
S'action-1'
p645
tp646
F-1.4600129789620528
s(S'action-1'
p647
S'object-1-x-120.0'
p648
tp649
F-0.899006466755591
s(S'diff-x-pos-18'
p650
S'prev-action-3'
p651
tp652
F-2.0765433596889795
s(S'diff-x-pos--9'
p653
g61
tp654
F0.21582615381526324
s(S'diff-x-pos--64'
p655
S'prev-action-3'
p656
tp657
F-1.6991433773404805
s(S'diff-x-pos-21'
p658
S'action-1'
p659
tp660
F1.0997054239911908
s(S'diff-x-pos--101'
p661
S'prev-action-1'
p662
tp663
F-0.42274016698853856
s(S'diff-x-pos--41'
p664
S'action-1'
p665
tp666
F-0.5481106242138907
s(S'diff-x-pos--3'
p667
S'action-1'
p668
tp669
F-2.35510460764304
s(S'diff-x-pos--76'
p670
S'prev-action-4'
p671
tp672
F-1.3046447127117093
s(S'diff-x-pos-46'
p673
S'prev-action-4'
p674
tp675
F2.315299507917474
s(S'diff-x-pos--87'
p676
S'prev-action-3'
p677
tp678
F-0.38352714957758244
s(S'diff-x-pos--84'
p679
S'action-1'
p680
tp681
F-2.710922878332025
s(S'diff-x-pos--70'
p682
S'prev-action-1'
p683
tp684
F-0.5807874771891903
s(S'diff-x-pos--36'
p685
S'action-4'
p686
tp687
F0.8215651965666507
s(g493
S'action-4'
p688
tp689
F-5.1014235567905475
s(S'diff-x-pos--35'
p690
S'prev-action-3'
p691
tp692
F-0.9724261758500575
s(S'diff-x-pos--108'
p693
S'prev-action-3'
p694
tp695
F0.05362073641645526
s(S'diff-x-pos--34'
p696
S'prev-action-4'
p697
tp698
F-1.6121807790741975
s(S'diff-x-pos-7'
p699
S'action-4'
p700
tp701
F-1.8222046607552156
s(S'diff-x-pos-22'
p702
S'action-4'
p703
tp704
F-6.3390755154547245
s(S'diff-x-pos--96'
p705
S'action-4'
p706
tp707
F7.057465451446511
s(S'diff-x-pos-67'
p708
S'action-1'
p709
tp710
F-1.4392359542644653
s(g26
S'prev-action-1'
p711
tp712
F-0.43839302748065945
s(S'diff-x-pos-8'
p713
S'prev-action-3'
p714
tp715
F-0.4417001258361143
s(S'diff-x-pos--110'
p716
S'action-4'
p717
tp718
F9.59857111905603
s(S'diff-x-pos--72'
p719
S'action-1'
p720
tp721
F-1.6214115676801333
s(S'diff-x-pos--99'
p722
S'prev-action-3'
p723
tp724
F-2.1453509082068347
s(g343
S'prev-action-1'
p725
tp726
F-1.4455819433723622
s(S'diff-x-pos--19'
p727
S'prev-action-3'
p728
tp729
F0.5591523797688243
s(S'diff-x-pos--88'
p730
S'action-4'
p731
tp732
F4.986541139054034
s(g420
S'action-3'
p733
tp734
F6.698026780368865
s(S'diff-x-pos-47'
p735
S'action-1'
p736
tp737
F-0.3410766050244256
s(S'diff-x-pos--89'
p738
S'prev-action-4'
p739
tp740
F-0.9703169597511472
s(S'diff-x-pos--95'
p741
S'action-1'
p742
tp743
F-0.11098288228402375
s(S'diff-x-pos--76'
p744
S'prev-action-3'
p745
tp746
F3.0903909553281026
s(S'diff-x-pos--16'
p747
S'action-1'
p748
tp749
F-1.8437354960853414
s(S'diff-x-pos--10'
p750
S'prev-action-4'
p751
tp752
F0.6458474853016851
s(S'diff-x-pos-50'
p753
S'prev-action-4'
p754
tp755
F-1.685485502032737
s(S'diff-x-pos--6'
p756
S'prev-action-3'
p757
tp758
F2.0608761212796667
s(S'diff-x-pos--121'
p759
S'prev-action-3'
p760
tp761
F0.2078236984243944
s(S'diff-x-pos-53'
p762
S'prev-action-1'
p763
tp764
F-1.389210234659556
s(S'diff-x-pos--48'
p765
S'action-1'
p766
tp767
F-1.560941233572172
s(S'diff-x-pos--45'
p768
S'action-3'
p769
tp770
F0.2784955555488592
s(S'diff-x-pos--8'
p771
S'action-1'
p772
tp773
F1.2314453349827121
s(S'diff-x-pos--77'
p774
S'action-1'
p775
tp776
F-1.5766196188685537
s(S'diff-x-pos--80'
p777
S'prev-action-3'
p778
tp779
F-0.2851319660905485
s(S'diff-x-pos-36'
p780
S'prev-action-1'
p781
tp782
F3.043905138998082
s(S'diff-x-pos--109'
p783
S'action-4'
p784
tp785
F9.185353202732701
s(S'action-1'
p786
S'object-0-x-30.0'
p787
tp788
F2.5528110761851304
s(S'diff-x-pos-35'
p789
S'prev-action-4'
p790
tp791
F0.4554100199363746
s(S'diff-x-pos--99'
p792
S'prev-action-4'
p793
tp794
F2.3731364870318763
s(S'diff-x-pos-27'
p795
S'prev-action-4'
p796
tp797
F-0.637078585176512
s(S'diff-x-pos--45'
p798
S'prev-action-3'
p799
tp800
F-0.46033872991294733
s(g783
S'prev-action-1'
p801
tp802
F-1.7473593481688412
s(S'diff-x-pos--48'
p803
S'prev-action-1'
p804
tp805
F-1.7348892435666468
s(S'action-1'
p806
S'object-0-x-20.0'
p807
tp808
F5.423784004693918
s(S'diff-x-pos--19'
p809
S'prev-action-4'
p810
tp811
F-1.6592364964368844
s(S'diff-x-pos--10'
p812
S'action-4'
p813
tp814
F-0.05850930387846914
s(S'object-1-dx--1'
p815
S'prev-action-1'
p816
tp817
F1.3861076740982499
s(S'diff-x-pos--114'
p818
S'prev-action-1'
p819
tp820
F-0.3575748965502512
s(S'diff-x-pos--40'
p821
S'action-4'
p822
tp823
F1.2035095704074825
s(S'action-4'
p824
S'object-0-x-30.0'
p825
tp826
F0.7732638265203524
s(S'diff-x-pos--119'
p827
S'prev-action-3'
p828
tp829
F1.0832190537566002
s(S'diff-x-pos-16'
p830
S'action-1'
p831
tp832
F0.4233152308407553
s(S'diff-x-pos-39'
p833
S'prev-action-1'
p834
tp835
F0.29914457761711083
s(S'diff-x-pos--12'
p836
S'prev-action-1'
p837
tp838
F0.30360430830196883
s(S'diff-x-pos--102'
p839
S'action-1'
p840
tp841
F-0.9807644425900692
s(S'diff-x-pos--38'
p842
S'action-4'
p843
tp844
F0.09238951962815378
s(S'action-3'
p845
S'object-0-x-80.0'
p846
tp847
F2.767836484521715
sg471
F-0.7927474795132478
sS'diff-x-pos--42'
p848
F-1.9858423282645234
sS'diff-x-pos--41'
p849
F-0.8728248091097799
sg821
F0.13026583451937887
sS'diff-x-pos--47'
p850
F0.09858333134952624
sg615
F-0.6225384386855032
sS'diff-x-pos--45'
p851
F-1.9936406716746597
sg462
F-0.2944697564651596
s(S'diff-x-pos--1'
p852
S'prev-action-3'
p853
tp854
F1.936833090677681
sg606
F-0.22708554748951015
sg765
F-0.5871603970859957
s(S'diff-x-pos-67'
p855
S'prev-action-1'
p856
tp857
F0.9575116400714493
sS'diff-x-pos-69'
p858
F-1.6071834060617902
s(g771
S'prev-action-1'
p859
tp860
F0.5117111938741116
s(S'diff-x-pos--53'
p861
S'action-3'
p862
tp863
F-4.58781610948106
s(S'diff-x-pos--57'
p864
S'prev-action-1'
p865
tp866
F-3.9317908737829406
s(S'diff-x-pos--111'
p867
S'action-1'
p868
tp869
F-4.4263911142919286
s(S'diff-x-pos--108'
p870
S'action-3'
p871
tp872
F-11.370006604721354
s(S'diff-x-pos-53'
p873
S'action-4'
p874
tp875
F-9.802375837138946
s(g59
S'object-0-x-20.0'
p876
tp877
F10.122252324998238
s(S'diff-x-pos--36'
p878
S'prev-action-4'
p879
tp880
F-0.13780507791567134
s(S'object-1-dx-1'
p881
S'prev-action-4'
p882
tp883
F0.8631761031255102
s(S'diff-x-pos-62'
p884
S'prev-action-3'
p885
tp886
F1.453843419071317
s(S'diff-x-pos-32'
p887
S'prev-action-3'
p888
tp889
F-1.6059804805318358
s(S'diff-x-pos--16'
p890
S'prev-action-4'
p891
tp892
F-1.0407865131530114
s(S'diff-x-pos-20'
p893
S'action-3'
p894
tp895
F7.335871568859966
s(S'diff-x-pos-51'
p896
S'action-4'
p897
tp898
F-10.857059549882083
s(g744
S'action-4'
p899
tp900
F8.07952601128017
s(S'diff-x-pos--106'
p901
S'prev-action-3'
p902
tp903
F-0.6896934280861928
s(S'diff-x-pos--40'
p904
S'action-3'
p905
tp906
F-1.279558810758058
s(S'diff-x-pos-58'
p907
S'prev-action-3'
p908
tp909
F3.158673077077404
s(S'diff-x-pos--28'
p910
S'prev-action-4'
p911
tp912
F0.21753113339397298
s(S'diff-x-pos-49'
p913
S'action-1'
p914
tp915
F-0.2585486377995845
s(S'diff-x-pos--107'
p916
S'prev-action-4'
p917
tp918
F-1.1912878387185877
sg884
F5.147651806488335
s(S'diff-x-pos--64'
p919
S'action-3'
p920
tp921
F-4.5679701261856955
s(S'diff-x-pos--83'
p922
S'action-3'
p923
tp924
F-9.298076151701503
s(S'diff-x-pos--111'
p925
S'prev-action-4'
p926
tp927
F0.7764198781208853
s(g422
S'prev-action-4'
p928
tp929
F0.40343727645646793
s(S'diff-x-pos--113'
p930
S'action-3'
p931
tp932
F-7.3042636743323675
s(g644
S'prev-action-1'
p933
tp934
F1.2697979990300825
s(S'diff-x-pos--110'
p935
S'prev-action-3'
p936
tp937
F-0.49419875995736595
sS'diff-x-pos-66'
p938
F2.223413960894391
sg685
F-0.07960605427244873
sg403
F-1.9999787771020947
sg228
F-1.7525391969242932
sg690
F-0.9961595419563638
sS'diff-x-pos--32'
p939
F2.3677277790544724
sS'diff-x-pos--33'
p940
F1.909700940945699
sS'diff-x-pos--30'
p941
F-0.8710866386831112
sS'diff-x-pos--31'
p942
F-0.6241059899768298
s(S'diff-x-pos-22'
p943
S'prev-action-1'
p944
tp945
F1.731092842281013
sg842
F-2.9138786233937664
sS'diff-x-pos--39'
p946
F-0.2258314536705103
s(S'diff-x-pos--82'
p947
g206
tp948
F-7.8498701111213265
sS'diff-x-pos-29'
p949
F2.018997929530679
sg428
F0.6597279060594283
s(g609
S'prev-action-3'
p950
tp951
F-1.0199002504002568
sg150
F0.757294041774636
sg603
F2.5992135815742707
sS'diff-x-pos-24'
p952
F-1.3501831871971557
sS'diff-x-pos-23'
p953
F3.2162224027943447
sS'diff-x-pos-22'
p954
F0.09044633282411252
s(S'diff-x-pos-62'
p955
S'prev-action-4'
p956
tp957
F1.8803221340570486
sS'diff-x-pos-20'
p958
F1.1122425472014
s(g129
S'prev-action-4'
p959
tp960
F-1.0455152662075435
s(S'diff-x-pos--73'
p961
S'prev-action-3'
p962
tp963
F-0.05497582803083351
s(S'diff-x-pos-46'
p964
S'action-3'
p965
tp966
F12.074288431278436
s(g331
S'action-3'
p967
tp968
F-3.8343509871181842
s(S'diff-x-pos--33'
p969
S'prev-action-4'
p970
tp971
F1.8275624696055124
s(g586
S'prev-action-3'
p972
tp973
F0.27086288236314493
s(S'diff-x-pos--65'
p974
S'action-1'
p975
tp976
F-0.10864037237739971
s(S'diff-x-pos--29'
p977
S'action-3'
p978
tp979
F-1.0873708079911324
s(S'diff-x-pos-0'
p980
S'prev-action-3'
p981
tp982
F0.8024436195406293
s(S'action-4'
p983
S'object-0-x-40.0'
p984
tp985
F1.7529081904291801
s(S'diff-x-pos-41'
p986
S'prev-action-1'
p987
tp988
F1.8124419340315185
s(S'diff-x-pos-59'
p989
S'prev-action-1'
p990
tp991
F4.306650783477296
s(S'diff-x-pos-64'
p992
S'action-4'
p993
tp994
F-1.8653826368511357
s(S'diff-x-pos--20'
p995
S'prev-action-1'
p996
tp997
F-1.4150554226749064
s(g217
S'prev-action-1'
p998
tp999
F-1.6064289000053396
s(g858
S'prev-action-1'
p1000
tp1001
F0.02509059291419935
s(S'diff-x-pos--44'
p1002
S'action-1'
p1003
tp1004
F0.607736271534953
s(S'diff-x-pos--52'
p1005
S'prev-action-4'
p1006
tp1007
F0.08933172134036638
s(S'diff-x-pos--100'
p1008
S'action-1'
p1009
tp1010
F0.3794753720300761
s(S'diff-x-pos--81'
p1011
S'prev-action-1'
p1012
tp1013
F-1.1194164793617096
s(S'diff-x-pos-6'
p1014
S'action-3'
p1015
tp1016
F7.44146462851802
s(S'diff-x-pos-60'
p1017
S'action-4'
p1018
tp1019
F-3.2932372134160213
s(S'diff-x-pos--58'
p1020
S'action-4'
p1021
tp1022
F4.88923740927201
s(S'diff-x-pos--98'
p1023
S'prev-action-4'
p1024
tp1025
F-0.1200779056466903
s(S'diff-x-pos-58'
p1026
S'prev-action-1'
p1027
tp1028
F-0.9208783830931507
s(S'diff-x-pos--20'
p1029
S'action-3'
p1030
tp1031
F-1.537828148375674
s(S'diff-x-pos--113'
p1032
S'action-1'
p1033
tp1034
F-1.070613509865582
s(S'diff-x-pos-50'
p1035
S'action-3'
p1036
tp1037
F8.503840675328922
s(S'diff-x-pos-14'
p1038
S'prev-action-3'
p1039
tp1040
F-0.9790278489870214
s(g319
S'prev-action-3'
p1041
tp1042
F2.1444349864413765
s(S'diff-x-pos--73'
p1043
S'prev-action-4'
p1044
tp1045
F-2.551621743997597
s(S'action-1'
p1046
S'object-1-x-100.0'
p1047
tp1048
F-4.1754554626495715
s(S'diff-x-pos--89'
p1049
S'action-3'
p1050
tp1051
F-9.365289911207537
sS'object-1-x-80.0'
p1052
F1.4128916194581482
s(S'diff-x-pos-44'
p1053
S'action-4'
p1054
tp1055
F-6.939841215595097
s(S'diff-x-pos--70'
p1056
S'action-4'
p1057
tp1058
F5.120017473571109
s(S'diff-x-pos--88'
p1059
S'prev-action-3'
p1060
tp1061
F-1.7925172571722048
s(S'diff-x-pos-61'
p1062
S'action-3'
p1063
tp1064
F6.301734098611616
s(S'action-3'
p1065
S'object-0-x-0.0'
p1066
tp1067
F12.037188104269177
s(S'diff-x-pos--91'
p1068
S'prev-action-4'
p1069
tp1070
F-0.7838708961888714
s(S'diff-x-pos-51'
p1071
S'prev-action-3'
p1072
tp1073
F-0.19938161968731472
s(S'diff-x-pos--50'
p1074
S'action-1'
p1075
tp1076
F1.4956221389877642
s(S'diff-x-pos--78'
p1077
S'prev-action-1'
p1078
tp1079
F-1.9864672191157922
s(S'action-3'
p1080
S'object-1-x-120.0'
p1081
tp1082
F-5.824482670818145
s(g487
S'action-1'
p1083
tp1084
F-0.7341077711694199
s(S'diff-x-pos-7'
p1085
S'prev-action-3'
p1086
tp1087
F2.641352080001819
s(S'diff-x-pos-60'
p1088
S'prev-action-3'
p1089
tp1090
F0.3778209141937495
s(S'diff-x-pos-60'
p1091
S'action-3'
p1092
tp1093
F5.884883724853209
s(g471
S'action-1'
p1094
tp1095
F0.5624312147126428
s(S'diff-x-pos-11'
p1096
S'prev-action-1'
p1097
tp1098
F1.5041639804487952
s(S'diff-x-pos--84'
p1099
S'prev-action-4'
p1100
tp1101
F-0.11992278690473246
s(g1077
S'action-1'
p1102
tp1103
F0.3716441070570806
s(g462
S'prev-action-4'
p1104
tp1105
F0.45305422214165336
s(S'diff-x-pos--11'
p1106
S'action-3'
p1107
tp1108
F4.262121988436619
s(S'diff-x-pos--92'
p1109
S'prev-action-4'
p1110
tp1111
F0.2381191131938598
s(S'diff-x-pos--101'
p1112
S'action-4'
p1113
tp1114
F6.283439366195893
s(S'diff-x-pos-48'
p1115
S'prev-action-4'
p1116
tp1117
F-0.12732629306128562
s(S'diff-x-pos--42'
p1118
S'prev-action-3'
p1119
tp1120
F-2.0975915808372334
s(S'diff-x-pos--118'
p1121
S'action-1'
p1122
tp1123
F2.5620994016775587
s(S'diff-x-pos-61'
p1124
S'action-4'
p1125
tp1126
F-5.893685049543594
s(S'diff-x-pos--117'
p1127
S'action-3'
p1128
tp1129
F-6.553292866007427
s(S'diff-x-pos--9'
p1130
S'prev-action-3'
p1131
tp1132
F0.7671035004703111
s(S'diff-x-pos--18'
p1133
S'action-3'
p1134
tp1135
F-0.20232441254560207
s(S'action-1'
p1136
S'object-0-x-90.0'
p1137
tp1138
F2.768169880305899
s(S'diff-x-pos-11'
p1139
S'action-4'
p1140
tp1141
F-7.0092876970835425
s(g930
S'prev-action-1'
p1142
tp1143
F-1.5209333993940035
s(S'diff-x-pos-58'
p1144
S'action-1'
p1145
tp1146
F2.850327519830115
s(S'diff-x-pos--46'
p1147
S'action-1'
p1148
tp1149
F-1.358031912061953
s(S'diff-x-pos-69'
p1150
S'action-4'
p1151
tp1152
I-1
s(S'diff-x-pos-28'
p1153
S'prev-action-1'
p1154
tp1155
F-1.2324206898812216
s(S'diff-x-pos-56'
p1156
S'prev-action-1'
p1157
tp1158
F0.14737620519606354
s(S'diff-x-pos-56'
p1159
S'action-3'
p1160
tp1161
F13.045256818949547
s(g615
S'prev-action-3'
p1162
tp1163
F-0.008116258917048702
s(S'diff-x-pos--81'
p1164
S'action-1'
p1165
tp1166
F-0.3394670618989316
s(S'diff-x-pos--72'
p1167
S'prev-action-4'
p1168
tp1169
F-0.9515814919643504
s(S'diff-x-pos--52'
p1170
S'action-4'
p1171
tp1172
F0.6034564409611907
s(g334
S'prev-action-4'
p1173
tp1174
F2.109183976312302
s(S'diff-x-pos-68'
p1175
S'prev-action-4'
p1176
tp1177
I1
s(g858
S'action-1'
p1178
tp1179
F-0.6071834060617902
s(S'diff-x-pos-63'
p1180
S'prev-action-4'
p1181
tp1182
F2.989254418635402
s(S'diff-x-pos-17'
p1183
S'prev-action-4'
p1184
tp1185
F2.041525573422601
s(S'diff-x-pos-10'
p1186
S'action-3'
p1187
tp1188
F4.599666156474937
s(S'diff-x-pos-18'
p1189
S'prev-action-4'
p1190
tp1191
F1.318392326145732
s(S'diff-x-pos--67'
p1192
S'prev-action-3'
p1193
tp1194
F-0.35225632180963085
s(S'diff-x-pos--117'
p1195
S'prev-action-1'
p1196
tp1197
F-1.3016357348828078
s(g1121
S'prev-action-3'
p1198
tp1199
F-1.2079363977138589
s(g848
S'prev-action-4'
p1200
tp1201
F0.6325576652982838
s(g64
S'action-4'
p1202
tp1203
F-8.357790915248676
s(g916
S'action-3'
p1204
tp1205
F-8.195177738970326
s(S'diff-x-pos--71'
p1206
S'action-1'
p1207
tp1208
F-0.44803394939353236
s(S'diff-x-pos--54'
p1209
S'prev-action-3'
p1210
tp1211
F-3.0500534937194574
s(S'diff-x-pos-31'
p1212
S'action-3'
p1213
tp1214
F7.869561809302505
s(S'diff-x-pos-46'
p1215
S'prev-action-3'
p1216
tp1217
F1.5970195515387737
s(S'diff-x-pos-11'
p1218
S'action-3'
p1219
tp1220
F5.166734198017149
s(S'action-3'
p1221
S'prev-action-4'
p1222
tp1223
F21.99922669396925
s(S'diff-x-pos--71'
p1224
S'action-4'
p1225
tp1226
F2.6063950162796896
s(S'diff-x-pos--56'
p1227
S'action-1'
p1228
tp1229
F-1.446852092539098
s(S'diff-x-pos--66'
p1230
S'prev-action-3'
p1231
tp1232
F-1.322411230785016
s(S'diff-x-pos-7'
p1233
S'action-1'
p1234
tp1235
F-0.3778037661017699
s(g954
S'action-1'
p1236
tp1237
F-1.2716367433134117
s(S'object-0-dx-1'
p1238
S'prev-action-4'
p1239
tp1240
F2.534952155686765
s(g352
S'prev-action-3'
p1241
tp1242
F-0.43875576614809636
s(S'diff-x-pos--50'
p1243
S'prev-action-3'
p1244
tp1245
F-1.2855953041095336
s(S'diff-x-pos-51'
p1246
S'action-1'
p1247
tp1248
F1.5287224109616226
sg583
F1.163064351198456
sg916
F0.20758511197156237
sg901
F-3.480013487462957
sS'diff-x-pos--101'
p1249
F-2.6127424196093227
sS'diff-x-pos--100'
p1250
F-0.1485762202844323
s(g422
S'action-4'
p1251
tp1252
F-3.040379385129642
sg343
F-0.4294622087905529
s(S'diff-x-pos--102'
p1253
S'prev-action-4'
p1254
tp1255
F-0.4845901418610105
sS'diff-x-pos--109'
p1256
F-0.1647142320441356
sg693
F0.05531502091006529
s(g1124
S'prev-action-1'
p1257
tp1258
F-0.6194051473144828
s(g1059
S'action-1'
p1259
tp1260
F0.3377976469625092
s(g520
g592
tp1261
F2.6070403594695337
s(S'diff-x-pos--107'
p1262
S'action-4'
p1263
tp1264
F8.93346911852307
s(g910
S'action-4'
p1265
tp1266
F1.583308003887159
s(g1049
S'prev-action-1'
p1267
tp1268
F-2.5689050616929654
s(S'diff-x-pos-34'
p1269
S'action-1'
p1270
tp1271
F-0.2250303820275369
s(g890
S'action-4'
p1272
tp1273
F-0.6793928862106533
s(S'diff-x-pos--90'
p1274
S'prev-action-4'
p1275
tp1276
F0.11039982324365072
s(g812
S'prev-action-1'
p1277
tp1278
F-0.7124584425248373
s(S'diff-x-pos--21'
p1279
S'action-3'
p1280
tp1281
F1.0057564735551159
s(S'diff-x-pos-50'
p1282
S'prev-action-1'
p1283
tp1284
F2.2103647889788745
s(S'diff-x-pos--121'
p1285
S'prev-action-4'
p1286
tp1287
F0.0023123869734987257
s(g873
S'prev-action-4'
p1288
tp1289
F2.004511892405772
s(g482
S'prev-action-4'
p1290
tp1291
F-1.3864505881309026
s(g861
S'prev-action-3'
p1292
tp1293
F0.5316327022764437
s(S'diff-x-pos-6'
p1294
S'prev-action-1'
p1295
tp1296
F2.0720357564222684
s(S'diff-x-pos--1'
p1297
S'action-3'
p1298
tp1299
F0.25574925783336155
s(S'diff-x-pos--32'
p1300
S'action-4'
p1301
tp1302
F2.3640538099323973
s(S'diff-x-pos--68'
p1303
S'prev-action-4'
p1304
tp1305
F0.5518020214842392
s(S'diff-x-pos--100'
p1306
S'prev-action-3'
p1307
tp1308
F-0.4596762616134453
s(g766
S'object-1-x-90.0'
p1309
tp1310
F-2.085107320807288
s(S'action-3'
p1311
S'object-1-x-90.0'
p1312
tp1313
F-2.9427491971404107
s(S'diff-x-pos--79'
p1314
S'action-3'
p1315
tp1316
F-5.994863663509801
s(S'diff-x-pos-38'
p1317
S'prev-action-4'
p1318
tp1319
F-3.0293565361163552
s(S'diff-x-pos-27'
p1320
S'prev-action-1'
p1321
tp1322
F0.5244444841432965
s(S'diff-x-pos--12'
p1323
S'action-1'
p1324
tp1325
F-1.3039163084922705
s(S'diff-x-pos-39'
p1326
S'action-1'
p1327
tp1328
F-0.29699408160242524
s(S'diff-x-pos-0'
p1329
S'action-1'
p1330
tp1331
F0.1605014318494924
s(S'diff-x-pos--120'
p1332
S'prev-action-4'
p1333
tp1334
F-1.2117749912757154
s(S'action-1'
p1335
S'object-0-x-40.0'
p1336
tp1337
F5.610277130532291
s(S'diff-x-pos-49'
p1338
S'prev-action-4'
p1339
tp1340
F-2.5858931185935816
s(S'diff-x-pos-64'
p1341
S'action-3'
p1342
tp1343
F1.9590953530167878
s(S'diff-x-pos--119'
p1344
S'action-3'
p1345
tp1346
F-1.6066663275675714
s(S'diff-x-pos--60'
p1347
S'action-1'
p1348
tp1349
F-1.6680144523665428
s(S'diff-x-pos--114'
p1350
S'action-1'
p1351
tp1352
F-5.819135291277332
s(g263
g891
tp1353
F1.255579974174847
s(S'diff-x-pos--73'
p1354
S'action-1'
p1355
tp1356
F-0.8296926792124919
s(S'diff-x-pos-64'
p1357
S'prev-action-4'
p1358
tp1359
F1.6981827640157214
s(S'action-4'
p1360
S'object-0-x-10.0'
p1361
tp1362
F-0.6756695288028951
s(g1311
S'object-0-x-70.0'
p1363
tp1364
F5.295539088838429
s(S'diff-x-pos--82'
p1365
S'prev-action-1'
p1366
tp1367
F2.100716705511955
s(g333
S'action-4'
p1368
tp1369
F0.6120226946290803
s(S'diff-x-pos--99'
p1370
S'action-4'
p1371
tp1372
F6.060613676278763
s(S'diff-x-pos-64'
p1373
S'prev-action-3'
p1374
tp1375
F-0.3930103047321083
s(S'diff-x-pos-29'
p1376
S'prev-action-3'
p1377
tp1378
F1.3969780881690197
s(g789
S'action-4'
p1379
tp1380
F-7.80551783502773
s(S'diff-x-pos-24'
p1381
S'prev-action-1'
p1382
tp1383
F-1.1798113395344056
s(g239
S'prev-action-1'
p1384
tp1385
F1.1540712481663762
s(S'diff-x-pos--74'
p1386
S'prev-action-4'
p1387
tp1388
F-1.1520371594433731
s(S'diff-x-pos--80'
p1389
S'action-3'
p1390
tp1391
F-8.215711234220882
s(S'diff-x-pos--2'
p1392
S'prev-action-3'
p1393
tp1394
F3.1459514086744336
sS'object-1-x-110.0'
p1395
F-1.8450473935050558
s(g293
S'prev-action-1'
p1396
tp1397
F0.302117655407512
s(S'diff-x-pos--34'
p1398
S'action-3'
p1399
tp1400
F-4.277331720494417
s(S'diff-x-pos--94'
p1401
S'action-4'
p1402
tp1403
F10.45504341741687
s(S'diff-x-pos-53'
p1404
S'action-1'
p1405
tp1406
F0.9349815340277803
s(g830
S'prev-action-4'
p1407
tp1408
F-1.1443204205687318
s(g922
S'prev-action-1'
p1409
tp1410
F-1.2003403530525059
s(g685
S'prev-action-1'
p1411
tp1412
F0.5065978407378968
s(S'diff-x-pos--6'
p1413
S'action-3'
p1414
tp1415
F0.9301094406996913
sS'object-0-x-80.0'
p1416
F9.73228990840971
s(S'diff-x-pos-32'
p1417
S'prev-action-4'
p1418
tp1419
F-0.051418130033072273
s(g913
S'prev-action-3'
p1420
tp1421
F1.7404720333927537
s(S'diff-x-pos--16'
p1422
S'prev-action-1'
p1423
tp1424
F1.3692807800801448
s(S'diff-x-pos--40'
p1425
S'prev-action-1'
p1426
tp1427
F-2.20076016293433
s(S'diff-x-pos--106'
p1428
S'action-1'
p1429
tp1430
F-1.5695248445608356
s(S'diff-x-pos--76'
p1431
S'action-3'
p1432
tp1433
F-4.565422143056157
s(g893
S'prev-action-1'
p1434
tp1435
F0.1944433530643661
s(S'diff-x-pos--95'
p1436
S'prev-action-1'
p1437
tp1438
F-1.3554983340964557
s(g1417
S'action-1'
p1439
tp1440
F0.3105553962207812
s(g884
S'action-1'
p1441
tp1442
F5.369896712114442
sg543
F-2.1726093941011766
sg722
F-0.903378133925195
s(S'diff-x-pos-12'
p1443
S'prev-action-3'
p1444
tp1445
F0.7753599738317014
sg1332
F-3.464321371460058
s(g366
S'action-4'
p1446
tp1447
F-0.37364875267020814
sg1274
F-0.8862021490303462
sS'diff-x-pos--91'
p1448
F-3.43378623151051
sg1109
F0.25580988507793867
sS'diff-x-pos--93'
p1449
F-2.6991422027858127
sg8
F-0.2099671419700992
sg741
F-0.9907890226148437
s(S'diff-x-pos--57'
p1450
S'action-3'
p1451
tp1452
F-4.592420868251271
sg412
F-2.6935958438119876
s(g716
S'prev-action-4'
p1453
tp1454
F0.7133791906826765
s(S'diff-x-pos-8'
p1455
S'action-3'
p1456
tp1457
F4.678632786546086
s(g342
S'prev-action-3'
p1458
tp1459
F0.9939400124668887
s(g954
S'prev-action-4'
p1460
tp1461
F0.06326218114080862
s(S'diff-x-pos--34'
p1462
S'action-4'
p1463
tp1464
F0.6625713566905445
s(S'diff-x-pos--105'
p1465
S'action-4'
p1466
tp1467
F9.61314839392828
s(g222
S'prev-action-4'
p1468
tp1469
F1.2329291341244728
s(S'diff-x-pos-16'
p1470
S'prev-action-3'
p1471
tp1472
F1.7843039226624529
sg487
F-0.10927243552467755
sS'diff-x-pos--24'
p1473
F1.7442862305765643
sg20
F-2.4377416665888187
sg158
F1.842151221223678
sS'diff-x-pos--21'
p1474
F-1.3963620521426208
sg995
F-0.5728432457290787
sg618
F-0.20849801805918544
sg409
F0.9535474674450797
s(S'diff-x-pos--87'
p1475
S'action-3'
p1476
tp1477
F-8.109925264980312
sg977
F-0.34806995851895084
sg910
F0.8662630821859453
s(S'object-1-dx--1'
p1478
g1311
tp1479
F1.6972381462323416
sS'diff-x-pos-39'
p1480
F0.610344675367013
s(S'diff-x-pos--37'
p1481
S'prev-action-4'
p1482
tp1483
F0.5573039655569725
s(g664
S'prev-action-1'
p1484
tp1485
F-3.0163190833811893
s(S'action-1'
p1486
S'object-0-x-130.0'
p1487
tp1488
F1.385883294242547
sS'diff-x-pos-30'
p1489
F1.0743748868301966
sS'diff-x-pos-31'
p1490
F4.4158545604893344
sg887
F2.252679109484565
sg67
F2.181676408448543
sS'diff-x-pos-34'
p1491
F-0.25991313791472176
sg789
F1.9731183575095057
sS'diff-x-pos-36'
p1492
F-1.205837272095247
sg76
F1.720488259081347
s(S'diff-x-pos--2'
p1493
S'action-1'
p1494
tp1495
F-0.1454254481909526
s(S'diff-x-pos-42'
p1496
S'action-4'
p1497
tp1498
F-7.562389415029296
s(g123
S'prev-action-4'
p1499
tp1500
F1.943209220403646
s(S'diff-x-pos--20'
p1501
S'prev-action-4'
p1502
tp1503
F0.04255103089448068
s(g120
S'prev-action-4'
p1504
tp1505
F-1.0690549415280777
s(g336
S'prev-action-1'
p1506
tp1507
F-0.16821424946979235
s(g302
S'action-4'
p1508
tp1509
F6.249184444309428
s(S'diff-x-pos-66'
p1510
S'action-3'
p1511
tp1512
F0.6915351854006944
s(S'diff-x-pos-15'
p1513
S'prev-action-3'
p1514
tp1515
F1.1490095072941129
s(S'diff-x-pos--67'
p1516
S'action-3'
p1517
tp1518
F-6.921033350113502
s(S'diff-x-pos--69'
p1519
S'prev-action-4'
p1520
tp1521
F0.9876953593009409
s(S'diff-x-pos--8'
p1522
S'prev-action-3'
p1523
tp1524
F1.1417239287061591
s(g341
S'action-3'
p1525
tp1526
F-3.358622426868331
s(g543
S'prev-action-1'
p1527
tp1528
F-1.8758121393586933
s(g618
S'action-1'
p1529
tp1530
F0.3900277719060823
s(S'diff-x-pos-9'
p1531
S'prev-action-3'
p1532
tp1533
F1.656641511707044
s(g1285
S'action-1'
p1534
tp1535
F2.0413138418400916
s(S'diff-x-pos--18'
p1536
S'prev-action-1'
p1537
tp1538
F1.286801552181136
s(S'diff-x-pos--67'
p1539
S'prev-action-1'
p1540
tp1541
F-1.112839883402648
s(g421
S'action-1'
p1542
tp1543
F0.6338902774295245
s(S'diff-x-pos--115'
p1544
S'action-3'
p1545
tp1546
F-8.881397957390607
s(g735
S'prev-action-3'
p1547
tp1548
F0.6629894482659506
sg580
F3.968779810363023
s(S'diff-x-pos--104'
p1549
S'action-1'
p1550
tp1551
F-0.9229150811555211
sg482
F0.9231614930700449
sS'diff-x-pos-44'
p1552
F0.27178008921414776
sg735
F-0.44815741967934675
s(g67
S'action-4'
p1553
tp1554
F-8.730524476071254
sg986
F3.6336111702508003
sg23
F0.7123137440893075
s(g727
S'action-1'
p1555
tp1556
F-1.214006292329969
sg1496
F-1.811277260776082
s(S'diff-x-pos-52'
p1557
S'prev-action-3'
p1558
tp1559
F2.8168102051756834
s(S'diff-x-pos-30'
p1560
S'prev-action-4'
p1561
tp1562
F-2.6975014929488257
s(S'diff-x-pos--65'
p1563
S'prev-action-1'
p1564
tp1565
F-3.842724029917129
s(S'diff-x-pos--72'
p1566
S'prev-action-3'
p1567
tp1568
F0.6437778901733624
s(S'diff-x-pos--7'
p1569
S'prev-action-3'
p1570
tp1571
F0.7493539145435972
s(S'diff-x-pos-54'
p1572
S'action-3'
p1573
tp1574
F11.961567851811813
s(S'diff-x-pos--25'
p1575
S'action-4'
p1576
tp1577
F-0.6742061378948719
s(g497
S'object-0-x-20.0'
p1578
tp1579
F0.5122464207107248
sS'diff-x-pos--81'
p1580
F-1.323784721808135
sg254
F0.9249820165154058
s(g690
S'action-1'
p1581
tp1582
F1.512810366507636
s(S'diff-x-pos--86'
p1583
S'action-1'
p1584
tp1585
F0.633768573060357
s(S'diff-x-pos-9'
p1586
S'prev-action-4'
p1587
tp1588
F0.5394464573266174
s(S'diff-x-pos--43'
p1589
S'action-4'
p1590
tp1591
F-0.34983357405339177
s(g952
S'action-1'
p1592
tp1593
F-0.6158411798070277
s(S'diff-x-pos--84'
p1594
S'prev-action-3'
p1595
tp1596
F0.7691306031570238
s(S'diff-x-pos-40'
p1597
S'prev-action-3'
p1598
tp1599
F-0.003796438799703039
sS'object-0-y-20.0'
p1600
F50.11309209237084
s(S'object-0-dx--1'
p1601
g360
tp1602
F-2.0372783128152387
s(S'diff-x-pos--11'
p1603
S'action-4'
p1604
tp1605
F-0.684647054339474
s(g425
S'action-4'
p1606
tp1607
F-2.567735788997252
s(S'diff-x-pos--61'
p1608
g647
tp1609
F0.9304481356827503
s(S'diff-x-pos--101'
p1610
S'action-3'
p1611
tp1612
F-8.691299189086042
s(S'diff-x-pos-21'
p1613
S'prev-action-3'
p1614
tp1615
F3.075615446182998
s(S'diff-x-pos-33'
p1616
S'action-3'
p1617
tp1618
F6.2764970186982385
s(S'diff-x-pos-30'
p1619
S'action-3'
p1620
tp1621
F9.688618318353589
s(S'diff-x-pos--99'
p1622
S'action-3'
p1623
tp1624
F-9.010229363613425
s(S'diff-x-pos--67'
p1625
S'action-4'
p1626
tp1627
F2.9865518304821506
s(S'diff-x-pos-18'
p1628
S'action-1'
p1629
tp1630
F-0.5608700329572851
s(g1183
S'action-3'
p1631
tp1632
F4.8844307412799095
s(g55
S'prev-action-4'
p1633
tp1634
F2.248393534962956
s(g946
S'action-4'
p1635
tp1636
F2.75164478278859
s(S'diff-x-pos-40'
p1637
S'action-4'
p1638
tp1639
F-7.843633929265554
s(S'diff-x-pos-54'
p1640
S'action-4'
p1641
tp1642
F-8.36532062387526
s(S'diff-x-pos-58'
p1643
S'action-4'
p1644
tp1645
F-3.608238620618213
s(S'diff-x-pos-28'
p1646
S'prev-action-4'
p1647
tp1648
F-0.41712643521172255
s(S'diff-x-pos-4'
p1649
S'action-4'
p1650
tp1651
F-1.8760405901033859
s(S'diff-x-pos-23'
p1652
S'prev-action-4'
p1653
tp1654
F2.65357854361343
s(S'diff-x-pos--75'
p1655
S'prev-action-3'
p1656
tp1657
F-0.01749383488299887
s(g1011
S'action-4'
p1658
tp1659
F7.276201469720939
s(S'diff-x-pos-70'
p1660
S'action-1'
p1661
tp1662
F-0.9358795349320843
s(S'diff-x-pos--26'
p1663
S'prev-action-4'
p1664
tp1665
F1.3295975624644156
s(g1490
S'action-1'
p1666
tp1667
F2.4459285795100554
s(S'diff-x-pos--31'
p1668
S'prev-action-1'
p1669
tp1670
F-0.5912224961590873
s(S'diff-x-pos--27'
p1671
S'prev-action-3'
p1672
tp1673
F-0.6905593354105348
s(g597
S'prev-action-3'
p1674
tp1675
F0.9895979770146226
s(S'diff-x-pos--68'
p1676
S'action-4'
p1677
tp1678
F5.985054465329338
s(S'diff-x-pos-63'
p1679
S'prev-action-1'
p1680
tp1681
F2.9736381533857363
s(g1127
S'prev-action-4'
p1682
tp1683
F1.5648494512456277
s(S'diff-x-pos--118'
p1684
S'prev-action-4'
p1685
tp1686
F0.4793114845713844
s(g580
S'action-3'
p1687
tp1688
F12.186145803095242
s(S'diff-x-pos--60'
p1689
S'prev-action-3'
p1690
tp1691
F0.15939877790836188
s(g941
S'prev-action-3'
p1692
tp1693
F2.7293882122310595
s(g558
S'action-3'
p1694
tp1695
F9.039210769486628
s(g1109
S'action-1'
p1696
tp1697
F0.6436290940882374
s(S'diff-x-pos--42'
p1698
S'action-4'
p1699
tp1700
F2.6141491129617105
s(g1357
S'action-1'
p1701
tp1702
F1.699665893925939
s(S'diff-x-pos--21'
p1703
S'prev-action-4'
p1704
tp1705
F0.21581464144807516
s(g109
S'action-1'
p1706
tp1707
F3.179033952313459
s(g733
S'prev-action-1'
p1708
tp1709
F18.626501567178646
s(S'diff-x-pos-37'
p1710
S'action-1'
p1711
tp1712
F1.0597554185454494
s(S'diff-x-pos-65'
p1713
S'action-1'
p1714
tp1715
F-2.6522415956110423
s(S'diff-x-pos--72'
p1716
S'prev-action-1'
p1717
tp1718
F-0.23089090308289129
s(g953
S'prev-action-3'
p1719
tp1720
F-0.3091767983632603
s(S'diff-x-pos--69'
p1721
S'action-3'
p1722
tp1723
F-3.2967103005195173
s(S'diff-x-pos--49'
p1724
S'prev-action-1'
p1725
tp1726
F2.0037270386388757
s(g1449
S'prev-action-3'
p1727
tp1728
F-1.7832070578685615
s(S'object-0-dx-1'
p1729
S'prev-action-1'
p1730
tp1731
F-1.9022520848762934
s(S'diff-x-pos--22'
p1732
S'action-3'
p1733
tp1734
F2.6259013900302373
s(S'diff-x-pos--109'
p1735
S'action-1'
p1736
tp1737
F0.22865232805504665
s(g403
S'action-1'
p1738
tp1739
F1.3305027835531464
s(g946
S'prev-action-1'
p1740
tp1741
F-2.6201594691971986
s(g1660
S'prev-action-4'
p1742
tp1743
F-0.9358795349320843
s(S'diff-x-pos--15'
p1744
S'prev-action-1'
p1745
tp1746
F-3.435853488118555
sS'diff-x-pos--105'
p1747
F-0.6450089845608963
s(S'diff-x-pos--55'
p1748
S'action-1'
p1749
tp1750
F0.7687181711885522
s(S'diff-x-pos-4'
p1751
S'prev-action-1'
p1752
tp1753
F2.100547717411568
s(S'diff-x-pos-44'
p1754
S'prev-action-1'
p1755
tp1756
F0.7052636844180971
s(S'diff-x-pos--47'
p1757
S'prev-action-3'
p1758
tp1759
F-0.6747355864046212
sS'diff-x-pos--112'
p1760
F-0.9353207321615515
s(g147
S'prev-action-4'
p1761
tp1762
F-2.2797821155805527
s(S'diff-x-pos--28'
p1763
S'action-1'
p1764
tp1765
F-1.735447098580786
sg925
F-2.7328889338027555
sS'diff-x-pos--116'
p1766
F-1.6541620497650706
sg1127
F-0.376915839367051
sg818
F-3.4949277942839543
sS'diff-x-pos--115'
p1767
F-2.271633516491221
sg1121
F-1.6239631104143715
s(g432
S'action-4'
p1768
tp1769
F-4.168718336148874
s(g1563
S'action-4'
p1770
tp1771
F3.9652699631657136
s(S'diff-x-pos--21'
p1772
S'prev-action-3'
p1773
tp1774
F-2.0846919942774944
s(S'diff-x-pos--87'
p1775
S'prev-action-4'
p1776
tp1777
F-0.5119685450565633
s(g499
S'prev-action-1'
p1778
tp1779
F0.12456706304066954
s(S'diff-x-pos--5'
p1780
S'action-4'
p1781
tp1782
F-0.5199407632614548
s(S'diff-x-pos-43'
p1783
S'action-3'
p1784
tp1785
F8.634566188644481
s(S'diff-x-pos-55'
p1786
S'action-1'
p1787
tp1788
F-1.3471365271887343
s(S'diff-x-pos-45'
p1789
S'prev-action-1'
p1790
tp1791
F0.03301678176067613
s(S'diff-x-pos--12'
p1792
S'action-4'
p1793
tp1794
F-0.3330335307856711
sS'object-0-dx--1'
p1795
F0.2107938382696286
s(S'diff-x-pos--96'
p1796
S'action-3'
p1797
tp1798
F-7.977687326139732
s(g342
S'action-4'
p1799
tp1800
F6.103517920579317
s(g1492
S'action-3'
p1801
tp1802
F6.936954466367832
s(g939
S'action-3'
p1803
tp1804
F-0.7346452660611451
s(S'diff-x-pos-8'
p1805
S'prev-action-4'
p1806
tp1807
F-1.3022173435513462
sS'object-1-y-10.0'
p1808
F1.4752525458284518
s(g1490
S'prev-action-4'
p1809
tp1810
F0.9835569724546118
s(S'diff-x-pos-30'
p1811
S'action-1'
p1812
tp1813
F-1.8793570678096172
s(S'diff-x-pos-38'
p1814
S'prev-action-1'
p1815
tp1816
F2.731299664617533
s(S'diff-x-pos--4'
p1817
S'action-3'
p1818
tp1819
F3.620102863997231
s(S'diff-x-pos--112'
p1820
S'action-1'
p1821
tp1822
F-4.008084781397775
s(S'diff-x-pos-0'
p1823
S'action-4'
p1824
tp1825
F-3.52197817451246
s(S'diff-x-pos--120'
p1826
S'prev-action-3'
p1827
tp1828
F-1.552341337448493
s(S'diff-x-pos--93'
p1829
S'prev-action-1'
p1830
tp1831
F0.9684022664692615
sg1059
F-2.03786271150144
s(g940
S'action-3'
p1832
tp1833
F1.2330645162881688
s(g818
g1360
tp1834
F10.533529571925616
s(S'diff-x-pos-19'
p1835
S'action-3'
p1836
tp1837
F6.462952410549985
s(S'diff-x-pos--29'
p1838
S'prev-action-4'
p1839
tp1840
F-2.394989031489591
s(S'diff-x-pos-14'
p1841
S'action-1'
p1842
tp1843
F2.8402871706015156
s(g1449
S'action-4'
p1844
tp1845
F7.661773710867586
sg257
F2.8888668113392844
s(S'diff-x-pos-1'
p1846
S'prev-action-4'
p1847
tp1848
F-2.5288110460083986
s(S'diff-x-pos--6'
p1849
S'prev-action-4'
p1850
tp1851
F-1.415484178763094
s(g433
S'action-3'
p1852
tp1853
F-4.366092746938916
s(S'diff-x-pos--66'
p1854
S'action-1'
p1855
tp1856
F0.2907134230021221
sS'object-0-dy-1'
p1857
F1.319426391240478
s(g947
S'prev-action-4'
p1858
tp1859
F0.6696856163998455
s(S'diff-x-pos--24'
p1860
S'action-3'
p1861
tp1862
F0.7370087591416463
s(S'diff-x-pos--85'
p1863
S'prev-action-1'
p1864
tp1865
F2.1518577768883302
s(S'diff-x-pos-35'
p1866
S'action-1'
p1867
tp1868
F-0.09650716270109856
s(S'diff-x-pos--97'
p1869
S'prev-action-1'
p1870
tp1871
F-0.22452588702679388
s(S'diff-x-pos--17'
p1872
S'prev-action-4'
p1873
tp1874
F0.0683100151616367
s(g406
S'prev-action-1'
p1875
tp1876
F0.07797537634589968
s(S'diff-x-pos--2'
p1877
S'prev-action-4'
p1878
tp1879
F-1.9845636007914191
s(S'diff-x-pos-35'
p1880
S'prev-action-3'
p1881
tp1882
F-0.32500004547121253
s(S'diff-x-pos--77'
p1883
S'prev-action-4'
p1884
tp1885
F-1.1800541220082303
s(S'diff-x-pos-46'
p1886
S'action-4'
p1887
tp1888
F-12.247586397769561
s(g1473
S'prev-action-1'
p1889
tp1890
F1.1060606808103828
s(S'diff-x-pos--4'
p1891
S'action-4'
p1892
tp1893
F-0.3430552661609201
s(S'diff-x-pos-42'
p1894
S'prev-action-1'
p1895
tp1896
F-4.029858131075711
s(g436
S'prev-action-1'
p1897
tp1898
F-0.5387828960409236
s(S'action-1'
p1899
S'object-0-x-10.0'
p1900
tp1901
F2.370891253566173
sS'diff-y-pos--9'
p1902
F1.6926976811035785
sS'diff-y-pos--8'
p1903
F2.155285972645566
s(S'diff-x-pos--91'
p1904
S'action-1'
p1905
tp1906
F-1.3633268295253282
sS'diff-y-pos--4'
p1907
F1.982436145325167
sS'diff-y-pos--7'
p1908
F-1.8563094796846002
s(S'diff-x-pos-19'
p1909
S'prev-action-1'
p1910
tp1911
F0.07303456741399972
sS'diff-y-pos--1'
p1912
F-2.9731941771439834
sS'diff-y-pos--3'
p1913
F-2.2796481015203502
sS'diff-y-pos--2'
p1914
F-1.6213410420267875
s(g958
S'prev-action-4'
p1915
tp1916
F0.9528824216227492
s(g264
S'prev-action-4'
p1917
tp1918
F-0.1893645968182045
s(S'diff-x-pos--93'
p1919
S'action-3'
p1920
tp1921
F-10.361257206681655
s(g369
S'action-3'
p1922
tp1923
F1.445988513138281
s(g1826
S'action-1'
p1924
tp1925
F-1.4442779073821164
s(S'diff-x-pos--14'
p1926
g1311
tp1927
F-0.057845077295618275
s(S'diff-x-pos--112'
p1928
S'prev-action-3'
p1929
tp1930
F1.1494777322079184
s(S'diff-x-pos--4'
p1931
S'prev-action-1'
p1932
tp1933
F-1.0229004359834226
s(S'diff-x-pos--38'
p1934
S'action-3'
p1935
tp1936
F-3.2109462366285983
s(g1317
S'action-3'
p1937
tp1938
F5.639714127565613
s(S'diff-x-pos-57'
p1939
S'action-1'
p1940
tp1941
F3.7413945203631656
sg1475
F-2.4281755153804156
sS'diff-x-pos--86'
p1942
F-2.7042140098191036
sg1863
F0.19841042650212426
sg1594
F-2.203125109762759
sS'diff-x-pos--83'
p1943
F-3.115286650938903
sg947
F-2.0389957551018942
sg457
F13.841348017622622
sg777
F-0.6276902896331417
sg1049
F-4.748809912592247
s(g337
S'action-4'
p1944
tp1945
F2.0978644721277946
s(S'diff-x-pos--38'
p1946
S'prev-action-3'
p1947
tp1948
F-1.1093660604379862
s(g1474
S'action-1'
p1949
tp1950
F-2.075420469318402
s(S'diff-x-pos-55'
p1951
S'prev-action-3'
p1952
tp1953
F2.459171028477737
s(S'diff-x-pos--2'
p1954
S'action-3'
p1955
tp1956
F4.620595159772272
s(S'diff-x-pos--116'
p1957
S'prev-action-3'
p1958
tp1959
F0.5332480513065607
s(S'diff-x-pos-3'
p1960
S'prev-action-3'
p1961
tp1962
F0.9565489832179676
s(g1492
S'prev-action-4'
p1963
tp1964
F-4.1382142209127215
s(S'diff-x-pos--28'
p1965
S'prev-action-3'
p1966
tp1967
F3.0151421222460573
sg812
F0.6930051383178502
sS'diff-x-pos--11'
p1968
F1.5772488306224672
sg1323
F2.443425978451433
sg109
F0.16407294115008086
sg1926
F1.122898857853662
sg1744
F-0.007874889482852532
sg890
F0.008822058214137174
sg239
F2.0837900967159175
sS'diff-x-pos--18'
p1969
F-0.9353192027258563
sg372
F-0.2645140616340669
s(S'diff-x-pos--55'
p1970
S'prev-action-3'
p1971
tp1972
F-0.6311014214663446
s(S'diff-x-pos-42'
p1973
S'action-1'
p1974
tp1975
F-2.2278783224781735
s(g112
S'prev-action-3'
p1976
tp1977
F-0.6223442761447008
s(S'diff-x-pos--22'
p1978
S'prev-action-1'
p1979
tp1980
F0.28081097817949674
s(g1869
S'action-1'
p1981
tp1982
F2.609296705622903
s(g1721
S'prev-action-1'
p1983
tp1984
F-2.055229374941946
s(g953
S'action-1'
p1985
tp1986
F-0.03963115105685258
s(g164
S'action-4'
p1987
tp1988
F-1.180932440351729
s(g273
S'prev-action-3'
p1989
tp1990
F-3.2086401429079294
s(g603
S'action-1'
p1991
tp1992
F1.10832918592416
s(g940
S'prev-action-3'
p1993
tp1994
F1.1169250717233339
s(S'diff-x-pos--30'
p1995
S'action-1'
p1996
tp1997
F1.4230083221305976
s(S'diff-x-pos--71'
p1998
S'prev-action-4'
p1999
tp2000
F1.1387290379066972
s(S'diff-x-pos-47'
p2001
S'prev-action-4'
p2002
tp2003
F-0.3442113615863416
s(S'action-3'
p2004
S'object-1-x-100.0'
p2005
tp2006
F-1.123300513710237
s(g126
S'prev-action-4'
p2007
tp2008
F1.322787691688938
s(g1823
S'prev-action-4'
p2009
tp2010
F-2.0189342642895785
s(g1489
S'prev-action-1'
p2011
tp2012
F-0.49960317652071695
s(S'diff-x-pos--27'
p2013
S'action-1'
p2014
tp2015
F-0.06007807229105999
sg490
F5.976310716275982
sg123
F7.052746451076801
sg624
F3.3979115439612153
sg296
F5.607301042957708
sg26
F2.2868713584817586
sg170
F2.3849454992832597
sg1557
F0.13112820432958994
sg873
F4.985646290247449
sg1282
F-0.9048715380416512
sS'diff-x-pos-51'
p2016
F1.2055375621213975
s(g1796
S'prev-action-3'
p2017
tp2018
F-1.4949571845391039
sg1215
F2.8508903376888135
s(S'diff-x-pos-45'
p2019
S'action-1'
p2020
tp2021
F0.4568318488673188
s(S'diff-x-pos-43'
p2022
S'prev-action-3'
p2023
tp2024
F3.678491183622784
s(S'diff-x-pos--5'
p2025
S'prev-action-4'
p2026
tp2027
F1.6411016335040465
s(S'diff-x-pos--60'
p2028
S'prev-action-4'
p2029
tp2030
F-0.6002956998753096
s(g1274
S'action-1'
p2031
tp2032
F2.0254169925185117
s(S'action-4'
p2033
S'object-1-x-90.0'
p2034
tp2035
F4.841691053588018
s(S'diff-x-pos--61'
p2036
S'action-4'
p2037
tp2038
F1.8121691955941897
s(g1557
S'action-1'
p2039
tp2040
F-0.9090527042383739
s(g1616
S'prev-action-1'
p2041
tp2042
F-0.4621756935880559
s(g1021
g197
tp2043
F3.5427737314173293
s(g496
S'prev-action-3'
p2044
tp2045
F0.3554253559013145
s(S'diff-x-pos-2'
p2046
S'prev-action-1'
p2047
tp2048
F-2.8635441364072465
s(S'diff-x-pos--39'
p2049
S'action-1'
p2050
tp2051
F0.13798963417122465
s(g502
g1486
tp2052
F-0.3162522167162507
s(S'object-0-dx-1'
p2053
g514
tp2054
F-0.8495996974007456
s(g1225
S'object-0-x-0.0'
p2055
tp2056
F0.6636188316897708
sg156
F-2.974928586681719
s(g76
S'prev-action-1'
p2057
tp2058
F1.0443537426222465
s(g1747
S'action-1'
p2059
tp2060
F1.0964517742884023
s(g158
S'prev-action-3'
p2061
tp2062
F-1.7892527062603776
s(g153
S'prev-action-1'
p2063
tp2064
F-0.6565587880933843
s(g1703
S'action-4'
p2065
tp2066
F-0.3266980563793679
s(S'diff-x-pos--27'
p2067
S'prev-action-4'
p2068
tp2069
F-1.6612677039550126
s(g17
S'action-1'
p2070
tp2071
F2.3397334432646315
s(g1256
S'prev-action-4'
p2072
tp2073
F3.1498872058196716
s(S'action-1'
p2074
g601
tp2075
F16.270672663412316
sg361
F12.510783670675009
s(g850
S'action-4'
p2076
tp2077
F3.997857364329537
s(S'diff-x-pos--94'
p2078
S'prev-action-3'
p2079
tp2080
F1.8026384364603714
s(S'diff-x-pos-48'
p2081
S'prev-action-3'
p2082
tp2083
F2.233193272292438
s(S'diff-x-pos--104'
p2084
S'prev-action-3'
p2085
tp2086
F0.7996932280013747
s(g1544
S'prev-action-1'
p2087
tp2088
F-2.415592684591095
s(S'diff-x-pos--15'
p2089
S'action-4'
p2090
tp2091
F-0.4352373420576872
s(S'action-4'
p2092
g1444
tp2093
F18.515817220712602
s(S'diff-x-pos--56'
p2094
S'prev-action-1'
p2095
tp2096
F1.065172408245667
s(g117
S'action-1'
p2097
tp2098
F5.437423320951404
s(g1344
S'prev-action-4'
p2099
tp2100
F-1.5065532643377126
s(g421
S'prev-action-3'
p2101
tp2102
F1.1098520851457994
sS'diff-x-pos-27'
p2103
F0.43996777129403886
sS'object-0-y-10.0'
p2104
F61.912766897089654
s(g1586
S'action-1'
p2105
tp2106
F-0.871866797770657
s(S'diff-x-pos--23'
p2107
S'prev-action-3'
p2108
tp2109
F1.1523374812274167
s(g1023
S'action-3'
p2110
tp2111
F-9.166426965268661
s(S'diff-x-pos-65'
p2112
S'action-4'
p2113
tp2114
F0.9705740171421824
sg107
F9.289859745451405
s(S'diff-x-pos--58'
p2115
S'prev-action-1'
p2116
tp2117
F-1.0272477703433722
s(g335
S'prev-action-4'
p2118
tp2119
F-1.4265235675767196
s(g1713
S'prev-action-4'
p2120
tp2121
F-1.268236976063517
s(g975
S'object-0-x-0.0'
p2122
tp2123
F0.8189341124575369
s(g427
g1046
tp2124
F1.7886741701218132
s(S'diff-x-pos-66'
p2125
S'prev-action-1'
p2126
tp2127
F-0.7030108101311101
s(S'diff-x-pos--52'
p2128
S'action-3'
p2129
tp2130
F-3.3319241252693104
s(S'diff-x-pos--39'
p2131
S'prev-action-4'
p2132
tp2133
F0.30806771073138506
s(S'diff-x-pos--116'
p2134
S'action-1'
p2135
tp2136
F0.2030335007333368
sg64
F-0.8982622070300461
s(g1735
S'prev-action-3'
p2137
tp2138
F-1.5672420896949633
s(S'diff-x-pos-17'
p2139
S'prev-action-3'
p2140
tp2141
F-1.2587566509361858
s(S'diff-x-pos--15'
p2142
S'prev-action-4'
p2143
tp2144
F2.697724386378736
s(g986
S'action-4'
p2145
tp2146
F-7.8200099623928825
sg283
F15.213345300934437
s(g1668
S'action-3'
p2147
tp2148
F-1.9977422448434727
s(g1332
S'action-3'
p2149
tp2150
F0.1653692930948557
s(S'diff-x-pos--104'
p2151
S'prev-action-4'
p2152
tp2153
F1.9052704351804108
s(S'diff-x-pos-1'
p2154
S'action-3'
p2155
tp2156
F4.950359866291124
s(S'diff-x-pos-5'
p2157
S'action-4'
p2158
tp2159
F-3.306167994473271
s(g849
S'action-3'
p2160
tp2161
F0.04790748509394349
s(g456
S'prev-action-4'
p2162
tp2163
F16.250438144498567
s(S'diff-x-pos--54'
p2164
S'prev-action-4'
p2165
tp2166
F2.0376309605768674
s(S'diff-x-pos--61'
p2167
S'prev-action-1'
p2168
tp2169
F-1.6458294515966778
sg984
F12.118686731858094
s(S'diff-x-pos--65'
p2170
S'action-3'
p2171
tp2172
F-5.329665941325928
s(S'diff-x-pos-13'
p2173
S'prev-action-4'
p2174
tp2175
F-0.2767479007703749
s(g1475
S'prev-action-1'
p2176
tp2177
F-1.5326798207462708
s(S'diff-x-pos--26'
p2178
S'action-3'
p2179
tp2180
F0.958280691590778
s(S'diff-x-pos--35'
p2181
S'prev-action-1'
p2182
tp2183
F0.07997813784837648
sS'object-0-x-70.0'
p2184
F13.473566701083405
s(S'diff-x-pos-54'
p2185
S'prev-action-3'
p2186
tp2187
F1.7757702737726309
s(g1455
S'prev-action-1'
p2188
tp2189
F2.177832961999616
s(S'diff-x-pos-24'
p2190
S'action-4'
p2191
tp2192
F-5.8488488726030585
s(S'diff-x-pos--62'
p2193
S'action-3'
p2194
tp2195
F-4.95823141057468
s(g2046
S'action-1'
p2196
tp2197
F1.1578980093924676
s(g1489
S'action-4'
p2198
tp2199
F-6.7348863637137715
s(g1760
S'action-4'
p2200
tp2201
F11.501787783266694
s(S'diff-x-pos-12'
p2202
S'action-1'
p2203
tp2204
F-3.7287030660559326
s(S'diff-x-pos--26'
p2205
S'action-4'
p2206
tp2207
F-0.87990293898587
s(S'diff-x-pos--41'
p2208
S'action-4'
p2209
tp2210
F-0.37262166998985424
s(S'diff-x-pos--95'
p2211
S'action-3'
p2212
tp2213
F-8.7275866914956
s(S'diff-x-pos--76'
p2214
S'prev-action-1'
p2215
tp2216
F-1.302363515134847
s(g1501
g1335
tp2217
F2.1668852446240723
s(S'diff-x-pos--16'
p2218
S'action-3'
p2219
tp2220
F2.531950440510132
s(S'diff-x-pos-14'
p2221
S'action-4'
p2222
tp2223
F-6.927568139351127
s(g1046
S'object-0-x-120.0'
p2224
tp2225
F3.234180833903025
s(S'diff-x-pos--18'
p2226
S'action-1'
p2227
tp2228
F-0.8005858536132009
s(S'diff-x-pos--6'
p2229
S'prev-action-1'
p2230
tp2231
F0.42234991264437993
s(S'diff-x-pos--36'
p2232
S'action-3'
p2233
tp2234
F-1.9865342380015503
s(S'diff-x-pos-53'
p2235
S'prev-action-3'
p2236
tp2237
F4.370344632501233
s(S'diff-x-pos--70'
p2238
S'action-3'
p2239
tp2240
F-2.5824859333194574
s(g1473
S'action-4'
p2241
tp2242
F1.1108247538480542
s(S'diff-x-pos--34'
p2243
S'prev-action-1'
p2244
tp2245
F-0.6550868608937859
s(S'diff-x-pos--8'
p2246
S'action-3'
p2247
tp2248
F-0.5316325652521561
s(S'diff-x-pos--77'
p2249
S'action-3'
p2250
tp2251
F-8.385758304153086
sg1796
F0.8951497410406524
s(S'diff-x-pos--80'
p2252
S'prev-action-1'
p2253
tp2254
F0.34898651660789926
s(g412
S'prev-action-4'
p2255
tp2256
F-2.9815071447561023
s(S'diff-x-pos--17'
p2257
S'action-3'
p2258
tp2259
F2.33790333286301
s(S'diff-x-pos-24'
p2260
S'action-3'
p2261
tp2262
F5.114506865212924
s(S'diff-x-pos-29'
p2263
S'action-1'
p2264
tp2265
F0.11876087613695296
s(g1496
S'prev-action-4'
p2266
tp2267
F0.8140588164389253
s(S'diff-x-pos--2'
p2268
S'prev-action-1'
p2269
tp2270
F0.6653631858410979
s(S'diff-x-pos-47'
p2271
S'action-4'
p2272
tp2273
F-10.55257552771842
s(S'diff-x-pos--85'
p2274
S'prev-action-4'
p2275
tp2276
F0.41434924583722804
s(S'object-1-dx--1'
p2277
S'prev-action-3'
p2278
tp2279
F-1.5817379698358476
s(S'diff-x-pos--114'
p2280
S'prev-action-3'
p2281
tp2282
F1.1110277591043625
s(g667
S'prev-action-3'
p2283
tp2284
F-0.7331533096150344
s(S'diff-x-pos-39'
p2285
S'prev-action-3'
p2286
tp2287
F-0.28446070077068863
s(g1323
g2278
tp2288
F0.13538811252021388
s(g1035
S'prev-action-3'
p2289
tp2290
F-1.4297508249877842
s(S'diff-x-pos-27'
p2291
S'action-3'
p2292
tp2293
F9.046251177747203
s(g777
S'action-4'
p2294
tp2295
F6.8332305318980096
s(S'diff-x-pos--91'
p2296
S'prev-action-3'
p2297
tp2298
F-1.350464110238625
s(S'diff-x-pos--53'
p2299
S'action-1'
p2300
tp2301
F1.4016999655698266
s(S'diff-x-pos--45'
p2302
S'prev-action-4'
p2303
tp2304
F-1.1904450745479218
s(g765
S'prev-action-4'
p2305
tp2306
F0.6258309537536603
s(g1221
S'object-0-x-110.0'
p2307
tp2308
F-4.771278131970496
s(g1926
S'prev-action-4'
p2309
tp2310
F-0.6971239480139726
s(S'diff-x-pos--10'
p2311
S'action-3'
p2312
tp2313
F0.24978487047923387
s(g958
S'action-1'
p2314
tp2315
F0.5814523891800403
s(S'diff-x-pos--106'
p2316
S'prev-action-1'
p2317
tp2318
F-1.6706783731455053
s(S'diff-x-pos--40'
p2319
S'action-1'
p2320
tp2321
F0.20631507486994802
s(g1491
S'prev-action-3'
p2322
tp2323
F0.39443788063525437
s(S'diff-x-pos--116'
p2324
S'action-3'
p2325
tp2326
F-7.802477959605389
s(S'diff-x-pos-12'
p2327
S'prev-action-4'
p2328
tp2329
F-0.4270130842186498
s(g1943
g806
tp2330
F-0.7269695806942875
s(g424
S'action-4'
p2331
tp2332
F-2.582591683302961
sg1192
F-1.626116605559596
s(g1480
S'prev-action-4'
p2333
tp2334
F0.595660798520594
sS'object-1-dy-1'
p2335
F-2.483701262686763
sS'diff-x-pos-49'
p2336
F0.9360545340840527
s(S'diff-x-pos--68'
p2337
S'action-1'
p2338
tp2339
F-3.140374471995102
s(S'diff-x-pos--22'
p2340
S'prev-action-4'
p2341
tp2342
F0.5316458263187016
s(S'diff-x-pos--94'
p2343
S'action-1'
p2344
tp2345
F1.4448892843616958
s(S'diff-x-pos-57'
p2346
S'prev-action-1'
p2347
tp2348
F2.306062770944966
s(g702
S'prev-action-3'
p2349
tp2350
F-1.703908690597708
s(g1014
S'prev-action-3'
p2351
tp2352
F1.223006903715363
s(g333
S'prev-action-4'
p2353
tp2354
F-1.2396017998605087
s(g693
S'action-4'
p2355
tp2356
F7.3397312288238945
s(S'diff-x-pos--56'
p2357
S'prev-action-3'
p2358
tp2359
F-1.8881212655973665
s(S'diff-x-pos--14'
p2360
S'prev-action-3'
p2361
tp2362
F0.2503048393160072
s(S'object-1-dx-1'
p2363
g714
tp2364
F-0.5679966289189236
s(g1215
S'action-1'
p2365
tp2366
F3.0241883041799404
s(g1209
S'action-1'
p2367
tp2368
F-1.1288695515389122
s(g941
S'action-4'
p2369
tp2370
F-0.7808040017270507
s(g2336
S'action-4'
p2371
tp2372
F-7.395455235608213
s(S'diff-x-pos--71'
p2373
S'prev-action-3'
p2374
tp2375
F-0.8572016811193016
s(g592
S'object-0-x-100.0'
p2376
tp2377
F8.114240281710039
s(S'diff-x-pos--64'
p2378
S'action-4'
p2379
tp2380
F4.6106464074113696
s(S'diff-x-pos--29'
p2381
S'action-1'
p2382
tp2383
F0.0842889900449193
s(S'diff-x-pos-0'
p2384
S'prev-action-1'
p2385
tp2386
F1.3177233377234918
s(S'diff-x-pos--80'
p2387
S'prev-action-4'
p2388
tp2389
F-0.6915448401505054
s(S'action-3'
p2390
S'object-0-x-130.0'
p2391
tp2392
F0.4758622826970327
s(S'diff-x-pos-10'
p2393
S'prev-action-1'
p2394
tp2395
F1.180651321906722
s(S'diff-x-pos--20'
p2396
S'prev-action-3'
p2397
tp2398
F0.7996611460513396
s(S'diff-x-pos--62'
p2399
S'prev-action-4'
p2400
tp2401
F-4.2627152904686945
s(g1250
S'action-3'
p2402
tp2403
F-9.624767073193771
s(S'diff-x-pos--74'
p2404
S'action-1'
p2405
tp2406
F-2.5634914700227336
s(S'diff-x-pos--32'
p2407
S'prev-action-4'
p2408
tp2409
F3.1980441158308506
s(g1580
S'prev-action-3'
p2410
tp2411
F-1.105627563964073
s(S'diff-x-pos-45'
p2412
S'action-4'
p2413
tp2414
F-10.85847669493199
s(g1365
S'action-4'
p2415
tp2416
F6.259061002467355
s(S'diff-x-pos-28'
p2417
S'action-3'
p2418
tp2419
F6.7139713296531065
sg597
F0.33311230151556964
sg117
F6.4295190320577404
s(g237
S'prev-action-4'
p2420
tp2421
F0.24835415213176681
sS'diff-x-pos-61'
p2422
F2.6204691101621247
sg1091
F6.381721290761061
sg855
F-1.399632975176985
s(S'diff-x-pos--63'
p2423
S'action-1'
p2424
tp2425
F0.787167147906178
sg1713
F-1.2744738287541666
sg1357
F1.7933786100915912
s(S'diff-x-pos--90'
p2426
S'action-4'
p2427
tp2428
F6.608486172354851
s(g1766
S'action-4'
p2429
tp2430
F5.945282409106979
s(S'diff-x-pos-21'
p2431
S'action-3'
p2432
tp2433
F6.359823284227432
s(g1767
S'action-4'
p2434
tp2435
F8.100526804291624
s(g1795
g1222
tp2436
F-2.5388924567344646
s(g848
S'action-1'
p2437
tp2438
F-0.4750147144258352
s(S'diff-x-pos--88'
p2439
S'prev-action-1'
p2440
tp2441
F0.08974020717514115
s(S'diff-x-pos--79'
p2442
S'action-1'
p2443
tp2444
F0.4371616821767092
s(g2442
S'prev-action-4'
p2445
tp2446
F1.6812505975069325
s(g1968
S'prev-action-1'
p2447
tp2448
F-1.4829536037366675
s(S'diff-x-pos-51'
p2449
S'prev-action-1'
p2450
tp2451
F2.343806639470123
s(g1969
S'prev-action-4'
p2452
tp2453
F-0.7001438344478748
s(S'diff-x-pos--78'
p2454
S'prev-action-3'
p2455
tp2456
F0.6712637773706536
s(g939
S'prev-action-3'
p2457
tp2458
F0.8702572909556189
s(g1238
S'action-4'
p2459
tp2460
F2.666136227002191
s(g1589
S'prev-action-3'
p2461
tp2462
F-2.4280546290754383
s(S'diff-x-pos-7'
p2463
S'prev-action-1'
p2464
tp2465
F0.1697264595509731
s(g1091
S'prev-action-1'
p2466
tp2467
F1.686496200128913
s(S'diff-x-pos-60'
p2468
S'action-1'
p2469
tp2470
F3.7900747793238727
s(S'diff-x-pos-37'
p2471
S'prev-action-4'
p2472
tp2473
F-0.2790359472736875
s(S'diff-x-pos--3'
p2474
S'action-3'
p2475
tp2476
F4.59006372160596
s(S'diff-x-pos--25'
p2477
S'prev-action-3'
p2478
tp2479
F-0.3491834136055778
s(g1942
S'prev-action-3'
p2480
tp2481
F-0.19863344924311913
s(S'diff-x-pos--78'
p2482
S'action-3'
p2483
tp2484
F-5.63655539420773
s(g150
S'prev-action-1'
p2485
tp2486
F-1.3560304843974476
s(g1689
S'action-4'
p2487
tp2488
F5.455634323624944
s(S'diff-x-pos-31'
p2489
S'prev-action-3'
p2490
tp2491
F3.3700365791166598
s(S'diff-x-pos--47'
p2492
S'action-3'
p2493
tp2494
F-4.4690639760984086
s(S'object-0-dx--1'
p2495
g205
tp2496
F2.47667578874913
s(S'diff-x-pos--118'
p2497
S'action-3'
p2498
tp2499
F-4.383098109035419
s(g653
g816
tp2500
F-1.2971293818078946
s(g1767
S'prev-action-4'
p2501
tp2502
F1.554197262406722
s(g1744
S'action-1'
p2503
tp2504
F-3.131437898324276
s(g1679
S'action-4'
p2505
tp2506
F-1.9103995719293225
s(S'diff-x-pos-68'
p2507
S'action-4'
p2508
tp2509
F-1.0990784935674598
s(g334
S'action-4'
p2510
tp2511
F0.4870702471801816
sg2034
F-0.18616546435966663
s(g1032
S'prev-action-3'
p2512
tp2513
F-1.7353693559641294
s(S'diff-x-pos--49'
p2514
S'action-1'
p2515
tp2516
F0.4451455479071065
s(g490
S'action-3'
p2517
tp2518
F6.734221817064079
s(g94
S'action-3'
p2519
tp2520
F-0.7170829489808864
s(S'diff-x-pos-56'
p2521
S'action-1'
p2522
tp2523
F-1.9924548310160275
s(S'diff-x-pos-26'
p2524
S'action-1'
p2525
tp2526
F-1.8883691702713516
s(S'diff-x-pos-65'
p2527
S'prev-action-1'
p2528
tp2529
F-0.0062368526906497745
sg252
F2.8671170269301425
s(g1580
S'action-3'
p2530
tp2531
F-8.260519129630124
s(g938
S'prev-action-4'
p2532
tp2533
F3.096663498914437
sg1780
F0.45200061140452674
s(g423
S'prev-action-4'
p2534
tp2535
F-0.2530178109546969
s(S'diff-x-pos-25'
p2536
S'prev-action-1'
p2537
tp2538
F0.32723794871070955
s(S'diff-x-pos--78'
p2539
S'action-4'
p2540
tp2541
F3.3846688210218314
s(S'diff-x-pos--44'
p2542
S'prev-action-3'
p2543
tp2544
F0.9948090066668533
s(S'diff-x-pos--62'
p2545
S'action-4'
p2546
tp2547
F3.6979333335673803
s(S'diff-x-pos--92'
p2548
S'prev-action-1'
p2549
tp2550
F1.4698027580650677
sg194
F0.8529915192945119
s(S'diff-x-pos-59'
p2551
S'action-3'
p2552
tp2553
F9.317220478365636
s(S'diff-x-pos-41'
p2554
S'action-3'
p2555
tp2556
F9.707468254927795
s(S'diff-x-pos--117'
p2557
S'prev-action-3'
p2558
tp2559
F-0.6401295557298738
s(g1491
S'action-4'
p2560
tp2561
F-7.756312893965727
s(g806
g1395
tp2562
F-4.179660040331342
s(S'diff-x-pos--29'
p2563
S'prev-action-1'
p2564
tp2565
F0.8354784877013587
s(S'diff-x-pos--118'
p2566
S'action-4'
p2567
tp2568
F0.1970355969434916
s(g2557
S'action-4'
p2569
tp2570
F4.667446182433887
s(S'diff-x-pos-5'
p2571
S'action-1'
p2572
tp2573
F0.5359605189281842
s(g1249
S'prev-action-4'
p2574
tp2575
F1.4703787890177902
s(g331
S'prev-action-1'
p2576
tp2577
F-0.41286963478771455
s(g964
S'prev-action-1'
p2578
tp2579
F-1.0614287217674392
s(g1594
S'action-4'
p2580
tp2581
F5.8610593331676455
s(g423
S'action-1'
p2582
tp2583
F3.8824487510985533
s(S'diff-x-pos--113'
p2584
S'prev-action-4'
p2585
tp2586
F1.4790761208515448
s(g2103
S'action-1'
p2587
tp2588
F-0.3389438893685337
s(g237
S'action-1'
p2589
tp2590
F-0.4670507278599001
s(g1655
S'action-3'
p2591
tp2592
F-7.625507544847339
s(g332
g2004
tp2593
F-5.525227764516565
s(g1747
S'prev-action-3'
p2594
tp2595
F-1.3090031929261268
sg771
F1.4373155544114442
s(S'diff-x-pos-22'
p2596
S'action-3'
p2597
tp2598
F7.701158591592233
s(g1572
S'prev-action-4'
p2599
tp2600
F0.9494941121897831
s(g409
g144
tp2601
F0.019138231052150068
s(S'diff-x-pos--50'
p2602
S'prev-action-1'
p2603
tp2604
F-0.14570682717280237
s(S'diff-x-pos--110'
p2605
S'action-1'
p2606
tp2607
F-0.9255261868975344
sS'object-1-y-0.0'
p2608
F2.2615055309547767
s(g431
S'prev-action-1'
p2609
tp2610
F-0.8959461625335948
s(g1625
S'prev-action-4'
p2611
tp2612
F-0.16102040034731555
s(g2422
S'prev-action-3'
p2613
tp2614
F1.353334664945538
s(g1443
g2092
tp2615
F-1.8997060356365052
s(S'diff-x-pos--64'
p2616
S'prev-action-1'
p2617
tp2618
F-0.5754018527191909
s(S'diff-x-pos--101'
p2619
S'prev-action-3'
p2620
tp2621
F-3.660381041638574
s(S'diff-x-pos--89'
p2622
S'prev-action-3'
p2623
tp2624
F-1.209587891148129
s(S'diff-x-pos--59'
p2625
S'action-1'
p2626
tp2627
F0.7256450644435133
s(g1099
S'action-3'
p2628
tp2629
F-5.35326156459838
s(g1969
g2033
tp2630
F0.06759106343294924
sg58
F-2.598503759999579
s(g2357
S'action-4'
p2631
tp2632
F3.772797760070724
sg1689
F-1.7291322983178357
s(g1863
S'action-1'
p2633
tp2634
F-0.02513625087575333
s(S'diff-x-pos--108'
p2635
S'prev-action-1'
p2636
tp2637
F1.2796100421714611
s(S'diff-x-pos--48'
p2638
S'action-4'
p2639
tp2640
F4.899620310734272
s(S'diff-x-pos--53'
p2641
S'prev-action-1'
p2642
tp2643
F-3.015525378414028
s(g1854
S'prev-action-4'
p2644
tp2645
F1.5705508450576022
s(g188
S'action-3'
p2646
tp2647
F4.757472373007934
s(g2170
S'prev-action-4'
p2648
tp2649
F1.5014007924285386
s(S'diff-x-pos-67'
p2650
S'action-3'
p2651
tp2652
I1
s(S'diff-x-pos--1'
p2653
S'action-1'
p2654
tp2655
F1.661726992281293
sg2170
F-1.473036350537626
sg919
F-2.1575204467414206
s(g1716
S'action-3'
p2656
tp2657
F-3.406658952061636
s(g949
S'action-4'
p2658
tp2659
F-6.975542188201766
s(S'diff-x-pos--91'
p2660
S'action-3'
p2661
tp2662
F-9.066492157563198
s(S'diff-x-pos--99'
p2663
S'prev-action-1'
p2664
tp2665
F-1.1311637127502485
s(g839
S'prev-action-3'
p2666
tp2667
F1.5007098764428135
s(g836
S'action-3'
p2668
tp2669
F4.0803758177293545
s(g2285
S'action-3'
p2670
tp2671
F9.348755808304913
s(g372
S'prev-action-1'
p2672
tp2673
F0.8355700550339509
s(g1942
S'action-4'
p2674
tp2675
F8.183334821039393
s(g2238
S'prev-action-3'
p2676
tp2677
F1.626589932336725
s(S'diff-x-pos--119'
p2678
S'action-1'
p2679
tp2680
F-0.7418586100881939
s(S'diff-x-pos--114'
p2681
S'action-3'
p2682
tp2683
F-8.20932207493224
s(g91
S'prev-action-3'
p2684
tp2685
F-1.687359391379863
s(S'diff-x-pos--47'
p2686
S'prev-action-4'
p2687
tp2688
F-0.5102744766032232
s(g961
S'action-3'
p2689
tp2690
F-7.769338276269105
s(S'diff-x-pos--121'
p2691
S'prev-action-1'
p2692
tp2693
F-0.5614455114649552
s(S'diff-x-pos--12'
p2694
S'prev-action-4'
p2695
tp2696
F2.004433557629235
s(g803
S'action-3'
p2697
tp2698
F-3.9258394742480833
s(S'diff-x-pos--82'
p2699
S'prev-action-3'
p2700
tp2701
F-4.809398077013709
s(g851
S'action-1'
p2702
tp2703
F-1.5740089487836098
s(S'diff-x-pos--5'
p2704
S'prev-action-1'
p2705
tp2706
F-2.6923919505337115
s(g2387
S'action-1'
p2707
tp2708
F0.7547904126897332
s(g708
S'prev-action-4'
p2709
tp2710
F-2.4392359542644653
s(g2249
S'prev-action-3'
p2711
tp2712
F-1.9385308857309376
s(g995
g983
tp2713
F-1.2019003419774812
sg36
F6.335636274221877
s(g925
S'action-4'
p2714
tp2715
F11.734208791162862
s(S'diff-x-pos--48'
p2716
S'prev-action-3'
p2717
tp2718
F0.5218978927269875
s(g1583
S'prev-action-4'
p2719
tp2720
F-0.5231733930058055
s(S'diff-x-pos-53'
p2721
S'action-3'
p2722
tp2723
F13.853040593358594
s(S'diff-x-pos-31'
p2724
S'action-4'
p2725
tp2726
F-5.899635828323243
s(g2336
S'prev-action-1'
p2727
tp2728
F1.7814756192848784
s(S'diff-x-pos--16'
p2729
S'prev-action-3'
p2730
tp2731
F-0.31967220871301383
s(g670
S'action-1'
p2732
tp2733
F-3.0307211407424592
s(g741
S'prev-action-3'
p2734
tp2735
F0.554073908299827
s(g887
S'action-3'
p2736
tp2737
F7.977613887369432
s(S'diff-x-pos-62'
p2738
S'action-3'
p2739
tp2740
F4.582916671944
s(S'object-1-dx-1'
p2741
g541
tp2742
F-1.7551814749250814
s(g420
g1708
tp2743
F0.7212707890633632
s(S'diff-x-pos-23'
p2744
S'action-3'
p2745
tp2746
F7.425480460320335
s(S'diff-x-pos-16'
p2747
S'action-3'
p2748
tp2749
F2.527045085043738
s(g1760
S'prev-action-4'
p2750
tp2751
F-0.8105881591354631
s(S'diff-x-pos--1'
p2752
S'prev-action-4'
p2753
tp2754
F-1.9504364730237993
s(g1253
S'action-3'
p2755
tp2756
F-8.14209563401811
s(S'diff-x-pos--111'
p2757
S'prev-action-1'
p2758
tp2759
F-1.4119213711161311
s(S'diff-x-pos--57'
p2760
S'action-1'
p2761
tp2762
F-0.31729776555991895
s(g722
S'action-1'
p2763
tp2764
F2.0462375534094646
sS'diff-y-pos--5'
p2765
F1.2586150674855991
s(S'diff-x-pos-29'
p2766
S'prev-action-4'
p2767
tp2768
F-1.6806915854802342
s(S'diff-x-pos-24'
p2769
S'prev-action-4'
p2770
tp2771
F-0.419315253041079
s(g514
S'object-0-x-110.0'
p2772
tp2773
F6.43310623698192
s(g713
S'action-1'
p2774
tp2775
F-3.122512791717357
sg1077
F-1.8802424661288093
sg2442
F0.8464813322529422
s(S'diff-x-pos-67'
p2776
S'prev-action-3'
p2777
tp2778
F0.08209133901603138
sg1716
F-0.5386945048738734
sg961
F-2.3981070859863003
sg2238
F-1.0624775263353294
sg2373
F-1.042885296971966
sg670
F0.48338272748154965
s(g2760
S'prev-action-3'
p2779
tp2780
F0.8736967344613518
s(S'diff-x-pos--111'
p2781
S'action-3'
p2782
tp2783
F-10.040706610673707
sg1655
F0.1395386643206047
s(S'diff-x-pos--108'
p2784
S'action-1'
p2785
tp2786
F4.085590396807529
s(S'diff-x-pos-47'
p2787
S'action-3'
p2788
tp2789
F10.445494713063507
s(g424
S'prev-action-1'
p2790
tp2791
F-0.2722148695122061
s(g332
S'prev-action-4'
p2792
tp2793
F-2.3763332396332335
s(S'action-1'
p2794
g1416
tp2795
F0.7605658343319208
s(S'diff-x-pos-62'
p2796
S'prev-action-1'
p2797
tp2798
F1.8134862533599738
s(S'diff-x-pos-32'
p2799
S'prev-action-1'
p2800
tp2801
F3.910077720049479
s(g676
S'action-1'
p2802
tp2803
F0.029886753799030913
s(g821
S'prev-action-4'
p2804
tp2805
F1.383928649896502
s(S'diff-x-pos--54'
p2806
S'action-4'
p2807
tp2808
F3.5379283707267746
s(g849
S'prev-action-3'
p2809
tp2810
F-0.29723583598158543
s(g851
S'prev-action-1'
p2811
tp2812
F-0.34285686721378994
s(S'diff-x-pos-32'
p2813
S'action-4'
p2814
tp2815
F-6.03549017410561
s(g655
S'action-1'
p2816
tp2817
F-2.2001967279670316
s(g577
S'prev-action-4'
p2818
tp2819
F0.29740822463969474
s(S'diff-x-pos-20'
p2820
S'action-4'
p2821
tp2822
F-6.805081410838604
s(g795
S'action-4'
p2823
tp2824
F-8.267339517084645
s(g2193
S'prev-action-3'
p2825
tp2826
F0.27260623546927915
s(S'diff-x-pos--110'
p2827
S'prev-action-1'
p2828
tp2829
F-0.9030296546071743
s(g1170
S'prev-action-3'
p2830
tp2831
F-0.5319226627386677
s(S'diff-x-pos--29'
p2832
S'action-4'
p2833
tp2834
F0.655011859427266
s(S'diff-x-pos--74'
p2835
S'action-4'
p2836
tp2837
F3.033658442290707
s(g427
S'prev-action-1'
p2838
tp2839
F-0.1817797643734631
sS'diff-y-pos--6'
p2840
F1.1721435893079213
s(g173
S'action-3'
p2841
tp2842
F-11.354609152777591
s(g2699
S'action-1'
p2843
tp2844
F-0.4481866464479291
s(g621
S'action-1'
p2845
tp2846
F-4.03020341141375
s(S'diff-x-pos--23'
p2847
S'action-3'
p2848
tp2849
F0.5824066503864485
s(S'diff-x-pos--103'
p2850
S'prev-action-1'
p2851
tp2852
F-1.1331289770978066
s(S'diff-x-pos--121'
p2853
S'action-3'
p2854
tp2855
F-1.8472177665263552
s(g2584
S'action-4'
p2856
tp2857
F6.59765054969136
s(g453
S'prev-action-3'
p2858
tp2859
F-2.3677965962234397
s(S'diff-x-pos-13'
p2860
S'action-3'
p2861
tp2862
F5.478731398958436
s(S'diff-x-pos--73'
p2863
S'prev-action-1'
p2864
tp2865
F0.20849048604213027
s(g1368
g245
tp2866
F1.8767869987558354
s(g2724
S'prev-action-1'
p2867
tp2868
F0.06226100891806319
s(g263
g1272
tp2869
F-0.7331379724702902
sg1660
F-0.9358795349320843
s(g589
S'action-1'
p2870
tp2871
F-1.4907623633922384
s(S'diff-x-pos-5'
p2872
S'prev-action-1'
p2873
tp2874
F0.6562090727134553
s(S'diff-x-pos--94'
p2875
S'prev-action-4'
p2876
tp2877
F-0.8042237645713028
s(g1849
S'action-1'
p2878
tp2879
F1.2206172123192915
s(S'diff-x-pos--104'
p2880
S'action-3'
p2881
tp2882
F-8.556642506534685
s(S'diff-x-pos--70'
p2883
S'action-1'
p2884
tp2885
F-3.6000090665870172
s(S'diff-x-pos--88'
p2886
S'prev-action-4'
p2887
tp2888
F-0.3350856615043656
sS'object-0-dy--1'
p2889
F-1.6166625458118602
s(g1877
S'action-4'
p2890
tp2891
F-2.6484187178572345
s(S'diff-x-pos-41'
p2892
S'prev-action-3'
p2893
tp2894
F1.5237610115795799
s(S'diff-x-pos-59'
p2895
S'prev-action-3'
p2896
tp2897
F0.8028864471958584
s(S'diff-x-pos-52'
p2898
S'prev-action-1'
p2899
tp2900
F-1.616627059318024
s(g1448
S'prev-action-1'
p2901
tp2902
F-1.299451225083015
s(g2016
S'prev-action-4'
p2903
tp2904
F-0.9388874576614136
s(g1167
S'action-4'
p2905
tp2906
F4.489376014867885
s(S'diff-x-pos--78'
p2907
S'prev-action-4'
p2908
tp2909
F-0.5650390243836837
s(S'diff-x-pos-66'
p2910
S'action-4'
p2911
tp2912
F-0.7719000472580562
sg1285
F-0.3513094260670613
s(S'diff-x-pos-15'
p2913
S'action-4'
p2914
tp2915
F-5.3369736096815945
s(g699
S'prev-action-4'
p2916
tp2917
F-1.3711172907580376
s(g2246
S'prev-action-4'
p2918
tp2919
F-0.21611956816884773
s(g1106
S'prev-action-3'
p2920
tp2921
F1.2340284880241896
s(g842
S'prev-action-4'
p2922
tp2923
F-1.556788010999484
s(g2691
S'action-4'
p2924
tp2925
F-0.5454055013807979
s(g1282
S'action-1'
p2926
tp2927
F1.2464396299817708
sg2122
F13.519741048416485
s(S'diff-x-pos--84'
p2928
S'prev-action-1'
p2929
tp2930
F-2.8523329260150527
s(g1324
S'object-0-x-70.0'
p2931
tp2932
F3.891286309880524
s(g1249
S'action-1'
p2933
tp2934
F-0.204882596719154
s(g522
S'action-1'
p2935
tp2936
F4.635703865821516
s(g2422
S'action-1'
p2937
tp2938
F2.2124200610941047
s(S'action-3'
p2939
S'object-0-x-60.0'
p2940
tp2941
F4.459269476000593
s(S'diff-x-pos--9'
p2942
S'prev-action-4'
p2943
tp2944
F2.0586076897306786
s(g650
S'action-3'
p2945
tp2946
F5.345441389596751
sg2162
F56.85738624946176
sg1846
F-1.5070039116888594
s(S'diff-x-pos--50'
p2947
S'action-3'
p2948
tp2949
F-1.3048105411379831
s(S'action-4'
p2950
g374
tp2951
F7.026786215109444
s(g1192
S'action-1'
p2952
tp2953
F2.3083649140717757
s(S'diff-x-pos--25'
p2954
S'action-3'
p2955
tp2956
F1.2990414735395912
s(S'diff-x-pos--66'
p2957
S'prev-action-1'
p2958
tp2959
F-0.1247137434350315
sg2157
F2.0664815657594144
s(g624
S'action-4'
p2960
tp2961
F-7.654890443972302
s(S'diff-x-pos--75'
p2962
S'prev-action-1'
p2963
tp2964
F0.07669754710102039
s(S'diff-x-pos--43'
p2965
S'action-3'
p2966
tp2967
F-1.0053451201724952
s(S'diff-x-pos-11'
p2968
S'prev-action-3'
p2969
tp2970
F0.7887490825380468
s(g2507
S'prev-action-1'
p2971
tp2972
F-1.656485675499053
s(g1968
S'action-1'
p2973
tp2974
F-2.000226103474652
s(g2033
g2184
tp2975
F4.286741302364137
s(g855
S'action-4'
p2976
tp2977
F-0.9603970209125193
s(g658
S'prev-action-4'
p2978
tp2979
F-1.9938544348949214
s(S'diff-x-pos--42'
p2980
S'prev-action-1'
p2981
tp2982
F-0.5208084127255876
s(S'diff-x-pos--117'
p2983
S'action-1'
p2984
tp2985
F1.5089308442064926
s(g2752
S'action-4'
p2986
tp2987
F-1.9875746505528546
s(g431
S'action-4'
p2988
tp2989
F-6.438668552716302
s(S'diff-x-pos-36'
p2990
S'prev-action-3'
p2991
tp2992
F-0.11152819018060636
s(S'diff-x-pos--92'
p2993
S'action-3'
p2994
tp2995
F-7.190657126924757
s(g1846
S'action-4'
p2996
tp2997
F-4.345879161894728
s(S'action-3'
p2998
g205
tp2999
F15.88718080763573
s(S'diff-x-pos--103'
p3000
S'action-4'
p3001
tp3002
F7.12533139267472
s(g2527
g2390
tp3003
F0.40719374971469335
s(g428
S'prev-action-3'
p3004
tp3005
F2.309275031152393
s(S'diff-x-pos-56'
p3006
S'prev-action-3'
p3007
tp3008
F2.206001446885225
s(g2744
S'prev-action-1'
p3009
tp3010
F0.871820657544184
s(S'diff-x-pos--69'
p3011
S'action-1'
p3012
tp3013
F-4.313096813871917
s(S'diff-x-pos--46'
p3014
S'prev-action-1'
p3015
tp3016
F-2.7683786678945603
s(g606
S'prev-action-3'
p3017
tp3018
F0.3404913554501765
s(g1978
S'action-1'
p3019
tp3020
F-1.691492153637287
s(S'diff-x-pos--37'
p3021
S'action-3'
p3022
tp3023
F-3.7928026316263304
s(g1795
g1221
tp3024
F-0.3589682083846405
s(g2582
S'object-1-x-60.0'
p3025
tp3026
F-0.8100071388967494
s(g2393
S'action-1'
p3027
tp3028
F1.4515113492024079
s(g2089
S'prev-action-3'
p3029
tp3030
F0.7302542122569493
s(g1130
S'action-3'
p3031
tp3032
F3.283996164957761
s(S'diff-x-pos--55'
p3033
S'action-3'
p3034
tp3035
F-5.429044600522692
s(g1062
S'prev-action-4'
p3036
tp3037
F1.8865395925310706
s(S'diff-x-pos--118'
p3038
S'prev-action-1'
p3039
tp3040
F-0.8953381972718977
s(g942
S'action-4'
p3041
tp3042
F0.6413926582645333
s(S'diff-x-pos-48'
p3043
S'action-4'
p3044
tp3045
F-8.659235407387094
s(g919
S'prev-action-4'
p3046
tp3047
F0.1170247833182797
s(g1552
S'prev-action-3'
p3048
tp3049
F1.4574510963419682
s(g850
S'prev-action-1'
p3050
tp3051
F1.2835933943573843
s(S'diff-x-pos--107'
p3052
S'action-1'
p3053
tp3054
F-0.5307062675811925
s(g2373
S'action-3'
p3055
tp3056
F-3.2012463638581066
sg2584
F-1.7772266345065901
s(S'diff-x-pos--28'
p3057
g279
tp3058
F1.018402176879569
s(g1995
S'prev-action-4'
p3059
tp3060
F0.04578523773339649
sg1238
F-0.5080299928406731
sg716
F-0.6838492238818608
s(S'diff-x-pos--92'
p3061
S'action-4'
p3062
tp3063
F6.802837917914487
s(g1474
S'prev-action-1'
p3064
tp3065
F0.47251530068677844
s(S'diff-x-pos-1'
p3066
S'action-1'
p3067
tp3068
F-2.111484616085257
s(g1324
g1052
tp3069
F1.460860264971443
s(S'action-3'
p3070
S'object-0-x-120.0'
p3071
tp3072
F-3.2036524602206384
s(g2784
S'prev-action-4'
p3073
tp3074
F-1.277915757677855
s(g1269
S'prev-action-4'
p3075
tp3076
F0.3466692456569295
s(g337
S'prev-action-4'
p3077
tp3078
F1.3956410043541458
sg876
F16.058282750402835
s(S'diff-x-pos-7'
p3079
S'action-3'
p3080
tp3081
F3.6399696756517326
s(g1341
S'prev-action-1'
p3082
tp3083
F0.4882061508079778
s(S'diff-x-pos--32'
p3084
S'action-1'
p3085
tp3086
F0.7383192351832162
s(S'diff-x-pos--68'
p3087
S'prev-action-1'
p3088
tp3089
F-1.2873279672077398
s(S'diff-x-pos--60'
p3090
S'action-3'
p3091
tp3092
F-5.51675216957623
s(g2016
S'action-3'
p3093
tp3094
F10.533874701041896
s(g1448
S'action-4'
p3095
tp3096
F6.996032755578008
sg2249
F-2.816467352331659
sg493
F0.7602594301992147
s(S'diff-x-pos-36'
p3097
S'action-4'
p3098
tp3099
F-5.86809471853933
sg827
F-0.8169881460562125
s(g1480
S'action-4'
p3100
tp3101
F-8.441417051335474
s(g1780
S'prev-action-3'
p3102
tp3103
F1.503290928434187
sg551
F16.98486497229445
s(S'diff-x-pos-3'
p3104
S'action-1'
p3105
tp3106
F-0.4678193385978227
s(S'diff-x-pos--88'
p3107
S'action-3'
p3108
tp3109
F-7.362201497517965
s(S'diff-x-pos--120'
p3110
S'prev-action-1'
p3111
tp3112
F-0.7002050427358502
s(g2883
S'prev-action-4'
p3113
tp3114
F-2.108279981482867
s(S'diff-x-pos-44'
p3115
S'prev-action-4'
p3116
tp3117
F-1.8909346915459317
s(S'diff-x-pos--60'
p3118
S'prev-action-1'
p3119
tp3120
F-1.288235376350889
s(S'diff-x-pos-34'
p3121
S'action-3'
p3122
tp3123
F7.72143013807854
s(S'diff-x-pos-19'
p3124
S'action-1'
p3125
tp3126
F-0.44163691880724676
s(S'diff-x-pos--73'
p3127
S'action-4'
p3128
tp3129
F6.200923869495283
sS'object-0-x-30.0'
p3130
F14.440808182712848
s(g426
S'action-3'
p3131
tp3132
F4.2217878808657625
s(g313
S'prev-action-3'
p3133
tp3134
F0.759616095540981
s(S'diff-x-pos--5'
p3135
S'action-1'
p3136
tp3137
F-0.2933814154617542
s(S'diff-x-pos--45'
p3138
S'action-4'
p3139
tp3140
F-0.6981272784399244
s(g3066
S'prev-action-3'
p3141
tp3142
F0.7579648134347088
s(g1880
S'action-3'
p3143
tp3144
F9.875143355238343
sg456
F53.19625048842047
sg360
F55.33085576567897
sg1221
F56.51290906878436
s(g1872
S'action-4'
p3145
tp3146
F-1.4312293926462207
s(g2835
S'prev-action-3'
p3147
tp3148
F-1.9831062511488664
s(g1250
S'prev-action-1'
p3149
tp3150
F-1.0564791266928806
sS'object-1-y-20.0'
p3151
F-1.7550103977981624
s(g2103
S'prev-action-3'
p3152
tp3153
F0.5526018723272621
s(g1860
S'prev-action-3'
p3154
tp3155
F-0.5307894675911431
sS'diff-y-pos--11'
p3156
F4.938521790329162
sS'diff-y-pos--10'
p3157
F0.7633554729808872
sS'diff-y-pos--12'
p3158
F1.517945172301717
s(S'diff-x-pos-0'
p3159
S'action-3'
p3160
tp3161
F3.462709435637538
s(g392
S'prev-action-4'
p3162
tp3163
F0.4547429643359241
sg2835
F-3.057168034246336
s(S'action-3'
p3164
g3130
tp3165
F11.11473328000741
s(g2229
S'action-4'
p3166
tp3167
F-1.0829847978580416
s(g1552
S'action-3'
p3168
tp3169
F10.31814534968918
s(S'diff-x-pos--93'
p3170
S'prev-action-4'
p3171
tp3172
F-1.8843374113865217
s(S'diff-x-pos--33'
p3173
S'action-4'
p3174
tp3175
F-0.5326070869489066
s(g2316
S'action-4'
p3176
tp3177
F8.749749945532583
s(g1754
S'action-1'
p3178
tp3179
F-3.106524044879981
s(g733
S'object-1-x-60.0'
p3180
tp3181
F1.1758511011877717
s(g1829
S'action-1'
p3182
tp3183
F0.00034129302825025576
s(g2796
S'action-4'
p3184
tp3185
F-4.805161577570102
s(S'action-4'
p3186
S'object-0-x-80.0'
p3187
tp3188
F6.20388758955587
s(g881
S'action-1'
p3189
tp3190
F-1.8394156187956967
s(g335
S'action-4'
p3191
tp3192
F2.7395203202747473
s(S'diff-x-pos--14'
p3193
S'action-1'
p3194
tp3195
F1.5543926878194672
s(S'diff-x-pos--112'
p3196
S'prev-action-1'
p3197
tp3198
F-1.2742103052340081
s(S'diff-x-pos--4'
p3199
S'prev-action-3'
p3200
tp3201
F1.3310743264525462
s(g254
S'action-1'
p3202
tp3203
F0.7358014728356301
s(g949
S'prev-action-1'
p3204
tp3205
F2.3027114268418933
s(S'diff-x-pos--119'
p3206
S'prev-action-1'
p3207
tp3208
F-0.39365393547510075
s(S'diff-x-pos-57'
p3209
S'action-3'
p3210
tp3211
F10.44508099037779
s(g952
S'prev-action-3'
p3212
tp3213
F0.24894340537832016
s(g1805
g35
tp3214
F-1.1222045022165896
s(S'diff-x-pos--17'
p3215
S'prev-action-3'
p3216
tp3217
F0.8614088333879009
sg1849
F1.0677418551609712
sg55
F1.8893898443745862
s(g528
S'object-0-x-100.0'
p3218
tp3219
F-2.181088892086932
s(g2622
S'action-1'
p3220
tp3221
F-3.152069136055675
sg1877
F1.8267509937240964
s(g228
S'action-1'
p3222
tp3223
F1.8622211668795878
s(g287
S'prev-action-4'
p3224
tp3225
F1.1690150173573173
sg2752
F-0.07009840043819371
s(g170
S'prev-action-1'
p3226
tp3227
F-1.3071546633189512
s(g827
S'action-4'
p3228
tp3229
F1.5315367915995524
s(g1943
S'prev-action-3'
p3230
tp3231
F-2.3696892622223795
sg653
F1.5285818083930787
sg91
F-2.754893407020861
sg352
F-1.1742817118715838
s(S'diff-x-pos--36'
p3232
S'prev-action-3'
p3233
tp3234
F-0.4483988170946843
s(g1766
S'prev-action-1'
p3235
tp3236
F-1.7722013748212628
s(S'diff-x-pos--87'
p3237
S'action-4'
p3238
tp3239
F5.651862995800872
s(g426
S'prev-action-4'
p3240
tp3241
F-0.387500676216493
sg496
F0.03320393305969399
sg2193
F-2.720311055969335
s(g432
S'prev-action-4'
p3242
tp3243
F1.3083193288774515
s(S'diff-x-pos--40'
p3244
S'prev-action-3'
p3245
tp3246
F0.9470973475572284
s(g901
S'action-3'
p3247
tp3248
F-10.660238588434705
sg2957
F0.12342587083753759
s(g2820
S'prev-action-3'
p3249
tp3250
F-0.03508322748571013
s(S'diff-x-pos--41'
p3251
S'prev-action-4'
p3252
tp3253
F2.4407301102529804
s(g135
S'action-1'
p3254
tp3255
F-1.9226292520611843
s(g2957
g1065
tp3256
F-5.026707987073096
s(g2942
S'action-1'
p3257
tp3258
F-1.971240510379925
s(S'diff-x-pos--85'
p3259
S'action-4'
p3260
tp3261
F7.144332148393599
s(S'diff-x-pos--63'
p3262
S'prev-action-4'
p3263
tp3264
F0.2165614731992873
s(g2913
S'prev-action-4'
p3265
tp3266
F-1.5066834620798908
s(S'diff-x-pos--59'
p3267
S'prev-action-1'
p3268
tp3269
F-2.2529217816049543
sg1805
F0.4339154926121487
sg540
F0.7917608089385569
s(g977
S'prev-action-3'
p3270
tp3271
F1.2114405852692887
sg1823
F0.10123269297454274
s(g633
S'action-3'
p3272
tp3273
F-11.52131740391884
sg2046
F0.5086087878516008
sg147
F-0.566780565803814
sg188
F0.9588025308433865
s(g2848
S'object-0-x-50.0'
p3274
tp3275
F6.299557041306976
sg1014
F2.7838504460782114
sg699
F1.4399612487947482
sg1900
F11.918700335255053
s(S'diff-x-pos-13'
p3276
S'action-4'
p3277
tp3278
F-3.801714116964497
s(S'diff-x-pos--65'
p3279
S'prev-action-3'
p3280
tp3281
F0.868286886950973
s(g2277
g1324
tp3282
F0.09584950467570857
s(g2781
S'prev-action-3'
p3283
tp3284
F-2.0973874408075135
s(S'diff-x-pos--30'
p3285
S'action-3'
p3286
tp3287
F-1.5132909590866988
s(g2157
S'prev-action-4'
p3288
tp3289
F1.1394096106828093
s(g583
S'action-4'
p3290
tp3291
F10.642621938888656
s(g942
S'prev-action-3'
p3292
tp3293
F1.0126317723898126
s(S'diff-x-pos--19'
p3294
S'action-4'
p3295
tp3296
F0.13848095508189617
s(S'diff-x-pos-49'
p3297
S'action-3'
p3298
tp3299
F8.590058407491858
s(S'diff-x-pos--107'
p3300
S'prev-action-1'
p3301
tp3302
F1.462660983744623
s(g1256
S'action-3'
p3303
tp3304
F-9.578719762831897
s(S'diff-x-pos--27'
p3305
S'action-3'
p3306
tp3307
F-2.259186012306457
s(S'diff-x-pos--18'
p3308
S'prev-action-3'
p3309
tp3310
F-1.52197692045914
s(g2990
S'action-1'
p3311
tp3312
F-2.2746970199237473
s(g938
S'action-1'
p3313
tp3314
F2.3037788227517524
s(g1294
S'action-4'
p3315
tp3316
F-3.3282232702049206
s(S'diff-x-pos-23'
p3317
S'action-4'
p3318
tp3319
F-4.169626906469149
s(g1646
S'action-4'
p3320
tp3321
F-6.107987006273021
s(S'diff-x-pos--98'
p3322
S'prev-action-3'
p3323
tp3324
F-0.17671934909578862
s(g2181
S'action-4'
p3325
tp3326
F-0.1507248994224616
s(g540
S'prev-action-1'
p3327
tp3328
F-1.4043271600951261
s(S'diff-x-pos-50'
p3329
S'action-4'
p3330
tp3331
F-10.655151843352343
s(g2580
S'object-1-x-110.0'
p3332
tp3333
F3.6113970241144973
s(S'diff-x-pos--66'
p3334
S'action-4'
p3335
tp3336
F4.8594204349084835
stp3337
Rp3338
.