ccollections
Counter
p0
((dp1
(S'diff-x-pos--89'
p2
S'action-4'
p3
tp4
F7.378307808604011
s(S'diff-x-pos-47'
p5
S'prev-action-1'
p6
tp7
F2.949733004819691
s(S'diff-x-pos--94'
p8
S'action-3'
p9
tp10
F-8.309257244360486
s(S'diff-x-pos--1'
p11
S'prev-action-1'
p12
tp13
F0.31348202636637
s(S'diff-x-pos-2'
p14
S'prev-action-3'
p15
tp16
F0.15436554482214349
s(S'diff-x-pos--7'
p17
S'prev-action-1'
p18
tp19
F-2.1552949923938054
s(S'diff-x-pos--27'
p20
S'action-4'
p21
tp22
F2.7111486383481718
s(S'diff-x-pos-40'
p23
S'action-3'
p24
tp25
F11.598965469759106
s(S'diff-x-pos-54'
p26
S'action-1'
p27
tp28
F0.3115833498123146
s(S'diff-x-pos--43'
p29
S'prev-action-4'
p30
tp31
F1.4901111850169793
s(S'diff-x-pos--96'
p32
S'prev-action-4'
p33
tp34
F-1.107334784111037
s(S'action-4'
p35
S'object-1-x-60.0'
p36
tp37
F2.894589069362012
s(S'diff-x-pos--35'
p38
S'action-3'
p39
tp40
F-4.432562992312949
s(S'diff-x-pos--25'
p41
S'prev-action-4'
p42
tp43
F0.2982192082937187
s(S'diff-x-pos--75'
p44
S'prev-action-4'
p45
tp46
F2.430897938239618
s(S'diff-x-pos-43'
p47
S'prev-action-4'
p48
tp49
F2.10550934628468
s(S'diff-x-pos--26'
p50
S'prev-action-1'
p51
tp52
F0.4826183083583169
s(g23
S'prev-action-1'
p53
tp54
F-0.8059315194142824
s(S'diff-x-pos--7'
p55
S'action-3'
p56
tp57
F3.2668387052142416
s(S'diff-x-pos--61'
p58
S'action-3'
p59
tp60
F-4.496630853635635
s(S'action-4'
p61
S'object-1-x-80.0'
p62
tp63
F5.236418268327126
s(S'diff-x-pos-21'
p64
S'prev-action-1'
p65
tp66
F-0.04569351345090289
s(S'diff-x-pos-33'
p67
S'prev-action-4'
p68
tp69
F1.195195618412707
s(S'diff-x-pos-69'
p70
S'prev-action-4'
p71
tp72
F-0.6322739989759896
s(S'diff-x-pos-17'
p73
S'action-1'
p74
tp75
F0.8645982453454067
s(S'diff-x-pos-37'
p76
S'action-4'
p77
tp78
F-6.709375353981054
s(S'diff-x-pos--13'
p79
S'action-4'
p80
tp81
F-2.948099723198613
s(S'diff-x-pos-9'
p82
S'action-3'
p83
tp84
F5.381764398993087
s(S'diff-x-pos--98'
p85
S'action-1'
p86
tp87
F-0.2738985513307659
s(S'action-3'
p88
S'object-1-x-80.0'
p89
tp90
F-3.8289885807100497
s(S'diff-x-pos--69'
p91
S'action-4'
p92
tp93
F7.957330959300439
s(S'diff-x-pos--46'
p94
S'prev-action-4'
p95
tp96
F-1.7194813344334603
s(S'diff-x-pos--49'
p97
S'prev-action-4'
p98
tp99
F1.072441422259983
s(S'diff-x-pos-25'
p100
S'action-4'
p101
tp102
F-5.497725728446975
s(S'diff-x-pos-66'
p103
S'prev-action-3'
p104
tp105
F-0.17023872788893613
s(S'action-4'
p106
S'object-0-x-120.0'
p107
tp108
F7.54719885231038
s(S'diff-x-pos--13'
p109
S'prev-action-4'
p110
tp111
F0.8867297473274536
s(S'diff-x-pos--37'
p112
S'action-4'
p113
tp114
F2.743083523751052
s(g20
S'prev-action-1'
p115
tp116
F1.719699363308858
s(S'diff-x-pos-63'
p117
S'prev-action-3'
p118
tp119
F0.466626460036602
s(S'diff-x-pos-52'
p120
S'action-4'
p121
tp122
F-7.045103483287468
s(S'diff-x-pos-59'
p123
S'action-4'
p124
tp125
F-6.086577734656246
s(S'diff-x-pos--55'
p126
S'action-4'
p127
tp128
F5.146894092435522
s(S'diff-x-pos--31'
p129
S'action-1'
p130
tp131
F-1.3240998927347305
s(S'diff-x-pos-48'
p132
S'action-1'
p133
tp134
F5.153132328078633
s(S'diff-x-pos-4'
p135
S'prev-action-4'
p136
tp137
F-1.6696947376015179
s(S'diff-x-pos--30'
p138
S'prev-action-1'
p139
tp140
F2.516971225734962
s(S'diff-x-pos--5'
p141
S'action-3'
p142
tp143
F1.6545079654900912
s(S'action-4'
p144
S'object-0-x-50.0'
p145
tp146
F6.405823138454483
s(S'diff-x-pos-3'
p147
S'action-4'
p148
tp149
F-3.8334840090193256
s(S'diff-x-pos-26'
p150
S'action-4'
p151
tp152
F-7.63164213101716
s(S'diff-x-pos--13'
p153
S'action-3'
p154
tp155
F2.8510014599699502
s(g77
S'object-0-x-130.0'
p156
tp157
F-3.9059310540577754
s(S'diff-x-pos--26'
p158
S'action-1'
p159
tp160
F-1.329109330919215
s(S'diff-x-pos--75'
p161
S'action-4'
p162
tp163
F6.46309077504138
s(S'diff-x-pos--23'
p164
S'prev-action-4'
p165
tp166
F-0.3239582146861175
s(S'diff-x-pos-37'
p167
S'action-3'
p168
tp169
F12.185915797831631
s(S'diff-x-pos-55'
p170
S'action-4'
p171
tp172
F-12.781201709934692
s(S'diff-x-pos--105'
p173
S'prev-action-4'
p174
tp175
F2.551592513044667
s(S'diff-x-pos--59'
p176
S'action-3'
p177
tp178
F-2.6733298237987513
s(S'object-0-dx-1'
p179
S'prev-action-3'
p180
tp181
F1.476632156815439
s(S'diff-x-pos--39'
p182
S'prev-action-3'
p183
tp184
F3.274087474128819
s(S'diff-x-pos-2'
p185
S'action-3'
p186
tp187
F4.5489276145485995
s(S'diff-x-pos-4'
p188
S'prev-action-3'
p189
tp190
F3.433745953360077
s(S'action-3'
p191
S'object-0-x-40.0'
p192
tp193
F5.825438723038427
s(S'diff-x-pos--3'
p194
S'action-4'
p195
tp196
F-4.031424419720045
sS'object-1-x-120.0'
p197
F1.4672349014320543
s(S'diff-x-pos-3'
p198
S'action-3'
p199
tp200
F4.510398905097809
sS'prev-action-1'
p201
F42.9945808804363
s(S'diff-x-pos--90'
p202
S'prev-action-3'
p203
tp204
F0.5143964937647457
sS'prev-action-3'
p205
F41.24286976765508
s(S'action-3'
p206
S'object-1-x-110.0'
p207
tp208
F-1.8040408026378274
s(S'diff-x-pos-1'
p209
S'prev-action-1'
p210
tp211
F1.3117572021651225
s(S'diff-x-pos--36'
p212
S'action-1'
p213
tp214
F-0.8055132717558923
s(g47
S'action-1'
p215
tp216
F1.0207341955277023
s(S'diff-x-pos--79'
p217
S'action-4'
p218
tp219
F6.014369167214067
s(g38
S'prev-action-4'
p220
tp221
F0.2934735876112341
s(S'diff-x-pos-55'
p222
S'action-3'
p223
tp224
F16.271633530243122
s(S'diff-x-pos-45'
p225
S'prev-action-3'
p226
tp227
F0.9090306180690629
s(S'diff-x-pos--34'
p228
S'prev-action-3'
p229
tp230
F0.04836328769595154
s(S'diff-x-pos-6'
p231
S'prev-action-4'
p232
tp233
F-1.02669652278723
s(S'diff-x-pos--96'
p234
S'action-1'
p235
tp236
F-1.8431798522962495
sS'diff-x-pos--103'
p237
F-1.240117632941559
sS'diff-y-pos-0'
p238
F-4.502768985040499
s(S'diff-x-pos--17'
p239
S'action-1'
p240
tp241
F-0.2793699688397058
s(S'diff-x-pos--100'
p242
S'prev-action-4'
p243
tp244
F-0.6858438238679789
sS'object-1-x-100.0'
p245
F1.043441597151714
s(S'diff-x-pos-2'
p246
S'action-4'
p247
tp248
F-3.6812864075731055
s(S'diff-x-pos-29'
p249
S'action-3'
p250
tp251
F6.704522113459266
s(g195
S'object-1-x-70.0'
p252
tp253
F5.306679946910465
s(S'diff-x-pos-38'
p254
S'prev-action-3'
p255
tp256
F3.81520542500829
s(S'diff-x-pos--4'
p257
S'action-1'
p258
tp259
F-1.350375911790763
s(S'diff-x-pos--112'
p260
S'action-3'
p261
tp262
F-8.190446578363193
sS'object-1-dx--1'
p263
F0.9115701686961225
s(S'diff-x-pos--95'
p264
S'action-4'
p265
tp266
F5.035683408716798
s(S'diff-x-pos--33'
p267
S'action-1'
p268
tp269
F-0.02789758038104664
s(g39
S'object-0-x-90.0'
p270
tp271
F1.1821345041506377
sS'object-1-dy--1'
p272
F0.7092870917198048
s(S'diff-x-pos--51'
p273
S'action-1'
p274
tp275
F-0.7683080920778056
s(S'diff-x-pos--120'
p276
S'action-4'
p277
tp278
F-0.9945905553043267
s(S'action-3'
p279
S'object-1-x-70.0'
p280
tp281
F1.2461541519768893
s(S'action-4'
p282
S'object-0-x-60.0'
p283
tp284
F4.614561159361302
s(g257
S'prev-action-4'
p285
tp286
F-0.7525143347426216
s(S'diff-x-pos--24'
p287
S'action-1'
p288
tp289
F-0.07598187145924407
s(S'diff-x-pos-38'
p290
S'action-4'
p291
tp292
F-6.249685127750045
s(S'diff-x-pos--77'
p293
S'action-4'
p294
tp295
F8.172756367047656
s(S'diff-x-pos-57'
p296
S'action-4'
p297
tp298
F-9.200182741782593
s(S'diff-x-pos-3'
p299
S'prev-action-1'
p300
tp301
F2.579486093028461
s(S'diff-x-pos--97'
p302
S'prev-action-3'
p303
tp304
F-0.3328252259214798
s(g159
S'object-1-x-70.0'
p305
tp306
F-4.759909529505968
s(S'diff-x-pos-35'
p307
S'prev-action-1'
p308
tp309
F0.5963192372939325
s(S'diff-x-pos-42'
p310
S'prev-action-3'
p311
tp312
F2.4525748129090372
s(S'diff-x-pos--10'
p313
S'action-1'
p314
tp315
F-0.12371148407138532
s(S'diff-x-pos-14'
p316
S'prev-action-1'
p317
tp318
F1.0699685044485663
s(S'diff-x-pos-25'
p319
S'action-3'
p320
tp321
F9.254923214788198
s(S'diff-x-pos-19'
p322
S'prev-action-3'
p323
tp324
F2.0877450565843567
s(S'diff-x-pos--114'
p325
S'prev-action-4'
p326
tp327
F-1.2425756705372613
s(S'diff-x-pos-34'
p328
S'prev-action-1'
p329
tp330
F1.1171378515458428
sS'diff-x-pos--54'
p331
F-2.1810287743536185
sg126
F1.7871893671172154
sS'diff-x-pos--56'
p332
F0.38576061984680965
sS'diff-x-pos--57'
p333
F0.18886037492876562
sS'diff-x-pos--50'
p334
F-0.4745123961783344
sS'diff-x-pos--51'
p335
F-3.046703929509368
sS'diff-x-pos--52'
p336
F-0.6246308164241843
sS'diff-x-pos--53'
p337
F-0.7372257089747936
s(S'action-1'
p338
S'object-0-x-60.0'
p339
tp340
F3.8629960741261646
sS'diff-x-pos--58'
p341
F0.14526889526986742
sS'diff-x-pos--59'
p342
F-0.38466433649404785
s(S'diff-x-pos--102'
p343
S'action-4'
p344
tp345
F6.951289501473648
s(S'diff-x-pos--38'
p346
S'action-1'
p347
tp348
F0.6458065158767406
sS'object-0-y-0.0'
p349
F45.000501856874315
s(g58
S'prev-action-4'
p350
tp351
F1.6322606301494693
s(S'diff-x-pos--68'
p352
S'action-3'
p353
tp354
F-6.787313147403254
s(g176
S'prev-action-4'
p355
tp356
F-4.724029650659588
s(S'diff-x-pos-57'
p357
S'prev-action-3'
p358
tp359
F2.6281281794943423
s(S'action-1'
p360
S'object-0-x-100.0'
p361
tp362
F3.842704956067851
s(S'diff-x-pos--38'
p363
S'prev-action-1'
p364
tp365
F-2.2376310049519956
s(S'diff-x-pos--14'
p366
S'prev-action-1'
p367
tp368
F-0.7335289701875916
s(S'object-1-dx-1'
p369
S'prev-action-1'
p370
tp371
F-0.3302521570795557
s(S'diff-x-pos--19'
p372
g191
tp373
F4.355089391734946
sS'object-0-x-90.0'
p374
F8.983001483776093
s(S'diff-x-pos--106'
p375
S'prev-action-4'
p376
tp377
F-2.1435477860231975
s(g194
S'prev-action-1'
p378
tp379
F1.6506031989416101
s(S'diff-x-pos--28'
p380
S'prev-action-1'
p381
tp382
F-0.23296894362582118
s(S'diff-x-pos--71'
p383
S'prev-action-1'
p384
tp385
F-0.38140324111801793
s(S'diff-x-pos--107'
p386
S'prev-action-3'
p387
tp388
F-1.3677982761810878
sg369
F0.5212131163463101
s(S'diff-x-pos--116'
p389
S'prev-action-4'
p390
tp391
F-0.05601814003851002
s(S'diff-x-pos--83'
p392
S'action-4'
p393
tp394
F8.811026754016336
s(S'diff-x-pos--55'
p395
S'prev-action-1'
p396
tp397
F2.2762385806288563
s(g310
S'action-3'
p398
tp399
F9.107377743293831
s(S'diff-x-pos-10'
p400
S'prev-action-3'
p401
tp402
F-0.6647939815926497
s(S'diff-x-pos--37'
p403
S'prev-action-1'
p404
tp405
F-2.0242143294541
s(S'diff-x-pos--74'
p406
S'action-3'
p407
tp408
F-9.899988892555225
s(S'diff-x-pos--22'
p409
S'prev-action-3'
p410
tp411
F0.4974018420564924
s(S'diff-x-pos--97'
p412
S'action-3'
p413
tp414
F-9.109067782402784
s(g296
S'prev-action-4'
p415
tp416
F-0.9785812193564847
s(S'diff-x-pos--79'
p417
S'prev-action-3'
p418
tp419
F0.6095727593813705
sS'diff-x-pos-12'
p420
F-1.582384367738498
sS'diff-x-pos-13'
p421
F0.6478353625243233
sS'diff-x-pos-10'
p422
F2.6057597199448796
sS'diff-x-pos-11'
p423
F-0.9811590691103892
sS'diff-x-pos-16'
p424
F0.10556073151728901
sS'diff-x-pos-17'
p425
F0.43647459442962844
sS'diff-x-pos-14'
p426
F0.7042002328686536
sS'diff-x-pos-15'
p427
F-1.9569662284190958
s(S'diff-x-pos-28'
p428
S'action-1'
p429
tp430
F-0.1840924471138083
sS'diff-x-pos-18'
p431
F1.9004638037590844
sS'diff-x-pos-19'
p432
F0.9661552660617038
s(S'diff-x-pos--51'
p433
S'prev-action-1'
p434
tp435
F-0.8332842373487632
s(S'diff-x-pos--63'
p436
S'action-3'
p437
tp438
F-7.837618545272887
s(g8
S'prev-action-1'
p439
tp440
F-0.14781749955388143
s(S'diff-x-pos--44'
p441
S'action-3'
p442
tp443
F-4.214904095241242
s(S'diff-x-pos--33'
p444
S'prev-action-1'
p445
tp446
F1.3017987060967156
s(S'diff-x-pos--42'
p447
S'action-3'
p448
tp449
F-3.1934254259190746
s(S'diff-x-pos-30'
p450
S'prev-action-3'
p451
tp452
F-0.7833453757314522
s(S'diff-x-pos--85'
p453
S'action-3'
p454
tp455
F-7.861058494263496
s(S'action-4'
p456
S'object-0-x-110.0'
p457
tp458
F-0.13022618845635692
s(S'diff-x-pos-2'
p459
S'prev-action-4'
p460
tp461
F-0.38200397329425967
s(S'diff-x-pos--44'
p462
S'action-4'
p463
tp464
F1.3304606533164778
s(S'diff-x-pos--100'
p465
S'action-4'
p466
tp467
F9.211804219228819
s(S'diff-x-pos--32'
p468
S'prev-action-1'
p469
tp470
F-1.374665009209776
s(S'diff-x-pos--43'
p471
S'prev-action-1'
p472
tp473
F-0.9148902007171967
s(S'diff-x-pos--81'
p474
S'prev-action-4'
p475
tp476
F3.3469379544120015
s(g234
S'prev-action-1'
p477
tp478
F-0.5890211907904632
s(S'diff-x-pos--8'
p479
S'action-4'
p480
tp481
F-2.310918885645876
s(S'diff-x-pos-45'
p482
S'action-3'
p483
tp484
F8.600642773817324
s(g425
S'prev-action-1'
p485
tp486
F-0.5075712787391844
s(S'diff-x-pos--25'
p487
S'prev-action-1'
p488
tp489
F-0.21778820665005727
s(S'diff-x-pos-58'
p490
S'prev-action-4'
p491
tp492
F3.622381804565652
s(S'diff-x-pos-43'
p493
S'prev-action-1'
p494
tp495
F-0.1944016436505447
s(S'diff-x-pos--63'
p496
S'action-4'
p497
tp498
F4.922837119566124
s(S'diff-x-pos--90'
p499
S'action-3'
p500
tp501
F-8.590320769675266
s(S'diff-x-pos-40'
p502
S'prev-action-4'
p503
tp504
F-1.526519409549874
s(S'diff-x-pos-26'
p505
S'prev-action-3'
p506
tp507
F1.9222698740372564
s(S'diff-x-pos--7'
p508
S'action-4'
p509
tp510
F-0.6533744913122366
s(S'diff-x-pos--3'
p511
S'prev-action-4'
p512
tp513
F-0.6936367478921059
s(S'action-1'
p514
S'prev-action-4'
p515
tp516
F15.407292257647798
s(S'diff-x-pos--47'
p517
S'action-1'
p518
tp519
F-0.5633879491475966
s(S'object-0-dx--1'
p520
g201
tp521
F2.350483692704172
s(S'diff-x-pos-33'
p522
S'prev-action-3'
p523
tp524
F1.295357882409236
s(g231
S'action-1'
p525
tp526
F0.8901807402876663
s(S'diff-x-pos--15'
p527
S'action-3'
p528
tp529
F1.521054889497631
s(S'diff-x-pos--11'
p530
S'prev-action-4'
p531
tp532
F0.07943418210708186
s(S'diff-x-pos--49'
p533
S'prev-action-3'
p534
tp535
F-1.865611476127086
s(S'diff-x-pos--39'
p536
g88
tp537
F-3.873693311860185
s(S'object-0-dx-1'
p538
S'action-3'
p539
tp540
F0.8433632393245508
s(g97
S'action-3'
p541
tp542
F-4.995011755273424
s(S'diff-x-pos-9'
p543
S'action-4'
p544
tp545
F-4.392651401750682
s(S'diff-x-pos--98'
p546
S'action-4'
p547
tp548
F8.057473059971432
s(g341
S'prev-action-4'
p549
tp550
F-0.3725776337161942
s(S'diff-x-pos-60'
p551
S'prev-action-4'
p552
tp553
F0.8391664899055038
s(g288
S'object-0-x-50.0'
p554
tp555
F1.286525832227567
s(S'diff-x-pos-37'
p556
S'prev-action-3'
p557
tp558
F5.2339502284082835
s(g79
S'prev-action-3'
p559
tp560
F3.544614771825696
s(S'diff-x-pos-26'
p561
S'prev-action-4'
p562
tp563
F0.8069241036689132
s(g441
S'prev-action-1'
p564
tp565
F-0.41391423250601844
s(S'diff-x-pos--92'
p566
S'prev-action-3'
p567
tp568
F-3.7659236142453416
s(S'diff-x-pos-52'
p569
S'action-3'
p570
tp571
F11.607328249500842
s(g360
S'prev-action-3'
p572
tp573
F15.95567351914234
s(S'diff-x-pos-59'
p574
S'action-1'
p575
tp576
F0.522805647764558
s(S'action-3'
p577
S'object-0-x-10.0'
p578
tp579
F6.366558672469121
s(S'diff-x-pos-41'
p580
S'action-1'
p581
tp582
F-0.5191943172925255
s(S'diff-x-pos-48'
p583
S'prev-action-1'
p584
tp585
F-0.965167836212774
s(S'diff-x-pos--104'
p586
S'prev-action-1'
p587
tp588
F-1.923547883027807
s(S'diff-x-pos-5'
p589
S'action-3'
p590
tp591
F6.4033708420805215
s(S'diff-x-pos--115'
p592
S'prev-action-3'
p593
tp594
F-2.4922855612837562
s(S'action-4'
p595
g201
tp596
F15.353974595546864
s(S'diff-x-pos-63'
p597
S'action-3'
p598
tp599
F3.9024952830356585
s(S'diff-x-pos-68'
p600
S'action-1'
p601
tp602
F1.4321907950830295
s(S'diff-x-pos-13'
p603
S'prev-action-1'
p604
tp605
F-0.9426927774006152
s(S'diff-x-pos-25'
p606
S'prev-action-4'
p607
tp608
F1.3955474594693946
s(g533
S'action-4'
p609
tp610
F2.318319406438368
s(S'diff-x-pos--103'
p611
S'action-3'
p612
tp613
F-8.824956096592384
s(S'diff-x-pos--75'
p614
S'action-1'
p615
tp616
F0.9699744300141772
s(S'diff-x-pos--46'
p617
S'action-4'
p618
tp619
F1.4114948512621295
s(S'diff-x-pos--23'
p620
S'prev-action-1'
p621
tp622
F0.1438376230352283
s(S'diff-x-pos--58'
p623
S'prev-action-3'
p624
tp625
F-0.4608571231847941
s(S'diff-x-pos-56'
p626
S'prev-action-4'
p627
tp628
F2.6259838351114513
s(S'diff-x-pos--105'
p629
S'prev-action-1'
p630
tp631
F-2.416542995761124
s(S'diff-x-pos--61'
p632
S'prev-action-3'
p633
tp634
F0.28766860025687424
s(S'diff-x-pos--86'
p635
S'prev-action-1'
p636
tp637
F-2.6010059095162323
s(S'diff-x-pos-15'
p638
S'action-3'
p639
tp640
F5.175738352542846
s(g336
S'action-1'
p641
tp642
F0.5995903074295196
s(S'diff-x-pos--110'
p643
S'action-3'
p644
tp645
F-9.126625491799576
s(S'diff-x-pos--62'
p646
S'action-1'
p647
tp648
F-0.5101745810203582
s(S'action-1'
p649
S'object-1-x-120.0'
p650
tp651
F-2.0148280873661113
s(S'diff-x-pos-18'
p652
S'prev-action-3'
p653
tp654
F1.2979875861855898
s(S'diff-x-pos--9'
p655
g61
tp656
F-0.7582524381600608
s(S'diff-x-pos--64'
p657
S'prev-action-3'
p658
tp659
F-2.4573838473217235
s(S'diff-x-pos-21'
p660
S'action-1'
p661
tp662
F-3.459187867103279
s(S'diff-x-pos--101'
p663
S'prev-action-1'
p664
tp665
F-0.8847403893601563
s(S'diff-x-pos--41'
p666
S'action-1'
p667
tp668
F-0.4577457800007374
s(S'diff-x-pos--3'
p669
S'action-1'
p670
tp671
F-0.3198910860624175
s(S'diff-x-pos--76'
p672
S'prev-action-4'
p673
tp674
F1.3759411860794861
s(S'diff-x-pos-46'
p675
S'prev-action-4'
p676
tp677
F-0.5866871729370915
s(S'diff-x-pos--87'
p678
S'prev-action-3'
p679
tp680
F0.012450783886260374
s(S'diff-x-pos--84'
p681
S'action-1'
p682
tp683
F1.375743259358822
s(S'diff-x-pos--70'
p684
S'prev-action-1'
p685
tp686
F-1.9471210855414052
s(S'diff-x-pos--36'
p687
S'action-4'
p688
tp689
F3.2529883875022967
s(g493
S'action-4'
p690
tp691
F-9.515637492664709
s(S'diff-x-pos--35'
p692
S'prev-action-3'
p693
tp694
F0.9828968654375025
s(S'diff-x-pos--108'
p695
S'prev-action-3'
p696
tp697
F-1.5648919354876683
s(S'diff-x-pos--34'
p698
S'prev-action-4'
p699
tp700
F0.8088985080474491
s(S'diff-x-pos-7'
p701
S'action-4'
p702
tp703
F-3.0528716635272057
s(S'diff-x-pos-22'
p704
S'action-4'
p705
tp706
F-7.331996603375639
s(S'diff-x-pos--96'
p707
S'action-4'
p708
tp709
F6.423500261170315
s(S'diff-x-pos-67'
p710
S'action-1'
p711
tp712
F-1.4392359542644653
s(g26
S'prev-action-1'
p713
tp714
F1.5311889982571225
s(S'diff-x-pos-8'
p715
S'prev-action-3'
p716
tp717
F1.854107318586279
s(S'diff-x-pos--110'
p718
S'action-4'
p719
tp720
F8.621487008765131
s(S'diff-x-pos--72'
p721
S'action-1'
p722
tp723
F-0.7877365555207172
s(S'diff-x-pos--99'
p724
S'prev-action-3'
p725
tp726
F-1.4467905395093201
s(g343
S'prev-action-1'
p727
tp728
F-2.5098547144568006
s(S'diff-x-pos--19'
p729
S'prev-action-3'
p730
tp731
F2.824002896518988
s(S'diff-x-pos--88'
p732
S'action-4'
p733
tp734
F8.16189520116594
s(g420
S'action-3'
p735
tp736
F6.081612354733019
s(S'diff-x-pos-47'
p737
S'action-1'
p738
tp739
F1.2810669859446322
s(S'diff-x-pos--89'
p740
S'prev-action-4'
p741
tp742
F1.1358268321947398
s(S'diff-x-pos--95'
p743
S'action-1'
p744
tp745
F0.09250519471855156
s(S'diff-x-pos--76'
p746
S'prev-action-3'
p747
tp748
F-2.2293768710892627
s(S'diff-x-pos--16'
p749
S'action-1'
p750
tp751
F-0.8010892689823773
s(S'diff-x-pos--10'
p752
S'prev-action-4'
p753
tp754
F1.2219705218997317
s(S'diff-x-pos-50'
p755
S'prev-action-4'
p756
tp757
F0.4447043103211741
s(S'diff-x-pos--6'
p758
S'prev-action-3'
p759
tp760
F0.6834858187245042
s(S'diff-x-pos--121'
p761
S'prev-action-3'
p762
tp763
F0.7718905679504815
s(S'diff-x-pos-53'
p764
S'prev-action-1'
p765
tp766
F3.7644012161135
s(S'diff-x-pos--48'
p767
S'action-1'
p768
tp769
F0.9952562855371969
s(S'diff-x-pos--45'
p770
S'action-3'
p771
tp772
F-3.554442700450241
s(S'diff-x-pos--8'
p773
S'action-1'
p774
tp775
F-2.4137265979007054
s(S'diff-x-pos--77'
p776
S'action-1'
p777
tp778
F0.4252886499848445
s(S'diff-x-pos--80'
p779
S'prev-action-3'
p780
tp781
F-1.8300269891711582
s(S'diff-x-pos-36'
p782
S'prev-action-1'
p783
tp784
F-0.774874889159161
s(S'diff-x-pos--109'
p785
S'action-4'
p786
tp787
F9.4851972919484
s(S'action-1'
p788
S'object-0-x-30.0'
p789
tp790
F3.679046020688432
s(S'diff-x-pos-35'
p791
S'prev-action-4'
p792
tp793
F-1.635863352451388
s(S'diff-x-pos--99'
p794
S'prev-action-4'
p795
tp796
F0.003933708224733962
s(S'diff-x-pos-27'
p797
S'prev-action-4'
p798
tp799
F0.5068464097840932
s(S'diff-x-pos--45'
p800
S'prev-action-3'
p801
tp802
F0.8366493699711524
s(g785
S'prev-action-1'
p803
tp804
F-1.19682662401934
s(S'diff-x-pos--48'
p805
S'prev-action-1'
p806
tp807
F-0.6288909251832646
s(S'action-1'
p808
S'object-0-x-20.0'
p809
tp810
F8.33280836805601
s(S'diff-x-pos--19'
p811
S'prev-action-4'
p812
tp813
F-1.027280899362816
s(S'diff-x-pos--10'
p814
S'action-4'
p815
tp816
F-2.107177313944782
s(S'object-1-dx--1'
p817
S'prev-action-1'
p818
tp819
F-0.523092273193851
s(S'diff-x-pos--114'
p820
S'prev-action-1'
p821
tp822
F0.35218517310394337
s(S'diff-x-pos--40'
p823
S'action-4'
p824
tp825
F1.075520563642148
s(S'action-4'
p826
S'object-0-x-30.0'
p827
tp828
F1.584781317767415
s(S'diff-x-pos--119'
p829
S'prev-action-3'
p830
tp831
F1.853975540287521
s(S'diff-x-pos-16'
p832
S'action-1'
p833
tp834
F0.46800085498563604
s(S'diff-x-pos-39'
p835
S'prev-action-1'
p836
tp837
F0.9304228244154163
s(S'diff-x-pos--12'
p838
S'prev-action-1'
p839
tp840
F-1.4789243803201337
s(S'diff-x-pos--102'
p841
S'action-1'
p842
tp843
F1.9064782815935422
s(S'diff-x-pos--38'
p844
S'action-4'
p845
tp846
F3.6195899372027958
s(S'action-3'
p847
S'object-0-x-80.0'
p848
tp849
F0.9392000197096544
sg471
F-1.8454200587706313
sS'diff-x-pos--42'
p850
F-1.2306111391905845
sS'diff-x-pos--41'
p851
F-2.4786811196342144
sg823
F-1.8848666903862519
sS'diff-x-pos--47'
p852
F-1.130967644860638
sg617
F-2.868887614431001
sS'diff-x-pos--45'
p853
F-0.7105348507688394
sg462
F-2.9118724965524954
s(S'diff-x-pos--1'
p854
S'prev-action-3'
p855
tp856
F0.6777005976656589
sg533
F-0.4413879562249686
sg767
F-1.2470061735027562
s(S'diff-x-pos-67'
p857
S'prev-action-1'
p858
tp859
F1.9575116400714494
sS'diff-x-pos-69'
p860
F-0.6071834060617902
s(g773
S'prev-action-1'
p861
tp862
F-1.1753929932973648
s(S'diff-x-pos--53'
p863
S'action-3'
p864
tp865
F-5.2140904915107065
s(S'diff-x-pos--57'
p866
S'prev-action-1'
p867
tp868
F-1.3556232139551936
s(S'diff-x-pos--111'
p869
S'action-1'
p870
tp871
F3.335732532961867
s(S'diff-x-pos--108'
p872
S'action-3'
p873
tp874
F-5.765142749390065
s(S'diff-x-pos-53'
p875
S'action-4'
p876
tp877
F-10.608817851993889
s(g59
S'object-0-x-20.0'
p878
tp879
F5.858578621244509
s(S'diff-x-pos--36'
p880
S'prev-action-4'
p881
tp882
F-3.0299008972862578
s(S'object-1-dx-1'
p883
S'prev-action-4'
p884
tp885
F3.833727552537912
s(S'diff-x-pos-62'
p886
S'prev-action-3'
p887
tp888
F1.453843419071317
s(S'diff-x-pos-32'
p889
S'prev-action-3'
p890
tp891
F4.186558727607563
s(S'diff-x-pos--16'
p892
S'prev-action-4'
p893
tp894
F1.904671002446908
s(S'diff-x-pos-20'
p895
S'action-3'
p896
tp897
F5.430190303800434
s(S'diff-x-pos-51'
p898
S'action-4'
p899
tp900
F-7.40201815924061
s(g746
S'action-4'
p901
tp902
F8.006243543718677
s(S'diff-x-pos--106'
p903
S'prev-action-3'
p904
tp905
F-1.4316652033677775
s(S'diff-x-pos--40'
p906
S'action-3'
p907
tp908
F-4.24289566565197
s(S'diff-x-pos-58'
p909
S'prev-action-3'
p910
tp911
F2.1833767907418036
s(S'diff-x-pos--28'
p912
S'prev-action-4'
p913
tp914
F-2.219202192288703
s(S'diff-x-pos-49'
p915
S'action-1'
p916
tp917
F0.9584314037133419
s(S'diff-x-pos--107'
p918
S'prev-action-4'
p919
tp920
F0.252563537379207
sg886
F5.927187253537464
s(S'diff-x-pos--64'
p921
S'action-3'
p922
tp923
F-5.02004898800916
s(S'diff-x-pos--83'
p924
S'action-3'
p925
tp926
F-11.69854437311615
s(S'diff-x-pos--111'
p927
S'prev-action-4'
p928
tp929
F-2.0217706661439947
s(g422
S'prev-action-4'
p930
tp931
F-1.1498479113419737
s(S'diff-x-pos--113'
p932
S'action-3'
p933
tp934
F-8.647171336911281
s(g646
S'prev-action-1'
p935
tp936
F-1.3894173678635524
s(S'diff-x-pos--110'
p937
S'prev-action-3'
p938
tp939
F-1.7645407176693435
sS'diff-x-pos-66'
p940
F2.223413960894391
sg687
F-0.010241742332539716
sg403
F-0.8276605589618293
sg228
F-0.20988507605519602
sg692
F-0.5442826949272908
sS'diff-x-pos--32'
p941
F-2.0989789937267567
sS'diff-x-pos--33'
p942
F-0.17049993104255556
sS'diff-x-pos--30'
p943
F1.7569792110505733
sS'diff-x-pos--31'
p944
F-0.03650138434736716
s(S'diff-x-pos-22'
p945
S'prev-action-1'
p946
tp947
F0.11691691787313263
sg844
F-1.6318391629156968
sS'diff-x-pos--39'
p948
F0.14533433860797185
s(S'diff-x-pos--82'
p949
g206
tp950
F-6.9803015795754595
sS'diff-x-pos-29'
p951
F-0.9060111362197327
sg428
F2.730436501292532
s(g611
S'prev-action-3'
p952
tp953
F-0.8652029924977953
sg150
F0.929237254067288
sg606
F2.193808504086156
sS'diff-x-pos-24'
p954
F0.6648965332258318
sS'diff-x-pos-23'
p955
F-1.2396183907668998
sS'diff-x-pos-22'
p956
F0.2507357141955229
s(S'diff-x-pos-62'
p957
S'prev-action-4'
p958
tp959
F2.2612851870878146
sS'diff-x-pos-20'
p960
F-1.4962077633433708
s(g129
S'prev-action-4'
p961
tp962
F-0.5733830862276221
s(S'diff-x-pos--73'
p963
S'prev-action-3'
p964
tp965
F-0.13113349613027225
s(S'diff-x-pos-46'
p966
S'action-3'
p967
tp968
F11.066207178951123
s(g331
S'action-3'
p969
tp970
F-6.714299078677282
s(S'diff-x-pos--33'
p971
S'prev-action-4'
p972
tp973
F-1.0524141327258403
s(g589
S'prev-action-3'
p974
tp975
F-2.1157754299134237
s(S'diff-x-pos--65'
p976
S'action-1'
p977
tp978
F-0.8680650066678364
s(S'diff-x-pos--29'
p979
S'action-3'
p980
tp981
F-1.8833026400214101
s(S'diff-x-pos-0'
p982
S'prev-action-3'
p983
tp984
F-0.7954139657705703
s(S'action-4'
p985
S'object-0-x-40.0'
p986
tp987
F4.9882633379260195
s(S'diff-x-pos-41'
p988
S'prev-action-1'
p989
tp990
F-0.2395854939474574
s(S'diff-x-pos-59'
p991
S'prev-action-1'
p992
tp993
F4.469393903028957
s(S'diff-x-pos-64'
p994
S'action-4'
p995
tp996
F-2.6955369296228593
s(S'diff-x-pos--20'
p997
S'prev-action-1'
p998
tp999
F0.8801167288363101
s(g217
S'prev-action-1'
p1000
tp1001
F-1.5312315596980364
s(g860
S'prev-action-1'
p1002
tp1003
F0.02509059291419935
s(S'diff-x-pos--44'
p1004
S'action-1'
p1005
tp1006
F-0.027429054627722826
s(S'diff-x-pos--52'
p1007
S'prev-action-4'
p1008
tp1009
F0.6248880359920643
s(S'diff-x-pos--100'
p1010
S'action-1'
p1011
tp1012
F-3.185324008123568
s(S'diff-x-pos--81'
p1013
S'prev-action-1'
p1014
tp1015
F-0.4391922062879996
s(S'diff-x-pos-6'
p1016
S'action-3'
p1017
tp1018
F5.2597777999350255
s(S'diff-x-pos-60'
p1019
S'action-4'
p1020
tp1021
F-4.177149888807902
s(S'diff-x-pos--58'
p1022
S'action-4'
p1023
tp1024
F5.854723619243782
s(S'diff-x-pos--98'
p1025
S'prev-action-4'
p1026
tp1027
F0.825720869739394
s(S'diff-x-pos-58'
p1028
S'prev-action-1'
p1029
tp1030
F0.274372723014078
s(S'diff-x-pos--20'
p1031
S'action-3'
p1032
tp1033
F4.349606057207755
s(S'diff-x-pos--113'
p1034
S'action-1'
p1035
tp1036
F0.0705488132643779
s(S'diff-x-pos-50'
p1037
S'action-3'
p1038
tp1039
F10.814341296638153
s(S'diff-x-pos-14'
p1040
S'prev-action-3'
p1041
tp1042
F1.0380760011783612
s(g319
S'prev-action-3'
p1043
tp1044
F2.3830876677344
s(S'diff-x-pos--73'
p1045
S'prev-action-4'
p1046
tp1047
F-0.874611209977455
s(S'action-1'
p1048
S'object-1-x-100.0'
p1049
tp1050
F-1.1915922018202152
s(S'diff-x-pos--89'
p1051
S'action-3'
p1052
tp1053
F-9.235276100714882
sS'object-1-x-80.0'
p1054
F0.15356252339489468
s(S'diff-x-pos-44'
p1055
S'action-4'
p1056
tp1057
F-7.843969321894496
s(S'diff-x-pos--70'
p1058
S'action-4'
p1059
tp1060
F5.508431799870134
s(S'diff-x-pos--88'
p1061
S'prev-action-3'
p1062
tp1063
F-1.8336231827626537
s(S'diff-x-pos-61'
p1064
S'action-3'
p1065
tp1066
F6.301734098611616
s(S'action-3'
p1067
S'object-0-x-0.0'
p1068
tp1069
F8.983594881189862
s(S'diff-x-pos--91'
p1070
S'prev-action-4'
p1071
tp1072
F0.6727438374637417
s(S'diff-x-pos-51'
p1073
S'prev-action-3'
p1074
tp1075
F3.1530734969514493
s(S'diff-x-pos--50'
p1076
S'action-1'
p1077
tp1078
F-0.8236807862109876
s(S'diff-x-pos--78'
p1079
S'prev-action-1'
p1080
tp1081
F-1.7773052452915798
s(S'action-3'
p1082
S'object-1-x-120.0'
p1083
tp1084
F-2.714590880954029
s(g487
S'action-1'
p1085
tp1086
F-3.410976899113549
s(S'diff-x-pos-7'
p1087
S'prev-action-3'
p1088
tp1089
F2.1131995716135332
s(S'diff-x-pos-60'
p1090
S'prev-action-3'
p1091
tp1092
F1.1324099350783499
s(S'diff-x-pos-60'
p1093
S'action-3'
p1094
tp1095
F6.479745847951797
s(g471
S'action-1'
p1096
tp1097
F0.3381256188377042
s(S'diff-x-pos-11'
p1098
S'prev-action-1'
p1099
tp1100
F-1.6654992648782352
s(S'diff-x-pos--84'
p1101
S'prev-action-4'
p1102
tp1103
F-0.5420489472518999
s(g1079
S'action-1'
p1104
tp1105
F-1.847569972607031
s(g462
S'prev-action-4'
p1106
tp1107
F-0.07005104098546888
s(S'diff-x-pos--11'
p1108
S'action-3'
p1109
tp1110
F3.6018321464685634
s(S'diff-x-pos--92'
p1111
S'prev-action-4'
p1112
tp1113
F0.6342775311147261
s(S'diff-x-pos--101'
p1114
S'action-4'
p1115
tp1116
F9.383424939100557
s(S'diff-x-pos-48'
p1117
S'prev-action-4'
p1118
tp1119
F1.6554767283292198
s(S'diff-x-pos--42'
p1120
S'prev-action-3'
p1121
tp1122
F0.3776822311203557
s(S'diff-x-pos--118'
p1123
S'action-1'
p1124
tp1125
F1.4692222321107016
s(S'diff-x-pos-61'
p1126
S'action-4'
p1127
tp1128
F-5.733401765233214
s(S'diff-x-pos--117'
p1129
S'action-3'
p1130
tp1131
F-6.0852100815630585
s(S'diff-x-pos--9'
p1132
S'prev-action-3'
p1133
tp1134
F2.249744232921171
s(S'diff-x-pos--18'
p1135
S'action-3'
p1136
tp1137
F1.7010818618626615
s(S'action-1'
p1138
S'object-0-x-90.0'
p1139
tp1140
F3.6716892805849155
s(S'diff-x-pos-11'
p1141
S'action-4'
p1142
tp1143
F-2.679952051609571
s(g932
S'prev-action-1'
p1144
tp1145
F-0.5214956212739466
s(S'diff-x-pos-58'
p1146
S'action-1'
p1147
tp1148
F2.7843411440970014
s(S'diff-x-pos--46'
p1149
S'action-1'
p1150
tp1151
F-0.6923902668377198
s(S'diff-x-pos-69'
p1152
S'action-4'
p1153
tp1154
I-1
s(S'diff-x-pos-28'
p1155
S'prev-action-1'
p1156
tp1157
F0.3274360232584299
s(S'diff-x-pos-56'
p1158
S'prev-action-1'
p1159
tp1160
F1.4457258282905943
s(S'diff-x-pos-56'
p1161
S'action-3'
p1162
tp1163
F13.366771752361846
s(g617
S'prev-action-3'
p1164
tp1165
F-0.20594004416244407
s(S'diff-x-pos--81'
p1166
S'action-1'
p1167
tp1168
F1.4224045873986289
s(S'diff-x-pos--72'
p1169
S'prev-action-4'
p1170
tp1171
F-2.541347842410392
s(S'diff-x-pos--52'
p1172
S'action-4'
p1173
tp1174
F4.221695118254475
s(g334
S'prev-action-4'
p1175
tp1176
F1.1635278150566093
s(S'diff-x-pos-68'
p1177
S'prev-action-4'
p1178
tp1179
I1
s(g860
S'action-1'
p1180
tp1181
F-0.6071834060617902
s(S'diff-x-pos-63'
p1182
S'prev-action-4'
p1183
tp1184
F1.0107845827635564
s(S'diff-x-pos-17'
p1185
S'prev-action-4'
p1186
tp1187
F-1.589801044361843
s(S'diff-x-pos-10'
p1188
S'action-3'
p1189
tp1190
F5.768471140841942
s(S'diff-x-pos-18'
p1191
S'prev-action-4'
p1192
tp1193
F-1.374631502450022
s(S'diff-x-pos--67'
p1194
S'prev-action-3'
p1195
tp1196
F2.622764546534871
s(S'diff-x-pos--117'
p1197
S'prev-action-1'
p1198
tp1199
F-2.6128716019005993
s(g1123
S'prev-action-3'
p1200
tp1201
F0.7108300228335874
s(g850
S'prev-action-4'
p1202
tp1203
F-0.10179566194963602
s(g64
S'action-4'
p1204
tp1205
F-7.193525453291957
s(g918
S'action-3'
p1206
tp1207
F-10.075468707461363
s(S'diff-x-pos--71'
p1208
S'action-1'
p1209
tp1210
F1.8770707520820582
s(S'diff-x-pos--54'
p1211
S'prev-action-3'
p1212
tp1213
F-2.5652845426122965
s(S'diff-x-pos-31'
p1214
S'action-3'
p1215
tp1216
F8.452761410224808
s(S'diff-x-pos-46'
p1217
S'prev-action-3'
p1218
tp1219
F2.718207368483443
s(S'diff-x-pos-11'
p1220
S'action-3'
p1221
tp1222
F4.68840376499833
s(S'action-3'
p1223
S'prev-action-4'
p1224
tp1225
F17.711067050531522
s(S'diff-x-pos--71'
p1226
S'action-4'
p1227
tp1228
F2.9822116935142935
s(S'diff-x-pos--56'
p1229
S'action-1'
p1230
tp1231
F-0.30711533306879873
s(S'diff-x-pos--66'
p1232
S'prev-action-3'
p1233
tp1234
F1.6489730472642807
s(S'diff-x-pos-7'
p1235
S'action-1'
p1236
tp1237
F-0.8320873782336702
s(g956
S'action-1'
p1238
tp1239
F1.2575725128593356
s(S'object-0-dx-1'
p1240
S'prev-action-4'
p1241
tp1242
F-0.799159527566319
s(g352
S'prev-action-3'
p1243
tp1244
F-1.0479811963724666
s(S'diff-x-pos--50'
p1245
S'prev-action-3'
p1246
tp1247
F-0.5584785171236836
s(S'diff-x-pos-51'
p1248
S'action-1'
p1249
tp1250
F2.6715876510563574
sg586
F-2.7278093226934836
sg918
F-3.419543973580746
sg903
F-4.647159365425669
sS'diff-x-pos--101'
p1251
F-1.0605774171253517
sS'diff-x-pos--100'
p1252
F-3.151423758132898
s(g422
S'action-4'
p1253
tp1254
F-3.7697559029632584
sg343
F0.002880563765291111
s(S'diff-x-pos--102'
p1255
S'prev-action-4'
p1256
tp1257
F0.8832806606661281
sS'diff-x-pos--109'
p1258
F-2.3824244981020506
sg695
F0.9935596291417969
s(g1126
S'prev-action-1'
p1259
tp1260
F-1.6958632232104196
s(g1061
S'action-1'
p1261
tp1262
F-0.41897907070092166
s(g520
g595
tp1263
F0.9431552790808975
s(S'diff-x-pos--107'
p1264
S'action-4'
p1265
tp1266
F7.355366083090676
s(g912
S'action-4'
p1267
tp1268
F-1.7592491065873044
s(g1051
S'prev-action-1'
p1269
tp1270
F0.1700361180711026
s(S'diff-x-pos-34'
p1271
S'action-1'
p1272
tp1273
F0.945946166869707
s(g892
S'action-4'
p1274
tp1275
F-0.9280921914196949
s(S'diff-x-pos--90'
p1276
S'prev-action-4'
p1277
tp1278
F-2.046002554236692
s(g814
S'prev-action-1'
p1279
tp1280
F-2.810484765302373
s(S'diff-x-pos--21'
p1281
S'action-3'
p1282
tp1283
F-1.5003934526488303
s(S'diff-x-pos-50'
p1284
S'prev-action-1'
p1285
tp1286
F1.6754632723241816
s(S'diff-x-pos--121'
p1287
S'prev-action-4'
p1288
tp1289
F0.0023123869734987257
s(g875
S'prev-action-4'
p1290
tp1291
F-0.755479264937454
s(g482
S'prev-action-4'
p1292
tp1293
F-0.8690346371797057
s(g863
S'prev-action-3'
p1294
tp1295
F-2.3275217053089277
s(S'diff-x-pos-6'
p1296
S'prev-action-1'
p1297
tp1298
F0.06772386139139111
s(S'diff-x-pos--1'
p1299
S'action-3'
p1300
tp1301
F3.6925423340246217
s(S'diff-x-pos--32'
p1302
S'action-4'
p1303
tp1304
F-0.45000865570369875
s(S'diff-x-pos--68'
p1305
S'prev-action-4'
p1306
tp1307
F0.7431922666144815
s(S'diff-x-pos--100'
p1308
S'prev-action-3'
p1309
tp1310
F-2.3563655522835747
s(g768
S'object-1-x-90.0'
p1311
tp1312
F-2.877483948271601
s(S'action-3'
p1313
S'object-1-x-90.0'
p1314
tp1315
F-0.26181684364079594
s(S'diff-x-pos--79'
p1316
S'action-3'
p1317
tp1318
F-5.834820361746025
s(S'diff-x-pos-38'
p1319
S'prev-action-4'
p1320
tp1321
F-0.2704128375100736
s(S'diff-x-pos-27'
p1322
S'prev-action-1'
p1323
tp1324
F-2.4690081818707292
s(S'diff-x-pos--12'
p1325
S'action-1'
p1326
tp1327
F0.5936526010561161
s(S'diff-x-pos-39'
p1328
S'action-1'
p1329
tp1330
F1.5995593184188488
s(S'diff-x-pos-0'
p1331
S'action-1'
p1332
tp1333
F0.47117606540697077
s(S'diff-x-pos--120'
p1334
S'prev-action-4'
p1335
tp1336
F0.47980020448041305
s(S'action-1'
p1337
S'object-0-x-40.0'
p1338
tp1339
F0.17870696544291936
s(S'diff-x-pos-49'
p1340
S'prev-action-4'
p1341
tp1342
F-0.18025826042961823
s(S'diff-x-pos-64'
p1343
S'action-3'
p1344
tp1345
F2.887125007916846
s(S'diff-x-pos--119'
p1346
S'action-3'
p1347
tp1348
F-2.6066663275675714
s(S'diff-x-pos--60'
p1349
S'action-1'
p1350
tp1351
F0.3319546657032513
s(S'diff-x-pos--114'
p1352
S'action-1'
p1353
tp1354
F-3.906789479211714
s(g263
g893
tp1355
F-1.578384369037714
s(S'diff-x-pos--73'
p1356
S'action-1'
p1357
tp1358
F-1.1730357275494874
s(S'diff-x-pos-64'
p1359
S'prev-action-4'
p1360
tp1361
F2.796058126144056
s(S'action-4'
p1362
S'object-0-x-10.0'
p1363
tp1364
F0.4775183143906433
s(g1313
S'object-0-x-70.0'
p1365
tp1366
F2.19653275086762
s(S'diff-x-pos--82'
p1367
S'prev-action-1'
p1368
tp1369
F-1.2667986419433637
s(g333
S'action-4'
p1370
tp1371
F3.0126388583890895
s(S'diff-x-pos--99'
p1372
S'action-4'
p1373
tp1374
F8.434119067561728
s(S'diff-x-pos-64'
p1375
S'prev-action-3'
p1376
tp1377
F-0.3930103047321083
s(S'diff-x-pos-29'
p1378
S'prev-action-3'
p1379
tp1380
F-0.18572585459183888
s(g791
S'action-4'
p1381
tp1382
F-6.52028462338531
s(S'diff-x-pos-24'
p1383
S'prev-action-1'
p1384
tp1385
F2.279341262543274
s(g239
S'prev-action-1'
p1386
tp1387
F0.9542244738306704
s(S'diff-x-pos--74'
p1388
S'prev-action-4'
p1389
tp1390
F-0.5904268296424412
s(S'diff-x-pos--80'
p1391
S'action-3'
p1392
tp1393
F-7.418192296073146
s(S'diff-x-pos--2'
p1394
S'prev-action-3'
p1395
tp1396
F1.3739192691730295
sS'object-1-x-110.0'
p1397
F0.21961946831897255
s(g293
S'prev-action-1'
p1398
tp1399
F-0.9875959311464017
s(S'diff-x-pos--34'
p1400
S'action-3'
p1401
tp1402
F-0.31383094176082316
s(S'diff-x-pos--94'
p1403
S'action-4'
p1404
tp1405
F8.117355871613515
s(S'diff-x-pos-53'
p1406
S'action-1'
p1407
tp1408
F0.6184787403010628
s(g832
S'prev-action-4'
p1409
tp1410
F-0.2913777885475892
s(g924
S'prev-action-1'
p1411
tp1412
F-1.8501367603231709
s(g687
S'prev-action-1'
p1413
tp1414
F0.9438882897387882
s(S'diff-x-pos--6'
p1415
S'action-3'
p1416
tp1417
F4.766447949799072
sS'object-0-x-80.0'
p1418
F7.975962734782178
s(S'diff-x-pos-32'
p1419
S'prev-action-4'
p1420
tp1421
F-2.4887111189012177
s(g915
S'prev-action-3'
p1422
tp1423
F-0.862612414036811
s(S'diff-x-pos--16'
p1424
S'prev-action-1'
p1425
tp1426
F-2.9482585973552613
s(S'diff-x-pos--40'
p1427
S'prev-action-1'
p1428
tp1429
F-1.7051228255147945
s(S'diff-x-pos--106'
p1430
S'action-1'
p1431
tp1432
F-1.6449682531404552
s(S'diff-x-pos--76'
p1433
S'action-3'
p1434
tp1435
F-7.616828388896368
s(g895
S'prev-action-1'
p1436
tp1437
F-2.8055482358839314
s(S'diff-x-pos--95'
p1438
S'prev-action-1'
p1439
tp1440
F-2.1747019287070093
s(g1419
S'action-1'
p1441
tp1442
F3.383747781917029
s(g886
S'action-1'
p1443
tp1444
F5.840812393415074
sg546
F-2.0608650214874613
sg724
F-4.599061722257557
s(S'diff-x-pos-12'
p1445
S'prev-action-3'
p1446
tp1447
F-0.7779701226497052
sg1334
F-0.5146036357715815
s(g366
S'action-4'
p1448
tp1449
F-1.3743559849683935
sg1276
F-2.583488299864438
sS'diff-x-pos--91'
p1450
F-3.0191201282997797
sg1111
F-3.1242885157399107
sS'diff-x-pos--93'
p1451
F-3.238240660612937
sg8
F-2.793124848082279
sg743
F-3.73320431487216
s(S'diff-x-pos--57'
p1452
S'action-3'
p1453
tp1454
F-3.010657945940417
sg412
F-2.3541883106016446
s(g718
S'prev-action-4'
p1455
tp1456
F2.007547956814307
s(S'diff-x-pos-8'
p1457
S'action-3'
p1458
tp1459
F5.198255111873664
s(g342
S'prev-action-3'
p1460
tp1461
F1.2428759479804943
s(g956
S'prev-action-4'
p1462
tp1463
F-0.5429299736584376
s(S'diff-x-pos--34'
p1464
S'action-4'
p1465
tp1466
F1.4831228993204053
s(S'diff-x-pos--105'
p1467
S'action-4'
p1468
tp1469
F5.1559991097586355
s(g222
S'prev-action-4'
p1470
tp1471
F5.371744240563213
s(S'diff-x-pos-16'
p1472
S'prev-action-3'
p1473
tp1474
F0.6720024673802623
sg487
F0.5398830985623781
sS'diff-x-pos--24'
p1475
F1.4222587384483745
sg20
F0.15980715475477897
sg158
F1.2697840004268721
sS'diff-x-pos--21'
p1476
F-1.3074542082738398
sg997
F2.7025897321657073
sg620
F1.4967540343165857
sg409
F0.817671832373597
s(S'diff-x-pos--87'
p1477
S'action-3'
p1478
tp1479
F-10.092815488059069
sg979
F-0.7102671565904678
sg912
F-0.37644494963727526
s(S'object-1-dx--1'
p1480
g1313
tp1481
F0.6157093298794217
sS'diff-x-pos-39'
p1482
F2.99049703524238
s(S'diff-x-pos--37'
p1483
S'prev-action-4'
p1484
tp1485
F2.7784034654167624
s(g666
S'prev-action-1'
p1486
tp1487
F-0.1103030983021317
s(S'action-1'
p1488
S'object-0-x-130.0'
p1489
tp1490
F1.385883294242547
sS'diff-x-pos-30'
p1491
F0.6700035072947033
sS'diff-x-pos-31'
p1492
F0.9371161232670262
sg889
F1.1248232635381723
sg67
F2.5931164617063485
sS'diff-x-pos-34'
p1493
F0.5749635349082933
sg791
F0.15482966235424583
sS'diff-x-pos-36'
p1494
F2.7154225038607587
sg76
F2.901250759958482
s(S'diff-x-pos--2'
p1495
S'action-1'
p1496
tp1497
F3.518446577663772
s(S'diff-x-pos-42'
p1498
S'action-4'
p1499
tp1500
F-5.1999080991058655
s(g123
S'prev-action-4'
p1501
tp1502
F-1.234793069023676
s(S'diff-x-pos--20'
p1503
S'prev-action-4'
p1504
tp1505
F0.5013545506798618
s(g120
S'prev-action-4'
p1506
tp1507
F1.160214338058382
s(g336
S'prev-action-1'
p1508
tp1509
F-0.8189825659671147
s(g302
S'action-4'
p1510
tp1511
F5.457761886916364
s(S'diff-x-pos-66'
p1512
S'action-3'
p1513
tp1514
F0.6915351854006944
s(S'diff-x-pos-15'
p1515
S'prev-action-3'
p1516
tp1517
F1.6040519145123746
s(S'diff-x-pos--67'
p1518
S'action-3'
p1519
tp1520
F-7.295795996500994
s(S'diff-x-pos--69'
p1521
S'prev-action-4'
p1522
tp1523
F-0.6348403483615361
s(S'diff-x-pos--8'
p1524
S'prev-action-3'
p1525
tp1526
F2.1232959765275172
s(g341
S'action-3'
p1527
tp1528
F-4.74376220559267
s(g546
S'prev-action-1'
p1529
tp1530
F-1.9709706194318504
s(g620
S'action-1'
p1531
tp1532
F1.4417769191960836
s(S'diff-x-pos-9'
p1533
S'prev-action-3'
p1534
tp1535
F1.8937631881863242
s(g1287
S'action-1'
p1536
tp1537
F1.5082462520078603
s(S'diff-x-pos--18'
p1538
S'prev-action-1'
p1539
tp1540
F0.47305420268394993
s(S'diff-x-pos--67'
p1541
S'prev-action-1'
p1542
tp1543
F-2.1878330725366353
s(g421
S'action-1'
p1544
tp1545
F-2.0634924169287143
s(S'diff-x-pos--115'
p1546
S'action-3'
p1547
tp1548
F-10.96779659144808
s(g737
S'prev-action-3'
p1549
tp1550
F-1.5244028713391722
sg583
F2.7678412158030423
s(S'diff-x-pos--104'
p1551
S'action-1'
p1552
tp1553
F2.219363716651301
sg482
F0.8372602620848815
sS'diff-x-pos-44'
p1554
F4.258402126928743
sg737
F3.5190353789494013
s(g67
S'action-4'
p1555
tp1556
F-7.400194090319396
sg988
F-1.1358971806985667
sg23
F0.8915012608530353
s(g729
S'action-1'
p1557
tp1558
F-1.5348601309413126
sg1498
F4.071335196020367
s(S'diff-x-pos-52'
p1559
S'prev-action-3'
p1560
tp1561
F3.1240249903208097
s(S'diff-x-pos-30'
p1562
S'prev-action-4'
p1563
tp1564
F-1.4225782610569928
s(S'diff-x-pos--65'
p1565
S'prev-action-1'
p1566
tp1567
F-3.9473298726987975
s(S'diff-x-pos--72'
p1568
S'prev-action-3'
p1569
tp1570
F-0.06948879143254261
s(S'diff-x-pos--7'
p1571
S'prev-action-3'
p1572
tp1573
F3.274181807700613
s(S'diff-x-pos-54'
p1574
S'action-3'
p1575
tp1576
F10.11398248845661
s(S'diff-x-pos--25'
p1577
S'action-4'
p1578
tp1579
F0.9584360119061093
s(g497
S'object-0-x-20.0'
p1580
tp1581
F-1.233956172745863
sS'diff-x-pos--81'
p1582
F1.3278163330388602
sg254
F4.30811068246021
s(g692
S'action-1'
p1583
tp1584
F0.5725485175155061
s(S'diff-x-pos--86'
p1585
S'action-1'
p1586
tp1587
F-0.056625561948533965
s(S'diff-x-pos-9'
p1588
S'prev-action-4'
p1589
tp1590
F-0.7861495457049927
s(S'diff-x-pos--43'
p1591
S'action-4'
p1592
tp1593
F3.3870711264941042
s(g954
S'action-1'
p1594
tp1595
F1.2020769280048589
s(S'diff-x-pos--84'
p1596
S'prev-action-3'
p1597
tp1598
F-0.5180151532486212
s(S'diff-x-pos-40'
p1599
S'prev-action-3'
p1600
tp1601
F3.2239521898171857
sS'object-0-y-20.0'
p1602
F37.01227194125699
s(S'object-0-dx--1'
p1603
g360
tp1604
F2.767691260804201
s(S'diff-x-pos--11'
p1605
S'action-4'
p1606
tp1607
F-2.0634773512499236
s(g425
S'action-4'
p1608
tp1609
F-6.130889566265672
s(S'diff-x-pos--61'
p1610
g649
tp1611
F2.7163741750741264
s(S'diff-x-pos--101'
p1612
S'action-3'
p1613
tp1614
F-7.755621708470288
s(S'diff-x-pos-21'
p1615
S'prev-action-3'
p1616
tp1617
F0.8736111990808777
s(S'diff-x-pos-33'
p1618
S'action-3'
p1619
tp1620
F9.53022138540862
s(S'diff-x-pos-30'
p1621
S'action-3'
p1622
tp1623
F7.645753997850061
s(S'diff-x-pos--99'
p1624
S'action-3'
p1625
tp1626
F-14.3088978722938
s(S'diff-x-pos--67'
p1627
S'action-4'
p1628
tp1629
F6.644887475384289
s(S'diff-x-pos-18'
p1630
S'action-1'
p1631
tp1632
F1.1462836788132085
s(g1185
S'action-3'
p1633
tp1634
F5.702765915349911
s(g55
S'prev-action-4'
p1635
tp1636
F0.8355007829728885
s(g948
S'action-4'
p1637
tp1638
F4.960128226516809
s(S'diff-x-pos-40'
p1639
S'action-4'
p1640
tp1641
F-10.53091419186665
s(S'diff-x-pos-54'
p1642
S'action-4'
p1643
tp1644
F-6.219028418922803
s(S'diff-x-pos-58'
p1645
S'action-4'
p1646
tp1647
F-4.322297425113471
s(S'diff-x-pos-28'
p1648
S'prev-action-4'
p1649
tp1650
F-0.4543628335351315
s(S'diff-x-pos-4'
p1651
S'action-4'
p1652
tp1653
F-5.11501032681226
s(S'diff-x-pos-23'
p1654
S'prev-action-4'
p1655
tp1656
F-2.474479952427111
s(S'diff-x-pos--75'
p1657
S'prev-action-3'
p1658
tp1659
F-1.0866235723866713
s(g1013
S'action-4'
p1660
tp1661
F7.504441119366532
s(S'diff-x-pos-70'
p1662
S'action-1'
p1663
tp1664
F-0.9358795349320843
s(S'diff-x-pos--26'
p1665
S'prev-action-4'
p1666
tp1667
F0.29246399578794313
s(g1492
S'action-1'
p1668
tp1669
F-2.4181581776894543
s(S'diff-x-pos--31'
p1670
S'prev-action-1'
p1671
tp1672
F-1.4432604117847565
s(S'diff-x-pos--27'
p1673
S'prev-action-3'
p1674
tp1675
F0.20048503605898652
s(g600
S'prev-action-3'
p1676
tp1677
F1.1870975627721407
s(S'diff-x-pos--68'
p1678
S'action-4'
p1679
tp1680
F8.966655170582449
s(S'diff-x-pos-63'
p1681
S'prev-action-1'
p1682
tp1683
F1.594383537869728
s(g1129
S'prev-action-4'
p1684
tp1685
F2.2646679681859534
s(S'diff-x-pos--118'
p1686
S'prev-action-4'
p1687
tp1688
F0.4793114845713844
s(g583
S'action-3'
p1689
tp1690
F9.844388498641264
s(S'diff-x-pos--60'
p1691
S'prev-action-3'
p1692
tp1693
F-1.4642568188711649
s(g943
S'prev-action-3'
p1694
tp1695
F0.004219437726700193
s(g561
S'action-3'
p1696
tp1697
F10.838587549003838
s(g1111
S'action-1'
p1698
tp1699
F-3.0602703164758633
s(S'diff-x-pos--42'
p1700
S'action-4'
p1701
tp1702
F2.9286672499265816
s(g1359
S'action-1'
p1703
tp1704
F1.699665893925939
s(S'diff-x-pos--21'
p1705
S'prev-action-4'
p1706
tp1707
F-2.196565331485627
s(g109
S'action-1'
p1708
tp1709
F3.5726211700860384
s(g735
S'prev-action-1'
p1710
tp1711
F16.85189416436378
s(S'diff-x-pos-37'
p1712
S'action-1'
p1713
tp1714
F-2.5752896838920907
s(S'diff-x-pos-65'
p1715
S'action-1'
p1716
tp1717
F-2.6522415956110423
s(S'diff-x-pos--72'
p1718
S'prev-action-1'
p1719
tp1720
F0.08023610176301077
s(g955
S'prev-action-3'
p1721
tp1722
F-0.04370096303662374
s(S'diff-x-pos--69'
p1723
S'action-3'
p1724
tp1725
F-5.482229342201532
s(S'diff-x-pos--49'
p1726
S'prev-action-1'
p1727
tp1728
F0.3517820976421241
s(g1451
S'prev-action-3'
p1729
tp1730
F-0.5509702313130609
s(S'object-0-dx-1'
p1731
S'prev-action-1'
p1732
tp1733
F-0.02416126774174443
s(S'diff-x-pos--22'
p1734
S'action-3'
p1735
tp1736
F-0.33785011861420067
s(S'diff-x-pos--109'
p1737
S'action-1'
p1738
tp1739
F-1.6439945188174434
s(g403
S'action-1'
p1740
tp1741
F-0.17320115854498863
s(g948
S'prev-action-1'
p1742
tp1743
F-0.023756510407473397
s(g1662
S'prev-action-4'
p1744
tp1745
F-0.9358795349320843
s(S'diff-x-pos--15'
p1746
S'prev-action-1'
p1747
tp1748
F0.7550221939658348
sS'diff-x-pos--105'
p1749
F-2.7435013691785404
s(S'diff-x-pos--55'
p1750
S'action-1'
p1751
tp1752
F1.2719357918710146
s(S'diff-x-pos-4'
p1753
S'prev-action-1'
p1754
tp1755
F-1.7643782955396468
s(S'diff-x-pos-44'
p1756
S'prev-action-1'
p1757
tp1758
F0.10211579653399139
s(S'diff-x-pos--47'
p1759
S'prev-action-3'
p1760
tp1761
F2.6753738864331784
sS'diff-x-pos--112'
p1762
F-0.6711688366864279
s(g147
S'prev-action-4'
p1763
tp1764
F1.6476642980151568
s(S'diff-x-pos--28'
p1765
S'action-1'
p1766
tp1767
F1.0434817534651002
sg927
F-3.6773515468593665
sS'diff-x-pos--116'
p1768
F-0.9391647419556182
sg1129
F-3.0807886857031237
sg820
F0.9616249934721949
sS'diff-x-pos--115'
p1769
F-4.312846327779994
sg1123
F-1.307945151414979
s(g432
S'action-4'
p1770
tp1771
F-6.211677553829537
s(g1565
S'action-4'
p1772
tp1773
F6.19083336406479
s(S'diff-x-pos--21'
p1774
S'prev-action-3'
p1775
tp1776
F0.6995739341697504
s(S'diff-x-pos--87'
p1777
S'prev-action-4'
p1778
tp1779
F1.3960776217287036
s(g499
S'prev-action-1'
p1780
tp1781
F-1.0518822393924883
s(S'diff-x-pos--5'
p1782
S'action-4'
p1783
tp1784
F2.0723714334669046
s(S'diff-x-pos-43'
p1785
S'action-3'
p1786
tp1787
F10.62580372022145
s(S'diff-x-pos-55'
p1788
S'action-1'
p1789
tp1790
F0.6718510546477041
s(S'diff-x-pos-45'
p1791
S'prev-action-1'
p1792
tp1793
F0.7972642811955226
s(S'diff-x-pos--12'
p1794
S'action-4'
p1795
tp1796
F-4.29068273900121
s(S'diff-x-pos--62'
p1797
S'action-4'
p1798
tp1799
F1.885222051162679
sS'object-0-dx--1'
p1800
F2.1183788759108064
s(S'diff-x-pos--96'
p1801
S'action-3'
p1802
tp1803
F-8.696056834038679
s(g342
S'action-4'
p1804
tp1805
F5.483325530369997
s(g1494
S'action-3'
p1806
tp1807
F7.282679674954846
s(g941
S'action-3'
p1808
tp1809
F-2.0804880555130807
s(S'diff-x-pos-8'
p1810
S'prev-action-4'
p1811
tp1812
F-0.14726271478050368
sS'object-1-y-10.0'
p1813
F7.579226943223606
s(g1492
S'prev-action-4'
p1814
tp1815
F-2.3348371750190684
s(S'diff-x-pos-30'
p1816
S'action-1'
p1817
tp1818
F-0.6348658675630537
s(S'diff-x-pos-38'
p1819
S'prev-action-1'
p1820
tp1821
F0.7633180949619927
s(S'diff-x-pos--4'
p1822
S'action-3'
p1823
tp1824
F2.7151751416500822
s(S'diff-x-pos--112'
p1825
S'action-1'
p1826
tp1827
F-1.7105965150377027
s(S'diff-x-pos-0'
p1828
S'action-4'
p1829
tp1830
F-4.022181051243302
s(S'diff-x-pos--120'
p1831
S'prev-action-3'
p1832
tp1833
F0.7058012024838547
s(S'diff-x-pos--93'
p1834
S'prev-action-1'
p1835
tp1836
F-2.4813844862602386
sg1061
F-2.5520100616778536
s(g942
S'action-3'
p1837
tp1838
F-2.3877338354641227
s(g820
g1362
tp1839
F11.389321162059568
s(S'diff-x-pos-19'
p1840
S'action-3'
p1841
tp1842
F4.815843050080562
s(S'diff-x-pos--29'
p1843
S'prev-action-4'
p1844
tp1845
F-2.157643264051451
s(S'diff-x-pos-14'
p1846
S'action-1'
p1847
tp1848
F0.643311638791695
s(g1451
S'action-4'
p1849
tp1850
F8.050059218728416
sg257
F-2.0240878394038804
s(S'diff-x-pos-1'
p1851
S'prev-action-4'
p1852
tp1853
F-0.6819189967846017
s(S'diff-x-pos--6'
p1854
S'prev-action-4'
p1855
tp1856
F0.26218456562757486
s(g433
S'action-3'
p1857
tp1858
F-8.784437144281224
s(S'diff-x-pos--66'
p1859
S'action-1'
p1860
tp1861
F-0.5806245046383439
sS'object-0-dy-1'
p1862
F1.2538453943999897
s(g949
S'prev-action-4'
p1863
tp1864
F1.138637123616611
s(S'diff-x-pos--24'
p1865
S'action-3'
p1866
tp1867
F1.7203374479720506
s(S'diff-x-pos--85'
p1868
S'prev-action-1'
p1869
tp1870
F-1.8241515265773758
s(S'diff-x-pos-35'
p1871
S'action-1'
p1872
tp1873
F-1.3891599521536904
s(S'diff-x-pos--97'
p1874
S'prev-action-1'
p1875
tp1876
F-1.347202176125753
s(S'diff-x-pos--17'
p1877
S'prev-action-4'
p1878
tp1879
F0.9098966070470292
s(g406
S'prev-action-1'
p1880
tp1881
F-2.0077753625431543
s(S'diff-x-pos--2'
p1882
S'prev-action-4'
p1883
tp1884
F1.3557575918164575
s(S'diff-x-pos-35'
p1885
S'prev-action-3'
p1886
tp1887
F1.1943737775116983
s(S'diff-x-pos--77'
p1888
S'prev-action-4'
p1889
tp1890
F1.2442711053562152
s(S'diff-x-pos-46'
p1891
S'action-4'
p1892
tp1893
F-7.8379591745319654
s(g1475
S'prev-action-1'
p1894
tp1895
F1.1928900716398543
s(S'diff-x-pos--4'
p1896
S'action-4'
p1897
tp1898
F-3.388887069263186
s(S'diff-x-pos-42'
p1899
S'prev-action-1'
p1900
tp1901
F2.129390914372735
s(g436
S'prev-action-1'
p1902
tp1903
F-1.666999094219853
s(S'action-1'
p1904
S'object-0-x-10.0'
p1905
tp1906
F3.62423534416025
sS'diff-y-pos--9'
p1907
F3.547585412407809
sS'diff-y-pos--8'
p1908
F0.6122866005084647
s(S'diff-x-pos--91'
p1909
S'action-1'
p1910
tp1911
F-0.7217536142044403
sS'diff-y-pos--4'
p1912
F0.45920710015379596
sS'diff-y-pos--7'
p1913
F4.231173428790439
s(S'diff-x-pos-19'
p1914
S'prev-action-1'
p1915
tp1916
F-0.08327763657710582
sS'diff-y-pos--1'
p1917
F-1.8979024156510969
sS'diff-y-pos--3'
p1918
F-2.798827794319667
sS'diff-y-pos--2'
p1919
F0.9523054756252067
s(g960
S'prev-action-4'
p1920
tp1921
F2.4243488552909884
s(g264
S'prev-action-4'
p1922
tp1923
F-0.12461925179436961
s(S'diff-x-pos--93'
p1924
S'action-3'
p1925
tp1926
F-8.765017035234147
s(g369
S'action-3'
p1927
tp1928
F1.0888634193934732
s(g1831
S'action-1'
p1929
tp1930
F0.9724108063466426
s(S'diff-x-pos--14'
p1931
g1313
tp1932
F3.922975538980567
s(S'diff-x-pos--112'
p1933
S'prev-action-3'
p1934
tp1935
F-1.4097970922553746
s(S'diff-x-pos--4'
p1936
S'prev-action-1'
p1937
tp1938
F-0.35997079275337895
s(S'diff-x-pos--38'
p1939
S'action-3'
p1940
tp1941
F-5.897235615995244
s(g1319
S'action-3'
p1942
tp1943
F11.143435691217878
s(S'diff-x-pos-57'
p1944
S'action-1'
p1945
tp1946
F1.8902029290736762
sg1477
F-1.7275376801098297
sS'diff-x-pos--86'
p1947
F-1.5113138710965928
sg1868
F-4.126482641752686
sg1596
F-1.219999996196778
sS'diff-x-pos--83'
p1948
F-3.6198121971232835
sg949
F-2.6763868691896784
sg457
F3.139259472494553
sg779
F-1.7533378624624727
sg1051
F-0.9387441388230684
s(g337
S'action-4'
p1949
tp1950
F4.792145304368718
s(S'diff-x-pos--38'
p1951
S'prev-action-3'
p1952
tp1953
F4.181054476657195
s(g1476
S'action-1'
p1954
tp1955
F0.11055679884559455
s(S'diff-x-pos-55'
p1956
S'prev-action-3'
p1957
tp1958
F0.18151125421697406
s(S'diff-x-pos--2'
p1959
S'action-3'
p1960
tp1961
F0.3213644955848993
s(S'diff-x-pos--116'
p1962
S'prev-action-3'
p1963
tp1964
F1.8116170386052377
s(S'diff-x-pos-3'
p1965
S'prev-action-3'
p1966
tp1967
F-3.9350342737554436
s(g1494
S'prev-action-4'
p1968
tp1969
F3.6564140410079906
s(S'diff-x-pos--28'
p1970
S'prev-action-3'
p1971
tp1972
F2.0757261862772385
sg814
F0.7778754476873588
sS'diff-x-pos--11'
p1973
F1.3794518661011574
sg1325
F-0.4760545121320191
sg109
F3.475522906857363
sg1931
F0.8990290566870033
sg1746
F-0.534546753054991
sg892
F0.34164677345962446
sg239
F3.819098679898928
sS'diff-x-pos--18'
p1974
F2.1982648868478405
sg372
F3.181760859709149
s(S'diff-x-pos--55'
p1975
S'prev-action-3'
p1976
tp1977
F0.2043550103221058
s(S'diff-x-pos-42'
p1978
S'action-1'
p1979
tp1980
F0.16386555183242013
s(g112
S'prev-action-3'
p1981
tp1982
F-1.5818496949245116
s(S'diff-x-pos--22'
p1983
S'prev-action-1'
p1984
tp1985
F1.2691769865704683
s(g1874
S'action-1'
p1986
tp1987
F1.2971175848847638
s(g1723
S'prev-action-1'
p1988
tp1989
F-0.0037031285833751537
s(g955
S'action-1'
p1990
tp1991
F1.3412555079359032
s(g164
S'action-4'
p1992
tp1993
F1.4037716596240704
s(g273
S'prev-action-3'
p1994
tp1995
F-4.27651382632159
s(g606
S'action-1'
p1996
tp1997
F-1.5633889822550489
s(g942
S'prev-action-3'
p1998
tp1999
F-0.4198845044134252
s(S'diff-x-pos--30'
p2000
S'action-1'
p2001
tp2002
F2.2311200780933325
s(S'diff-x-pos--71'
p2003
S'prev-action-4'
p2004
tp2005
F-0.22771969778087353
s(S'diff-x-pos-47'
p2006
S'prev-action-4'
p2007
tp2008
F2.093705245468877
s(S'diff-x-pos-70'
p2009
S'prev-action-3'
p2010
tp2011
F-0.5753077273539674
s(g126
S'prev-action-4'
p2012
tp2013
F-0.6934042238337679
s(g1828
S'prev-action-4'
p2014
tp2015
F-0.5346726865805088
s(g1491
S'prev-action-1'
p2016
tp2017
F2.8759271440831498
s(S'diff-x-pos--27'
p2018
S'action-1'
p2019
tp2020
F-0.13197640933339383
sg490
F6.080131318321534
sg123
F4.13599883598735
sg626
F4.256979592700183
sg296
F4.102207718912178
sg26
F4.206537419346124
sg170
F4.162282874956146
sg1559
F6.511511995631207
sg875
F3.948635926588355
sg1284
F2.9660239025568864
sS'diff-x-pos-51'
p2021
F4.497316604773374
s(g1801
S'prev-action-3'
p2022
tp2023
F-2.419380450263135
sg1217
F2.8048191462116927
s(S'diff-x-pos-45'
p2024
S'action-1'
p2025
tp2026
F0.9461294496754908
s(S'diff-x-pos-43'
p2027
S'prev-action-3'
p2028
tp2029
F0.21979272045029896
s(S'diff-x-pos--5'
p2030
S'prev-action-4'
p2031
tp2032
F-0.3019712413142939
s(S'diff-x-pos--60'
p2033
S'prev-action-4'
p2034
tp2035
F0.2910123605116359
s(g1276
S'action-1'
p2036
tp2037
F-0.2070265746114599
s(S'action-4'
p2038
S'object-1-x-90.0'
p2039
tp2040
F6.019339424252006
s(S'diff-x-pos--61'
p2041
S'action-4'
p2042
tp2043
F-1.22580890084397
s(g1559
S'action-1'
p2044
tp2045
F1.949287229417815
s(g1618
S'prev-action-1'
p2046
tp2047
F0.10256296088439987
s(g1023
g197
tp2048
F6.196653869752633
s(g496
S'prev-action-3'
p2049
tp2050
F0.3294149582147751
s(S'diff-x-pos-2'
p2051
S'prev-action-1'
p2052
tp2053
F0.09279475999999487
s(S'diff-x-pos--39'
p2054
S'action-1'
p2055
tp2056
F-0.9411005760486381
s(g502
g1488
tp2057
F-0.17655001703941636
s(S'object-0-dx-1'
p2058
g514
tp2059
F-0.47714567771479643
s(g1227
S'object-0-x-0.0'
p2060
tp2061
F1.6361925602295964
sg156
F1.1477935286396728
s(g76
S'prev-action-1'
p2062
tp2063
F-2.1511032352138764
s(g1749
S'action-1'
p2064
tp2065
F-0.23643199795755832
s(g158
S'prev-action-3'
p2066
tp2067
F0.49470169628058225
s(g153
S'prev-action-1'
p2068
tp2069
F-0.955821612295783
s(g1705
S'action-4'
p2070
tp2071
F0.0823824455293638
s(S'diff-x-pos--27'
p2072
S'prev-action-4'
p2073
tp2074
F-1.7603772446130461
s(g17
S'action-1'
p2075
tp2076
F-0.6590766156223246
s(g1258
S'prev-action-4'
p2077
tp2078
F0.8774403246205988
s(S'action-1'
p2079
g604
tp2080
F10.788712120524668
sg361
F10.581030597625011
s(g852
S'action-4'
p2081
tp2082
F4.908939252719691
s(S'diff-x-pos--94'
p2083
S'prev-action-3'
p2084
tp2085
F-0.4775009604190035
s(S'diff-x-pos-48'
p2086
S'prev-action-3'
p2087
tp2088
F2.077532323686603
s(S'diff-x-pos--104'
p2089
S'prev-action-3'
p2090
tp2091
F-1.3853424953428561
s(g1546
S'prev-action-1'
p2092
tp2093
F-2.8898227772111333
s(S'diff-x-pos--15'
p2094
S'action-4'
p2095
tp2096
F-0.5417217681827478
s(S'action-4'
p2097
g1446
tp2098
F15.97388304896048
s(S'diff-x-pos--56'
p2099
S'prev-action-1'
p2100
tp2101
F-2.0444918316098075
s(g117
S'action-1'
p2102
tp2103
F3.0581687054353957
s(g1346
S'prev-action-4'
p2104
tp2105
F-1.5065532643377126
s(g421
S'prev-action-3'
p2106
tp2107
F2.346269437694003
sS'diff-x-pos-27'
p2108
F-0.6620232907391483
sS'object-0-y-10.0'
p2109
F45.68415418663948
s(g1588
S'action-1'
p2110
tp2111
F0.5944941071474048
s(S'diff-x-pos--23'
p2112
S'prev-action-3'
p2113
tp2114
F1.6768746259674558
s(g1025
S'action-3'
p2115
tp2116
F-9.844439530128124
s(S'diff-x-pos-65'
p2117
S'action-4'
p2118
tp2119
F0.9705740171421824
sg107
F7.151661401572266
s(S'diff-x-pos--58'
p2120
S'prev-action-1'
p2121
tp2122
F0.9787036521708466
s(g335
S'prev-action-4'
p2123
tp2124
F2.063094134161121
s(g1715
S'prev-action-4'
p2125
tp2126
F-0.26823697606351704
s(g977
S'object-0-x-0.0'
p2127
tp2128
F2.4495410390708856
s(g427
g1048
tp2129
F-1.7580926065362912
s(S'diff-x-pos-66'
p2130
S'prev-action-1'
p2131
tp2132
F-0.7030108101311101
s(S'diff-x-pos--52'
p2133
S'action-3'
p2134
tp2135
F-5.445916242108184
s(S'diff-x-pos--39'
p2136
S'prev-action-4'
p2137
tp2138
F-3.1049966251133854
s(S'diff-x-pos--116'
p2139
S'action-1'
p2140
tp2141
F1.0176855414160475
sg64
F-0.7043633478572191
s(g1737
S'prev-action-3'
p2142
tp2143
F-2.0630381987033077
s(S'diff-x-pos-17'
p2144
S'prev-action-3'
p2145
tp2146
F2.5338469175306533
s(S'diff-x-pos--15'
p2147
S'prev-action-4'
p2148
tp2149
F-1.9963898692630873
s(g988
S'action-4'
p2150
tp2151
F-8.774407034471416
sg283
F10.16430160986188
s(g1670
S'action-3'
p2152
tp2153
F0.928579980426185
s(g1334
S'action-3'
p2154
tp2155
F-0.4924238868138979
s(S'diff-x-pos--104'
p2156
S'prev-action-4'
p2157
tp2158
F0.5810810556771824
s(S'diff-x-pos-1'
p2159
S'action-3'
p2160
tp2161
F6.771741134731783
s(S'diff-x-pos-5'
p2162
S'action-4'
p2163
tp2164
F-4.53253457160603
s(g851
S'action-3'
p2165
tp2166
F-4.04715296623623
s(g456
S'prev-action-4'
p2167
tp2168
F10.34111802850032
s(S'diff-x-pos--54'
p2169
S'prev-action-4'
p2170
tp2171
F0.3082901240051138
s(S'diff-x-pos--61'
p2172
S'prev-action-1'
p2173
tp2174
F-4.925994809811852
sg986
F10.9924090264073
s(S'diff-x-pos--65'
p2175
S'action-3'
p2176
tp2177
F-7.123704807973229
s(S'diff-x-pos-13'
p2178
S'prev-action-4'
p2179
tp2180
F-0.7557412977690731
s(g1477
S'prev-action-1'
p2181
tp2182
F-3.1360660857247975
s(S'diff-x-pos--26'
p2183
S'action-3'
p2184
tp2185
F0.7231828277158432
s(S'diff-x-pos--35'
p2186
S'prev-action-1'
p2187
tp2188
F-1.8206531479760202
sS'object-0-x-70.0'
p2189
F9.262944574613146
s(S'diff-x-pos-54'
p2190
S'prev-action-3'
p2191
tp2192
F0.2668147441480602
s(g1457
S'prev-action-1'
p2193
tp2194
F0.6896216171889331
s(S'diff-x-pos-24'
p2195
S'action-4'
p2196
tp2197
F-7.3412842370267235
s(S'diff-x-pos--62'
p2198
S'action-3'
p2199
tp2200
F-3.7608290988457713
s(g2051
S'action-1'
p2201
tp2202
F-1.002484875447633
s(g1491
S'action-4'
p2203
tp2204
F-6.340884622992298
s(g1762
S'action-4'
p2205
tp2206
F9.229874256714469
s(S'diff-x-pos-12'
p2207
S'action-1'
p2208
tp2209
F-1.472685740656893
s(S'diff-x-pos--26'
p2210
S'action-4'
p2211
tp2212
F1.8757105036302129
s(S'diff-x-pos--41'
p2213
S'action-4'
p2214
tp2215
F2.02621762660273
s(S'diff-x-pos--95'
p2216
S'action-3'
p2217
tp2218
F-8.86139291830751
s(S'diff-x-pos--76'
p2219
S'prev-action-1'
p2220
tp2221
F0.0019408033297425575
s(g1503
g1337
tp2222
F-0.7480242084891824
s(S'diff-x-pos--16'
p2223
S'action-3'
p2224
tp2225
F2.0708282338616977
s(S'diff-x-pos-14'
p2226
S'action-4'
p2227
tp2228
F-4.932181247983716
s(g1048
S'object-0-x-120.0'
p2229
tp2230
F2.3518152722847487
s(S'diff-x-pos--18'
p2231
S'action-1'
p2232
tp2233
F0.07003887476135129
s(S'diff-x-pos--6'
p2234
S'prev-action-1'
p2235
tp2236
F-0.9405972904177553
s(S'diff-x-pos--36'
p2237
S'action-3'
p2238
tp2239
F-2.4577168580789577
s(S'diff-x-pos-53'
p2240
S'prev-action-3'
p2241
tp2242
F0.9397139754123145
s(S'diff-x-pos--70'
p2243
S'action-3'
p2244
tp2245
F-8.964941511700989
s(g1475
S'action-4'
p2246
tp2247
F-0.22209683806443942
s(S'diff-x-pos--34'
p2248
S'prev-action-1'
p2249
tp2250
F-1.0671468717985908
s(S'diff-x-pos--8'
p2251
S'action-3'
p2252
tp2253
F2.9818621588080783
s(S'diff-x-pos--77'
p2254
S'action-3'
p2255
tp2256
F-8.247648955611611
sg1801
F-4.115736425164631
s(S'diff-x-pos--80'
p2257
S'prev-action-1'
p2258
tp2259
F0.6875300968400686
s(g412
S'prev-action-4'
p2260
tp2261
F-0.6741609085544156
s(S'diff-x-pos--17'
p2262
S'action-3'
p2263
tp2264
F4.210928384401553
s(S'diff-x-pos-24'
p2265
S'action-3'
p2266
tp2267
F6.804103842247693
s(S'diff-x-pos-29'
p2268
S'action-1'
p2269
tp2270
F-0.3204743712419691
s(g1498
S'prev-action-4'
p2271
tp2272
F-0.5106305312613949
s(S'diff-x-pos--2'
p2273
S'prev-action-1'
p2274
tp2275
F-1.0022094618443722
s(S'diff-x-pos-47'
p2276
S'action-4'
p2277
tp2278
F-9.993768238067606
s(S'diff-x-pos--85'
p2279
S'prev-action-4'
p2280
tp2281
F-1.2842902834823358
s(S'object-1-dx--1'
p2282
S'prev-action-3'
p2283
tp2284
F3.0130468109278183
s(S'diff-x-pos--114'
p2285
S'prev-action-3'
p2286
tp2287
F1.852015490905515
s(g669
S'prev-action-3'
p2288
tp2289
F-0.28620531710445885
s(S'diff-x-pos-39'
p2290
S'prev-action-3'
p2291
tp2292
F2.467255134813641
s(g1325
g2283
tp2293
F-0.2243585666883039
s(g1037
S'prev-action-3'
p2294
tp2295
F0.8458563199115354
s(S'diff-x-pos-27'
p2296
S'action-3'
p2297
tp2298
F7.553516991845343
s(g779
S'action-4'
p2299
tp2300
F9.113239777472913
s(S'diff-x-pos--91'
p2301
S'prev-action-3'
p2302
tp2303
F-2.4198329612130243
s(S'diff-x-pos--53'
p2304
S'action-1'
p2305
tp2306
F-0.31528052183280053
s(S'diff-x-pos--45'
p2307
S'prev-action-4'
p2308
tp2309
F0.34923106566479434
s(g767
S'prev-action-4'
p2310
tp2311
F-0.8708847496829156
s(g1223
S'object-0-x-110.0'
p2312
tp2313
F0.10001582172397327
s(g1931
S'prev-action-4'
p2314
tp2315
F0.9646529779527251
s(S'diff-x-pos--10'
p2316
S'action-3'
p2317
tp2318
F3.0087642457035053
s(g960
S'action-1'
p2319
tp2320
F0.5198380618033945
s(S'diff-x-pos--106'
p2321
S'prev-action-1'
p2322
tp2323
F-1.0719463760346915
s(S'diff-x-pos--40'
p2324
S'action-1'
p2325
tp2326
F1.2825084116235697
s(g1493
S'prev-action-3'
p2327
tp2328
F0.20012613530157697
s(S'diff-x-pos--116'
p2329
S'action-3'
p2330
tp2331
F-8.69658563142207
s(S'diff-x-pos-12'
p2332
S'prev-action-4'
p2333
tp2334
F0.034336924441821015
s(g1948
g808
tp2335
F-0.7322945780233941
s(g424
S'action-4'
p2336
tp2337
F-6.7738367462754825
sg1194
F-0.08914881442743694
s(g1482
S'prev-action-4'
p2338
tp2339
F-0.4071809239866707
sS'object-1-dy-1'
p2340
F0.7234961933229673
sS'diff-x-pos-49'
p2341
F1.983890941472037
s(S'diff-x-pos--68'
p2342
S'action-1'
p2343
tp2344
F-3.7358903557056404
s(S'diff-x-pos--22'
p2345
S'prev-action-4'
p2346
tp2347
F-0.9489069962533554
s(S'diff-x-pos--94'
p2348
S'action-1'
p2349
tp2350
F-2.601223475335303
s(S'diff-x-pos-57'
p2351
S'prev-action-1'
p2352
tp2353
F2.4526607587743157
s(g704
S'prev-action-3'
p2354
tp2355
F0.6767487699808267
s(g1016
S'prev-action-3'
p2356
tp2357
F-0.2717179571270263
s(g333
S'prev-action-4'
p2358
tp2359
F2.0908282893713177
s(g695
S'action-4'
p2360
tp2361
F5.9082626832349945
s(S'diff-x-pos--56'
p2362
S'prev-action-3'
p2363
tp2364
F2.107198579267104
s(S'diff-x-pos--14'
p2365
S'prev-action-3'
p2366
tp2367
F0.6679050489218583
s(S'object-1-dx-1'
p2368
g716
tp2369
F-2.9822622791119455
s(g1217
S'action-1'
p2370
tp2371
F-0.42342885820746534
s(g1211
S'action-1'
p2372
tp2373
F-0.6964921870118109
s(g943
S'action-4'
p2374
tp2375
F-0.22327237089572383
s(g2341
S'action-4'
p2376
tp2377
F-11.72088995867649
s(S'diff-x-pos--71'
p2378
S'prev-action-3'
p2379
tp2380
F-1.2313189756098313
s(g595
S'object-0-x-100.0'
p2381
tp2382
F5.768653781105562
s(S'diff-x-pos--64'
p2383
S'action-4'
p2384
tp2385
F5.212146004388645
s(S'diff-x-pos--29'
p2386
S'action-1'
p2387
tp2388
F0.1272902473278545
s(S'diff-x-pos-0'
p2389
S'prev-action-1'
p2390
tp2391
F2.159396715334079
s(S'diff-x-pos--80'
p2392
S'prev-action-4'
p2393
tp2394
F-0.6108409701313933
s(S'action-3'
p2395
S'object-0-x-130.0'
p2396
tp2397
F3.667841288454902
s(S'diff-x-pos-10'
p2398
S'prev-action-1'
p2399
tp2400
F4.420401612879496
s(S'diff-x-pos--20'
p2401
S'prev-action-3'
p2402
tp2403
F1.3211184526495328
s(S'diff-x-pos--62'
p2404
S'prev-action-4'
p2405
tp2406
F0.31239240409435975
s(g1252
S'action-3'
p2407
tp2408
F-9.177903969238141
s(S'diff-x-pos--74'
p2409
S'action-1'
p2410
tp2411
F-0.9100243224863371
s(S'diff-x-pos--32'
p2412
S'prev-action-4'
p2413
tp2414
F0.29317469479901836
s(g1582
S'prev-action-3'
p2415
tp2416
F-1.5799294150851542
s(S'diff-x-pos-45'
p2417
S'action-4'
p2418
tp2419
F-8.709511961407943
s(g1367
S'action-4'
p2420
tp2421
F9.32989052469278
s(S'diff-x-pos-28'
p2422
S'action-3'
p2423
tp2424
F9.337096003479488
sg600
F1.5306118872730878
sg117
F3.071794580669886
s(g237
S'prev-action-4'
p2425
tp2426
F1.3753186331293388
sS'diff-x-pos-61'
p2427
F3.1794852087586722
sg1093
F5.216079751041585
sg857
F-0.39963297517698493
s(S'diff-x-pos--63'
p2428
S'action-1'
p2429
tp2430
F1.0071343350685729
sg1715
F-0.2744738287541666
sg1359
F1.8912539722199257
s(S'diff-x-pos--90'
p2431
S'action-4'
p2432
tp2433
F6.213859044422274
s(g1768
S'action-4'
p2434
tp2435
F6.739735348050401
s(S'diff-x-pos-21'
p2436
S'action-3'
p2437
tp2438
F9.948349972538013
s(g1769
S'action-4'
p2439
tp2440
F7.099961746502554
s(g1800
g1224
tp2441
F-0.09053986168600817
s(g850
S'action-1'
p2442
tp2443
F-0.965852963198111
s(S'diff-x-pos--88'
p2444
S'prev-action-1'
p2445
tp2446
F-2.9506828686844857
s(S'diff-x-pos--79'
p2447
S'action-1'
p2448
tp2449
F-0.8707121792260262
s(g2447
S'prev-action-4'
p2450
tp2451
F0.23049542655866428
s(g1973
S'prev-action-1'
p2452
tp2453
F0.22062655025430006
s(S'diff-x-pos-51'
p2454
S'prev-action-1'
p2455
tp2456
F0.03264863045978104
s(g1974
S'prev-action-4'
p2457
tp2458
F-1.5021966202304013
s(S'diff-x-pos--78'
p2459
S'prev-action-3'
p2460
tp2461
F-3.2115009484202144
s(g941
S'prev-action-3'
p2462
tp2463
F-1.0174886793160165
s(g1240
S'action-4'
p2464
tp2465
F0.2870937998974416
s(g1591
S'prev-action-3'
p2466
tp2467
F-2.4206410430704346
s(S'diff-x-pos-7'
p2468
S'prev-action-1'
p2469
tp2470
F-0.7445465917399389
s(g1093
S'prev-action-1'
p2471
tp2472
F3.244503326057729
s(S'diff-x-pos-60'
p2473
S'action-1'
p2474
tp2475
F2.913483791897689
s(S'diff-x-pos-37'
p2476
S'prev-action-4'
p2477
tp2478
F-0.18159623323592192
s(S'diff-x-pos--3'
p2479
S'action-3'
p2480
tp2481
F5.022076639727479
s(S'diff-x-pos--25'
p2482
S'prev-action-3'
p2483
tp2484
F0.4594520969187058
s(g1947
S'prev-action-3'
p2485
tp2486
F-2.417247417342295
s(S'diff-x-pos--78'
p2487
S'action-3'
p2488
tp2489
F-6.138057190838775
s(g150
S'prev-action-1'
p2490
tp2491
F-1.7999567236388814
s(g1691
S'action-4'
p2492
tp2493
F3.6804154560022897
s(S'diff-x-pos-31'
p2494
S'prev-action-3'
p2495
tp2496
F3.1702440839207546
s(S'diff-x-pos--47'
p2497
S'action-3'
p2498
tp2499
F-5.476518948432731
s(S'object-0-dx--1'
p2500
g205
tp2501
F-0.1415649551074903
s(S'diff-x-pos--118'
p2502
S'action-3'
p2503
tp2504
F-4.952984041518752
s(g655
g818
tp2505
F-1.4770779198353656
s(g1769
S'prev-action-4'
p2506
tp2507
F1.0692620107148936
s(g1746
S'action-1'
p2508
tp2509
F-1.5138798743699002
s(g1681
S'action-4'
p2510
tp2511
F-3.8888694078011685
s(S'diff-x-pos-68'
p2512
S'action-4'
p2513
tp2514
F-0.9015789078099418
s(g334
S'action-4'
p2515
tp2516
F2.18680664796635
sg2039
F2.880038632339618
s(g1034
S'prev-action-3'
p2517
tp2518
F0.11645102788507312
s(S'diff-x-pos--49'
p2519
S'action-1'
p2520
tp2521
F2.235304392610107
s(g490
S'action-3'
p2522
tp2523
F7.618087599338003
s(g94
S'action-3'
p2524
tp2525
F-3.5879921988553884
s(S'diff-x-pos-56'
p2526
S'action-1'
p2527
tp2528
F-2.863371569000491
s(S'diff-x-pos-26'
p2529
S'action-1'
p2530
tp2531
F-2.2777081639194163
s(S'diff-x-pos-65'
p2532
S'prev-action-1'
p2533
tp2534
F-0.0062368526906497745
sg252
F1.792924569381432
s(g1582
S'action-3'
p2535
tp2536
F-7.599029373726287
s(g940
S'prev-action-4'
p2537
tp2538
F3.096663498914437
sg1782
F2.0721375814522762
s(g423
S'prev-action-4'
p2539
tp2540
F-0.12403659186172866
s(S'diff-x-pos-25'
p2541
S'prev-action-1'
p2542
tp2543
F-1.5848266231176367
s(S'diff-x-pos--78'
p2544
S'action-4'
p2545
tp2546
F6.682207375629619
s(S'diff-x-pos--44'
p2547
S'prev-action-3'
p2548
tp2549
F-2.4279072230610366
s(S'diff-x-pos-69'
p2550
S'action-3'
p2551
tp2552
I1
s(S'diff-x-pos--92'
p2553
S'prev-action-1'
p2554
tp2555
F0.0073575673907115835
sg194
F0.6707611339450362
s(S'diff-x-pos-59'
p2556
S'action-3'
p2557
tp2558
F9.699770922879038
s(S'diff-x-pos-41'
p2559
S'action-3'
p2560
tp2561
F8.157704171065351
s(S'diff-x-pos--117'
p2562
S'prev-action-3'
p2563
tp2564
F-2.7325850519884813
s(g1493
S'action-4'
p2565
tp2566
F-8.577001068164607
s(g808
g1397
tp2567
F-3.836885641443204
s(S'diff-x-pos--29'
p2568
S'prev-action-1'
p2569
tp2570
F0.7047872129843691
s(S'diff-x-pos--118'
p2571
S'action-4'
p2572
tp2573
F2.175816657993074
s(g2562
S'action-4'
p2574
tp2575
F2.3120110447918525
s(S'diff-x-pos-5'
p2576
S'action-1'
p2577
tp2578
F-1.724531313474421
s(g1251
S'prev-action-4'
p2579
tp2580
F0.17162521427084032
s(g331
S'prev-action-1'
p2581
tp2582
F0.07596564425357932
s(g966
S'prev-action-1'
p2583
tp2584
F0.6732989506653327
s(S'diff-x-pos-68'
p2585
S'action-3'
p2586
tp2587
I1
s(g1596
S'action-4'
p2588
tp2589
F7.343909075056756
s(g423
S'action-1'
p2590
tp2591
F-2.989610782499139
s(S'diff-x-pos--113'
p2592
S'prev-action-4'
p2593
tp2594
F-2.2230958133172067
s(g2108
S'action-1'
p2595
tp2596
F0.9774192985993458
s(g237
S'action-1'
p2597
tp2598
F-2.649367600875717
s(g1657
S'action-3'
p2599
tp2600
F-6.640032164141892
s(g332
S'action-3'
p2601
tp2602
F-3.0804971510067887
s(g1749
S'prev-action-3'
p2603
tp2604
F-2.878550886462085
sg773
F-1.7427833247385234
s(S'diff-x-pos-22'
p2605
S'action-3'
p2606
tp2607
F6.325159804711807
s(g1574
S'prev-action-4'
p2608
tp2609
F2.4085336769409373
s(g409
g144
tp2610
F3.374257832506263
s(S'diff-x-pos--50'
p2611
S'prev-action-1'
p2612
tp2613
F-1.0795616941112376
s(S'diff-x-pos--110'
p2614
S'action-1'
p2615
tp2616
F-1.1138679273770307
sS'object-1-y-0.0'
p2617
F2.1235177378165693
s(g431
S'prev-action-1'
p2618
tp2619
F1.9771077200235205
s(g1627
S'prev-action-4'
p2620
tp2621
F-0.5240802884256632
s(g2427
S'prev-action-3'
p2622
tp2623
F2.353334664945538
s(g1445
g2097
tp2624
F-6.19131098181461
s(S'diff-x-pos--64'
p2625
S'prev-action-1'
p2626
tp2627
F0.4544961477329654
s(S'diff-x-pos--101'
p2628
S'prev-action-3'
p2629
tp2630
F-0.34746224203603865
s(S'diff-x-pos--89'
p2631
S'prev-action-3'
p2632
tp2633
F-2.2446070890889063
s(S'diff-x-pos--59'
p2634
S'action-1'
p2635
tp2636
F-3.194660043065279
s(g1101
S'action-3'
p2637
tp2638
F-9.939652330612356
s(g1974
g2038
tp2639
F0.42714415022383084
sg58
F-3.0060655794054916
s(g2362
S'action-4'
p2640
tp2641
F3.7733731039223795
sg1691
F-0.3841986972971434
s(g1868
S'action-1'
p2642
tp2643
F-1.7754137336445193
s(S'diff-x-pos--108'
p2644
S'prev-action-1'
p2645
tp2646
F0.3859252245348524
s(S'diff-x-pos--48'
p2647
S'action-4'
p2648
tp2649
F5.0124542623094674
s(S'diff-x-pos--53'
p2650
S'prev-action-1'
p2651
tp2652
F-0.8330846118342707
s(g1859
S'prev-action-4'
p2653
tp2654
F-0.7793638431071946
s(g188
S'action-3'
p2655
tp2656
F5.367024640345808
s(g2175
S'prev-action-4'
p2657
tp2658
F0.7971553858767113
s(S'diff-x-pos-67'
p2659
S'action-3'
p2660
tp2661
I2
s(S'diff-x-pos--1'
p2662
S'action-1'
p2663
tp2664
F-0.0911589154817628
sg2175
F-1.8009364505762855
sg921
F-0.48532507855635687
s(g1718
S'action-3'
p2665
tp2666
F-7.124196033887297
s(g951
S'action-4'
p2667
tp2668
F-7.290058878436999
s(S'diff-x-pos--91'
p2669
S'action-3'
p2670
tp2671
F-10.176020618314169
s(S'diff-x-pos--99'
p2672
S'prev-action-1'
p2673
tp2674
F-3.1562048909729845
s(g841
S'prev-action-3'
p2675
tp2676
F1.6294546175559568
s(g838
S'action-3'
p2677
tp2678
F3.2209756258130464
s(g2290
S'action-3'
p2679
tp2680
F7.175242674792559
s(g372
S'prev-action-1'
p2681
tp2682
F1.3850388625529302
s(g1947
S'action-4'
p2683
tp2684
F5.8062940603764535
s(g2243
S'prev-action-3'
p2685
tp2686
F1.875101813737495
s(S'diff-x-pos--119'
p2687
S'action-1'
p2688
tp2689
F0.6197034323411486
s(S'diff-x-pos--114'
p2690
S'action-3'
p2691
tp2692
F-6.520906689375662
s(g91
S'prev-action-3'
p2693
tp2694
F0.3880960501118113
s(S'diff-x-pos--47'
p2695
S'prev-action-4'
p2696
tp2697
F-1.157924245724832
s(g963
S'action-3'
p2698
tp2699
F-6.689833869429144
s(S'diff-x-pos--121'
p2700
S'prev-action-1'
p2701
tp2702
F-1.4613959772350507
s(S'diff-x-pos--12'
p2703
S'prev-action-4'
p2704
tp2705
F1.2272284348763967
s(g805
S'action-3'
p2706
tp2707
F-7.254716721349415
s(S'diff-x-pos--82'
p2708
S'prev-action-3'
p2709
tp2710
F-2.548225350862939
s(g853
S'action-1'
p2711
tp2712
F-0.7132154231591921
s(S'diff-x-pos--5'
p2713
S'prev-action-1'
p2714
tp2715
F-0.6662937839426784
s(g2392
S'action-1'
p2716
tp2717
F-3.448385343862231
s(g710
S'prev-action-4'
p2718
tp2719
F-2.4392359542644653
s(g2254
S'prev-action-3'
p2720
tp2721
F0.09372088721105684
s(g997
g985
tp2722
F-0.8989921165528632
sg36
F-0.8619787626398753
s(g927
S'action-4'
p2723
tp2724
F6.474259740986384
s(S'diff-x-pos--48'
p2725
S'prev-action-3'
p2726
tp2727
F0.2527695013634178
s(g1585
S'prev-action-4'
p2728
tp2729
F3.5069394557619313
s(S'diff-x-pos-53'
p2730
S'action-3'
p2731
tp2732
F13.93897503828116
s(S'diff-x-pos-31'
p2733
S'action-4'
p2734
tp2735
F-5.097487109268345
s(g2341
S'prev-action-1'
p2736
tp2737
F3.0267616159384656
s(S'diff-x-pos--16'
p2738
S'prev-action-3'
p2739
tp2740
F1.385234368367963
s(g672
S'action-1'
p2741
tp2742
F-1.2409100365023304
s(g743
S'prev-action-3'
p2743
tp2744
F-1.4338831343707692
s(g889
S'action-3'
p2745
tp2746
F6.246602956341857
s(S'diff-x-pos-62'
p2747
S'action-3'
p2748
tp2749
F4.635708932048214
s(S'object-1-dx-1'
p2750
g544
tp2751
F-0.38817824404982004
s(g420
g1710
tp2752
F-0.8387511695306067
s(S'diff-x-pos-23'
p2753
S'action-3'
p2754
tp2755
F4.592055810391967
s(S'diff-x-pos-16'
p2756
S'action-3'
p2757
tp2758
F6.411396622807139
s(g1762
S'prev-action-4'
p2759
tp2760
F1.0128385608029533
s(S'diff-x-pos--1'
p2761
S'prev-action-4'
p2762
tp2763
F0.5467572811204144
s(g1255
S'action-3'
p2764
tp2765
F-8.854887219301903
s(S'diff-x-pos--111'
p2766
S'prev-action-1'
p2767
tp2768
F0.6043532198053774
s(S'diff-x-pos--57'
p2769
S'action-1'
p2770
tp2771
F0.1868794624800692
s(g724
S'action-1'
p2772
tp2773
F1.275717082474512
sS'diff-y-pos--5'
p2774
F3.5699300921155666
s(S'diff-x-pos-29'
p2775
S'prev-action-4'
p2776
tp2777
F2.5016059491898446
s(S'diff-x-pos-24'
p2778
S'prev-action-4'
p2779
tp2780
F-2.3915607113143453
s(g514
S'object-0-x-110.0'
p2781
tp2782
F3.1694698392268337
s(g715
S'action-1'
p2783
tp2784
F2.9415004767817363
sg1079
F-1.3034197878161957
sg2447
F-0.6911633737580134
s(S'diff-x-pos-67'
p2785
S'prev-action-3'
p2786
tp2787
F0.08209133901603138
sg1718
F-2.5306005320799216
sg963
F-0.9311323673521226
sg2243
F-2.3772623322323554
sg2378
F-1.840441914508721
sg672
F-0.8514948816800314
s(g2769
S'prev-action-3'
p2788
tp2789
F-0.5463447004873487
s(S'diff-x-pos--111'
p2790
S'action-3'
p2791
tp2792
F-13.487343820807633
sg1657
F0.7930330409136602
s(S'diff-x-pos--108'
p2793
S'action-1'
p2794
tp2795
F0.8504396952968667
s(S'diff-x-pos-47'
p2796
S'action-3'
p2797
tp2798
F12.231736631072396
s(g424
S'prev-action-1'
p2799
tp2800
F-0.2750639473153923
s(g332
S'prev-action-4'
p2801
tp2802
F0.32305387218949705
s(S'action-1'
p2803
g1418
tp2804
F3.1533183457898275
s(S'diff-x-pos-62'
p2805
S'prev-action-1'
p2806
tp2807
F2.2120586473783352
s(S'diff-x-pos-32'
p2808
S'prev-action-1'
p2809
tp2810
F-0.5730243451681671
s(g678
S'action-1'
p2811
tp2812
F-0.5273730742666608
s(g823
S'prev-action-4'
p2813
tp2814
F1.0968053136582474
s(S'diff-x-pos--54'
p2815
S'action-4'
p2816
tp2817
F5.229762491335473
s(g851
S'prev-action-3'
p2818
tp2819
F-2.779275077935717
s(g853
S'prev-action-1'
p2820
tp2821
F-1.896415286404784
s(S'diff-x-pos-32'
p2822
S'action-4'
p2823
tp2824
F-8.505527474720672
s(g657
S'action-1'
p2825
tp2826
F-0.67742209493578
s(g580
S'prev-action-4'
p2827
tp2828
F-0.6397093175964145
s(S'diff-x-pos-20'
p2829
S'action-4'
p2830
tp2831
F-7.446236128947197
s(g797
S'action-4'
p2832
tp2833
F-9.192959581183848
s(g2198
S'prev-action-3'
p2834
tp2835
F-1.308756664934236
s(S'diff-x-pos--110'
p2836
S'prev-action-1'
p2837
tp2838
F-1.8620136495564144
s(g1172
S'prev-action-3'
p2839
tp2840
F-0.43053628644913966
s(S'diff-x-pos--29'
p2841
S'action-4'
p2842
tp2843
F1.0457452361030941
s(S'diff-x-pos--74'
p2844
S'action-4'
p2845
tp2846
F6.87838464751467
s(g427
S'prev-action-1'
p2847
tp2848
F-2.46332849562377
sS'diff-y-pos--6'
p2849
F3.8676499172657968
s(g173
S'action-3'
p2850
tp2851
F-7.663068480979624
s(g2708
S'action-1'
p2852
tp2853
F-5.025975814306994
s(g623
S'action-1'
p2854
tp2855
F-0.9656925183812757
s(S'diff-x-pos--23'
p2856
S'action-3'
p2857
tp2858
F-1.3487945445035805
s(S'diff-x-pos--103'
p2859
S'prev-action-1'
p2860
tp2861
F-1.7502332735731094
s(S'diff-x-pos--121'
p2862
S'action-3'
p2863
tp2864
F-2.6500337729381327
s(g2592
S'action-4'
p2865
tp2866
F5.9484821169408235
s(g453
S'prev-action-3'
p2867
tp2868
F-1.0180408316929794
s(S'diff-x-pos-13'
p2869
S'action-3'
p2870
tp2871
F7.535581787837014
s(S'diff-x-pos--73'
p2872
S'prev-action-1'
p2873
tp2874
F0.07461233875560125
s(g1370
g245
tp2875
F6.303149904346349
s(g2733
S'prev-action-1'
p2876
tp2877
F0.10170921436533886
s(g263
g1274
tp2878
F0.6510500911881584
sg1662
F-1.5111872622860516
s(g592
S'action-1'
p2879
tp2880
F-0.4450114828344709
s(S'diff-x-pos-5'
p2881
S'prev-action-1'
p2882
tp2883
F1.5677184190417546
s(S'diff-x-pos--94'
p2884
S'prev-action-4'
p2885
tp2886
F-2.167806388109394
s(g1854
S'action-1'
p2887
tp2888
F-1.169535342888849
s(S'diff-x-pos--104'
p2889
S'action-3'
p2890
tp2891
F-8.958572421599204
s(S'diff-x-pos--70'
p2892
S'action-1'
p2893
tp2894
F1.0792473795984623
s(S'diff-x-pos--88'
p2895
S'prev-action-4'
p2896
tp2897
F2.232295989769295
sS'object-0-dy--1'
p2898
F1.517844843017887
s(g1882
S'action-4'
p2899
tp2900
F-2.112343674103588
s(S'diff-x-pos-41'
p2901
S'prev-action-3'
p2902
tp2903
F-0.25660236915470436
s(S'diff-x-pos-59'
p2904
S'prev-action-3'
p2905
tp2906
F0.9013980019820692
s(S'diff-x-pos-52'
p2907
S'prev-action-1'
p2908
tp2909
F2.2272726672520076
s(g1450
S'prev-action-1'
p2910
tp2911
F-1.2720310045504968
s(g2021
S'prev-action-4'
p2912
tp2913
F1.311594477362142
s(g1169
S'action-4'
p2914
tp2915
F5.3813320573280805
s(S'diff-x-pos--78'
p2916
S'prev-action-4'
p2917
tp2918
F3.6853864058955876
s(S'diff-x-pos-66'
p2919
S'action-4'
p2920
tp2921
F-0.7719000472580562
sg1287
F-0.6871930223110696
s(S'diff-x-pos-15'
p2922
S'action-4'
p2923
tp2924
F-5.374611974425638
s(g701
S'prev-action-4'
p2925
tp2926
F-1.1201646975031765
s(g2251
S'prev-action-4'
p2927
tp2928
F-2.690686307968699
s(g1108
S'prev-action-3'
p2929
tp2930
F1.0793911337397593
s(g844
S'prev-action-4'
p2931
tp2932
F-3.5752626346208882
s(g2700
S'action-4'
p2933
tp2934
F0.4545944986192021
s(g1284
S'action-1'
p2935
tp2936
F-0.2429129622191952
sg2127
F13.06932848049035
s(S'diff-x-pos--84'
p2937
S'prev-action-1'
p2938
tp2939
F-0.159935895696258
s(g1326
S'object-0-x-70.0'
p2940
tp2941
F1.1629372653451715
s(g1251
S'action-1'
p2942
tp2943
F-2.6883806477556096
s(g522
S'action-1'
p2944
tp2945
F0.4630891666170799
s(g2427
S'action-1'
p2946
tp2947
F2.611152875380273
s(S'action-3'
p2948
S'object-0-x-60.0'
p2949
tp2950
F1.6867443763744605
s(S'diff-x-pos--9'
p2951
S'prev-action-4'
p2952
tp2953
F1.6744201880458713
s(g652
S'action-3'
p2954
tp2955
F9.116008815502433
sg2167
F43.45947733667908
sg1851
F4.094239125786676
s(S'diff-x-pos--50'
p2956
S'action-3'
p2957
tp2958
F-1.8376382579336754
s(S'action-4'
p2959
g374
tp2960
F4.129177699040247
s(g1194
S'action-1'
p2961
tp2962
F0.5617597066892964
s(S'diff-x-pos--25'
p2963
S'action-3'
p2964
tp2965
F2.9924239857697925
s(S'diff-x-pos--66'
p2966
S'prev-action-1'
p2967
tp2968
F-1.1277065716586476
sg2162
F0.1463049570001187
s(g626
S'action-4'
p2969
tp2970
F-6.246420590661169
s(S'diff-x-pos--75'
p2971
S'prev-action-1'
p2972
tp2973
F-0.5512413249392835
s(S'diff-x-pos--43'
p2974
S'action-3'
p2975
tp2976
F-5.570616804102439
s(g2601
S'object-1-x-100.0'
p2977
tp2978
F-4.068116105374452
s(S'diff-x-pos-11'
p2979
S'prev-action-3'
p2980
tp2981
F0.808376787629577
s(g2512
S'prev-action-1'
p2982
tp2983
F-0.6564856754990529
s(g1973
S'action-1'
p2984
tp2985
F-0.15890292911744863
s(g2038
g2189
tp2986
F5.9034745584001005
s(g857
S'action-4'
p2987
tp2988
F-0.9603970209125193
s(g660
S'prev-action-4'
p2989
tp2990
F-1.5322810334871992
s(S'diff-x-pos--42'
p2991
S'prev-action-1'
p2992
tp2993
F-1.506497708361323
s(S'diff-x-pos--117'
p2994
S'action-1'
p2995
tp2996
F0.6924103510680857
s(g2761
S'action-4'
p2997
tp2998
F-2.063443513390414
s(g431
S'action-4'
p2999
tp3000
F-8.361828690556539
s(S'diff-x-pos-36'
p3001
S'prev-action-3'
p3002
tp3003
F-0.16611664798807257
s(S'diff-x-pos--92'
p3004
S'action-3'
p3005
tp3006
F-7.805206603878532
s(g1851
S'action-4'
p3007
tp3008
F-1.840367664064089
s(S'action-3'
p3009
g205
tp3010
F9.313313199552116
s(S'diff-x-pos--103'
p3011
S'action-4'
p3012
tp3013
F10.234206064526555
s(g2532
g2395
tp3014
F1.4071937497146934
s(g428
S'prev-action-3'
p3015
tp3016
F2.8573633115692534
s(S'diff-x-pos-56'
p3017
S'prev-action-3'
p3018
tp3019
F0.18526992929814057
s(g2753
S'prev-action-1'
p3020
tp3021
F1.2785625246968388
s(S'diff-x-pos--69'
p3022
S'action-1'
p3023
tp3024
F-2.725549043932004
s(S'diff-x-pos--46'
p3025
S'prev-action-1'
p3026
tp3027
F-0.9434662358350643
s(g2009
S'action-4'
p3028
tp3029
F-0.5753077273539674
s(g1983
S'action-1'
p3030
tp3031
F-2.218735881518448
s(S'diff-x-pos--37'
p3032
S'action-3'
p3033
tp3034
F-3.397542924167872
s(g1800
g1223
tp3035
F-1.5924676639742075
s(g2590
S'object-1-x-60.0'
p3036
tp3037
F2.6652399467028514
s(g2398
S'action-1'
p3038
tp3039
F0.6070444820661753
s(g2094
S'prev-action-3'
p3040
tp3041
F0.7068209222422444
s(g1132
S'action-3'
p3042
tp3043
F2.4002471498116558
s(S'diff-x-pos--55'
p3044
S'action-3'
p3045
tp3046
F-4.631640517189321
s(g1064
S'prev-action-4'
p3047
tp3048
F2.5220137670235556
s(S'diff-x-pos--118'
p3049
S'prev-action-1'
p3050
tp3051
F-2.498086658819951
s(g944
S'action-4'
p3052
tp3053
F0.35901852796117106
s(S'diff-x-pos-48'
p3054
S'action-4'
p3055
tp3056
F-12.229679610916842
s(g921
S'prev-action-4'
p3057
tp3058
F1.5175626210324362
s(g1554
S'prev-action-3'
p3059
tp3060
F2.8038768149060354
s(g852
S'prev-action-1'
p3061
tp3062
F-2.6484172855689687
s(S'diff-x-pos--107'
p3063
S'action-1'
p3064
tp3065
F-0.6994413492100807
s(g2378
S'action-3'
p3066
tp3067
F-6.699724360105035
sg2592
F-2.6281404067060827
s(S'diff-x-pos--28'
p3068
g279
tp3069
F0.33932240348492293
s(g2000
S'prev-action-4'
p3070
tp3071
F-0.7642114524111016
sg1240
F0.6533113615074211
sg718
F-1.6190064104114474
s(S'diff-x-pos--92'
p3072
S'action-4'
p3073
tp3074
F7.741188404614521
s(g1476
S'prev-action-1'
p3075
tp3076
F0.189537189042015
s(S'diff-x-pos-1'
p3077
S'action-1'
p3078
tp3079
F-0.8371343448810196
s(g1326
g1054
tp3080
F-1.2538671642222639
s(S'action-3'
p3081
S'object-0-x-120.0'
p3082
tp3083
F-2.7473527230225097
s(g2793
S'prev-action-4'
p3084
tp3085
F2.1725263400946067
s(g1271
S'prev-action-4'
p3086
tp3087
F-0.7423004519391204
s(g337
S'prev-action-4'
p3088
tp3089
F2.4233806081684177
sg878
F12.957430816554528
s(S'diff-x-pos-7'
p3090
S'action-3'
p3091
tp3092
F4.133447324131284
s(g1343
S'prev-action-1'
p3093
tp3094
F-0.5117938491920222
s(S'diff-x-pos--32'
p3095
S'action-1'
p3096
tp3097
F0.4315177174900166
s(S'diff-x-pos--68'
p3098
S'prev-action-1'
p3099
tp3100
F-1.251759402768457
s(S'diff-x-pos--60'
p3101
S'action-3'
p3102
tp3103
F-4.396568819002681
s(g2021
S'action-3'
p3104
tp3105
F9.227747112957669
s(g1450
S'action-4'
p3106
tp3107
F7.87865410421882
sg2254
F0.35039606142086843
sg493
F2.130900423084436
s(S'diff-x-pos-36'
p3108
S'action-4'
p3109
tp3110
F-8.071012332983127
sg829
F-0.046231659525291846
s(g1482
S'action-4'
p3111
tp3112
F-5.7843049579690256
s(g1782
S'prev-action-3'
p3113
tp3114
F3.0404026067092493
sg554
F12.553901558956746
s(S'diff-x-pos-3'
p3115
S'action-1'
p3116
tp3117
F-0.384798778790304
s(S'diff-x-pos--88'
p3118
S'action-3'
p3119
tp3120
F-10.29492619214285
s(S'diff-x-pos--120'
p3121
S'prev-action-1'
p3122
tp3123
F-1.7002050427358502
s(g2892
S'prev-action-4'
p3124
tp3125
F-2.3052430604284497
s(S'diff-x-pos-44'
p3126
S'prev-action-4'
p3127
tp3128
F1.3524095154887028
s(S'diff-x-pos--60'
p3129
S'prev-action-1'
p3130
tp3131
F0.789045761062376
s(S'diff-x-pos-34'
p3132
S'action-3'
p3133
tp3134
F8.206018436203196
s(S'diff-x-pos-19'
p3135
S'action-1'
p3136
tp3137
F2.3619897698106787
s(S'diff-x-pos--73'
p3138
S'action-4'
p3139
tp3140
F6.931737229626491
sS'object-0-x-30.0'
p3141
F9.249590367976122
s(g426
S'action-3'
p3142
tp3143
F4.993069842060676
s(g313
S'prev-action-3'
p3144
tp3145
F2.366389691089978
s(S'diff-x-pos--5'
p3146
S'action-1'
p3147
tp3148
F-1.6547418175047306
s(S'diff-x-pos--45'
p3149
S'action-4'
p3150
tp3151
F3.557123272840575
s(g3077
S'prev-action-3'
p3152
tp3153
F3.4644009204061383
s(g1885
S'action-3'
p3154
tp3155
F8.064274237893251
sg456
F41.66897567300848
sg360
F42.15167789731366
sg1223
F43.87627441444831
s(g1877
S'action-4'
p3156
tp3157
F-0.11245973566292217
s(g2844
S'prev-action-3'
p3158
tp3159
F-1.3334263753412763
s(g1252
S'prev-action-1'
p3160
tp3161
F-0.10921438198133716
sS'object-1-y-20.0'
p3162
F-3.0079017516608366
s(g2108
S'prev-action-3'
p3163
tp3164
F1.3001384813474903
s(g1865
S'prev-action-3'
p3165
tp3166
F1.3065649530916899
sS'diff-y-pos--11'
p3167
F-2.703303593571077
sS'diff-y-pos--10'
p3168
F-0.41813315506241466
sS'diff-y-pos--12'
p3169
F1.775640846157751
s(S'diff-x-pos-0'
p3170
S'action-3'
p3171
tp3172
F4.380315048819353
s(g392
S'prev-action-4'
p3173
tp3174
F-0.8868628554796282
sg2844
F-3.9316285675268716
s(S'action-3'
p3175
g3141
tp3176
F3.985763029520377
s(g2234
S'action-4'
p3177
tp3178
F-3.591839512975914
s(g1554
S'action-3'
p3179
tp3180
F10.013847141565313
s(S'diff-x-pos--93'
p3181
S'prev-action-4'
p3182
tp3183
F-0.20588594303964447
s(S'diff-x-pos--33'
p3184
S'action-4'
p3185
tp3186
F2.245131484802602
s(g2321
S'action-4'
p3187
tp3188
F8.414511713151457
s(g1756
S'action-1'
p3189
tp3190
F2.0885243072578774
s(g735
S'object-1-x-60.0'
p3191
tp3192
F-6.4218077787047445
s(g1834
S'action-1'
p3193
tp3194
F-2.5232828441072104
s(g2805
S'action-4'
p3195
tp3196
F-4.54933407192582
s(S'action-4'
p3197
S'object-0-x-80.0'
p3198
tp3199
F3.883444369282544
s(g883
S'action-1'
p3200
tp3201
F-0.17947205899732038
s(g335
S'action-4'
p3202
tp3203
F6.506041306849614
s(S'diff-x-pos--14'
p3204
S'action-1'
p3205
tp3206
F-1.649590497325187
s(S'diff-x-pos--112'
p3207
S'prev-action-1'
p3208
tp3209
F-0.27421030523400813
s(S'diff-x-pos--4'
p3210
S'prev-action-3'
p3211
tp3212
F-0.9116027119078822
s(g254
S'action-1'
p3213
tp3214
F-0.5856398810076481
s(g951
S'prev-action-1'
p3215
tp3216
F-3.2218912308177385
s(S'diff-x-pos--119'
p3217
S'prev-action-1'
p3218
tp3219
F-0.39365393547510075
s(S'diff-x-pos-57'
p3220
S'action-3'
p3221
tp3222
F11.412187531621091
s(g954
S'prev-action-3'
p3223
tp3224
F0.777115981996895
s(g1810
g35
tp3225
F-5.74328936766071
s(S'diff-x-pos--17'
p3226
S'prev-action-3'
p3227
tp3228
F1.954977599021225
sg1854
F0.00507309393434352
sg55
F1.9543875982796788
s(g528
S'object-0-x-100.0'
p3229
tp3230
F0.9696718604515291
s(g2631
S'action-1'
p3231
tp3232
F0.9182241532878087
sg1882
F1.7274673991451008
s(g228
S'action-1'
p3233
tp3234
F-1.3791770336147677
s(g287
S'prev-action-4'
p3235
tp3236
F-1.0771962862831788
sg2761
F1.537939905152449
s(g170
S'prev-action-1'
p3237
tp3238
F-1.3909726198240406
s(g829
S'action-4'
p3239
tp3240
F1.9407312357011308
s(g1948
S'prev-action-3'
p3241
tp3242
F-0.8828125813205139
sg655
F2.447086501131663
sg91
F-0.25044742683309074
sg352
F-1.5565483325264344
s(S'diff-x-pos--36'
p3243
S'prev-action-3'
p3244
tp3245
F2.0757708652149294
s(g1768
S'prev-action-1'
p3246
tp3247
F-2.694763640522346
s(S'diff-x-pos--87'
p3248
S'action-4'
p3249
tp3250
F8.89265088221592
s(g426
S'prev-action-4'
p3251
tp3252
F-1.4038442727582823
sg496
F-1.9076470906381395
sg2198
F-2.385781628703422
s(g432
S'prev-action-4'
p3253
tp3254
F-1.0383121539455549
s(S'diff-x-pos--40'
p3255
S'prev-action-3'
p3256
tp3257
F-1.2765491785296847
s(g903
S'action-3'
p3258
tp3259
F-11.416702825436674
sg2966
F-0.2580973675015755
s(g2829
S'prev-action-3'
p3260
tp3261
F-1.1150083827504216
s(S'diff-x-pos--41'
p3262
S'prev-action-4'
p3263
tp3264
F0.410897056603617
s(g135
S'action-1'
p3265
tp3266
F-0.25234139331464545
s(g2966
g1067
tp3267
F-4.628228813770889
s(g2951
S'action-1'
p3268
tp3269
F0.8050917894800901
s(S'diff-x-pos--85'
p3270
S'action-4'
p3271
tp3272
F5.509989586155311
s(S'diff-x-pos--63'
p3273
S'prev-action-4'
p3274
tp3275
F-0.5700629546330724
s(g2922
S'prev-action-4'
p3276
tp3277
F-1.0976896473076905
s(S'diff-x-pos--59'
p3278
S'prev-action-1'
p3279
tp3280
F3.096489366185069
sg1810
F2.396466220994703
sg543
F1.5836071043898392
s(g979
S'prev-action-3'
p3281
tp3282
F0.7425888944766216
sg1828
F0.8293100629829979
s(g635
S'action-3'
p3283
tp3284
F-7.2609823695244975
sg2051
F-0.13484366847212131
sg147
F0.29211611728816544
sg188
F-0.0003270797810690229
s(g2857
S'object-0-x-50.0'
p3285
tp3286
F4.861552588274459
sg1016
F-1.2306906185228577
sg701
F0.24848828237041132
sg1905
F10.468312331020018
s(S'diff-x-pos-13'
p3287
S'action-4'
p3288
tp3289
F-4.8242540083840115
s(S'diff-x-pos--65'
p3290
S'prev-action-3'
p3291
tp3292
F1.349238036245806
s(g2282
g1326
tp3293
F-0.35518925237078636
s(g2790
S'prev-action-3'
p3294
tp3295
F-2.2599341005207565
s(S'diff-x-pos--30'
p3296
S'action-3'
p3297
tp3298
F-0.25086849614707374
s(g2162
S'prev-action-4'
p3299
tp3300
F0.6943619678717818
s(g586
S'action-4'
p3301
tp3302
F4.011399382254416
s(g944
S'prev-action-3'
p3303
tp3304
F1.9801421136650292
s(S'diff-x-pos--19'
p3305
S'action-4'
p3306
tp3307
F0.3615315989154855
s(S'diff-x-pos-49'
p3308
S'action-3'
p3309
tp3310
F12.746349496435206
s(S'diff-x-pos--107'
p3311
S'prev-action-1'
p3312
tp3313
F-2.304309234778864
s(g1258
S'action-3'
p3314
tp3315
F-10.223627271233019
s(S'diff-x-pos--27'
p3316
S'action-3'
p3317
tp3318
F-2.4193650742599733
s(S'diff-x-pos--18'
p3319
S'prev-action-3'
p3320
tp3321
F3.2274073043942675
s(g3001
S'action-1'
p3322
tp3323
F3.50375516188903
s(g940
S'action-1'
p3324
tp3325
F2.3037788227517524
s(g1296
S'action-4'
p3326
tp3327
F-7.3806491587455465
s(S'diff-x-pos-23'
p3328
S'action-4'
p3329
tp3330
F-7.172929709094778
s(g1648
S'action-4'
p3331
tp3332
F-6.42256705507315
s(S'diff-x-pos--98'
p3333
S'prev-action-3'
p3334
tp3335
F-0.9156152717950029
s(g2186
S'action-4'
p3336
tp3337
F3.315731779870166
s(g543
S'prev-action-1'
p3338
tp3339
F0.4759934619084857
s(S'diff-x-pos-50'
p3340
S'action-4'
p3341
tp3342
F-7.605404431862071
s(g2588
S'object-1-x-110.0'
p3343
tp3344
F5.86054591239996
s(S'diff-x-pos--66'
p3345
S'action-4'
p3346
tp3347
F4.950755950907634
stp3348
Rp3349
.