ccollections
Counter
p0
((dp1
(S'diff-x-pos--89'
p2
S'action-4'
p3
tp4
cnumpy.core.multiarray
scalar
p5
(cnumpy
dtype
p6
(S'f8'
p7
I0
I1
tp8
Rp9
(I3
S'<'
p10
NNNI-1
I-1
I0
tp11
bS'\xc3\\D\xca\xd7\xc7-\xbf'
p12
tp13
Rp14
s(S'action-1'
p15
S'object-1-x-60'
p16
tp17
g5
(g9
S'\xa8\xab\xc9\xbbr\x80\xa6?'
p18
tp19
Rp20
s(S'diff-x-pos-47'
p21
S'prev-action-1'
p22
tp23
g5
(g9
S'\x99*\xc0v#\xba`\xbf'
p24
tp25
Rp26
s(S'action-4'
p27
S'object-1-x-100'
p28
tp29
g5
(g9
S'\xbb\x9c\x7f9 \xd4p?'
p30
tp31
Rp32
s(S'diff-x-pos--94'
p33
S'action-3'
p34
tp35
g5
(g9
S'\xf6\xf3\x15\xae\xb2\xe0K?'
p36
tp37
Rp38
s(S'diff-x-pos--80'
p39
S'action-4'
p40
tp41
g5
(g9
S'\x8fG\x178 \x1fl?'
p42
tp43
Rp44
s(S'action-3'
p45
S'object-0-x-44'
p46
tp47
g5
(g9
S'\xa5\x93\x99\x93\xfa\xfe\xaa?'
p48
tp49
Rp50
s(S'diff-x-pos-2'
p51
S'prev-action-3'
p52
tp53
g5
(g9
S'11\xb3\\\xe8\x08H?'
p54
tp55
Rp56
s(S'diff-x-pos--7'
p57
S'prev-action-1'
p58
tp59
g5
(g9
S'\xc2\x85LE\xaf\x18u\xbf'
p60
tp61
Rp62
s(S'diff-x-pos--27'
p63
S'action-4'
p64
tp65
g5
(g9
S'\x959h C\x82k?'
p66
tp67
Rp68
s(S'diff-x-pos-40'
p69
S'action-3'
p70
tp71
g5
(g9
S'\xa2\xdd\x0b%\x0c\x93P?'
p72
tp73
Rp74
s(S'diff-x-pos-54'
p75
S'action-1'
p76
tp77
g5
(g9
S'&\x12(\x9b\x9b<z?'
p78
tp79
Rp80
s(S'diff-x-pos--43'
p81
S'prev-action-4'
p82
tp83
g5
(g9
S'9~x\x81\xd0\xdfd?'
p84
tp85
Rp86
sS'diff-y-pos-0'
p87
g5
(g9
S'\x0b!O\xe2\x99\xb5`?'
p88
tp89
Rp90
s(S'action-3'
p91
S'object-0-x-92'
p92
tp93
g5
(g9
S'\xdd+\xdd\x05\x18\xa7\x90?'
p94
tp95
Rp96
s(S'action-3'
p97
S'object-0-x-64'
p98
tp99
g5
(g9
S'\x17\xb1[\xf9al\xb6?'
p100
tp101
Rp102
sS'object-1-x-116'
p103
g5
(g9
S'\xf2\\\x87\xe5\x84v\x87\xbf'
p104
tp105
Rp106
sS'object-1-x-112'
p107
g5
(g9
S'\xc8A\xa9\x94\xc6Kw\xbf'
p108
tp109
Rp110
s(S'diff-x-pos--35'
p111
S'action-3'
p112
tp113
g5
(g9
S'\xfb\xb1u\xa6esf?'
p114
tp115
Rp116
s(S'diff-x-pos--25'
p117
S'prev-action-4'
p118
tp119
g5
(g9
S'\x12\xcc\xdf\x10F\xa5~?'
p120
tp121
Rp122
s(S'diff-x-pos--75'
p123
S'prev-action-4'
p124
tp125
g5
(g9
S'\xce\x08\tk\xecYl?'
p126
tp127
Rp128
s(S'diff-x-pos-43'
p129
S'prev-action-4'
p130
tp131
g5
(g9
S'\x05%\xef\xbb\xad_S?'
p132
tp133
Rp134
s(S'diff-x-pos--26'
p135
S'prev-action-1'
p136
tp137
g5
(g9
S"\xc9\xd8\x83\x01W'\x89?"
p138
tp139
Rp140
s(S'diff-x-pos--9'
p141
S'action-3'
p142
tp143
g5
(g9
S'\xba\x10\x8f\xf1\xcd)s?'
p144
tp145
Rp146
sg46
g5
(g9
S'\x8d\x822\xd3"\x14\xc4?'
p147
tp148
Rp149
s(S'diff-x-pos-40'
p150
S'prev-action-1'
p151
tp152
g5
(g9
S'\xd0\xa3\xf6\x8fZ\xc6\x17?'
p153
tp154
Rp155
sS'object-0-x-48'
p156
g5
(g9
S'\xc8|\xb0\x15\x7f\x92\xc2?'
p157
tp158
Rp159
s(S'diff-x-pos--7'
p160
S'action-3'
p161
tp162
g5
(g9
S'4\xec\x1f`\x1f&q\xbf'
p163
tp164
Rp165
s(S'diff-x-pos--61'
p166
S'action-3'
p167
tp168
g5
(g9
S'z\x048\xa3D\xbe_?'
p169
tp170
Rp171
s(S'action-3'
p172
S'object-1-x-92'
p173
tp174
g5
(g9
S'#O\xa9\x90G\x1f\x83?'
p175
tp176
Rp177
s(S'diff-x-pos-51'
p178
S'action-1'
p179
tp180
g5
(g9
S'\x9ct\xc3\x00\x1bSk?'
p181
tp182
Rp183
s(S'diff-x-pos-21'
p184
S'prev-action-1'
p185
tp186
g5
(g9
S'\x88\xfd\x0b@1\xa74\xbf'
p187
tp188
Rp189
s(S'diff-x-pos-33'
p190
S'prev-action-4'
p191
tp192
g5
(g9
S'\xce@}a\x18\xfcQ?'
p193
tp194
Rp195
s(S'diff-x-pos--62'
p196
S'prev-action-3'
p197
tp198
g5
(g9
S'\x04\xc0\xa6\xa9\x98\x15a?'
p199
tp200
Rp201
s(S'action-4'
p202
S'object-0-x-8'
p203
tp204
g5
(g9
S"W`x'\x1c\x02\x0e?"
p205
tp206
Rp207
s(S'diff-x-pos--110'
p208
S'prev-action-1'
p209
tp210
g5
(g9
S'\x8a\x98\xc5\xa6\xf8SY?'
p211
tp212
Rp213
sS'object-1-x-84'
p214
g5
(g9
S'h\xda\x06\x81\x15=\x98?'
p215
tp216
Rp217
s(S'diff-x-pos-17'
p218
S'action-1'
p219
tp220
g5
(g9
S'f\xf9\x04<{#G?'
p221
tp222
Rp223
s(S'diff-x-pos--13'
p224
S'action-4'
p225
tp226
g5
(g9
S',\x1dR\xd2Z3X?'
p227
tp228
Rp229
s(S'diff-x-pos-9'
p230
S'action-3'
p231
tp232
g5
(g9
S'J\xbb\x14\xbcz\xd7[?'
p233
tp234
Rp235
s(S'diff-x-pos--98'
p236
S'action-1'
p237
tp238
g5
(g9
S'\x00 \xa1\xc4Z\xf6\x1c?'
p239
tp240
Rp241
s(S'action-4'
p242
S'object-1-x-92'
p243
tp244
g5
(g9
S'\xd6d/K\xd6#n?'
p245
tp246
Rp247
s(S'action-3'
p248
S'object-1-x-100'
p249
tp250
g5
(g9
S'eQ]\xfe\x97\xd2\x80?'
p251
tp252
Rp253
sS'object-1-y-8'
p254
g5
(g9
S'<\xb2h\xc7\xa3\xdd\xad?'
p255
tp256
Rp257
s(S'diff-x-pos--69'
p258
S'action-4'
p259
tp260
g5
(g9
S'r\x88\xa3\xa4\xd0\xe0[\xbf'
p261
tp262
Rp263
s(S'diff-x-pos--46'
p264
S'prev-action-4'
p265
tp266
g5
(g9
S'\xdd\xfa\xb4\x06\xdc\x1dt?'
p267
tp268
Rp269
s(S'diff-x-pos--49'
p270
S'prev-action-4'
p271
tp272
g5
(g9
S'\xa8\xcf\x8d6\xeatb?'
p273
tp274
Rp275
s(S'diff-x-pos-25'
p276
S'action-4'
p277
tp278
g5
(g9
S'4\x93\xdf\xb0|\x82j\xbf'
p279
tp280
Rp281
s(S'diff-x-pos--13'
p282
S'prev-action-4'
p283
tp284
g5
(g9
S'B\x8e,r(\x13^\xbf'
p285
tp286
Rp287
s(S'diff-x-pos--37'
p288
S'action-4'
p289
tp290
g5
(g9
S'|\x19\x8fl\x99\xa3c?'
p291
tp292
Rp293
s(S'diff-x-pos--27'
p294
S'prev-action-1'
p295
tp296
g5
(g9
S'\xe7\x02\xd6?\xaaQu?'
p297
tp298
Rp299
s(S'diff-x-pos-52'
p300
S'action-4'
p301
tp302
g5
(g9
S'\xc7\x1eK#\xb6"q?'
p303
tp304
Rp305
s(S'diff-x-pos--8'
p306
S'action-1'
p307
tp308
g5
(g9
S'\x04\x02\x84;9$i?'
p309
tp310
Rp311
sS'object-0-x-0'
p312
g5
(g9
S'\xf6\xc9#$Bu3?'
p313
tp314
Rp315
s(S'diff-x-pos--55'
p316
S'action-4'
p317
tp318
g5
(g9
S'\xb0f.\x8c\xaf3\x1e?'
p319
tp320
Rp321
sS'object-0-x-4'
p322
g5
(g9
S'\xfaU\xdb\x0b\xfbQ\x83?'
p323
tp324
Rp325
s(S'diff-x-pos--31'
p326
S'action-1'
p327
tp328
g5
(g9
S'\xfc\x00\x8b\x13\xdc9u?'
p329
tp330
Rp331
s(S'diff-x-pos-48'
p332
S'action-1'
p333
tp334
g5
(g9
S'n\x14ePL\xa2b?'
p335
tp336
Rp337
s(S'diff-x-pos-4'
p338
S'prev-action-4'
p339
tp340
g5
(g9
S'\xc6\xa7D\x01\x1axf\xbf'
p341
tp342
Rp343
s(S'action-4'
p344
S'object-0-x-76'
p345
tp346
g5
(g9
S'\xe3\x14-\xa4+\xc7\xb1?'
p347
tp348
Rp349
s(S'diff-x-pos--30'
p350
S'prev-action-1'
p351
tp352
g5
(g9
S'\xdb\x1c\x90\xc5\x1a\x0c\x7f?'
p353
tp354
Rp355
s(S'diff-x-pos--61'
p356
S'action-1'
p357
tp358
g5
(g9
S'\xbd\n\xf0\xdax\xcbh?'
p359
tp360
Rp361
s(S'diff-x-pos--63'
p362
S'prev-action-1'
p363
tp364
g5
(g9
S'\xa03\x92\xa0\xbe^F?'
p365
tp366
Rp367
s(S'diff-x-pos-3'
p368
S'action-4'
p369
tp370
g5
(g9
S'z\xf2\xcdH\x9a!{\xbf'
p371
tp372
Rp373
s(S'diff-x-pos-26'
p374
S'action-4'
p375
tp376
g5
(g9
S'd3Jx\xee\x9er\xbf'
p377
tp378
Rp379
s(S'diff-x-pos--13'
p380
S'action-3'
p381
tp382
g5
(g9
S'\xfaz\xd5\x9e\xd0\xa1>?'
p383
tp384
Rp385
s(S'diff-x-pos--26'
p386
S'action-1'
p387
tp388
g5
(g9
S'\x91\xee\xa0H\xedy\x7f?'
p389
tp390
Rp391
s(g123
S'action-4'
p392
tp393
g5
(g9
S'\xfe\x82\xa0\xec`\xf8p?'
p394
tp395
Rp396
s(S'diff-x-pos--23'
p397
S'prev-action-4'
p398
tp399
g5
(g9
S'C\xe1\xa9\x81!Tn?'
p400
tp401
Rp402
s(S'diff-x-pos-37'
p403
S'action-3'
p404
tp405
g5
(g9
S'r\x16\xae\x19\xbb=E?'
p406
tp407
Rp408
s(S'diff-x-pos-55'
p409
S'action-4'
p410
tp411
g5
(g9
S'\x8a`\xa3l\x80\xb5.?'
p412
tp413
Rp414
s(S'action-3'
p415
S'object-1-x-112'
p416
tp417
g5
(g9
S'hx\xa8J\x99\xa5s\xbf'
p418
tp419
Rp420
s(S'diff-x-pos--105'
p421
S'prev-action-4'
p422
tp423
g5
(g9
S'\xc3\xe1IQ\xbe\x01$\xbf'
p424
tp425
Rp426
s(S'diff-x-pos--59'
p427
S'action-3'
p428
tp429
g5
(g9
S'D\xb9f\x01$=V?'
p430
tp431
Rp432
s(S'action-4'
p433
S'object-1-x-68'
p434
tp435
g5
(g9
S".\x93\xc7^'Vw?"
p436
tp437
Rp438
s(S'object-0-dx-1'
p439
S'prev-action-3'
p440
tp441
g5
(g9
S'k\x08\xfeO\xea\xd6\xb2?'
p442
tp443
Rp444
sS'object-0-dy-1'
p445
g5
(g9
S'5\xb5\xe1[\xdfE\xc5?'
p446
tp447
Rp448
s(S'diff-x-pos--39'
p449
S'prev-action-3'
p450
tp451
g5
(g9
S'\xbe\xb4*>$Du?'
p452
tp453
Rp454
s(S'diff-x-pos-2'
p455
S'action-3'
p456
tp457
g5
(g9
S'\x8by\x11&\xb6\xea\x84\xbf'
p458
tp459
Rp460
s(S'action-1'
p461
S'object-0-x-108'
p462
tp463
g5
(g9
S'V\x94\xce\xe4\xef@z?'
p464
tp465
Rp466
s(S'diff-x-pos-4'
p467
S'prev-action-3'
p468
tp469
g5
(g9
S'\xec\xc4\x08G\xa0\xf9f\xbf'
p470
tp471
Rp472
s(S'diff-x-pos--3'
p473
S'action-4'
p474
tp475
g5
(g9
S'.\xc0\xe3\x1e\xb8\xc6r\xbf'
p476
tp477
Rp478
s(S'diff-x-pos-3'
p479
S'action-3'
p480
tp481
g5
(g9
S'/0K*\x7f\xb1x\xbf'
p482
tp483
Rp484
sS'prev-action-0'
p485
g5
(g9
S'\xda\xc7\x84\xe0\xdd\xbf\xcf?'
p486
tp487
Rp488
sS'prev-action-1'
p489
g5
(g9
S'\xdb\xb0\x98\xa7\xd0\x84\xed?'
p490
tp491
Rp492
s(S'diff-x-pos--90'
p493
S'prev-action-3'
p494
tp495
g5
(g9
S'\xecA\x98\xf3\xb8~(?'
p496
tp497
Rp498
sg440
g5
(g9
S'XL\x10\xbfp\xba\xeb?'
p499
tp500
Rp501
sS'prev-action-4'
p502
g5
(g9
S' ]\x89\xba\xb5\x01\xef?'
p503
tp504
Rp505
s(S'diff-x-pos-1'
p506
S'prev-action-1'
p507
tp508
g5
(g9
S"'\xca\xb6\x175#_\xbf"
p509
tp510
Rp511
s(S'diff-x-pos--36'
p512
S'action-1'
p513
tp514
g5
(g9
S'\xeb\xe7\x83\xc2Q8~?'
p515
tp516
Rp517
s(S'diff-x-pos-43'
p518
S'action-1'
p519
tp520
g5
(g9
S'\xa6\x813\xa1F\x02Z?'
p521
tp522
Rp523
s(g111
S'prev-action-4'
p524
tp525
g5
(g9
S'\x99\xa8`\x1bG\xaf\x82?'
p526
tp527
Rp528
s(S'diff-x-pos-55'
p529
S'action-3'
p530
tp531
g5
(g9
S'\xa4\x80\xbcU\x9b\x171?'
p532
tp533
Rp534
s(S'diff-x-pos-45'
p535
S'prev-action-3'
p536
tp537
g5
(g9
S'\x98\x9az\x91~\xd18\xbf'
p538
tp539
Rp540
s(S'diff-x-pos--34'
p541
S'prev-action-3'
p542
tp543
g5
(g9
S'?!D7\x11\xf8k?'
p544
tp545
Rp546
s(S'diff-x-pos-6'
p547
S'prev-action-4'
p548
tp549
g5
(g9
S'\x17\xff\xaa\x07\xf4:\x84\xbf'
p550
tp551
Rp552
s(S'diff-x-pos--17'
p553
S'action-1'
p554
tp555
g5
(g9
S'\xcd\x1d\x18\xb6\xd7\x9aW?'
p556
tp557
Rp558
s(S'action-1'
p559
S'object-0-x-36'
p560
tp561
g5
(g9
S'=\x87\xebp}\xb0\xa1?'
p562
tp563
Rp564
s(S'diff-x-pos-24'
p565
S'action-1'
p566
tp567
g5
(g9
S'\xfc\x13\x96\xbcyR^?'
p568
tp569
Rp570
s(S'diff-x-pos-2'
p571
S'action-4'
p572
tp573
g5
(g9
S'M\xea+oHip\xbf'
p574
tp575
Rp576
s(S'diff-x-pos-29'
p577
S'action-3'
p578
tp579
g5
(g9
S'.\x18[\xba0[\x07?'
p580
tp581
Rp582
s(S'diff-x-pos-30'
p583
S'action-3'
p584
tp585
g5
(g9
S'\x96\x7f\x0bT\xb6\xbfY\xbf'
p586
tp587
Rp588
s(S'diff-x-pos-38'
p589
S'prev-action-3'
p590
tp591
g5
(g9
S'\x89q\xd5\x9d\x89)T\xbf'
p592
tp593
Rp594
s(S'diff-x-pos--4'
p595
S'action-1'
p596
tp597
g5
(g9
S'\xc9*\xe3\x1bu\xdex?'
p598
tp599
Rp600
sS'object-1-dx--1'
p601
g5
(g9
S'\x07\x0e~.im\xad\xbf'
p602
tp603
Rp604
s(S'diff-x-pos--95'
p605
S'action-4'
p606
tp607
g5
(g9
S'\xc3\x99\xe2\xdc\xbf\x08Z?'
p608
tp609
Rp610
s(S'diff-x-pos--33'
p611
S'action-1'
p612
tp613
g5
(g9
S'\xc6\xae\x9d\x83\xf1\x12u?'
p614
tp615
Rp616
s(S'action-4'
p617
S'object-0-x-104'
p618
tp619
g5
(g9
S'3\x08TD\xc3d\x90?'
p620
tp621
Rp622
s(S'action-3'
p623
S'object-1-x-88'
p624
tp625
g5
(g9
S'\xe8m\xe3\xe0\xf9\x08\x85?'
p626
tp627
Rp628
s(S'action-4'
p629
S'object-1-x-124'
p630
tp631
g5
(g9
S'T\xf19 \x1b\xf3\x86?'
p632
tp633
Rp634
s(S'diff-x-pos--51'
p635
S'action-1'
p636
tp637
g5
(g9
S'\xc9\xa9\xfb\xaaE\x04m?'
p638
tp639
Rp640
s(S'diff-x-pos-25'
p641
S'action-3'
p642
tp643
g5
(g9
S'\x07w\x1e/\xe5\x97[?'
p644
tp645
Rp646
s(S'diff-x-pos--4'
p647
S'prev-action-4'
p648
tp649
g5
(g9
S'\xc6\xecF\x06\x02&I\xbf'
p650
tp651
Rp652
s(S'diff-x-pos--24'
p653
S'action-1'
p654
tp655
g5
(g9
S'\xa9\x8a\x7fmJm\x7f?'
p656
tp657
Rp658
s(g601
S'action-4'
p659
tp660
g5
(g9
S'\xe2h-}\xde\xd4\xaf\xbf'
p661
tp662
Rp663
s(S'diff-x-pos-38'
p664
S'action-4'
p665
tp666
g5
(g9
S'\x18\xf5\xfc\xc0\xf2\xe0C\xbf'
p667
tp668
Rp669
s(S'diff-x-pos--77'
p670
S'action-4'
p671
tp672
g5
(g9
S'\xf9\x90\xc3\x97\x1e\xbfP?'
p673
tp674
Rp675
s(g572
S'object-1-x-80'
p676
tp677
g5
(g9
S'\xefe\xe6|\xbf\xb0s?'
p678
tp679
Rp680
s(S'diff-x-pos-57'
p681
S'action-4'
p682
tp683
g5
(g9
S']\x1c\xab\xad\r*7?'
p684
tp685
Rp686
s(S'diff-x-pos--97'
p687
S'prev-action-3'
p688
tp689
g5
(g9
S'{\x837\xce\xb9C1?'
p690
tp691
Rp692
s(S'diff-x-pos-35'
p693
S'prev-action-1'
p694
tp695
g5
(g9
S'OUz\xd5]\xe17?'
p696
tp697
Rp698
s(S'action-4'
p699
S'object-0-x-16'
p700
tp701
g5
(g9
S'&;\xe6@Opo?'
p702
tp703
Rp704
s(S'diff-x-pos-42'
p705
S'prev-action-3'
p706
tp707
g5
(g9
S'6\x1c&\x93\xad\xe6P\xbf'
p708
tp709
Rp710
sS'object-0-x-120'
p711
g5
(g9
S'\x14\xb5\xadpqK\xa2?'
p712
tp713
Rp714
sS'object-0-x-124'
p715
g5
(g9
S'm6\x07\xb8!\x9c\xa7?'
p716
tp717
Rp718
sS'object-0-x-128'
p719
g5
(g9
S'\xe1z\x91E\x07\\\x1f\xbf'
p720
tp721
Rp722
s(S'diff-x-pos--10'
p723
S'action-1'
p724
tp725
g5
(g9
S'4\x8fj\xd5\xf4Yr?'
p726
tp727
Rp728
s(S'action-1'
p729
S'object-0-x-80'
p730
tp731
g5
(g9
S'\xda\x00\xad\xe6\xc1\x99\x96?'
p732
tp733
Rp734
sS'object-0-x-40'
p735
g5
(g9
S'\xd4\x1b\r\xd9E\x9e\xc3?'
p736
tp737
Rp738
s(S'diff-x-pos-19'
p739
S'prev-action-3'
p740
tp741
g5
(g9
S':\xdf\xec\xef<\xca3\xbf'
p742
tp743
Rp744
s(S'diff-x-pos--114'
p745
S'prev-action-4'
p746
tp747
g5
(g9
S'\x15NM\xf1\x93M4\xbf'
p748
tp749
Rp750
s(S'diff-x-pos-34'
p751
S'prev-action-1'
p752
tp753
g5
(g9
S'\xb8\xc5#PL\xb7`\xbf'
p754
tp755
Rp756
sS'diff-x-pos--54'
p757
g5
(g9
S'\xfa?\r\x14\xe4\xed~?'
p758
tp759
Rp760
sg316
g5
(g9
S'\x83d\xc0\xca\x9b=d?'
p761
tp762
Rp763
sS'diff-x-pos--56'
p764
g5
(g9
S'p\x82Cil\xec\x9c?'
p765
tp766
Rp767
sS'diff-x-pos--57'
p768
g5
(g9
S'\r\xd8\x9b\x9c\x18Kv?'
p769
tp770
Rp771
sS'diff-x-pos--50'
p772
g5
(g9
S'\x93\x8c\xb4\x8a\x088\x96?'
p773
tp774
Rp775
sS'diff-x-pos--51'
p776
g5
(g9
S'\xe5\xb4\x85+\x04\xc5\x82?'
p777
tp778
Rp779
sS'diff-x-pos--52'
p780
g5
(g9
S'\xc4@\xd9\xd4\x8a=q?'
p781
tp782
Rp783
sS'diff-x-pos--53'
p784
g5
(g9
S'\xc0\x03(\xf6B\xc4\x88?'
p785
tp786
Rp787
sS'diff-x-pos--58'
p788
g5
(g9
S"'\x05&+R\x81w?"
p789
tp790
Rp791
sS'diff-x-pos--59'
p792
g5
(g9
S'\xb8\xfa7\xca+\xebb?'
p793
tp794
Rp795
s(S'diff-x-pos--38'
p796
S'action-1'
p797
tp798
g5
(g9
S'q\r\x14\x12r\x10f?'
p799
tp800
Rp801
s(S'diff-x-pos--68'
p802
S'action-3'
p803
tp804
g5
(g9
S'\\\xa9m\x8c\xb86`?'
p805
tp806
Rp807
s(S'diff-x-pos--59'
p808
S'prev-action-4'
p809
tp810
g5
(g9
S'P\xaa\xe9\xb4\t\x12@?'
p811
tp812
Rp813
s(S'diff-x-pos--38'
p814
S'prev-action-1'
p815
tp816
g5
(g9
S'\x96\x10M\xb0\xc48\x84?'
p817
tp818
Rp819
s(S'diff-x-pos--14'
p820
S'prev-action-1'
p821
tp822
g5
(g9
S'\x17|r\xe6\x05nt?'
p823
tp824
Rp825
s(S'object-1-dx-1'
p826
S'prev-action-1'
p827
tp828
g5
(g9
S'p\xfc\xb8\xd7\xe7\xe8\x95\xbf'
p829
tp830
Rp831
s(S'diff-x-pos--2'
p832
S'action-4'
p833
tp834
g5
(g9
S'\x13\x80Z\xf8p+_\xbf'
p835
tp836
Rp837
s(S'diff-x-pos--3'
p838
S'prev-action-1'
p839
tp840
g5
(g9
S'\x94I\xeb\x8a0kd\xbf'
p841
tp842
Rp843
s(S'diff-x-pos--28'
p844
g827
tp845
g5
(g9
S'ov8\xaf\x993k?'
p846
tp847
Rp848
s(S'diff-x-pos--71'
p849
S'prev-action-1'
p850
tp851
g5
(g9
S' \x9a\x8a\xab\xfa0A\xbf'
p852
tp853
Rp854
s(S'diff-x-pos--107'
p855
S'prev-action-3'
p856
tp857
g5
(g9
S'\nmoBpn9?'
p858
tp859
Rp860
s(g387
S'object-0-x-40'
p861
tp862
g5
(g9
S'"\x0e\x0eRU\x91\xa9?'
p863
tp864
Rp865
sS'object-1-dx-1'
p866
g5
(g9
S'|*c(\xd5\xde\xa9\xbf'
p867
tp868
Rp869
s(S'diff-x-pos--83'
p870
g629
tp871
g5
(g9
S')\xa4}Y\xaa\xb2[?'
p872
tp873
Rp874
s(S'diff-x-pos--55'
p875
S'prev-action-1'
p876
tp877
g5
(g9
S'\x96\xecOr\xdf\xbb`?'
p878
tp879
Rp880
s(S'diff-x-pos-42'
p881
S'action-3'
p882
tp883
g5
(g9
S'\xf4\x93,\xf5\x05\xcfL?'
p884
tp885
Rp886
s(S'diff-x-pos-10'
p887
S'prev-action-3'
p888
tp889
g5
(g9
S'\xfax\xc6B\x1fMp\xbf'
p890
tp891
Rp892
s(S'diff-x-pos--37'
p893
S'prev-action-1'
p894
tp895
g5
(g9
S'\xb6w\x1c\xac\xaa~z?'
p896
tp897
Rp898
s(S'diff-x-pos--74'
p899
S'action-3'
p900
tp901
g5
(g9
S'\x88\xc5\x92\x88\x16\xffP\xbf'
p902
tp903
Rp904
s(S'diff-x-pos-52'
p905
S'prev-action-1'
p906
tp907
g5
(g9
S'\xf9\xd5\xb0%\xd0gv?'
p908
tp909
Rp910
s(S'diff-x-pos--97'
p911
S'action-3'
p912
tp913
g5
(g9
S'p\xdd/\x0bd\x8e\x12?'
p914
tp915
Rp916
s(S'diff-x-pos-57'
p917
S'prev-action-4'
p918
tp919
g5
(g9
S'aIN\x8f\xc4GE?'
p920
tp921
Rp922
s(S'diff-x-pos--91'
p923
S'prev-action-1'
p924
tp925
g5
(g9
S'\x9a\xfd\xe9\xee\xca\x01I\xbf'
p926
tp927
Rp928
sS'diff-x-pos-12'
p929
g5
(g9
S'}:F\x9b:,\x83\xbf'
p930
tp931
Rp932
sS'diff-x-pos-13'
p933
g5
(g9
S'\xa5Ll50"\x88\xbf'
p934
tp935
Rp936
sS'diff-x-pos-10'
p937
g5
(g9
S'\x990\x00Dr\x03x\xbf'
p938
tp939
Rp940
sS'diff-x-pos-11'
p941
g5
(g9
S'd\x8cd\x1bI\x8c\x80\xbf'
p942
tp943
Rp944
sS'diff-x-pos-16'
p945
g5
(g9
S'<\xda\xb7\x93i\x1c\x85\xbf'
p946
tp947
Rp948
sS'diff-x-pos-17'
p949
g5
(g9
S'u\x08\xad\xc1\x7f?i\xbf'
p950
tp951
Rp952
sS'diff-x-pos-14'
p953
g5
(g9
S'\xe4?U\xa6\xf1[\x8a\xbf'
p954
tp955
Rp956
sS'diff-x-pos-15'
p957
g5
(g9
S'9\xc2\x95\x8c\xeb5\x81\xbf'
p958
tp959
Rp960
s(S'diff-x-pos-28'
p961
S'action-1'
p962
tp963
g5
(g9
S'p\xb9\xbb"\xff|m\xbf'
p964
tp965
Rp966
sS'diff-x-pos-18'
p967
g5
(g9
S'\xb4\xdd\x18\x84a\xdc\x91\xbf'
p968
tp969
Rp970
sS'diff-x-pos-19'
p971
g5
(g9
S'\xf1\xb0\xe4\x90p\x83\x82\xbf'
p972
tp973
Rp974
s(S'diff-x-pos--51'
p975
S'prev-action-1'
p976
tp977
g5
(g9
S'\xa4\xb2\xbd\x16V\x14Q\xbf'
p978
tp979
Rp980
s(g362
S'action-3'
p981
tp982
g5
(g9
S'Z"9T\xd8\xf5L?'
p983
tp984
Rp985
s(S'diff-x-pos-45'
p986
S'prev-action-4'
p987
tp988
g5
(g9
S'\xd2\xe4\n\xae&\xc2@\xbf'
p989
tp990
Rp991
s(g33
S'prev-action-1'
p992
tp993
g5
(g9
S'\xa40Q\xfd+L\x07\xbf'
p994
tp995
Rp996
s(S'diff-x-pos--44'
p997
S'action-3'
p998
tp999
g5
(g9
S'\xa6\x9f\xd0\xc4\xa3\xc3t?'
p1000
tp1001
Rp1002
s(S'diff-x-pos--33'
p1003
S'prev-action-1'
p1004
tp1005
g5
(g9
S'w\x9e\x87\x0e\xf2\xf4e?'
p1006
tp1007
Rp1008
s(S'diff-x-pos--42'
p1009
S'action-3'
p1010
tp1011
g5
(g9
S'\xf9D\x8c1\xf3\xb4u?'
p1012
tp1013
Rp1014
s(S'diff-x-pos-30'
p1015
S'prev-action-3'
p1016
tp1017
g5
(g9
S'\xc8\x7f\xb7\x80 ?B\xbf'
p1018
tp1019
Rp1020
s(S'diff-x-pos--85'
p1021
S'action-3'
p1022
tp1023
g5
(g9
S'\xa4\xc8=\xad\xeb]\x00?'
p1024
tp1025
Rp1026
s(g571
S'prev-action-4'
p1027
tp1028
g5
(g9
S'MA\nY\xbd\xc7\x91\xbf'
p1029
tp1030
Rp1031
s(S'diff-x-pos--44'
p1032
S'action-4'
p1033
tp1034
g5
(g9
S'\x05~\x01,-$e?'
p1035
tp1036
Rp1037
s(S'diff-x-pos--100'
p1038
S'action-4'
p1039
tp1040
g5
(g9
S')\xbd\xb6>\x0f\xd29\xbf'
p1041
tp1042
Rp1043
s(S'diff-x-pos--32'
p1044
S'prev-action-1'
p1045
tp1046
g5
(g9
S'\xf9\xa8j\xb3 \xe1w?'
p1047
tp1048
Rp1049
s(S'diff-x-pos--43'
p1050
S'prev-action-1'
p1051
tp1052
g5
(g9
S"\x96\xa6\xe1\xfcv'n?"
p1053
tp1054
Rp1055
s(S'diff-x-pos--81'
p1056
S'prev-action-4'
p1057
tp1058
g5
(g9
S'\xa98\x84\xec\x86\xe8@\xbf'
p1059
tp1060
Rp1061
s(g172
S'object-0-x-12'
p1062
tp1063
g5
(g9
S'\x16b\x80\xb8\x90\x06,\xbf'
p1064
tp1065
Rp1066
s(S'diff-x-pos-6'
p1067
S'prev-action-1'
p1068
tp1069
g5
(g9
S'\xf9\x13\nrtP\x80\xbf'
p1070
tp1071
Rp1072
s(g535
S'action-3'
p1073
tp1074
g5
(g9
S'4:B\x86\xc3\xa9C\xbf'
p1075
tp1076
Rp1077
s(S'action-1'
p1078
S'object-1-x-124'
p1079
tp1080
g5
(g9
S'n\x84\xb52\xdew\x8c?'
p1081
tp1082
Rp1083
s(S'diff-x-pos--25'
p1084
S'prev-action-1'
p1085
tp1086
g5
(g9
S'\xa80\x19R\xdb\xd8h?'
p1087
tp1088
Rp1089
s(S'diff-x-pos-58'
p1090
S'prev-action-4'
p1091
tp1092
g5
(g9
S"\n\x97`.\xfd\xcf'\xbf"
p1093
tp1094
Rp1095
s(S'diff-x-pos-43'
p1096
S'prev-action-1'
p1097
tp1098
g5
(g9
S'\x0c\xa3\xd1\x19\xa9+b?'
p1099
tp1100
Rp1101
s(S'action-1'
p1102
S'object-1-x-84'
p1103
tp1104
g5
(g9
S'\xdc\xf6 h.\xfb\x89?'
p1105
tp1106
Rp1107
s(S'diff-x-pos-1'
p1108
S'action-1'
p1109
tp1110
g5
(g9
S'\xbf\xc2\t\xec\n\xc9p\xbf'
p1111
tp1112
Rp1113
s(S'action-1'
p1114
S'object-1-x-108'
p1115
tp1116
g5
(g9
S'1\x80\xb2\x1c\xacT\x99?'
p1117
tp1118
Rp1119
s(S'diff-x-pos--90'
p1120
S'action-3'
p1121
tp1122
g5
(g9
S'\xd8\xb7\x84\xa3\xc8"8\xbf'
p1123
tp1124
Rp1125
s(S'diff-x-pos-40'
p1126
S'prev-action-4'
p1127
tp1128
g5
(g9
S'\xa1uM\xb0\xd8\x9f2\xbf'
p1129
tp1130
Rp1131
s(S'diff-x-pos--21'
p1132
S'action-1'
p1133
tp1134
g5
(g9
S'U\x16\xd8*wAG?'
p1135
tp1136
Rp1137
s(g57
S'action-4'
p1138
tp1139
g5
(g9
S'\xf8\xcc\x81<\\\x91\x82\xbf'
p1140
tp1141
Rp1142
s(g473
S'prev-action-4'
p1143
tp1144
g5
(g9
S'\x08\x84\xae(\xb2\xfeQ?'
p1145
tp1146
Rp1147
s(g15
g1127
tp1148
g5
(g9
S'\xc6\xff\x9bO"b\xd4?'
p1149
tp1150
Rp1151
s(S'action-1'
p1152
S'object-1-x-64'
p1153
tp1154
g5
(g9
S'\x8a\xbf\x8c\x01\xe3f\xa6?'
p1155
tp1156
Rp1157
s(S'diff-x-pos--47'
p1158
S'action-1'
p1159
tp1160
g5
(g9
S'\xd9\x02\xd4\x9e\x00\xe4r?'
p1161
tp1162
Rp1163
s(S'object-0-dx--1'
p1164
S'prev-action-1'
p1165
tp1166
g5
(g9
S'\xb3jEX\xd5\xa6\xa9?'
p1167
tp1168
Rp1169
s(S'diff-x-pos-33'
p1170
S'prev-action-3'
p1171
tp1172
g5
(g9
S'\x81V^r5\xae@?'
p1173
tp1174
Rp1175
s(S'action-4'
p1176
S'object-1-x-104'
p1177
tp1178
g5
(g9
S'\x9b6\x89(\xb8\x8a\x8b?'
p1179
tp1180
Rp1181
s(S'diff-x-pos--8'
p1182
S'prev-action-4'
p1183
tp1184
g5
(g9
S'Xz\xee\xa4\x8e\xf3 \xbf'
p1185
tp1186
Rp1187
s(S'action-3'
p1188
S'object-0-x-48'
p1189
tp1190
g5
(g9
S'\x1c\x9d\xba\xf0S\xe8\xa4?'
p1191
tp1192
Rp1193
s(S'diff-x-pos--11'
p1194
S'prev-action-4'
p1195
tp1196
g5
(g9
S'\x9a\x8bN="\x0bj\xbf'
p1197
tp1198
Rp1199
s(S'diff-x-pos--39'
p1200
S'action-3'
p1201
tp1202
g5
(g9
S'\xca\x98\x06\x90\xf2\x02q?'
p1203
tp1204
Rp1205
sS'object-1-y-12'
p1206
g5
(g9
S'\xcf\xb8\x92\xc7\xaa:\xd3?'
p1207
tp1208
Rp1209
s(S'object-0-dx-1'
p1210
S'action-3'
p1211
tp1212
g5
(g9
S'\xa6O\x19\xe1;R\xbf?'
p1213
tp1214
Rp1215
s(S'diff-x-pos--86'
p1216
S'action-3'
p1217
tp1218
g5
(g9
S'\xcd\x8aV\xec%4B?'
p1219
tp1220
Rp1221
s(g270
S'action-3'
p1222
tp1223
g5
(g9
S'\xe3K"\x9d?$P?'
p1224
tp1225
Rp1226
s(S'diff-x-pos-9'
p1227
S'action-4'
p1228
tp1229
g5
(g9
S'\xb3\x9d(\\\xab\xd6l\xbf'
p1230
tp1231
Rp1232
s(S'action-3'
p1233
S'object-0-x-96'
p1234
tp1235
g5
(g9
S'g\x15p\xf9z\xb3\x8a?'
p1236
tp1237
Rp1238
s(S'diff-x-pos--98'
p1239
S'action-4'
p1240
tp1241
g5
(g9
S'|\x14+5\xf3z\x1c?'
p1242
tp1243
Rp1244
s(S'diff-x-pos--58'
p1245
S'prev-action-4'
p1246
tp1247
g5
(g9
S'\xc2\xbb\xab\x80TN[?'
p1248
tp1249
Rp1250
s(S'diff-x-pos-60'
p1251
S'prev-action-4'
p1252
tp1253
g5
(g9
S'\xe0\xc9\xd5\x90O\xf8\xe3\xbe'
p1254
tp1255
Rp1256
sS'object-1-y-16'
p1257
g5
(g9
S'@\x0f\x8c\xb2H}\xcf?'
p1258
tp1259
Rp1260
s(S'diff-x-pos-65'
p1261
S'prev-action-3'
p1262
tp1263
g5
(g9
S'\x1f\xed\xf4l\xf7\x7f\x02\xbf'
p1264
tp1265
Rp1266
s(S'diff-x-pos-37'
p1267
S'prev-action-3'
p1268
tp1269
g5
(g9
S'P\x1f\xcd\xac\xb5\x942\xbf'
p1270
tp1271
Rp1272
s(g224
S'prev-action-3'
p1273
tp1274
g5
(g9
S'\x17\xa3Cv\xf8mf?'
p1275
tp1276
Rp1277
s(g374
S'prev-action-4'
p1278
tp1279
g5
(g9
S'\xbc\xa8X\xbf\xe0\x0fe\xbf'
p1280
tp1281
Rp1282
s(g1032
S'prev-action-1'
p1283
tp1284
g5
(g9
S')\xe3_\xa8\x01:C?'
p1285
tp1286
Rp1287
s(S'action-1'
p1288
S'object-0-x-60'
p1289
tp1290
g5
(g9
S'\x8b\xde\xcf\xc6\xedj\xb5?'
p1291
tp1292
Rp1293
s(S'diff-x-pos--92'
p1294
S'prev-action-3'
p1295
tp1296
g5
(g9
S'\x94\xe4\x87\xe4\xd9\xcfE\xbf'
p1297
tp1298
Rp1299
s(S'diff-x-pos-52'
p1300
S'action-3'
p1301
tp1302
g5
(g9
S'\xffo0\xbc-\xf9]?'
p1303
tp1304
Rp1305
s(g1152
S'prev-action-3'
p1306
tp1307
g5
(g9
S'n\x10\x89\xf8k}\xd1?'
p1308
tp1309
Rp1310
s(S'diff-x-pos-59'
p1311
S'action-1'
p1312
tp1313
g5
(g9
S'\xd7#SZs\xe4\xf1>'
p1314
tp1315
Rp1316
s(S'diff-x-pos-41'
p1317
S'action-1'
p1318
tp1319
g5
(g9
S'OO\x80\x92S\x1ag?'
p1320
tp1321
Rp1322
s(S'diff-x-pos-48'
p1323
g489
tp1324
g5
(g9
S'\xa7\xfb\t0p\x89B?'
p1325
tp1326
Rp1327
s(S'diff-x-pos--79'
p1328
g248
tp1329
g5
(g9
S'\x14.\x9egz&d\xbf'
p1330
tp1331
Rp1332
sS'object-1-x-96'
p1333
g5
(g9
S'\x10*\x7f{}L\x91?'
p1334
tp1335
Rp1336
s(S'diff-x-pos-5'
p1337
S'action-3'
p1338
tp1339
g5
(g9
S'u\xf5\x046\xccKe\xbf'
p1340
tp1341
Rp1342
s(S'action-4'
p1343
g489
tp1344
g5
(g9
S'\xec\xb0\xf2\xee\xed\xf4\xd5?'
p1345
tp1346
Rp1347
s(S'action-1'
p1348
S'object-1-x-68'
p1349
tp1350
g5
(g9
S'A\x80\x1c\xcd_\xaf\x9f?'
p1351
tp1352
Rp1353
s(S'diff-x-pos-27'
p1354
S'prev-action-1'
p1355
tp1356
g5
(g9
S'\x94\xdb\xebx\xb4\x1d\x00\xbf'
p1357
tp1358
Rp1359
s(S'diff-x-pos-13'
p1360
S'prev-action-1'
p1361
tp1362
g5
(g9
S'?b\xb7.\xf9\xcaX?'
p1363
tp1364
Rp1365
s(g45
g485
tp1366
g5
(g9
S'\x08\xd4\xbbalf\xb0?'
p1367
tp1368
Rp1369
s(S'diff-x-pos--49'
p1370
S'action-4'
p1371
tp1372
g5
(g9
S'\xb9CO\x9dh\xf0f?'
p1373
tp1374
Rp1375
s(S'diff-x-pos--75'
p1376
S'action-1'
p1377
tp1378
g5
(g9
S'\x941\xbb!\x96\x06j?'
p1379
tp1380
Rp1381
s(S'diff-x-pos--46'
p1382
S'action-4'
p1383
tp1384
g5
(g9
S'\x9f\xdc\ti\xa9\xe0d?'
p1385
tp1386
Rp1387
s(S'diff-x-pos--23'
p1388
S'prev-action-1'
p1389
tp1390
g5
(g9
S'\xf4\x9d\xfa \xe3\xedr?'
p1391
tp1392
Rp1393
s(S'diff-x-pos--58'
p1394
S'prev-action-3'
p1395
tp1396
g5
(g9
S'\x92\xf3\xe8\xce8\x0cs?'
p1397
tp1398
Rp1399
s(S'diff-x-pos-56'
p1400
S'prev-action-4'
p1401
tp1402
g5
(g9
S'\x95\x15o$\xdb\x12-?'
p1403
tp1404
Rp1405
s(S'action-3'
p1406
S'object-1-x-104'
p1407
tp1408
g5
(g9
S'A+m\x92\x07\xff\x86?'
p1409
tp1410
Rp1411
sS'object-0-x-56'
p1412
g5
(g9
S'1>%\x07\x15.\xcc?'
p1413
tp1414
Rp1415
s(S'diff-x-pos--3'
p1416
S'action-1'
p1417
tp1418
g5
(g9
S'\xd6%7\x84\xea\xce-\xbf'
p1419
tp1420
Rp1421
sS'object-0-x-52'
p1422
g5
(g9
S'Z\r\x1b7\x08\xb0\xc5?'
p1423
tp1424
Rp1425
s(S'diff-x-pos--12'
p1426
S'action-1'
p1427
tp1428
g5
(g9
S'a0\x84H\xf5qd?'
p1429
tp1430
Rp1431
sS'diff-x-pos--15'
p1432
g5
(g9
S'\xbe>\xf8\xff\xd1\xd5\x8a?'
p1433
tp1434
Rp1435
s(S'diff-x-pos-15'
p1436
S'action-3'
p1437
tp1438
g5
(g9
S'\xafH\x0c\xbd\x13@I\xbf'
p1439
tp1440
Rp1441
s(S'diff-x-pos--29'
p1442
S'action-1'
p1443
tp1444
g5
(g9
S'\x82\x93\t\xed\xc8gt?'
p1445
tp1446
Rp1447
s(S'diff-x-pos--52'
p1448
S'action-1'
p1449
tp1450
g5
(g9
S'b[\xa8\x13\xfb\xad]?'
p1451
tp1452
Rp1453
s(S'diff-x-pos--62'
p1454
S'action-1'
p1455
tp1456
g5
(g9
S'7C\xc9\xa1&q\x81?'
p1457
tp1458
Rp1459
s(g949
S'prev-action-1'
p1460
tp1461
g5
(g9
S'\xc00=*T\xc9@\xbf'
p1462
tp1463
Rp1464
s(S'diff-x-pos-18'
p1465
S'prev-action-3'
p1466
tp1467
g5
(g9
S'\xcd\x95\xd1\xcfY\xc8*?'
p1468
tp1469
Rp1470
s(S'diff-x-pos--9'
p1471
S'action-4'
p1472
tp1473
g5
(g9
S'\x91~\\Lg7W\xbf'
p1474
tp1475
Rp1476
s(S'action-1'
p1477
S'object-0-x-104'
p1478
tp1479
g5
(g9
S'\x8a\x97\x0f\x88[\xc1n?'
p1480
tp1481
Rp1482
s(S'diff-x-pos--64'
p1483
S'prev-action-3'
p1484
tp1485
g5
(g9
S'v\x8bz\xd3\x7f\x07M\xbf'
p1486
tp1487
Rp1488
s(S'diff-x-pos-21'
p1489
S'action-1'
p1490
tp1491
g5
(g9
S'\xa1\xe2\xa9\x95\r\x12\x12\xbf'
p1492
tp1493
Rp1494
s(S'diff-x-pos--41'
p1495
S'action-1'
p1496
tp1497
g5
(g9
S'|\x07\xe5i\xc2;v?'
p1498
tp1499
Rp1500
s(g166
S'prev-action-3'
p1501
tp1502
g5
(g9
S'\xec\x179\xebd!X?'
p1503
tp1504
Rp1505
s(S'diff-x-pos--76'
p1506
S'prev-action-4'
p1507
tp1508
g5
(g9
S'\xf8\x01z\xb4\x87\x10o?'
p1509
tp1510
Rp1511
s(S'diff-x-pos-46'
p1512
S'prev-action-4'
p1513
tp1514
g5
(g9
S'\xa2\xcbb\xc5\x92\xaaQ\xbf'
p1515
tp1516
Rp1517
s(S'diff-x-pos--87'
p1518
S'prev-action-3'
p1519
tp1520
g5
(g9
S'\x0c\xea5r\x05s-?'
p1521
tp1522
Rp1523
s(S'diff-x-pos--84'
p1524
S'action-1'
p1525
tp1526
g5
(g9
S'33\x19SJ\xf2\xdc>'
p1527
tp1528
Rp1529
s(S'diff-x-pos--36'
p1530
S'action-4'
p1531
tp1532
g5
(g9
S'8Di,\x0fzr?'
p1533
tp1534
Rp1535
s(g1096
S'action-4'
p1536
tp1537
g5
(g9
S'%v\xdf\x00\x1c`G?'
p1538
tp1539
Rp1540
sS'object-1-y-4'
p1541
g5
(g9
S'\xf8\x8cr\xb6\x89!\x7f?'
p1542
tp1543
Rp1544
s(S'diff-x-pos--108'
p1545
S'prev-action-3'
p1546
tp1547
g5
(g9
S'\xe1b\x089\n\t4\xbf'
p1548
tp1549
Rp1550
s(S'diff-x-pos--34'
p1551
S'prev-action-4'
p1552
tp1553
g5
(g9
S'=\xdeoA\xc2\xefu?'
p1554
tp1555
Rp1556
s(S'diff-x-pos-7'
p1557
S'action-4'
p1558
tp1559
g5
(g9
S'\xeeo8\x8e\xb3Mr\xbf'
p1560
tp1561
Rp1562
s(S'diff-x-pos-22'
p1563
S'action-4'
p1564
tp1565
g5
(g9
S'\x9a\xc91cI\xe7w\xbf'
p1566
tp1567
Rp1568
s(S'diff-x-pos--20'
p1569
S'prev-action-3'
p1570
tp1571
g5
(g9
S'$*^I\xa3\x8e^?'
p1572
tp1573
Rp1574
s(S'diff-x-pos-54'
p1575
S'prev-action-1'
p1576
tp1577
g5
(g9
S'\xbfR}\x99\x7f\xf7~?'
p1578
tp1579
Rp1580
s(S'diff-x-pos-8'
p1581
S'prev-action-3'
p1582
tp1583
g5
(g9
S'L\xa6\xe7\xfb\xfe)f\xbf'
p1584
tp1585
Rp1586
s(S'diff-x-pos--72'
p1587
g1078
tp1588
g5
(g9
S'\xec\xe4\xb5\xb6\x17\xe17?'
p1589
tp1590
Rp1591
s(g784
S'action-4'
p1592
tp1593
g5
(g9
S'\x85F:z\xbf\x14f?'
p1594
tp1595
Rp1596
s(S'diff-x-pos--19'
p1597
S'prev-action-3'
p1598
tp1599
g5
(g9
S'\xfd\xc6\x10=\xf3\xafz?'
p1600
tp1601
Rp1602
s(S'diff-x-pos--88'
p1603
S'action-4'
p1604
tp1605
g5
(g9
S'F`\xbb\x18\xde^Z?'
p1606
tp1607
Rp1608
s(S'action-4'
p1609
S'object-1-x-60'
p1610
tp1611
g5
(g9
S"\xd0)\xd4\x9en'M?"
p1612
tp1613
Rp1614
s(S'diff-x-pos-47'
p1615
g1152
tp1616
g5
(g9
S'\x9ag#\x83U\x06b?'
p1617
tp1618
Rp1619
s(S'diff-x-pos--35'
p1620
S'prev-action-3'
p1621
tp1622
g5
(g9
S'\xe6W\x93\xaaw\x94e?'
p1623
tp1624
Rp1625
s(S'diff-x-pos--95'
p1626
S'action-1'
p1627
tp1628
g5
(g9
S'\xf7\xa7\x08\x16v\xf6a?'
p1629
tp1630
Rp1631
s(S'diff-x-pos--76'
p1632
S'prev-action-3'
p1633
tp1634
g5
(g9
S'D\xeb;\xf5\xd8 \x18?'
p1635
tp1636
Rp1637
s(S'diff-x-pos--11'
p1638
S'prev-action-1'
p1639
tp1640
g5
(g9
S'\xb6\xab-f\xe4\x87b\xbf'
p1641
tp1642
Rp1643
s(S'diff-x-pos--16'
p1644
S'action-1'
p1645
tp1646
g5
(g9
S'6Uz#\xc19|?'
p1647
tp1648
Rp1649
s(S'diff-x-pos--10'
p1650
S'prev-action-4'
p1651
tp1652
g5
(g9
S'\xc1\x86?\xeb9\xa6G?'
p1653
tp1654
Rp1655
s(S'diff-x-pos-50'
p1656
S'prev-action-4'
p1657
tp1658
g5
(g9
S'\xc4\xb7\xbeF\xdcS,\xbf'
p1659
tp1660
Rp1661
s(S'diff-x-pos--6'
p1662
S'prev-action-3'
p1663
tp1664
g5
(g9
S'\x90\xe5\xc0g\x86\xa5Y?'
p1665
tp1666
Rp1667
s(S'diff-x-pos-53'
p1668
g1165
tp1669
g5
(g9
S'[\x88\x92\xeb\x9e^a\xbf'
p1670
tp1671
Rp1672
s(S'diff-x-pos--48'
p1673
S'action-1'
p1674
tp1675
g5
(g9
S'\xde\xf5&\xd3\xd54\x8c?'
p1676
tp1677
Rp1678
s(S'diff-x-pos--45'
p1679
S'action-3'
p1680
tp1681
g5
(g9
S'\x17\x91.\xbeQ\x07p?'
p1682
tp1683
Rp1684
s(S'diff-x-pos--66'
p1685
S'prev-action-3'
p1686
tp1687
g5
(g9
S's\xba2\xafHzj?'
p1688
tp1689
Rp1690
s(S'diff-x-pos--77'
p1691
S'action-1'
p1692
tp1693
g5
(g9
S'P4\x12\xe1?\x93D?'
p1694
tp1695
Rp1696
s(g39
S'prev-action-3'
p1697
tp1698
g5
(g9
S'\xc3\xb7\xe7\xba\xa3WO?'
p1699
tp1700
Rp1701
s(S'diff-x-pos-36'
p1702
S'prev-action-1'
p1703
tp1704
g5
(g9
S'\x06\xa0v\x11\t-D?'
p1705
tp1706
Rp1707
s(S'action-1'
p1708
S'object-0-x-32'
p1709
tp1710
g5
(g9
S'\x84\xdb\xa5\xde\xf5I\x96?'
p1711
tp1712
Rp1713
s(S'diff-x-pos-35'
p1714
S'prev-action-4'
p1715
tp1716
g5
(g9
S'\xb7\xeaee\x94\x03H?'
p1717
tp1718
Rp1719
s(S'diff-x-pos-27'
p1720
S'prev-action-4'
p1721
tp1722
g5
(g9
S'k\xb9\xe8\x1d\t\x91b?'
p1723
tp1724
Rp1725
s(S'diff-x-pos--45'
p1726
S'prev-action-3'
p1727
tp1728
g5
(g9
S'\xa1\x00\xbb-2}Z?'
p1729
tp1730
Rp1731
s(S'diff-x-pos--48'
p1732
S'prev-action-1'
p1733
tp1734
g5
(g9
S',\xf2V\x17~\xe2>\xbf'
p1735
tp1736
Rp1737
s(S'action-3'
p1738
S'object-0-x-112'
p1739
tp1740
g5
(g9
S'\x8e\x93\xaa\xe8n3\x90?'
p1741
tp1742
Rp1743
s(S'diff-x-pos--60'
p1744
S'action-1'
p1745
tp1746
g5
(g9
S'\xdb\xe5\xcd\x8e\x99Nh\xbf'
p1747
tp1748
Rp1749
s(S'diff-x-pos--10'
p1750
S'action-4'
p1751
tp1752
g5
(g9
S'\xec\x9d\x8a9\xa2\xf7v\xbf'
p1753
tp1754
Rp1755
s(S'object-1-dx--1'
p1756
g489
tp1757
g5
(g9
S'x>\xf6\xbcN\x97\x93\xbf'
p1758
tp1759
Rp1760
s(S'diff-x-pos--40'
p1761
S'action-4'
p1762
tp1763
g5
(g9
S'9\xe6\x9d\t+\xbcW?'
p1764
tp1765
Rp1766
s(S'action-4'
p1767
S'object-1-x-120'
p1768
tp1769
g5
(g9
S'\xeaY\xc6\x98\xe1\xba\x95?'
p1770
tp1771
Rp1772
s(S'diff-x-pos-16'
p1773
S'action-1'
p1774
tp1775
g5
(g9
S'\xbb\xf7X\x02\x99WU\xbf'
p1776
tp1777
Rp1778
s(S'diff-x-pos-39'
p1779
S'prev-action-1'
p1780
tp1781
g5
(g9
S'K\xd2\x8d\xe3"\xd5X\xbf'
p1782
tp1783
Rp1784
s(S'diff-x-pos--12'
p1785
S'prev-action-1'
p1786
tp1787
g5
(g9
S'\xb5\x8f\x15,`\xa44\xbf'
p1788
tp1789
Rp1790
s(S'diff-x-pos--38'
p1791
S'action-4'
p1792
tp1793
g5
(g9
S'\x9f<.\x88\x93\xf2y?'
p1794
tp1795
Rp1796
s(S'action-4'
p1797
g214
tp1798
g5
(g9
S'\x0fz\xcf\x9f\xa7DC?'
p1799
tp1800
Rp1801
sS'diff-x-pos--43'
p1802
g5
(g9
S'[\xe0\\\xc6\xd9}\x84?'
p1803
tp1804
Rp1805
sg1009
g5
(g9
S'\xb0\x80s\xce\x18\xc2\x92?'
p1806
tp1807
Rp1808
sg1495
g5
(g9
S'\n\xc3\xfa:\xd4X\x89?'
p1809
tp1810
Rp1811
sS'diff-x-pos--40'
p1812
g5
(g9
S'\x1b*\xdc\x88r}{?'
p1813
tp1814
Rp1815
sS'diff-x-pos--47'
p1816
g5
(g9
S'\x1a\xc8\x8e\xdc\xa7\t~?'
p1817
tp1818
Rp1819
sg1382
g5
(g9
S']\xbd\xe3\xeei\x8ax?'
p1820
tp1821
Rp1822
sS'diff-x-pos--45'
p1823
g5
(g9
S'n*|=Q\xb7\x8b?'
p1824
tp1825
Rp1826
sg1032
g5
(g9
S'\xdeH\x03\\\xb4J\x84?'
p1827
tp1828
Rp1829
s(S'diff-x-pos--1'
p1830
S'prev-action-3'
p1831
tp1832
g5
(g9
S'q\xe3B[_\xf1p\xbf'
p1833
tp1834
Rp1835
sg270
g5
(g9
S'\xe1\xbd\xfb89\x98x?'
p1836
tp1837
Rp1838
sS'diff-x-pos--48'
p1839
g5
(g9
S't(\x18\xdd\xe6\xa3\x90?'
p1840
tp1841
Rp1842
s(S'diff-x-pos--53'
p1843
S'action-3'
p1844
tp1845
g5
(g9
S'\xf1\xa70\xb04\xc2u?'
p1846
tp1847
Rp1848
s(S'diff-x-pos--57'
p1849
S'prev-action-1'
p1850
tp1851
g5
(g9
S'/\xdb\x05\ne\xf1e?'
p1852
tp1853
Rp1854
s(S'diff-x-pos-53'
p1855
S'action-4'
p1856
tp1857
g5
(g9
S'\xbc\xcc\xdf\xe0\x15\xedX\xbf'
p1858
tp1859
Rp1860
sS'object-0-x-8'
p1861
g5
(g9
S'\x8aFv4\xb3\x06\xb2?'
p1862
tp1863
Rp1864
s(g512
S'prev-action-4'
p1865
tp1866
g5
(g9
S'./\xe6\x17\xb7Uo?'
p1867
tp1868
Rp1869
s(S'object-1-dx-1'
p1870
S'prev-action-4'
p1871
tp1872
g5
(g9
S'\x18$\xcf\xad\xd4I\x87\xbf'
p1873
tp1874
Rp1875
s(S'diff-x-pos-32'
p1876
S'prev-action-3'
p1877
tp1878
g5
(g9
S'\x0b\x8a\x8e\xa7n\xf4Q\xbf'
p1879
tp1880
Rp1881
s(g64
S'object-0-x-72'
p1882
tp1883
g5
(g9
S'!"\xd8\xadB\xf1\xb5?'
p1884
tp1885
Rp1886
s(S'diff-x-pos--16'
p1887
S'prev-action-4'
p1888
tp1889
g5
(g9
S'\xe5y<\x1c;.p?'
p1890
tp1891
Rp1892
s(S'diff-x-pos-20'
p1893
S'action-3'
p1894
tp1895
g5
(g9
S'\xd0\x14\x83\xc73\xa6i?'
p1896
tp1897
Rp1898
s(S'diff-x-pos-51'
p1899
S'action-4'
p1900
tp1901
g5
(g9
S'\nF\xe1\\]!P?'
p1902
tp1903
Rp1904
s(S'diff-x-pos--76'
p1905
S'action-4'
p1906
tp1907
g5
(g9
S'\\j\x19\x9aM\xcfO?'
p1908
tp1909
Rp1910
s(g1812
S'action-3'
p1911
tp1912
g5
(g9
S'5\nC\xcc\xc1\x06^?'
p1913
tp1914
Rp1915
s(S'diff-x-pos--28'
p1916
S'prev-action-4'
p1917
tp1918
g5
(g9
S'\xfe\x0c\xfabkOp?'
p1919
tp1920
Rp1921
s(g1899
S'prev-action-4'
p1922
tp1923
g5
(g9
S'\xcc\xbbO)>\x1cl?'
p1924
tp1925
Rp1926
s(S'diff-x-pos--64'
p1927
g45
tp1928
g5
(g9
S'\xe4\x88\x98\x85H\xf3C?'
p1929
tp1930
Rp1931
s(S'action-4'
p1932
g715
tp1933
g5
(g9
S'\xd9<\x87.\x87\xcf\xa0?'
p1934
tp1935
Rp1936
s(S'diff-x-pos--83'
p1937
S'action-3'
p1938
tp1939
g5
(g9
S'8\xd4\xb5\xa0#\xa2r\xbf'
p1940
tp1941
Rp1942
s(g937
S'prev-action-4'
p1943
tp1944
g5
(g9
S'\x9ce\xa7\x01\x87\x12B\xbf'
p1945
tp1946
Rp1947
sg1638
g5
(g9
S'X\x81\xfc:\t0e\xbf'
p1948
tp1949
Rp1950
s(g1454
S'prev-action-1'
p1951
tp1952
g5
(g9
S'\x8a@\xcf\xfb\nJ??'
p1953
tp1954
Rp1955
s(g506
S'action-4'
p1956
tp1957
g5
(g9
S'\xaf\xc4\xf9#\xc7\xb0q\xbf'
p1958
tp1959
Rp1960
sg512
g5
(g9
S'g=\x9aZw\xc0\x91?'
p1961
tp1962
Rp1963
sg288
g5
(g9
S'\x8b\xb2A\x0c-Y\x91?'
p1964
tp1965
Rp1966
sg541
g5
(g9
S'\x12?~\xdf\xce0\x91?'
p1967
tp1968
Rp1969
sS'diff-x-pos--35'
p1970
g5
(g9
S'zg\x14%\xef\xb9\x91?'
p1971
tp1972
Rp1973
sg1044
g5
(g9
S'\x89\xcfiy\x8c\xfc\x92?'
p1974
tp1975
Rp1976
sg611
g5
(g9
S'\xcc\xde\xd20\xee\xbc\x8c?'
p1977
tp1978
Rp1979
sS'diff-x-pos--30'
p1980
g5
(g9
S'!u3\xb2\xea\xb9\x99?'
p1981
tp1982
Rp1983
sS'diff-x-pos--31'
p1984
g5
(g9
S'\r\x94w\x04\xbb\x18\x91?'
p1985
tp1986
Rp1987
s(S'diff-x-pos-22'
p1988
S'prev-action-1'
p1989
tp1990
g5
(g9
S'\xa8\xa8K\xeaX\xf6t\xbf'
p1991
tp1992
Rp1993
sg1791
g5
(g9
S'\xf6u\x9f\t\xc5\xb6\x90?'
p1994
tp1995
Rp1996
sS'diff-x-pos--39'
p1997
g5
(g9
S't\n\xea\xb1\x1a\xbe\x99?'
p1998
tp1999
Rp2000
s(S'diff-x-pos--82'
p2001
S'action-3'
p2002
tp2003
g5
(g9
S'\xe3\xf0\xa7|"z-\xbf'
p2004
tp2005
Rp2006
sS'diff-x-pos-29'
p2007
g5
(g9
S'\xf2\xc5L\xa2\xba\xcfO?'
p2008
tp2009
Rp2010
sS'diff-x-pos-28'
p2011
g5
(g9
S'u\xf6\xd1b\x08rz\xbf'
p2012
tp2013
Rp2014
sg1720
g5
(g9
S'\xd9\xb2\x9d\x19\x8b\xf3V\xbf'
p2015
tp2016
Rp2017
sg374
g5
(g9
S'\x0bo\x17\x8aHBr\xbf'
p2018
tp2019
Rp2020
sS'diff-x-pos-25'
p2021
g5
(g9
S'\xbc\x94d\x06\t\x02l\xbf'
p2022
tp2023
Rp2024
sS'diff-x-pos-24'
p2025
g5
(g9
S'+nE\x9c\xc2\xb7a\xbf'
p2026
tp2027
Rp2028
sS'diff-x-pos-23'
p2029
g5
(g9
S'ki\xa2\x90l\xbdf\xbf'
p2030
tp2031
Rp2032
sg1563
g5
(g9
S'\x1fv\x89\xb7\xa4\xb1\x83\xbf'
p2033
tp2034
Rp2035
s(S'diff-x-pos-62'
p2036
S'prev-action-4'
p2037
tp2038
g5
(g9
S')\xe4\xb1\xb8\xb8\xdc-\xbf'
p2039
tp2040
Rp2041
sS'diff-x-pos-20'
p2042
g5
(g9
S'1\x9e\xe1!\x0c=r\xbf'
p2043
tp2044
Rp2045
sS'diff-x-pos--18'
p2046
g5
(g9
S'j\x8d3\xb0\xf7\xde\x87?'
p2047
tp2048
Rp2049
s(S'diff-x-pos--73'
p2050
S'prev-action-3'
p2051
tp2052
g5
(g9
S'F?\x0eYD0R\xbf'
p2053
tp2054
Rp2055
s(S'diff-x-pos-46'
p2056
S'action-3'
p2057
tp2058
g5
(g9
S'\x01j\xd1\xfc\x11\xd8A?'
p2059
tp2060
Rp2061
s(g757
g1211
tp2062
g5
(g9
S':\xad\x15a\xb9v\\?'
p2063
tp2064
Rp2065
s(g611
S'prev-action-4'
p2066
tp2067
g5
(g9
S"\xa8\xba\xb9's\xfc~?"
p2068
tp2069
Rp2070
s(S'diff-x-pos--17'
p2071
S'prev-action-1'
p2072
tp2073
g5
(g9
S':\xa02G\x05WM?'
p2074
tp2075
Rp2076
s(S'diff-x-pos-5'
p2077
S'prev-action-3'
p2078
tp2079
g5
(g9
S'lS\x99b3>\\\xbf'
p2080
tp2081
Rp2082
s(S'diff-x-pos--65'
p2083
S'action-1'
p2084
tp2085
g5
(g9
S'\x14\x8f\xe4\xe2o\x06S?'
p2086
tp2087
Rp2088
s(S'diff-x-pos--29'
p2089
S'action-3'
p2090
tp2091
g5
(g9
S'\xb83\x80\x97i\x0cu?'
p2092
tp2093
Rp2094
s(S'diff-x-pos-0'
p2095
S'prev-action-3'
p2096
tp2097
g5
(g9
S'\xc8}\x00\x81|\x8al\xbf'
p2098
tp2099
Rp2100
s(S'diff-x-pos-41'
p2101
S'prev-action-1'
p2102
tp2103
g5
(g9
S'\xccZ\x0f\xb1#\xacx?'
p2104
tp2105
Rp2106
s(S'diff-x-pos--20'
p2107
S'prev-action-1'
p2108
tp2109
g5
(g9
S'\x7f"\x08\xf1*va?'
p2110
tp2111
Rp2112
s(S'diff-x-pos--79'
p2113
S'prev-action-1'
p2114
tp2115
g5
(g9
S'8\x0cT\xeb\x93\xaf\x0f\xbf'
p2116
tp2117
Rp2118
s(S'diff-x-pos-12'
p2119
S'action-3'
p2120
tp2121
g5
(g9
S'\xa4f\x9db\x05\xd0U\xbf'
p2122
tp2123
Rp2124
s(S'diff-x-pos--44'
p2125
S'action-1'
p2126
tp2127
g5
(g9
S'\x1efj\xba\\\x7fb?'
p2128
tp2129
Rp2130
s(g780
S'prev-action-4'
p2131
tp2132
g5
(g9
S'\xf2vJ\x9b\x92vi?'
p2133
tp2134
Rp2135
s(S'diff-x-pos--81'
p2136
S'prev-action-1'
p2137
tp2138
g5
(g9
S'tBg4\x8b\x1dJ?'
p2139
tp2140
Rp2141
s(S'diff-x-pos-6'
p2142
S'action-3'
p2143
tp2144
g5
(g9
S'\x92T\x04"M\x12q\xbf'
p2145
tp2146
Rp2147
s(g1251
S'action-4'
p2148
tp2149
g5
(g9
S'K\x0f\x87I\xe1\xde5?'
p2150
tp2151
Rp2152
s(g788
S'action-4'
p2153
tp2154
g5
(g9
S'!\x7f\x177\x1a{@\xbf'
p2155
tp2156
Rp2157
s(S'diff-x-pos--98'
p2158
S'prev-action-4'
p2159
tp2160
g5
(g9
S'\xec\xa9"\x83\xd7\xb3.?'
p2161
tp2162
Rp2163
s(S'diff-x-pos-58'
p2164
S'prev-action-1'
p2165
tp2166
g5
(g9
S'\x00\x90\xa4\x0b\xe5)\x1e?'
p2167
tp2168
Rp2169
s(S'diff-x-pos-50'
p2170
S'action-3'
p2171
tp2172
g5
(g9
S"\xf0\xce!*\xe3'b?"
p2173
tp2174
Rp2175
s(g276
S'prev-action-3'
p2176
tp2177
g5
(g9
S'$\x97\xfa\xf3\xfa\xe5s\xbf'
p2178
tp2179
Rp2180
s(S'diff-x-pos--73'
p2181
S'prev-action-4'
p2182
tp2183
g5
(g9
S'\xc7:U/UUd?'
p2184
tp2185
Rp2186
s(S'diff-x-pos--89'
p2187
S'action-3'
p2188
tp2189
g5
(g9
S'>\xa2\xfeB\xe0\xee3?'
p2190
tp2191
Rp2192
s(S'diff-x-pos-44'
p2193
g617
tp2194
g5
(g9
S'\x89\t\x17m[K_?'
p2195
tp2196
Rp2197
s(S'diff-x-pos--70'
p2198
S'action-4'
p2199
tp2200
g5
(g9
S'\xa2\xe7\x15{p\\a\xbf'
p2201
tp2202
Rp2203
s(S'action-4'
p2204
S'object-1-x-64'
p2205
tp2206
g5
(g9
S'\x99\xc6G@@+\x81\xbf'
p2207
tp2208
Rp2209
s(S'diff-x-pos--91'
p2210
S'prev-action-4'
p2211
tp2212
g5
(g9
S'\xa0\xf8at\xde\t\n\xbf'
p2213
tp2214
Rp2215
s(S'diff-x-pos-51'
p2216
S'prev-action-3'
p2217
tp2218
g5
(g9
S'X\x1b<m\x05^2\xbf'
p2219
tp2220
Rp2221
s(g772
S'action-1'
p2222
tp2223
g5
(g9
S' \x96\x85d\xc5?\x8e?'
p2224
tp2225
Rp2226
s(S'diff-x-pos--78'
p2227
S'prev-action-1'
p2228
tp2229
g5
(g9
S'\xc7\x86\xcb\x0b\xac\xd7g\xbf'
p2230
tp2231
Rp2232
s(S'action-1'
p2233
S'object-0-x-16'
p2234
tp2235
g5
(g9
S'\xb6\xdb\xce\xac\\\x92y?'
p2236
tp2237
Rp2238
s(S'diff-x-pos--25'
p2239
S'action-1'
p2240
tp2241
g5
(g9
S'%\xed\xd6\xbf\xdb\xf8x?'
p2242
tp2243
Rp2244
s(S'diff-x-pos-7'
p2245
S'prev-action-3'
p2246
tp2247
g5
(g9
S'\xa4a\x82\x0e\xfd\xf9`\xbf'
p2248
tp2249
Rp2250
s(S'diff-x-pos-60'
p2251
S'action-3'
p2252
tp2253
g5
(g9
S'\nw\xbdt\x9c\x07\x08\xbf'
p2254
tp2255
Rp2256
s(S'diff-x-pos--43'
p2257
S'action-1'
p2258
tp2259
g5
(g9
S'\xb3P\x04\xcc+xn?'
p2260
tp2261
Rp2262
s(g941
S'prev-action-1'
p2263
tp2264
g5
(g9
S'C\x05\xa5\xfa\x18\x88D\xbf'
p2265
tp2266
Rp2267
s(S'diff-x-pos--84'
p2268
S'prev-action-4'
p2269
tp2270
g5
(g9
S'\x003\xab\xc7\xf1|\xac\xbe'
p2271
tp2272
Rp2273
s(S'diff-x-pos--78'
p2274
S'action-1'
p2275
tp2276
g5
(g9
S'iit9\x04\xbaQ\xbf'
p2277
tp2278
Rp2279
s(S'diff-x-pos--44'
p2280
S'prev-action-4'
p2281
tp2282
g5
(g9
S'\xcd\x07u\x87\x19\x16o?'
p2283
tp2284
Rp2285
s(S'diff-x-pos--11'
p2286
S'action-3'
p2287
tp2288
g5
(g9
S'\xe0.\xea\xebk\x1c\x17\xbf'
p2289
tp2290
Rp2291
s(S'diff-x-pos--92'
p2292
S'prev-action-4'
p2293
tp2294
g5
(g9
S'\xa4@!\xcc\x99<B\xbf'
p2295
tp2296
Rp2297
s(S'action-1'
p2298
S'prev-action-0'
p2299
tp2300
g5
(g9
S'\xe0\xe4-\xf0\xb3\xf6\xa6?'
p2301
tp2302
Rp2303
s(S'action-4'
p2304
S'object-1-x-108'
p2305
tp2306
g5
(g9
S'"\xeb\xf4\xfa\x7f`\xa4?'
p2307
tp2308
Rp2309
s(S'diff-x-pos--42'
p2310
S'prev-action-3'
p2311
tp2312
g5
(g9
S'*H\x1f\xb0\x14\x16o?'
p2313
tp2314
Rp2315
s(S'diff-x-pos-61'
p2316
S'action-4'
p2317
tp2318
g5
(g9
S'R\xc3Rpq\xef\x16\xbf'
p2319
tp2320
Rp2321
s(S'diff-x-pos--9'
p2322
S'prev-action-3'
p2323
tp2324
g5
(g9
S'\xaa\x97\xcf\x1d\xc1Hh?'
p2325
tp2326
Rp2327
s(S'action-3'
p2328
S'object-0-x-76'
p2329
tp2330
g5
(g9
S'\xc8\xe3\x97\xf9\x94\t\xb1?'
p2331
tp2332
Rp2333
s(S'diff-x-pos--18'
p2334
S'action-3'
p2335
tp2336
g5
(g9
S'T%\x97`#\x90p?'
p2337
tp2338
Rp2339
s(S'diff-x-pos-11'
p2340
S'action-4'
p2341
tp2342
g5
(g9
S'J\x16\xd6@\x97\xc3t\xbf'
p2343
tp2344
Rp2345
s(S'diff-x-pos--46'
p2346
S'action-1'
p2347
tp2348
g5
(g9
S'\x86\xd4=\xdb?\xd1\\?'
p2349
tp2350
Rp2351
s(S'action-3'
p2352
S'object-0-x-88'
p2353
tp2354
g5
(g9
S'\xd1]j\xabd3\x95?'
p2355
tp2356
Rp2357
s(S'diff-x-pos-28'
p2358
S'prev-action-1'
p2359
tp2360
g5
(g9
S'\xd8\xbdrK\xd4EV\xbf'
p2361
tp2362
Rp2363
s(S'diff-x-pos-56'
p2364
S'prev-action-1'
p2365
tp2366
g5
(g9
S'\n\x07R<\xaeh\x1e\xbf'
p2367
tp2368
Rp2369
s(g2364
S'action-3'
p2370
tp2371
g5
(g9
S'\xc2s\xfd\xd0\xf2\xa97\xbf'
p2372
tp2373
Rp2374
s(S'diff-x-pos--46'
p2375
S'prev-action-3'
p2376
tp2377
g5
(g9
S'2\xa6\x8c\xb1\x18Gp?'
p2378
tp2379
Rp2380
s(g1056
S'action-1'
p2381
tp2382
g5
(g9
S'q\x1fBV1\xe5%?'
p2383
tp2384
Rp2385
s(S'diff-x-pos--72'
p2386
S'prev-action-4'
p2387
tp2388
g5
(g9
S'\xccv\x16S\xbf.A?'
p2389
tp2390
Rp2391
sS'object-0-x-28'
p2392
g5
(g9
S'*\xf3]\x91{\xe2\xa6?'
p2393
tp2394
Rp2395
s(g780
S'action-4'
p2396
tp2397
g5
(g9
S'\xee}x\x8f(\xa4F?'
p2398
tp2399
Rp2400
s(g772
S'prev-action-4'
p2401
tp2402
g5
(g9
S'\xf4\x91o\x99\x17\xe1\x8c?'
p2403
tp2404
Rp2405
s(S'action-1'
p2406
S'object-0-x-64'
p2407
tp2408
g5
(g9
S'I\xcb\x08I2\xe6\xb1?'
p2409
tp2410
Rp2411
s(S'action-1'
p2412
S'object-0-x-96'
p2413
tp2414
g5
(g9
S's\x17@\x80Qov?'
p2415
tp2416
Rp2417
sS'object-0-x-20'
p2418
g5
(g9
S'{\xc5\x1b}\xf3t\x9b?'
p2419
tp2420
Rp2421
s(S'diff-x-pos-17'
p2422
S'prev-action-4'
p2423
tp2424
g5
(g9
S'4=\x01\xd4\xb5Qh\xbf'
p2425
tp2426
Rp2427
s(S'diff-x-pos-10'
p2428
S'action-3'
p2429
tp2430
g5
(g9
S' /\x89}\x9c\xaa_\xbf'
p2431
tp2432
Rp2433
s(g967
S'prev-action-4'
p2434
tp2435
g5
(g9
S'i\xcc&d\x8b\x9e\x80\xbf'
p2436
tp2437
Rp2438
s(S'diff-x-pos--76'
p2439
S'action-3'
p2440
tp2441
g5
(g9
S'\xc21\x91A\xeb\xf10?'
p2442
tp2443
Rp2444
s(S'diff-x-pos--67'
p2445
S'prev-action-3'
p2446
tp2447
g5
(g9
S'\x14\x83\x95\x8b(\xbfq\xbf'
p2448
tp2449
Rp2450
sS'object-0-y-12'
p2451
g5
(g9
S'L\xd7\x88\xe479\xf2?'
p2452
tp2453
Rp2454
sS'diff-x-pos--112'
p2455
g5
(g9
S'\xae30\xe0\xb9\xb1D?'
p2456
tp2457
Rp2458
sS'object-0-y-16'
p2459
g5
(g9
S'i\x82]L\xbf0\xf0?'
p2460
tp2461
Rp2462
s(g1009
S'prev-action-4'
p2463
tp2464
g5
(g9
S"\x16J'\x8cx\xdf\x88?"
p2465
tp2466
Rp2467
s(g184
S'action-4'
p2468
tp2469
g5
(g9
S'\x0f\xc5\x94\xf2^Jl\xbf'
p2470
tp2471
Rp2472
s(S'diff-x-pos--71'
p2473
S'action-1'
p2474
tp2475
g5
(g9
S'\xee\xf9\xef*\xcf]Z?'
p2476
tp2477
Rp2478
s(S'diff-x-pos--54'
p2479
S'prev-action-3'
p2480
tp2481
g5
(g9
S'\xe0m\\\xedm\x94v?'
p2482
tp2483
Rp2484
s(S'diff-x-pos-31'
p2485
S'action-3'
p2486
tp2487
g5
(g9
S"\x8ab\xc6#7'G\xbf"
p2488
tp2489
Rp2490
s(S'diff-x-pos-46'
p2491
S'prev-action-3'
p2492
tp2493
g5
(g9
S'\x81C/\xc5\x06\x19/\xbf'
p2494
tp2495
Rp2496
s(S'diff-x-pos-11'
p2497
S'action-3'
p2498
tp2499
g5
(g9
S'\xc2\x97\xa41\xe5A8?'
p2500
tp2501
Rp2502
s(g1211
g1871
tp2503
g5
(g9
S'\x89\xf8\xdc\x87A\xe4\xd3?'
p2504
tp2505
Rp2506
s(S'diff-x-pos--56'
p2507
S'action-1'
p2508
tp2509
g5
(g9
S'\xd4\xe0s\x83P\xef\x86?'
p2510
tp2511
Rp2512
s(S'diff-x-pos-37'
p2513
S'action-4'
p2514
tp2515
g5
(g9
S'<w\xfe\xfa\xd7Cb\xbf'
p2516
tp2517
Rp2518
s(g289
S'object-1-x-76'
p2519
tp2520
g5
(g9
S'8\xf8\xe6\x05@\x04K?'
p2521
tp2522
Rp2523
s(g45
S'object-1-x-108'
p2524
tp2525
g5
(g9
S'V\x0fd\x8bL\x9a\x9e?'
p2526
tp2527
Rp2528
s(S'diff-x-pos-32'
p2529
S'action-1'
p2530
tp2531
g5
(g9
S'\x7f\xaa\xe198\x85S\xbf'
p2532
tp2533
Rp2534
s(S'diff-x-pos-7'
p2535
S'action-1'
p2536
tp2537
g5
(g9
S'\x12\x90\xc5\xd4\xdd\xb6=\xbf'
p2538
tp2539
Rp2540
s(S'diff-x-pos-22'
p2541
S'action-1'
p2542
tp2543
g5
(g9
S'I\xb6\xcdh."h\xbf'
p2544
tp2545
Rp2546
s(S'object-0-dx-1'
p2547
g502
tp2548
g5
(g9
S'\x08\x99\xca:s\xfbL?'
p2549
tp2550
Rp2551
s(S'diff-x-pos--68'
p2552
S'prev-action-3'
p2553
tp2554
g5
(g9
S'.a\xc6NY\x85)?'
p2555
tp2556
Rp2557
s(S'diff-x-pos--50'
p2558
S'prev-action-3'
p2559
tp2560
g5
(g9
S'\xd7\x08Y\x91\xe4Go?'
p2561
tp2562
Rp2563
sg421
g5
(g9
S'\xc3\xe1IQ\xbe\x01$\xbf'
p2564
tp2565
Rp2566
sg855
g5
(g9
S'\nmoBpn9?'
p2567
tp2568
Rp2569
s(S'diff-x-pos--79'
p2570
S'action-4'
p2571
tp2572
g5
(g9
S'\xb8Q\xbedR\x7fQ?'
p2573
tp2574
Rp2575
sS'diff-x-pos--101'
p2576
g5
(g9
S'\xf6x\xaeG\xd4j\x06\xbf'
p2577
tp2578
Rp2579
sg1038
g5
(g9
S')\xbd\xb6>\x0f\xd29\xbf'
p2580
tp2581
Rp2582
s(g937
S'action-4'
p2583
tp2584
g5
(g9
S'>}\xfe\x83d\xbeb\xbf'
p2585
tp2586
Rp2587
s(g15
S'object-0-x-100'
p2588
tp2589
g5
(g9
S'\x95vu\xc7:$\x8f?'
p2590
tp2591
Rp2592
sg1545
g5
(g9
S'\xe1b\x089\n\t4\xbf'
p2593
tp2594
Rp2595
sS'object-1-dy--1'
p2596
g5
(g9
S'\xc0\x01Yfp\x90\xb0\xbf'
p2597
tp2598
Rp2599
s(S'diff-x-pos--88'
p2600
S'action-1'
p2601
tp2602
g5
(g9
S'\xe1V)\xb1\xae]2?'
p2603
tp2604
Rp2605
s(g1164
S'action-4'
p2606
tp2607
g5
(g9
S'k\xe8\x11\xd8\x8d\x8c\xb7\xbf'
p2608
tp2609
Rp2610
s(g855
S'action-4'
p2611
tp2612
g5
(g9
S'\nmoBpn9?'
p2613
tp2614
Rp2615
s(S'diff-x-pos--28'
p2616
S'action-4'
p2617
tp2618
g5
(g9
S'?\x85\x99\xaa\xbf;y?'
p2619
tp2620
Rp2621
s(g2
S'prev-action-1'
p2622
tp2623
g5
(g9
S'\xc8K\xf2@\xa7P5?'
p2624
tp2625
Rp2626
s(g751
S'action-1'
p2627
tp2628
g5
(g9
S'_aLL\xfb\xd3g\xbf'
p2629
tp2630
Rp2631
s(g190
S'action-1'
p2632
tp2633
g5
(g9
S'\x16\xf6\xdeLn\x94G?'
p2634
tp2635
Rp2636
s(g1887
S'action-4'
p2637
tp2638
g5
(g9
S'X\x03\x9dJ(\xf5y?'
p2639
tp2640
Rp2641
s(g2251
S'prev-action-1'
p2642
tp2643
g5
(g9
S'\xaeaHi\x05\xce4?'
p2644
tp2645
Rp2646
s(g1120
S'prev-action-4'
p2647
tp2648
g5
(g9
S'\xd8\xb7\x84\xa3\xc8"8\xbf'
p2649
tp2650
Rp2651
s(g1750
S'prev-action-1'
p2652
tp2653
g5
(g9
S'\x82B\xb4\xa5;\xc5n?'
p2654
tp2655
Rp2656
s(S'diff-x-pos-50'
p2657
S'prev-action-1'
p2658
tp2659
g5
(g9
S'y\xb8\xdbe0Bj?'
p2660
tp2661
Rp2662
s(g1855
S'prev-action-4'
p2663
tp2664
g5
(g9
S'\x82\xd3C\x1fJ\xe9\\\xbf'
p2665
tp2666
Rp2667
sg2210
g5
(g9
S'\xbc*`G\x1aTJ?'
p2668
tp2669
Rp2670
s(g784
S'prev-action-3'
p2671
tp2672
g5
(g9
S'\x92\xc6\xedO\xbd\xf0f?'
p2673
tp2674
Rp2675
s(g1182
S'action-4'
p2676
tp2677
g5
(g9
S'x\x90|B\xc4\xf1R?'
p2678
tp2679
Rp2680
s(S'diff-x-pos--19'
p2681
S'action-1'
p2682
tp2683
g5
(g9
S'\xc5\x17\r\x01\xde\xb7r?'
p2684
tp2685
Rp2686
s(S'diff-x-pos--1'
p2687
S'action-3'
p2688
tp2689
g5
(g9
S'\x1c;\xef^\xcc\xf0r\xbf'
p2690
tp2691
Rp2692
s(g1044
S'action-4'
p2693
tp2694
g5
(g9
S'\xd8\xb5j\xb0p\nz?'
p2695
tp2696
Rp2697
s(g1927
g485
tp2698
g5
(g9
S'\x00\x00\x00\x00\x00\x00\x00\x00'
p2699
tp2700
Rp2701
s(S'diff-x-pos--68'
p2702
S'prev-action-4'
p2703
tp2704
g5
(g9
S'^$\x06*\x8a\xa1{?'
p2705
tp2706
Rp2707
s(g1038
S'prev-action-3'
p2708
tp2709
g5
(g9
S')\xbd\xb6>\x0f\xd29\xbf'
p2710
tp2711
Rp2712
s(g2210
S'action-1'
p2713
tp2714
g5
(g9
S'\xe0\xfb\x01\xa46\x002\xbf'
p2715
tp2716
Rp2717
s(g664
S'prev-action-4'
p2718
tp2719
g5
(g9
S'\x17\x06H\xf1C\xf9Z\xbf'
p2720
tp2721
Rp2722
s(S'diff-x-pos--20'
p2723
S'action-3'
p2724
tp2725
g5
(g9
S'O\x82\xf6\xf1snT\xbf'
p2726
tp2727
Rp2728
s(S'diff-x-pos--86'
p2729
S'prev-action-1'
p2730
tp2731
g5
(g9
S'3G\x07\xfb\x92\xb14?'
p2732
tp2733
Rp2734
s(S'diff-x-pos-39'
p2735
S'action-1'
p2736
tp2737
g5
(g9
S'\xe2\x02vP\xbd\x0fD\xbf'
p2738
tp2739
Rp2740
s(S'diff-x-pos-0'
p2741
S'action-1'
p2742
tp2743
g5
(g9
S'\xaf\xc7\xd7\xcc\xab:i\xbf'
p2744
tp2745
Rp2746
s(S'diff-x-pos--70'
p2747
S'prev-action-1'
p2748
tp2749
g5
(g9
S'\x99\xc4dC\x05\xe9e\xbf'
p2750
tp2751
Rp2752
s(S'diff-x-pos-49'
p2753
S'prev-action-4'
p2754
tp2755
g5
(g9
S'hX\x1f\xb0QTa?'
p2756
tp2757
Rp2758
s(g601
g502
tp2759
g5
(g9
S'T\xbeX\xd7*\xcc\x98\xbf'
p2760
tp2761
Rp2762
s(S'diff-x-pos--73'
p2763
S'action-1'
p2764
tp2765
g5
(g9
S' +\xef\x9f@\xc6U?'
p2766
tp2767
Rp2768
s(S'action-3'
p2769
S'object-0-x-32'
p2770
tp2771
g5
(g9
S'T\xda\x8c\xdaj\x96\x91?'
p2772
tp2773
Rp2774
s(S'diff-x-pos--82'
p2775
S'prev-action-1'
p2776
tp2777
g5
(g9
S'\xf4X\xeb\x83\x0b\x0c\x1b?'
p2778
tp2779
Rp2780
s(S'diff-x-pos--57'
p2781
S'action-4'
p2782
tp2783
g5
(g9
S'3\xf5+o!\xe0V?'
p2784
tp2785
Rp2786
s(S'diff-x-pos-29'
p2787
S'prev-action-3'
p2788
tp2789
g5
(g9
S'\x96\x99\xb4s5|4\xbf'
p2790
tp2791
Rp2792
s(g1714
S'action-4'
p2793
tp2794
g5
(g9
S'C\x83\xf5}\xe7\x13Q\xbf'
p2795
tp2796
Rp2797
s(S'diff-x-pos-24'
p2798
S'prev-action-1'
p2799
tp2800
g5
(g9
S'\x18\xf9\xf5:\x8dC/?'
p2801
tp2802
Rp2803
s(S'diff-x-pos--21'
p2804
S'action-3'
p2805
tp2806
g5
(g9
S'\x8afgc\x04\x8f\x83?'
p2807
tp2808
Rp2809
s(S'diff-x-pos--74'
p2810
S'prev-action-4'
p2811
tp2812
g5
(g9
S'\xcd,It\xd5rS?'
p2813
tp2814
Rp2815
s(S'diff-x-pos--80'
p2816
S'action-3'
p2817
tp2818
g5
(g9
S'\xd7B\xbb\x0f\x18\xf4v?'
p2819
tp2820
Rp2821
s(S'diff-x-pos--2'
p2822
S'prev-action-3'
p2823
tp2824
g5
(g9
S'\x8a\xbf\x9fj\x19uw\xbf'
p2825
tp2826
Rp2827
s(g670
S'prev-action-1'
p2828
tp2829
g5
(g9
S'\xdfc\xa7K,XY?'
p2830
tp2831
Rp2832
s(S'diff-x-pos--34'
p2833
S'action-3'
p2834
tp2835
g5
(g9
S'\xeax\x85\x1cR\xa5x?'
p2836
tp2837
Rp2838
s(S'diff-x-pos-56'
p2839
S'prev-action-3'
p2840
tp2841
g5
(g9
S'\x85\xbf\x8a&\xda\x9e2?'
p2842
tp2843
Rp2844
s(S'action-3'
p2845
S'object-0-x-116'
p2846
tp2847
g5
(g9
S'Z\xc3\x02\xd0\x8f\x95k?'
p2848
tp2849
Rp2850
s(S'diff-x-pos-53'
p2851
S'action-1'
p2852
tp2853
g5
(g9
S'yE\xa9\x19\xb9a[\xbf'
p2854
tp2855
Rp2856
s(g945
S'prev-action-4'
p2857
tp2858
g5
(g9
S'#\x87\xc9,?l]\xbf'
p2859
tp2860
Rp2861
s(S'diff-x-pos--83'
p2862
S'prev-action-1'
p2863
tp2864
g5
(g9
S'\x1f\x96\x98)\x9d\xa1F?'
p2865
tp2866
Rp2867
s(g316
S'prev-action-4'
p2868
tp2869
g5
(g9
S'\xc8\x81&\xef\x85\xca.\xbf'
p2870
tp2871
Rp2872
s(S'diff-x-pos--36'
p2873
S'prev-action-1'
p2874
tp2875
g5
(g9
S'\x1d$D}\xdf\x86x?'
p2876
tp2877
Rp2878
s(S'diff-x-pos--6'
p2879
S'action-3'
p2880
tp2881
g5
(g9
S'L\xb3\n\xed\x97\xedx?'
p2882
tp2883
Rp2884
s(S'diff-x-pos-32'
p2885
S'prev-action-4'
p2886
tp2887
g5
(g9
S'k\xb6O2\xf4[`\xbf'
p2888
tp2889
Rp2890
s(S'diff-x-pos-49'
p2891
S'prev-action-3'
p2892
tp2893
g5
(g9
S'2.X\xa2O\x8e\x1c\xbf'
p2894
tp2895
Rp2896
s(S'diff-x-pos--16'
p2897
S'prev-action-1'
p2898
tp2899
g5
(g9
S'\x0c\x14\x18H\xdd\xb9\x81?'
p2900
tp2901
Rp2902
s(g1761
S'prev-action-1'
p2903
tp2904
g5
(g9
S'\xa1YK\xf7\x08\xdam?'
p2905
tp2906
Rp2907
s(S'action-4'
p2908
S'object-0-x-64'
p2909
tp2910
g5
(g9
S'\xa1\xba2>Z\xaa\xb7?'
p2911
tp2912
Rp2913
s(S'diff-x-pos-20'
p2914
S'prev-action-1'
p2915
tp2916
g5
(g9
S'\x90\xff\xfc\xc4\xfbf\x11?'
p2917
tp2918
Rp2919
s(g605
S'prev-action-1'
p2920
tp2921
g5
(g9
S'\xc3\x99\xe2\xdc\xbf\x08Z?'
p2922
tp2923
Rp2924
s(g2148
g711
tp2925
g5
(g9
S'\x0b\xadK\x0b\xb9\xdf\x97?'
p2926
tp2927
Rp2928
s(S'action-3'
p2929
S'object-1-x-80'
p2930
tp2931
g5
(g9
S'\x96\xa9*\x124\x19\x83?'
p2932
tp2933
Rp2934
s(g2036
S'action-1'
p2935
tp2936
g5
(g9
S'\xe8Q\xe40l\x14\xfd>'
p2937
tp2938
Rp2939
sg2158
g5
(g9
S'\x15b\x04@?\xb6=?'
p2940
tp2941
Rp2942
sS'diff-x-pos--29'
p2943
g5
(g9
S'(\x9a/p\xdeb\x90?'
p2944
tp2945
Rp2946
s(S'diff-x-pos-12'
p2947
S'prev-action-3'
p2948
tp2949
g5
(g9
S'6\x1e!\xeb\xa2[u\xbf'
p2950
tp2951
Rp2952
s(S'diff-x-pos--14'
p2953
g242
tp2954
g5
(g9
S'\\\x87\xdd#\x12\xc2p?'
p2955
tp2956
Rp2957
sS'diff-x-pos--90'
p2958
g5
(g9
S'\xf80\x83\x1ce\xd9 \xbf'
p2959
tp2960
Rp2961
s(g2222
g1861
tp2962
g5
(g9
S'\xc7\xc8\xdd)\x05\x14\xa3?'
p2963
tp2964
Rp2965
sg1294
g5
(g9
S'\x9d\x92T\xd89\x06T\xbf'
p2966
tp2967
Rp2968
sS'diff-x-pos--93'
p2969
g5
(g9
S'\xe3\x12c\x8aJTE\xbf'
p2970
tp2971
Rp2972
sS'diff-x-pos--94'
p2973
g5
(g9
S'\x1e\xa0\xf8\x9d4\xffH?'
p2974
tp2975
Rp2976
sS'diff-x-pos--95'
p2977
g5
(g9
S'\xdf\xbf\xd0`\x19\x07p?'
p2978
tp2979
Rp2980
s(S'diff-x-pos--57'
p2981
S'action-3'
p2982
tp2983
g5
(g9
S'\x0c\x0e\xf1\xdcp\xceN?'
p2984
tp2985
Rp2986
sg687
g5
(g9
S'\xd7z\x03\xd1R\xe75?'
p2987
tp2988
Rp2989
s(S'diff-x-pos-8'
p2990
S'action-3'
p2991
tp2992
g5
(g9
S'\x17"\x0f\xe91\x92Z?'
p2993
tp2994
Rp2995
s(S'action-3'
p2996
S'object-0-x-4'
p2997
tp2998
g5
(g9
S'\xc5.\xfe8jHe?'
p2999
tp3000
Rp3001
s(g1563
S'prev-action-4'
p3002
tp3003
g5
(g9
S'\xd1\x87W\x96\xdcom\xbf'
p3004
tp3005
Rp3006
s(g541
g2908
tp3007
g5
(g9
S'\xae\x7f\x89@\x06\xa2w?'
p3008
tp3009
Rp3010
s(g421
S'action-4'
p3011
tp3012
g5
(g9
S'\xc3\xe1IQ\xbe\x01$\xbf'
p3013
tp3014
Rp3015
s(g409
S'prev-action-4'
p3016
tp3017
g5
(g9
S'L\xee\x11i\xb1\x95\x01\xbf'
p3018
tp3019
Rp3020
s(S'diff-x-pos-16'
p3021
S'prev-action-3'
p3022
tp3023
g5
(g9
S'\xa3\x9aK\xdf\xd0\xc6n\xbf'
p3024
tp3025
Rp3026
sS'diff-x-pos--25'
p3027
g5
(g9
S'\x02\x87\x8e\xf6H\x7f\x8c?'
p3028
tp3029
Rp3030
sS'diff-x-pos--24'
p3031
g5
(g9
S'\x90X\xf0\xb0\x17 \x86?'
p3032
tp3033
Rp3034
sg63
g5
(g9
S';\x8a4Sn0\x82?'
p3035
tp3036
Rp3037
sg386
g5
(g9
S'\xac\\q\xd0+.\x94?'
p3038
tp3039
Rp3040
sS'diff-x-pos--21'
p3041
g5
(g9
S'\\\xcb\xaa\xa9\xfe\xcf\x8a?'
p3042
tp3043
Rp3044
sS'diff-x-pos--20'
p3045
g5
(g9
S'6Z\xfa\xb2;\xfdw?'
p3046
tp3047
Rp3048
sS'diff-x-pos--23'
p3049
g5
(g9
S'\xae`\x02\xcd\xb0\x84\x8a?'
p3050
tp3051
Rp3052
sS'diff-x-pos--22'
p3053
g5
(g9
S'\x1c\xa7\xc7$[U\x97?'
p3054
tp3055
Rp3056
s(S'action-1'
p3057
S'object-0-x-88'
p3058
tp3059
g5
(g9
S'b\x9e\x03\xd5L]\x9b?'
p3060
tp3061
Rp3062
s(S'diff-x-pos--65'
p3063
S'prev-action-1'
p3064
tp3065
g5
(g9
S'\xa9\x07Y\xd7\x1aFY?'
p3066
tp3067
Rp3068
sg844
g5
(g9
S'5\xa0;\xaf\x97\xd6\x90?'
p3069
tp3070
Rp3071
s(S'object-1-dx--1'
p3072
g1738
tp3073
g5
(g9
S'1U\xb3\x96\xa5;\x87\xbf'
p3074
tp3075
Rp3076
sS'diff-x-pos-39'
p3077
g5
(g9
S'S`(\xac\xab\xaeC?'
p3078
tp3079
Rp3080
s(S'diff-x-pos--37'
p3081
S'prev-action-4'
p3082
tp3083
g5
(g9
S'F\x81\xb1\x88{,\x81?'
p3084
tp3085
Rp3086
s(S'diff-x-pos--41'
p3087
S'prev-action-1'
p3088
tp3089
g5
(g9
S'\x83\x8at\xef3\x90i?'
p3090
tp3091
Rp3092
sS'diff-x-pos-30'
p3093
g5
(g9
S'F\xb11xbq{\xbf'
p3094
tp3095
Rp3096
sS'diff-x-pos-31'
p3097
g5
(g9
S'b\xcbTl\xd4!w\xbf'
p3098
tp3099
Rp3100
sg1876
g5
(g9
S'c\x1c\x05K+5k\xbf'
p3101
tp3102
Rp3103
sg190
g5
(g9
S'\xc2x\xee\xafC\x9c7?'
p3104
tp3105
Rp3106
sS'diff-x-pos-34'
p3107
g5
(g9
S'21xO\x12\xefx\xbf'
p3108
tp3109
Rp3110
sg693
g5
(g9
S'N\xe3\xa9\xc9\x19\xacB?'
p3111
tp3112
Rp3113
sS'diff-x-pos-36'
p3114
g5
(g9
S'\xa8\x06\xeb6c1S?'
p3115
tp3116
Rp3117
sg2513
g5
(g9
S'\x16y\xbfe\xfa\xbcW\xbf'
p3118
tp3119
Rp3120
s(S'diff-x-pos--2'
p3121
S'action-1'
p3122
tp3123
g5
(g9
S'\xd7\xac:!w\xbbX\xbf'
p3124
tp3125
Rp3126
s(S'diff-x-pos-42'
p3127
S'action-4'
p3128
tp3129
g5
(g9
S'\x80\xf4~\xa8\xf7QW\xbf'
p3130
tp3131
Rp3132
s(g1311
S'prev-action-4'
p3133
tp3134
g5
(g9
S'\xd7#SZs\xe4\xf1>'
p3135
tp3136
Rp3137
s(g3045
S'prev-action-4'
p3138
tp3139
g5
(g9
S'\xba\xf9z\xa0\xf5y^?'
p3140
tp3141
Rp3142
s(S'diff-x-pos-52'
p3143
S'prev-action-4'
p3144
tp3145
g5
(g9
S'\x0f\xb6\xf0e\x87M`?'
p3146
tp3147
Rp3148
sS'diff-x-pos-54'
p3149
g5
(g9
S')\x06d\x0f^\xae\x8b?'
p3150
tp3151
Rp3152
s(g1073
S'object-0-x-108'
p3153
tp3154
g5
(g9
S'Q\x1f\xfcO=\x82{?'
p3155
tp3156
Rp3157
s(S'diff-x-pos-36'
p3158
S'action-3'
p3159
tp3160
g5
(g9
S'v~ \xc0\x9c\xd9J?'
p3161
tp3162
Rp3163
s(S'diff-x-pos-15'
p3164
S'prev-action-3'
p3165
tp3166
g5
(g9
S'\xec/\xde\x93\xa97f\xbf'
p3167
tp3168
Rp3169
s(S'diff-x-pos--9'
p3170
S'prev-action-1'
p3171
tp3172
g5
(g9
S'\x0eyKs\xd5\xaf(?'
p3173
tp3174
Rp3175
s(S'diff-x-pos--69'
p3176
S'prev-action-4'
p3177
tp3178
g5
(g9
S"\xec\xb0\x06\xc7'\xbdB\xbf"
p3179
tp3180
Rp3181
s(S'diff-x-pos--8'
p3182
S'prev-action-3'
p3183
tp3184
g5
(g9
S'\x1f\xb0\xf1\xa1\x8f\xd9\x82?'
p3185
tp3186
Rp3187
s(S'diff-x-pos--58'
p3188
S'action-3'
p3189
tp3190
g5
(g9
S'\xb4\xd8\x9bSd\xb1p?'
p3191
tp3192
Rp3193
s(g1239
S'prev-action-1'
p3194
tp3195
g5
(g9
S'|\x14+5\xf3z\x1c?'
p3196
tp3197
Rp3198
s(S'diff-x-pos--23'
p3199
S'action-1'
p3200
tp3201
g5
(g9
S'\xe4\xfc\xf7*X\xa3v?'
p3202
tp3203
Rp3204
s(S'action-1'
p3205
S'object-0-x-124'
p3206
tp3207
g5
(g9
S'\x12\xf6\xb3\xe6?\x7f\x88?'
p3208
tp3209
Rp3210
s(g1227
S'prev-action-3'
p3211
tp3212
g5
(g9
S'X\x9f\xff\x8b=\x08n\xbf'
p3213
tp3214
Rp3215
s(g2046
S'prev-action-1'
p3216
tp3217
g5
(g9
S'\xca\xdd\xb1]\xa3\xaew?'
p3218
tp3219
Rp3220
s(S'action-4'
p3221
S'object-0-x-24'
p3222
tp3223
g5
(g9
S'\xa9GA\xfb\xa0\x91\x8f?'
p3224
tp3225
Rp3226
s(S'diff-x-pos-13'
p3227
S'action-1'
p3228
tp3229
g5
(g9
S'\xc4\xfaZ\xdc\x8dGf\xbf'
p3230
tp3231
Rp3232
s(g636
S'object-1-x-92'
p3233
tp3234
g5
(g9
S'\xddZ\xe1\xba\r\xf3\x85?'
p3235
tp3236
Rp3237
s(g1615
g1306
tp3238
g5
(g9
S'\x84%\xa9\xb4\x8bZr?'
p3239
tp3240
Rp3241
sg1323
g5
(g9
S"\x08Sa\xe0\xc8,'?"
p3242
tp3243
Rp3244
sS'diff-x-pos-45'
p3245
g5
(g9
S'0\xcdP\xad\x92\xd9T\xbf'
p3246
tp3247
Rp3248
sg2193
g5
(g9
S'^\x14eZ\xb0GP\xbf'
p3249
tp3250
Rp3251
sg1615
g5
(g9
S'\x96\x9a\x12\x02\x9b.k?'
p3252
tp3253
Rp3254
s(g1170
S'action-4'
p3255
tp3256
g5
(g9
S'\xda\x7fJ\x00\x12\xb7M\xbf'
p3257
tp3258
Rp3259
sS'diff-x-pos-41'
p3260
g5
(g9
S'\xc2\xd1\x14\xcf\x89d{?'
p3261
tp3262
Rp3263
sg1126
g5
(g9
S'\xd0\xa7\xef@:\xe3F\xbf'
p3264
tp3265
Rp3266
s(g1744
S'prev-action-4'
p3267
tp3268
g5
(g9
S'V\x92T\r\x1a\xfa6\xbf'
p3269
tp3270
Rp3271
sg3127
g5
(g9
S'\xa7\x14\xca\xfb\x1d@j\xbf'
p3272
tp3273
Rp3274
s(S'diff-x-pos-52'
p3275
S'prev-action-3'
p3276
tp3277
g5
(g9
S'\xdc\xd2\xf3\x84\xde\x0cU?'
p3278
tp3279
Rp3280
s(g3093
S'prev-action-4'
p3281
tp3282
g5
(g9
S'\xe7\xb6\xa3r`\x15v\xbf'
p3283
tp3284
Rp3285
s(g368
S'prev-action-4'
p3286
tp3287
g5
(g9
S'\xd6\x15\xf3\xe6\xc3S\x82\xbf'
p3288
tp3289
Rp3290
s(S'diff-x-pos--72'
p3291
S'prev-action-3'
p3292
tp3293
g5
(g9
S'\xbe\x9cc\xe1\x84\xd4Z\xbf'
p3294
tp3295
Rp3296
s(S'diff-x-pos--7'
p3297
S'prev-action-3'
p3298
tp3299
g5
(g9
S'&\x83[\xa1xbx?'
p3300
tp3301
Rp3302
s(S'diff-x-pos-54'
p3303
S'action-3'
p3304
tp3305
g5
(g9
S'\xe2\xa1\xc8(vPj?'
p3306
tp3307
Rp3308
s(S'diff-x-pos--25'
p3309
S'action-4'
p3310
tp3311
g5
(g9
S'\x95u\xc5\xc4\xd2\xbbn?'
p3312
tp3313
Rp3314
sg664
g5
(g9
S'qyw\xaf\xadVX\xbf'
p3315
tp3316
Rp3317
s(g1620
S'action-1'
p3318
tp3319
g5
(g9
S'\x7f\xae\x05wJ\x13\x85?'
p3320
tp3321
Rp3322
s(S'diff-x-pos--86'
p3323
S'action-1'
p3324
tp3325
g5
(g9
S'\xdd\x16\xdef\xe9Sc?'
p3326
tp3327
Rp3328
s(g230
S'prev-action-4'
p3329
tp3330
g5
(g9
S'\x92\xd0\xf2-p\x89H\xbf'
p3331
tp3332
Rp3333
s(g1802
S'action-4'
p3334
tp3335
g5
(g9
S'\xed\xd5+\xe3\xa4\xbdf?'
p3336
tp3337
Rp3338
s(S'diff-x-pos--84'
p3339
S'prev-action-3'
p3340
tp3341
g5
(g9
S'\n)\x19GZ2\x12?'
p3342
tp3343
Rp3344
s(S'diff-x-pos-40'
p3345
S'prev-action-3'
p3346
tp3347
g5
(g9
S'w\xc1\xc7:\x19\x8c@\xbf'
p3348
tp3349
Rp3350
s(S'diff-x-pos-44'
p3351
S'prev-action-3'
p3352
tp3353
g5
(g9
S'y\xb47\xd1\x94\xcbQ\xbf'
p3354
tp3355
Rp3356
s(g1021
S'prev-action-4'
p3357
tp3358
g5
(g9
S'G\xe23Mx\xbe3\xbf'
p3359
tp3360
Rp3361
s(S'diff-x-pos--3'
p3362
S'prev-action-3'
p3363
tp3364
g5
(g9
S'\xe4Pua\x14\xb1g\xbf'
p3365
tp3366
Rp3367
s(g2576
S'action-3'
p3368
tp3369
g5
(g9
S'\xf6x\xaeG\xd4j\x06\xbf'
p3370
tp3371
Rp3372
s(S'diff-x-pos-21'
p3373
S'prev-action-3'
p3374
tp3375
g5
(g9
S'\xc4\xa2\x9e\xe4\x10\xb5g\xbf'
p3376
tp3377
Rp3378
s(S'diff-x-pos-33'
p3379
S'action-3'
p3380
tp3381
g5
(g9
S'%\xc6b\x8b\xc5\xf0A?'
p3382
tp3383
Rp3384
s(S'diff-x-pos--67'
p3385
g2304
tp3386
g5
(g9
S'\x8b\x9c\x86\xb9\x9a\x90\xb0?'
p3387
tp3388
Rp3389
s(S'diff-x-pos-18'
p3390
S'action-1'
p3391
tp3392
g5
(g9
S'w\x83\x98(.\xdao\xbf'
p3393
tp3394
Rp3395
s(g949
S'action-3'
p3396
tp3397
g5
(g9
S'\xa1\xd2+\xfa\n\xa0[\xbf'
p3398
tp3399
Rp3400
s(S'diff-x-pos--7'
p3401
S'prev-action-4'
p3402
tp3403
g5
(g9
S'\xfd\xa7+\xe3&\n\x87\xbf'
p3404
tp3405
Rp3406
s(g1997
S'action-4'
p3407
tp3408
g5
(g9
S'\xd7z\xca|\xcb\xc0\x82?'
p3409
tp3410
Rp3411
s(S'diff-x-pos-40'
p3412
S'action-4'
p3413
tp3414
g5
(g9
S'(U\x9b\x8fT\xe6L?'
p3415
tp3416
Rp3417
s(g3149
S'action-4'
p3418
tp3419
g5
(g9
S'\x81Rw\xde\xca\xefo?'
p3420
tp3421
Rp3422
s(g2347
S'object-0-x-12'
p3423
tp3424
g5
(g9
S'l\xe3\xff\xc9\x0b\xd0[\xbf'
p3425
tp3426
Rp3427
s(S'diff-x-pos-58'
p3428
S'action-4'
p3429
tp3430
g5
(g9
S'33\xa1\xb5\xe7\x00\x13\xbf'
p3431
tp3432
Rp3433
sS'object-0-x-88'
p3434
g5
(g9
S'\x049\x91I\x1fA\xb7?'
p3435
tp3436
Rp3437
s(g2011
S'prev-action-4'
p3438
tp3439
g5
(g9
S'\xfcM\xf8x\x7f\xc0@\xbf'
p3440
tp3441
Rp3442
s(g338
S'action-4'
p3443
tp3444
g5
(g9
S'=\x9d\x81\x18\x01\xbax\xbf'
p3445
tp3446
Rp3447
s(S'diff-x-pos-23'
p3448
S'prev-action-4'
p3449
tp3450
g5
(g9
S'$\xf0y\xb73NW?'
p3451
tp3452
Rp3453
sS'object-0-x-80'
p3454
g5
(g9
S'\xf7$\x98sU\x1e\xbf?'
p3455
tp3456
Rp3457
s(S'diff-x-pos--75'
p3458
S'prev-action-3'
p3459
tp3460
g5
(g9
S'\xb8\xfa"\x9a\x17?`?'
p3461
tp3462
Rp3463
s(S'diff-x-pos--81'
p3464
S'action-4'
p3465
tp3466
g5
(g9
S'g\xce\xa0]\xd3\xa3V?'
p3467
tp3468
Rp3469
s(S'diff-x-pos--26'
p3470
S'prev-action-4'
p3471
tp3472
g5
(g9
S'\xda\x97\xb3\x0b\xf8\xbb\x82?'
p3473
tp3474
Rp3475
s(g1294
S'action-4'
p3476
tp3477
g5
(g9
S'\x8ffsy\x94o\x1c?'
p3478
tp3479
Rp3480
s(g1745
S'object-1-x-100'
p3481
tp3482
g5
(g9
S' \xd1\xcf\xcc\xcbX\x83?'
p3483
tp3484
Rp3485
s(S'diff-x-pos--31'
p3486
S'prev-action-1'
p3487
tp3488
g5
(g9
S'DP!\xcd\xebS\x81?'
p3489
tp3490
Rp3491
s(S'diff-x-pos--27'
p3492
S'prev-action-3'
p3493
tp3494
g5
(g9
S'\x0b\x9bs\xa7\x9d\x9fr\xbf'
p3495
tp3496
Rp3497
s(S'diff-x-pos--68'
p3498
S'action-4'
p3499
tp3500
g5
(g9
S'\xcf\x91\xa7\xcfw\xffw?'
p3501
tp3502
Rp3503
s(S'diff-x-pos-48'
p3504
S'action-3'
p3505
tp3506
g5
(g9
S"\xa0\x1d0W'\x98$\xbf"
p3507
tp3508
Rp3509
s(S'diff-x-pos--60'
p3510
S'prev-action-3'
p3511
tp3512
g5
(g9
S'\x88\x9eWoIhL\xbf'
p3513
tp3514
Rp3515
s(S'diff-x-pos--30'
p3516
S'prev-action-3'
p3517
tp3518
g5
(g9
S'\xd2\xf6DOM\xc5N?'
p3519
tp3520
Rp3521
s(S'action-3'
p3522
S'object-0-x-72'
p3523
tp3524
g5
(g9
S'\x82\xc5\x00c\x8a\xce\xb2?'
p3525
tp3526
Rp3527
s(S'action-4'
p3528
S'prev-action-0'
p3529
tp3530
g5
(g9
S'\xa5d\x9b\xb3\xfa\xce\xc1?'
p3531
tp3532
Rp3533
sS'object-0-x-36'
p3534
g5
(g9
S'?\xcf\xb6g k\xb7?'
p3535
tp3536
Rp3537
s(g3097
g1609
tp3538
g5
(g9
S'\xb9\x02\xbe\x92\xb79]\xbf'
p3539
tp3540
Rp3541
s(S'diff-x-pos--42'
p3542
S'action-4'
p3543
tp3544
g5
(g9
S'\x17\xd8\x0f\x8a7\xbe\x82?'
p3545
tp3546
Rp3547
s(S'diff-x-pos--21'
p3548
S'prev-action-4'
p3549
tp3550
g5
(g9
S'J!;\xf6~\x01|?'
p3551
tp3552
Rp3553
s(S'diff-x-pos--13'
p3554
S'action-1'
p3555
tp3556
g5
(g9
S'\x85\x9b;Z\n\xec[\xbf'
p3557
tp3558
Rp3559
s(S'diff-x-pos--19'
p3560
S'prev-action-4'
p3561
tp3562
g5
(g9
S'\xec, ^w\xe8\x89\xbf'
p3563
tp3564
Rp3565
s(S'action-1'
p3566
S'object-1-x-112'
p3567
tp3568
g5
(g9
S'\xbe\x86\xf9\xc9\x88\x87p?'
p3569
tp3570
Rp3571
s(S'action-3'
p3572
S'prev-action-1'
p3573
tp3574
g5
(g9
S'\x81=\x84\x0b\xc7o\xd2?'
p3575
tp3576
Rp3577
s(g1267
S'action-1'
p3578
tp3579
g5
(g9
S'\x12Q3\x1b\xc0^!?'
p3580
tp3581
Rp3582
sg2547
g5
(g9
S'\xd5\xfd\xbf\xf6\xa9\t\xc2?'
p3583
tp3584
Rp3585
s(S'diff-x-pos-23'
p3586
S'prev-action-3'
p3587
tp3588
g5
(g9
S'\xbf`\xb8\xea5\x89Z\xbf'
p3589
tp3590
Rp3591
s(S'diff-x-pos-61'
p3592
S'prev-action-1'
p3593
tp3594
g5
(g9
S'g\xb6@\x94\xcb\x10N?'
p3595
tp3596
Rp3597
s(g3176
S'action-3'
p3598
tp3599
g5
(g9
S'\x99W\xcei\x8a\x8e9\xbf'
p3600
tp3601
Rp3602
s(g1370
S'prev-action-1'
p3603
tp3604
g5
(g9
S'\x08\xf1\x08\xe7\x11`Y?'
p3605
tp3606
Rp3607
s(g2969
S'prev-action-3'
p3608
tp3609
g5
(g9
S'\x9a\xf8\xd8\x86\x16\xf4$?'
p3610
tp3611
Rp3612
s(S'object-0-dx-1'
p3613
g489
tp3614
g5
(g9
S'\x10^\x0c\xb7r\x02\xb1?'
p3615
tp3616
Rp3617
s(S'diff-x-pos--22'
p3618
S'action-3'
p3619
tp3620
g5
(g9
S'\xbc\xa4SZ\xe3\xeeo?'
p3621
tp3622
Rp3623
sS'object-0-y-4'
p3624
g5
(g9
S'\xcc\xe2$\xea\xff\xcd\xe8?'
p3625
tp3626
Rp3627
s(S'diff-x-pos--37'
p3628
S'action-1'
p3629
tp3630
g5
(g9
S'\xe4\xcb\xc1"\x15d\x89?'
p3631
tp3632
Rp3633
s(S'diff-x-pos--39'
p3634
S'prev-action-1'
p3635
tp3636
g5
(g9
S'\xeb.\xc2\xbf\xa7s\x7f?'
p3637
tp3638
Rp3639
s(S'action-1'
p3640
S'object-0-x-92'
p3641
tp3642
g5
(g9
S'\x06\xfcF\xd8p\xe0\x93?'
p3643
tp3644
Rp3645
s(S'action-4'
p3646
S'object-0-x-32'
p3647
tp3648
g5
(g9
S'c\xf5l\xbf\x8f\x1a\x94?'
p3649
tp3650
Rp3651
sS'object-0-y-8'
p3652
g5
(g9
S'R\xb0\x0fk\x02x\xb4?'
p3653
tp3654
Rp3655
s(S'diff-x-pos--15'
p3656
S'prev-action-1'
p3657
tp3658
g5
(g9
S'A\xaa[\xa4L\x14\x7f?'
p3659
tp3660
Rp3661
s(g875
S'action-1'
p3662
tp3663
g5
(g9
S'\x90B"\x9c\x89\xf3B?'
p3664
tp3665
Rp3666
s(S'diff-x-pos-4'
p3667
S'prev-action-1'
p3668
tp3669
g5
(g9
S'\xb5f\xfb\xbc\xea\x81b\xbf'
p3670
tp3671
Rp3672
s(S'diff-x-pos-44'
p3673
S'prev-action-1'
p3674
tp3675
g5
(g9
S'\x00+\x03\x9c\x91\xd1=\xbf'
p3676
tp3677
Rp3678
s(S'diff-x-pos--47'
p3679
S'prev-action-3'
p3680
tp3681
g5
(g9
S'\xcf>\x93z\xd4!Y\xbf'
p3682
tp3683
Rp3684
s(g1609
S'object-0-x-92'
p3685
tp3686
g5
(g9
S'\xb2\r\xf9\xf7\xfc\xc0\xa5?'
p3687
tp3688
Rp3689
s(g844
g1348
tp3690
g5
(g9
S'\xf0\x15\xaa\xa1\xac\x88z?'
p3691
tp3692
Rp3693
s(g2973
S'prev-action-4'
p3694
tp3695
g5
(g9
S'>\n=\xd6w\xf6\xb3\xbe'
p3696
tp3697
Rp3698
sg700
g5
(g9
S'\xb8\x7fj\xd5o+\x8d?'
p3699
tp3700
Rp3701
sg745
g5
(g9
S'\x15NM\xf1\x93M4\xbf'
p3702
tp3703
Rp3704
s(S'diff-x-pos--61'
p3705
S'prev-action-4'
p3706
tp3707
g5
(g9
S'\xcb\x9d\x16\x1aa\xbag?'
p3708
tp3709
Rp3710
s(g971
S'action-4'
p3711
tp3712
g5
(g9
S'\xa3\x0b\x98\xef\x88"q\xbf'
p3713
tp3714
Rp3715
s(S'diff-x-pos--65'
p3716
g1176
tp3717
g5
(g9
S'\x02\x18\xc2\xb3\xe2\xab(\xbf'
p3718
tp3719
Rp3720
s(g1448
S'prev-action-1'
p3721
tp3722
g5
(g9
S'\xc0`\xf4\xc4\xf7nR?'
p3723
tp3724
Rp3725
s(g3041
S'prev-action-3'
p3726
tp3727
g5
(g9
S'\xde\xe9\xa0\x00m\x05l?'
p3728
tp3729
Rp3730
s(S'diff-x-pos--87'
p3731
S'prev-action-4'
p3732
tp3733
g5
(g9
S'\xd8\xf7\xad\x15\x0e[/\xbf'
p3734
tp3735
Rp3736
s(g2958
S'prev-action-1'
p3737
tp3738
g5
(g9
S'2\xf3\xb7\xdb\xcc\xb5\x0b?'
p3739
tp3740
Rp3741
s(S'diff-x-pos--5'
p3742
S'action-4'
p3743
tp3744
g5
(g9
S'\xe3\xa0Q\xf0\x86\x16y\xbf'
p3745
tp3746
Rp3747
s(S'diff-x-pos-43'
p3748
S'action-3'
p3749
tp3750
g5
(g9
S'\xb03Mt\x80\xc1H?'
p3751
tp3752
Rp3753
s(S'diff-x-pos-55'
p3754
S'action-1'
p3755
tp3756
g5
(g9
S'\xd5Z\x05J\x1aD?\xbf'
p3757
tp3758
Rp3759
s(g3413
S'object-1-x-72'
p3760
tp3761
g5
(g9
S'.<\xe4\x96\xee\xe2p?'
p3762
tp3763
Rp3764
s(g3245
S'prev-action-1'
p3765
tp3766
g5
(g9
S'\x81\xd0\xb2\xc7~\x109\xbf'
p3767
tp3768
Rp3769
sg1164
g5
(g9
S'pU\xe6\xb7\xd6m\xc0?'
p3770
tp3771
Rp3772
s(g2252
S'object-0-x-120'
p3773
tp3774
g5
(g9
S'@\r\x13X\xe6\x14t?'
p3775
tp3776
Rp3777
s(g792
S'action-4'
p3778
tp3779
g5
(g9
S'\xecK9\xa3\xb6\x1cS?'
p3780
tp3781
Rp3782
s(S'diff-x-pos--32'
p3783
S'action-3'
p3784
tp3785
g5
(g9
S'W\xa3\xee\n\xda\n{?'
p3786
tp3787
Rp3788
s(S'diff-x-pos-8'
p3789
S'prev-action-4'
p3790
tp3791
g5
(g9
S')nZ\x1d>VV?'
p3792
tp3793
Rp3794
s(g1015
S'action-1'
p3795
tp3796
g5
(g9
S'\x94\x96Jb<9`\xbf'
p3797
tp3798
Rp3799
s(S'diff-x-pos-38'
p3800
S'prev-action-1'
p3801
tp3802
g5
(g9
S'/\xfe\xa5\xdf\x1f\xccV?'
p3803
tp3804
Rp3805
s(S'diff-x-pos--4'
p3806
S'action-3'
p3807
tp3808
g5
(g9
S'?:G\x9a\x81.m?'
p3809
tp3810
Rp3811
s(g2455
S'action-1'
p3812
tp3813
g5
(g9
S'\xae30\xe0\xb9\xb1D?'
p3814
tp3815
Rp3816
s(S'diff-x-pos-0'
p3817
S'action-4'
p3818
tp3819
g5
(g9
S'@\xf6%\xf4\xeb\xdfx\xbf'
p3820
tp3821
Rp3822
s(S'diff-x-pos--93'
p3823
S'prev-action-1'
p3824
tp3825
g5
(g9
S'\x90\xe6I\xb4=R!\xbf'
p3826
tp3827
Rp3828
s(S'diff-x-pos--33'
p3829
S'action-3'
p3830
tp3831
g5
(g9
S'\x05@\xc5\x84\xd4.i?'
p3832
tp3833
Rp3834
s(g745
S'action-4'
p3835
tp3836
g5
(g9
S'\x15NM\xf1\x93M4\xbf'
p3837
tp3838
Rp3839
s(g739
S'action-3'
p3840
tp3841
g5
(g9
S'4\xfd\xb0M\x8cVI\xbf'
p3842
tp3843
Rp3844
s(g953
g729
tp3845
g5
(g9
S';v|J\x07\x96|\xbf'
p3846
tp3847
Rp3848
s(g3823
S'action-4'
p3849
tp3850
g5
(g9
S'\xcc\xe9\xefj\xd2fK\xbf'
p3851
tp3852
Rp3853
s(S'diff-x-pos--5'
p3854
S'action-3'
p3855
tp3856
g5
(g9
S'\x8a\xc4\xc86x<K?'
p3857
tp3858
Rp3859
s(S'diff-x-pos--6'
p3860
S'prev-action-4'
p3861
tp3862
g5
(g9
S'\xadW\x8c\xacq\xdel?'
p3863
tp3864
Rp3865
s(S'diff-x-pos--51'
p3866
S'action-3'
p3867
tp3868
g5
(g9
S'MW\xf2\xe2\xd3\xc0r?'
p3869
tp3870
Rp3871
s(S'diff-x-pos--66'
p3872
S'action-1'
p3873
tp3874
g5
(g9
S'\x93\xd2j\x04D\x93e?'
p3875
tp3876
Rp3877
s(S'action-1'
p3878
S'object-0-x-84'
p3879
tp3880
g5
(g9
S'\xdf\x06T\x9dn\xe4\x95?'
p3881
tp3882
Rp3883
s(S'diff-x-pos--82'
p3884
S'prev-action-4'
p3885
tp3886
g5
(g9
S'(\xdcz-\xd3 %\xbf'
p3887
tp3888
Rp3889
s(S'diff-x-pos--24'
p3890
S'action-3'
p3891
tp3892
g5
(g9
S'r\x8a-\xfdV\x19x?'
p3893
tp3894
Rp3895
s(S'diff-x-pos--85'
p3896
S'prev-action-1'
p3897
tp3898
g5
(g9
S'\xaeUD/\xc0\x141?'
p3899
tp3900
Rp3901
s(g693
g3640
tp3902
g5
(g9
S'\xb2\x14\xb9\x9a\xd1\xa7??'
p3903
tp3904
Rp3905
s(S'diff-x-pos--32'
p3906
S'action-1'
p3907
tp3908
g5
(g9
S'\xf8\xe4M*\xe7\xdcv?'
p3909
tp3910
Rp3911
s(S'diff-x-pos--17'
p3912
S'prev-action-4'
p3913
tp3914
g5
(g9
S'\xc8g4\xe5\xda<R?'
p3915
tp3916
Rp3917
s(S'diff-x-pos--74'
p3918
S'prev-action-1'
p3919
tp3920
g5
(g9
S'd\xb4(z\x1e:c?'
p3921
tp3922
Rp3923
s(g3121
S'prev-action-4'
p3924
tp3925
g5
(g9
S'\x8bs\x84mkAR?'
p3926
tp3927
Rp3928
s(S'diff-x-pos-35'
p3929
S'prev-action-3'
p3930
tp3931
g5
(g9
S'\x0c2y\x86)HA\xbf'
p3932
tp3933
Rp3934
s(S'diff-x-pos--77'
p3935
S'prev-action-4'
p3936
tp3937
g5
(g9
S'\x0c\xb6$\xe2S\xe9A?'
p3938
tp3939
Rp3940
s(g1512
S'action-4'
p3941
tp3942
g5
(g9
S'\xe8\xfe\xdb\x0b\n\xff0\xbf'
p3943
tp3944
Rp3945
s(S'diff-x-pos--24'
p3946
S'prev-action-1'
p3947
tp3948
g5
(g9
S'\xba \x0c\x8cs9D?'
p3949
tp3950
Rp3951
s(g647
S'action-4'
p3952
tp3953
g5
(g9
S'\xad\x8c\x80\x8eQy\x81\xbf'
p3954
tp3955
Rp3956
s(S'diff-x-pos-42'
p3957
S'prev-action-1'
p3958
tp3959
g5
(g9
S'^{\x98U\xabhV\xbf'
p3960
tp3961
Rp3962
sS'diff-y-pos--9'
p3963
g5
(g9
S'"\xfe\xe9\x8d\x99\xf0\xb8?'
p3964
tp3965
Rp3966
sS'diff-y-pos--8'
p3967
g5
(g9
S'w\xf4N[\x18\xf0\xb3?'
p3968
tp3969
Rp3970
s(g953
S'prev-action-3'
p3971
tp3972
g5
(g9
S'\x18Y\xae\xb6\xe5\x93m\xbf'
p3973
tp3974
Rp3975
sS'diff-y-pos--4'
p3976
g5
(g9
S'\xeai\xd3\xd1\xaa\x13\x81?'
p3977
tp3978
Rp3979
sS'diff-y-pos--7'
p3980
g5
(g9
S'R\x81]\xfb\x1e\xe4\xbc?'
p3981
tp3982
Rp3983
s(g971
S'prev-action-1'
p3984
tp3985
g5
(g9
S'\x1cd\xaa\xa9\xb3\xdeZ\xbf'
p3986
tp3987
Rp3988
sS'diff-y-pos--1'
p3989
g5
(g9
S"\x85'\x10\xd3@\xc6\x87?"
p3990
tp3991
Rp3992
sS'diff-y-pos--3'
p3993
g5
(g9
S'\xcb\xc2\xfbF\xfcc\x80?'
p3994
tp3995
Rp3996
sS'diff-y-pos--2'
p3997
g5
(g9
S'\xab\x12\xa9$\xb9e\x8b?'
p3998
tp3999
Rp4000
s(g2042
S'prev-action-4'
p4001
tp4002
g5
(g9
S'\x1fF\xd3L\xfdIB\xbf'
p4003
tp4004
Rp4005
s(g2969
S'action-3'
p4006
tp4007
g5
(g9
S'>\xd5\x92\x182\xc8(?'
p4008
tp4009
Rp4010
s(g1870
g1211
tp4011
g5
(g9
S'\xea_\x1a\xc9\xd25t?'
p4012
tp4013
Rp4014
s(S'diff-x-pos--14'
p4015
S'action-3'
p4016
tp4017
g5
(g9
S'$\xe3\x84\xd0&\t(?'
p4018
tp4019
Rp4020
s(S'action-3'
p4021
S'object-0-x-36'
p4022
tp4023
g5
(g9
S'\x1c+\x0e\xb1\xb5\xcb\x97?'
p4024
tp4025
Rp4026
s(S'action-3'
p4027
S'object-0-x-28'
p4028
tp4029
g5
(g9
S'\x8a\x93E\x8fS\xe4\x89?'
p4030
tp4031
Rp4032
s(S'diff-x-pos-49'
p4033
S'action-1'
p4034
tp4035
g5
(g9
S'\xcc8F\x9a|<Q?'
p4036
tp4037
Rp4038
s(S'diff-x-pos--4'
p4039
S'prev-action-1'
p4040
tp4041
g5
(g9
S'7(\x0e\xf6\xc2\xf9{?'
p4042
tp4043
Rp4044
s(S'diff-x-pos--38'
p4045
S'action-3'
p4046
tp4047
g5
(g9
S'o\x94E\x95G\xe0}?'
p4048
tp4049
Rp4050
s(S'diff-x-pos-38'
p4051
S'action-3'
p4052
tp4053
g5
(g9
S',\x8cm"T$Y?'
p4054
tp4055
Rp4056
sg243
g5
(g9
S'\x9bA+o\xa5M\x98?'
p4057
tp4058
Rp4059
s(g917
S'action-1'
p4060
tp4061
g5
(g9
S"\xf0'\x0bJ |J?"
p4062
tp4063
Rp4064
sg1518
g5
(g9
S'\xb8\xdc\x807\x8a\x80\xee\xbe'
p4065
tp4066
Rp4067
sg3323
g5
(g9
S'6\x04\xfe\x04N\x0ck?'
p4068
tp4069
Rp4070
sg1021
g5
(g9
S'\xd0d|\xef\xc0M\x05\xbf'
p4071
tp4072
Rp4073
sS'diff-x-pos--84'
p4074
g5
(g9
S'\xb8\x0eR\x1f\xcf\xe8\xf0\xbe'
p4075
tp4076
Rp4077
sg870
g5
(g9
S'\x00\xb5&\xa5\xc9\xfe\xd3\xbe'
p4078
tp4079
Rp4080
sg2001
g5
(g9
S'qT\xcba\xfa\xb3U\xbf'
p4081
tp4082
Rp4083
sg2136
g5
(g9
S'\xa9\x85e\xc4<\x80X?'
p4084
tp4085
Rp4086
sS'diff-x-pos--80'
p4087
g5
(g9
S'\xe9\xda\xc6#\xf4\xfb\x82?'
p4088
tp4089
Rp4090
s(g612
S'object-0-x-24'
p4091
tp4092
g5
(g9
S's~i\x93\xb5\xef\x94?'
p4093
tp4094
Rp4095
sg2
g5
(g9
S'r\xcfqw\xd1+\x14?'
p4096
tp4097
Rp4098
sS'diff-x-pos--88'
p4099
g5
(g9
S'X]\xef1\xbf\xef^?'
p4100
tp4101
Rp4102
s(S'diff-x-pos--38'
p4103
S'prev-action-3'
p4104
tp4105
g5
(g9
S'\x90\x8c{\x91\x07\xd7f?'
p4106
tp4107
Rp4108
s(S'diff-x-pos-55'
p4109
S'prev-action-3'
p4110
tp4111
g5
(g9
S"\xf6'\x11\xc4T\x86>\xbf"
p4112
tp4113
Rp4114
s(S'action-3'
p4115
S'object-1-x-64'
p4116
tp4117
g5
(g9
S'\xa4\xf1\xe9\xf7\xf0 \xa1?'
p4118
tp4119
Rp4120
s(S'action-1'
p4121
S'object-1-x-120'
p4122
tp4123
g5
(g9
S'\xc0G\xb17]V>\xbf'
p4124
tp4125
Rp4126
s(S'diff-x-pos-3'
p4127
S'prev-action-3'
p4128
tp4129
g5
(g9
S'\xdb?\x89`\x05\xe5S\xbf'
p4130
tp4131
Rp4132
s(g3114
S'prev-action-4'
p4133
tp4134
g5
(g9
S'\xa1\xb8\x1f}\xfe\x84e?'
p4135
tp4136
Rp4137
s(g3407
S'object-0-x-60'
p4138
tp4139
g5
(g9
S'L\xd3\xaa\nf\xc4\xb2?'
p4140
tp4141
Rp4142
s(g2616
S'prev-action-3'
p4143
tp4144
g5
(g9
S'F\x1c,A\x93\xb8\x82?'
p4145
tp4146
Rp4147
sg1650
g5
(g9
S'd\xcb\x87\x84nsR?'
p4148
tp4149
Rp4150
s(S'action-3'
p4151
S'object-1-x-84'
p4152
tp4153
g5
(g9
S'\\\xc6\xef\x1f\xb2J\x85?'
p4154
tp4155
Rp4156
sS'diff-x-pos--12'
p4157
g5
(g9
S'\xd8\xac[\x82\xffpv?'
p4158
tp4159
Rp4160
sg224
g5
(g9
S'\xfc\x02_\xfe$~/?'
p4161
tp4162
Rp4163
sg2953
g5
(g9
S'\xa4*w\xd6\xfe\nt?'
p4164
tp4165
Rp4166
s(S'diff-x-pos-4'
p4167
S'action-3'
p4168
tp4169
g5
(g9
S'\xd4\xdaa+\xde\xb8I?'
p4170
tp4171
Rp4172
sg1887
g5
(g9
S'\x13W\xe0\x974\xf1\x91?'
p4173
tp4174
Rp4175
sS'diff-x-pos--17'
p4176
g5
(g9
S'\xe2\x01!5%jv?'
p4177
tp4178
Rp4179
s(g1984
S'prev-action-4'
p4180
tp4181
g5
(g9
S'8;\xbak\xc3C`?'
p4182
tp4183
Rp4184
sS'diff-x-pos--19'
p4185
g5
(g9
S'\x8e\xcahfDh\x83?'
p4186
tp4187
Rp4188
s(S'diff-x-pos--55'
p4189
S'prev-action-3'
p4190
tp4191
g5
(g9
S'@\x80\x8b\xdd\x92\xb9E?'
p4192
tp4193
Rp4194
s(S'action-1'
p4195
S'object-0-x-4'
p4196
tp4197
g5
(g9
S'\x95\xcf\x81\x1d\x14UW?'
p4198
tp4199
Rp4200
s(S'diff-x-pos-42'
p4201
S'action-1'
p4202
tp4203
g5
(g9
S'c\xbf\xd5\xa4\xe3\xcae\xbf'
p4204
tp4205
Rp4206
s(S'diff-x-pos--62'
p4207
g3529
tp4208
g5
(g9
S'\x04\x1f\xe2C0\xee\xa5?'
p4209
tp4210
Rp4211
s(g288
S'prev-action-3'
p4212
tp4213
g5
(g9
S'\xca\x9f\x0e\xe7$\x1aa?'
p4214
tp4215
Rp4216
s(S'diff-x-pos--22'
p4217
S'prev-action-1'
p4218
tp4219
g5
(g9
S'\xab\x99_4\x14\x03\x90?'
p4220
tp4221
Rp4222
s(g687
S'action-1'
p4223
tp4224
g5
(g9
S'{\x837\xce\xb9C1?'
p4225
tp4226
Rp4227
s(S'action-3'
p4228
S'object-0-x-8'
p4229
tp4230
g5
(g9
S'1\xe6\x04\xb8\xe0\xf1\xa0?'
p4231
tp4232
Rp4233
s(g3572
S'object-0-x-60'
p4234
tp4235
g5
(g9
S'\\\xc9&\x1b\xab\xf4\xbc?'
p4236
tp4237
Rp4238
s(S'diff-x-pos--69'
p4239
S'prev-action-1'
p4240
tp4241
g5
(g9
S'\xfa\x8b`\xc9\xed\xc7Q\xbf'
p4242
tp4243
Rp4244
s(g2029
S'action-1'
p4245
tp4246
g5
(g9
S'\xdd/\xe1\xe2"\x00G\xbf'
p4247
tp4248
Rp4249
s(g3049
g2204
tp4250
g5
(g9
S'&)rYN|c?'
p4251
tp4252
Rp4253
s(S'diff-x-pos--51'
p4254
g440
tp4255
g5
(g9
S'\x14\xea\xe7\xda\xc6\x0by?'
p4256
tp4257
Rp4258
s(g2021
g3878
tp4259
g5
(g9
S'\x19z(\xda\xfd\x96^\xbf'
p4260
tp4261
Rp4262
s(g1751
S'object-0-x-56'
p4263
tp4264
g5
(g9
S'\x9d\x95\x11^\x06U\xb7?'
p4265
tp4266
Rp4267
s(S'diff-x-pos--33'
p4268
S'prev-action-3'
p4269
tp4270
g5
(g9
S'bgPe\xe0\x05o?'
p4271
tp4272
Rp4273
s(g350
S'action-1'
p4274
tp4275
g5
(g9
S'\x9c^\xcf\xa1KU\x83?'
p4276
tp4277
Rp4278
s(S'diff-x-pos--71'
p4279
S'prev-action-4'
p4280
tp4281
g5
(g9
S'\xf1\x8bA1n\tg?'
p4282
tp4283
Rp4284
s(S'diff-x-pos-47'
p4285
S'prev-action-4'
p4286
tp4287
g5
(g9
S'\x9c\xe8\x01>\x9c\xceL?'
p4288
tp4289
Rp4290
sg630
g5
(g9
S'\xaa\xac\x96\xa9m\x1c\x97?'
p4291
tp4292
Rp4293
sg4122
g5
(g9
S'*(\xf8\xf4+y\x9e?'
p4294
tp4295
Rp4296
s(g3817
S'prev-action-4'
p4297
tp4298
g5
(g9
S"\x14r'\xcaq7\x80\xbf"
p4299
tp4300
Rp4301
s(S'diff-x-pos--60'
p4302
S'prev-action-1'
p4303
tp4304
g5
(g9
S'V7\x9bA\x13\nC?'
p4305
tp4306
Rp4307
s(g242
g3454
tp4308
g5
(g9
S'c0,Q.g\xae?'
p4309
tp4310
Rp4311
s(S'diff-x-pos-30'
p4312
S'prev-action-1'
p4313
tp4314
g5
(g9
S'\xfcR\xb8\xab\xef\xa0H\xbf'
p4315
tp4316
Rp4317
s(S'diff-x-pos--27'
p4318
S'action-1'
p4319
tp4320
g5
(g9
S'\xab\x86\x93\xeb\x01\x17y?'
p4321
tp4322
Rp4323
sg2164
g5
(g9
S'\x14\x9e\x1cQ\x15v\x11\xbf'
p4324
tp4325
Rp4326
sg1311
g5
(g9
S'\\\xc3\xa8\x8f\xdcW:?'
p4327
tp4328
Rp4329
sg1400
g5
(g9
S'\x90\xc8\xad)\x1c\x8e9?'
p4330
tp4331
Rp4332
sg681
g5
(g9
S"\xdc\xaf'\xbe\xf4\x8bT?"
p4333
tp4334
Rp4335
sS'diff-x-pos--109'
p4336
g5
(g9
S'3\xbeE\xe6p\xe6R\xbf'
p4337
tp4338
Rp4339
sg409
g5
(g9
S'Ha\x8d \x14\xe4\xf2>'
p4340
tp4341
Rp4342
sg3143
g5
(g9
S'\xdd\x12\xf3\xbc\xe5\xe8\x81?'
p4343
tp4344
Rp4345
sg1855
g5
(g9
S'(\xdb\x19\xdd\x86rq\xbf'
p4346
tp4347
Rp4348
sS'diff-x-pos-50'
p4349
g5
(g9
S'$p\x94\xf2C\xb5s?'
p4350
tp4351
Rp4352
sg1899
g5
(g9
S'\xbd\x94\xa2\xd8\x96\xf5p?'
p4353
tp4354
Rp4355
sg1512
g5
(g9
S'\x029\x9c#\x1b\xa6[\xbf'
p4356
tp4357
Rp4358
s(S'diff-x-pos-45'
p4359
S'action-1'
p4360
tp4361
g5
(g9
S' \xe4\x8f\xb6\n\xcb#\xbf'
p4362
tp4363
Rp4364
s(g1312
S'object-0-x-120'
p4365
tp4366
g5
(g9
S'<\xe7+\x00\xc1\xc7~?'
p4367
tp4368
Rp4369
s(g2050
S'action-4'
p4370
tp4371
g5
(g9
S'\xde\xfe\x02\xfdZ+l?'
p4372
tp4373
Rp4374
s(S'diff-x-pos-43'
p4375
S'prev-action-3'
p4376
tp4377
g5
(g9
S'2R"O\xac\x8f6\xbf'
p4378
tp4379
Rp4380
s(g3742
S'prev-action-4'
p4381
tp4382
g5
(g9
S'\xf0.\x80PGX)?'
p4383
tp4384
Rp4385
sg1096
g5
(g9
S'E\xeb\xe4m\x8a\ti?'
p4386
tp4387
Rp4388
s(S'diff-x-pos--90'
p4389
S'action-1'
p4390
tp4391
g5
(g9
S'\xe1\n\x16\xce\x9c\x08)?'
p4392
tp4393
Rp4394
s(S'action-1'
p4395
S'object-1-x-96'
p4396
tp4397
g5
(g9
S'W(\xc5q~\xf7\x86?'
p4398
tp4399
Rp4400
s(g3705
S'action-4'
p4401
tp4402
g5
(g9
S'(\xcdN\xa6l\xdcB\xbf'
p4403
tp4404
Rp4405
s(S'diff-x-pos-33'
p4406
S'prev-action-1'
p4407
tp4408
g5
(g9
S'\xdf\xcd\xb0."lT\xbf'
p4409
tp4410
Rp4411
s(S'diff-x-pos--5'
p4412
S'action-1'
p4413
tp4414
g5
(g9
S'\xb6\x15w="&q?'
p4415
tp4416
Rp4417
s(S'diff-x-pos-2'
p4418
S'prev-action-1'
p4419
tp4420
g5
(g9
S'W*\xc2\x15\x99c}\xbf'
p4421
tp4422
Rp4423
s(S'diff-x-pos--39'
p4424
S'action-1'
p4425
tp4426
g5
(g9
S'\xabM\x06\x9f\xf09\x88?'
p4427
tp4428
Rp4429
s(g1126
g15
tp4430
g5
(g9
S'\x0e\xae\xa8\xc6\xe9;e\xbf'
p4431
tp4432
Rp4433
s(S'object-0-dx-1'
p4434
g15
tp4435
g5
(g9
S'P\xb0\xe4w8\xc9\xb9?'
p4436
tp4437
Rp4438
s(S'diff-x-pos-14'
p4439
S'prev-action-1'
p4440
tp4441
g5
(g9
S"\t\xfa\xff'.\x8ft\xbf"
p4442
tp4443
Rp4444
s(g3149
S'prev-action-4'
p4445
tp4446
g5
(g9
S'zU\xbb\x8f\xc6_w?'
p4447
tp4448
Rp4449
s(S'diff-x-pos-37'
p4450
S'prev-action-1'
p4451
tp4452
g5
(g9
S',\xbeS\xda\x18 =\xbf'
p4453
tp4454
Rp4455
s(g386
S'prev-action-3'
p4456
tp4457
g5
(g9
S'v\xba\xa5b\xbb7\\\xbf'
p4458
tp4459
Rp4460
s(S'diff-x-pos--13'
p4461
S'prev-action-1'
p4462
tp4463
g5
(g9
S'\x0c\xaf\x1d\xb5\x07\xb2E\xbf'
p4464
tp4465
Rp4466
s(g3041
S'action-4'
p4467
tp4468
g5
(g9
S'\xac\x8dWN\x8b3g?'
p4469
tp4470
Rp4471
s(g63
S'prev-action-4'
p4472
tp4473
g5
(g9
S'OV\x03\x07h\xd7\x80?'
p4474
tp4475
Rp4476
s(S'diff-x-pos--7'
p4477
S'action-1'
p4478
tp4479
g5
(g9
S'\x0eg\xb6\xdd\xa6\xfcf?'
p4480
tp4481
Rp4482
sg3685
g5
(g9
S'\xd0\x90\x85\xb3`\x02\xb4?'
p4483
tp4484
Rp4485
s(g3143
S'action-1'
p4486
tp4487
g5
(g9
S'\xe1\xd5\x1d\xcf\x93af?'
p4488
tp4489
Rp4490
s(g1348
g827
tp4491
g5
(g9
S'_s\xbaT\xec\xa4\xd2?'
p4492
tp4493
Rp4494
sS'object-0-x-96'
p4495
g5
(g9
S'\x1a\xe8mTT-\xa3?'
p4496
tp4497
Rp4498
s(S'diff-x-pos--47'
p4499
S'action-4'
p4500
tp4501
g5
(g9
S'C4\x1f\xb7\xc1\x04V?'
p4502
tp4503
Rp4504
s(S'diff-x-pos--94'
p4505
S'prev-action-3'
p4506
tp4507
g5
(g9
S'\xae\xd1\xb8\x99\xf2}J?'
p4508
tp4509
Rp4510
s(S'diff-x-pos-48'
p4511
S'prev-action-3'
p4512
tp4513
g5
(g9
S'\xae\x8eb\xb5a)j\xbf'
p4514
tp4515
Rp4516
s(S'diff-x-pos--50'
p4517
S'prev-action-1'
p4518
tp4519
g5
(g9
S'\xe0\x13\x8d^\x01\xf4n?'
p4520
tp4521
Rp4522
s(S'diff-x-pos--15'
p4523
S'action-4'
p4524
tp4525
g5
(g9
S'\xc8\x83d\xacu\xdck?'
p4526
tp4527
Rp4528
s(g27
g440
tp4529
g5
(g9
S'\xdad\xbb=oO\xd5?'
p4530
tp4531
Rp4532
s(S'diff-x-pos--56'
p4533
S'prev-action-1'
p4534
tp4535
g5
(g9
S'\x0f\xd8ACK<T?'
p4536
tp4537
Rp4538
s(S'diff-x-pos-13'
p4539
S'prev-action-3'
p4540
tp4541
g5
(g9
S'\xe3\x0c\xdaw\x14qp\xbf'
p4542
tp4543
Rp4544
s(g3470
S'action-4'
p4545
tp4546
g5
(g9
S'&*j\xf8\x12\x99~?'
p4547
tp4548
Rp4549
s(S'diff-x-pos-9'
p4550
S'action-1'
p4551
tp4552
g5
(g9
S'\x92\x03\x9a\xb4\xf9NE\xbf'
p4553
tp4554
Rp4555
s(g3049
S'prev-action-3'
p4556
tp4557
g5
(g9
S'\xc525\xb8m\xf1r?'
p4558
tp4559
Rp4560
s(g2158
S'action-3'
p4561
tp4562
g5
(g9
S'\xec\xa9"\x83\xd7\xb3.?'
p4563
tp4564
Rp4565
s(g1261
g1932
tp4566
g5
(g9
S'\x1f\xed\xf4l\xf7\x7f\x02\xbf'
p4567
tp4568
Rp4569
s(g788
S'prev-action-1'
p4570
tp4571
g5
(g9
S'\xee\xean\x1f\xde\xf3B\xbf'
p4572
tp4573
Rp4574
s(g776
g502
tp4575
g5
(g9
S'[\xec\xd2\x01W\xc3p?'
p4576
tp4577
Rp4578
s(S'action-1'
p4579
S'object-1-x-88'
p4580
tp4581
g5
(g9
S'5\xf5\xeez/0\x84?'
p4582
tp4583
Rp4584
s(S'diff-x-pos-15'
p4585
S'action-1'
p4586
tp4587
g5
(g9
S'\xde\xc7\xa1[\x11oN\xbf'
p4588
tp4589
Rp4590
s(S'diff-x-pos--52'
p4591
S'action-3'
p4592
tp4593
g5
(g9
S'\xb3h\x00\xf8\x1b\xf6[?'
p4594
tp4595
Rp4596
s(g1997
S'prev-action-4'
p4597
tp4598
g5
(g9
S'\x99g\xce\xe7\x1a\x81g?'
p4599
tp4600
Rp4601
sg184
g5
(g9
S'\xb93\xcd\x84{\xbbl\xbf'
p4602
tp4603
Rp4604
s(g4336
S'prev-action-3'
p4605
tp4606
g5
(g9
S'3\xbeE\xe6p\xe6R\xbf'
p4607
tp4608
Rp4609
s(S'diff-x-pos-17'
p4610
S'prev-action-3'
p4611
tp4612
g5
(g9
S'\x84\x07\x1c\xe7X$:?'
p4613
tp4614
Rp4615
s(S'action-4'
p4616
g2418
tp4617
g5
(g9
S'\xf3\x013\xa1L\x8aw?'
p4618
tp4619
Rp4620
s(g1432
S'prev-action-4'
p4621
tp4622
g5
(g9
S'\x97\xb5\xa5Q\xbf t?'
p4623
tp4624
Rp4625
s(g3260
S'action-4'
p4626
tp4627
g5
(g9
S'4xmM\x1f\xabd?'
p4628
tp4629
Rp4630
s(S'diff-x-pos--67'
p4631
S'prev-action-0'
p4632
tp4633
g5
(g9
S'T\xee\x99k\x14\x10\xc7?'
p4634
tp4635
Rp4636
s(S'diff-x-pos--31'
p4637
S'action-3'
p4638
tp4639
g5
(g9
S'\x90Y\xa4\xb6\xe1+u?'
p4640
tp4641
Rp4642
s(S'diff-x-pos-1'
p4643
S'action-3'
p4644
tp4645
g5
(g9
S'\xbf1\xe9q\x8cLt\xbf'
p4646
tp4647
Rp4648
s(S'diff-x-pos-5'
p4649
S'action-4'
p4650
tp4651
g5
(g9
S'^\xfbCh\xd6\x88}\xbf'
p4652
tp4653
Rp4654
s(S'diff-x-pos--41'
p4655
S'action-3'
p4656
tp4657
g5
(g9
S'\x8e\x83\xd5p\xd7\xc3b?'
p4658
tp4659
Rp4660
s(g659
g502
tp4661
g5
(g9
S'\xd1\xc1\x99\x9d\x07\xbd\xd5?'
p4662
tp4663
Rp4664
s(g757
g1871
tp4665
g5
(g9
S'*\xf3\xb4\xeb\x06lF?'
p4666
tp4667
Rp4668
s(g838
S'action-3'
p4669
tp4670
g5
(g9
S'\x0fi\x068\xcc5A?'
p4671
tp4672
Rp4673
s(g1343
S'object-0-x-108'
p4674
tp4675
g5
(g9
S'\xcd\xbd\xa6\xef\xedH}?'
p4676
tp4677
Rp4678
s(g933
S'prev-action-4'
p4679
tp4680
g5
(g9
S'~2V\x1f\x05\x03\x83\xbf'
p4681
tp4682
Rp4683
s(g4046
S'object-1-x-76'
p4684
tp4685
g5
(g9
S']\xe8\xb4%\xdb\xba\x96?'
p4686
tp4687
Rp4688
s(S'action-1'
p4689
g103
tp4690
g5
(g9
S'\xffD5\xed\x08:A\xbf'
p4691
tp4692
Rp4693
s(S'diff-x-pos--26'
p4694
g2769
tp4695
g5
(g9
S'\xe6Y\xba\x00\xaf\xa5r?'
p4696
tp4697
Rp4698
s(g1970
S'prev-action-1'
p4699
tp4700
g5
(g9
S'\xc4\xa0F\x88\xf2\xbev?'
p4701
tp4702
Rp4703
s(S'action-3'
p4704
S'object-0-x-80'
p4705
tp4706
g5
(g9
S'\x13\x99\xad\xa2\x9b\x88\xa4?'
p4707
tp4708
Rp4709
s(S'diff-x-pos--59'
p4710
S'action-1'
p4711
tp4712
g5
(g9
S'\xf5}\x80\x81\x18\x1c,\xbf'
p4713
tp4714
Rp4715
s(S'diff-x-pos-54'
p4716
S'prev-action-3'
p4717
tp4718
g5
(g9
S'\xecA\xf6X_W0?'
p4719
tp4720
Rp4721
s(S'diff-x-pos-8'
p4722
S'prev-action-1'
p4723
tp4724
g5
(g9
S'F\xb7e~6$S?'
p4725
tp4726
Rp4727
s(S'diff-x-pos-1'
p4728
S'prev-action-4'
p4729
tp4730
g5
(g9
S'\xac\xa9>\xe1\x93 \x84\xbf'
p4731
tp4732
Rp4733
s(S'diff-x-pos-24'
p4734
S'action-4'
p4735
tp4736
g5
(g9
S'#[\xc6\xa8!\x19u\xbf'
p4737
tp4738
Rp4739
s(S'diff-x-pos-2'
p4740
S'action-1'
p4741
tp4742
g5
(g9
S'\x04\xf6\x82Y^\xa1\x83\xbf'
p4743
tp4744
Rp4745
s(S'action-4'
p4746
g3534
tp4747
g5
(g9
S'\xab\x01\xfb\x85\xe8?\xa1?'
p4748
tp4749
Rp4750
s(g3093
S'action-4'
p4751
tp4752
g5
(g9
S' \x0c\x13d\xad\xc9i\xbf'
p4753
tp4754
Rp4755
s(S'diff-x-pos-12'
p4756
S'action-1'
p4757
tp4758
g5
(g9
S'\xca*\xf5\x16\xb6qd\xbf'
p4759
tp4760
Rp4761
s(S'diff-x-pos-47'
p4762
S'action-3'
p4763
tp4764
g5
(g9
S'\xde\xc6\xd6\x06(\x9e7\xbf'
p4765
tp4766
Rp4767
s(S'action-4'
p4768
g4495
tp4769
g5
(g9
S'\x93\xbf\x13\xcc\x16e\x93?'
p4770
tp4771
Rp4772
s(S'diff-x-pos--41'
p4773
g699
tp4774
g5
(g9
S'\xcc\xbc\xa5S\xfa\x13s?'
p4775
tp4776
Rp4777
s(g2977
S'action-3'
p4778
tp4779
g5
(g9
S'R\xaex\xd2\xcb5!?'
p4780
tp4781
Rp4782
s(S'diff-x-pos--76'
p4783
S'prev-action-1'
p4784
tp4785
g5
(g9
S'=\x95\xdf\xc5\x03\xb0b?'
p4786
tp4787
Rp4788
s(S'diff-x-pos-27'
p4789
S'prev-action-3'
p4790
tp4791
g5
(g9
S'e\xe3\xd3\xd8W\xcam\xbf'
p4792
tp4793
Rp4794
s(S'diff-x-pos--16'
p4795
S'action-3'
p4796
tp4797
g5
(g9
S'\xbb\x03j\xf1\xe8\x95q?'
p4798
tp4799
Rp4800
s(S'diff-x-pos-14'
p4801
S'action-4'
p4802
tp4803
g5
(g9
S'\xbdK2\x97\xc1\xd7~\xbf'
p4804
tp4805
Rp4806
s(S'diff-x-pos--18'
p4807
S'action-1'
p4808
tp4809
g5
(g9
S'`\xed\x03\x93\x115u?'
p4810
tp4811
Rp4812
s(S'diff-x-pos--6'
p4813
S'prev-action-1'
p4814
tp4815
g5
(g9
S'f0\x91\xa1\xe9\xbcv?'
p4816
tp4817
Rp4818
s(S'diff-x-pos--36'
p4819
S'action-3'
p4820
tp4821
g5
(g9
S'r\xc9{{|Ov?'
p4822
tp4823
Rp4824
s(S'diff-x-pos-53'
p4825
S'prev-action-3'
p4826
tp4827
g5
(g9
S'\xc2!\xfa\xf7M\x8e8\xbf'
p4828
tp4829
Rp4830
s(S'diff-x-pos--70'
p4831
S'action-3'
p4832
tp4833
g5
(g9
S'\xee"f\xe0U\xfeM?'
p4834
tp4835
Rp4836
s(g3031
S'action-4'
p4837
tp4838
g5
(g9
S'\xfc\xc7\x98\x11\xe4\x8cf\xbf'
p4839
tp4840
Rp4841
s(S'diff-x-pos--34'
p4842
S'prev-action-1'
p4843
tp4844
g5
(g9
S'\xbf\x86sP\xb8k\x80?'
p4845
tp4846
Rp4847
s(S'diff-x-pos--8'
p4848
S'action-3'
p4849
tp4850
g5
(g9
S'6~\xe0pJ\x9a3?'
p4851
tp4852
Rp4853
s(S'diff-x-pos--77'
p4854
S'action-3'
p4855
tp4856
g5
(g9
S"\xcd'%\xf6=Z%?"
p4857
tp4858
Rp4859
s(S'diff-x-pos-67'
p4860
S'action-4'
p4861
tp4862
g5
(g9
S'\x8fx\xd1\xd9\x0c\xe1\x13\xbf'
p4863
tp4864
Rp4865
s(S'diff-x-pos--1'
p4866
S'action-4'
p4867
tp4868
g5
(g9
S'\xbas\x95-\xc29s\xbf'
p4869
tp4870
Rp4871
s(g911
S'prev-action-4'
p4872
tp4873
g5
(g9
S'p\xdd/\x0bd\x8e\x12?'
p4874
tp4875
Rp4876
s(g4176
S'action-3'
p4877
tp4878
g5
(g9
S'\x80\xecw\x17\xf0\xf4`?'
p4879
tp4880
Rp4881
s(g2025
S'action-3'
p4882
tp4883
g5
(g9
S'6|\xf8\xad\x87\xa2R?'
p4884
tp4885
Rp4886
s(S'diff-x-pos-29'
p4887
S'action-1'
p4888
tp4889
g5
(g9
S'C[\xc9~\x96`\x1b\xbf'
p4890
tp4891
Rp4892
s(g1109
S'object-1-x-72'
p4893
tp4894
g5
(g9
S'\x91\xbf\xf0\xa4\x07\x93\x9b?'
p4895
tp4896
Rp4897
s(g3127
S'prev-action-4'
p4898
tp4899
g5
(g9
S'x#\xab\x1d\xc6aJ\xbf'
p4900
tp4901
Rp4902
s(S'diff-x-pos--2'
p4903
S'prev-action-1'
p4904
tp4905
g5
(g9
S'\xdc\xca\xc2\xe7\xedop?'
p4906
tp4907
Rp4908
s(S'action-4'
p4909
g735
tp4910
g5
(g9
S'y\xb6z\x04R\xde\xab?'
p4911
tp4912
Rp4913
s(S'diff-x-pos-47'
p4914
S'action-4'
p4915
tp4916
g5
(g9
S'\xb3\x17\x94\xff\x148X?'
p4917
tp4918
Rp4919
s(g1638
S'action-4'
p4920
tp4921
g5
(g9
S'~\x17f=y\x08h\xbf'
p4922
tp4923
Rp4924
s(S'object-1-dx--1'
p4925
g542
tp4926
g5
(g9
S'_>Z\x91\xb1\xee\x8c\xbf'
p4927
tp4928
Rp4929
s(g3107
S'prev-action-4'
p4930
tp4931
g5
(g9
S'\x88B\xc6\x18\x9aqh\xbf'
p4932
tp4933
Rp4934
s(g3077
S'prev-action-3'
p4935
tp4936
g5
(g9
S'&\xc1\x90W\x04\x8f\\?'
p4937
tp4938
Rp4939
s(S'diff-x-pos--12'
p4940
S'prev-action-3'
p4941
tp4942
g5
(g9
S'\x97\x1a\xfa\x8a)\xaem?'
p4943
tp4944
Rp4945
s(g2046
S'action-4'
p4946
tp4947
g5
(g9
S'3\x10\x98\xd9t\xf1c?'
p4948
tp4949
Rp4950
s(S'diff-x-pos-27'
p4951
S'action-3'
p4952
tp4953
g5
(g9
S'\x00\x06:\xc7\x8b9\xc5\xbe'
p4954
tp4955
Rp4956
s(g2687
S'prev-action-1'
p4957
tp4958
g5
(g9
S'|\xb2u\xffGHY\xbf'
p4959
tp4960
Rp4961
sS'object-1-x-88'
p4962
g5
(g9
S'\xb5:\xef\x8a\xa8\xa8\x99?'
p4963
tp4964
Rp4965
s(S'diff-x-pos--91'
p4966
S'prev-action-3'
p4967
tp4968
g5
(g9
S'\xf0#\xc8\x8eA{Z?'
p4969
tp4970
Rp4971
s(S'diff-x-pos--53'
p4972
S'action-1'
p4973
tp4974
g5
(g9
S'E<\x02\x7f\xf1\xbbp?'
p4975
tp4976
Rp4977
s(S'diff-x-pos--45'
p4978
S'prev-action-4'
p4979
tp4980
g5
(g9
S"\x8e#\x02>\xb7'\x83?"
p4981
tp4982
Rp4983
s(g1839
S'prev-action-4'
p4984
tp4985
g5
(g9
S'\xf5<\x0fd\xa8\xc3\x88?'
p4986
tp4987
Rp4988
s(g2953
S'prev-action-4'
p4989
tp4990
g5
(g9
S'\xb2\x03\xfff\xd3\xf9h\xbf'
p4991
tp4992
Rp4993
sS'object-0-x-112'
p4994
g5
(g9
S'V\xcc\x02\xd5?1\xa9?'
p4995
tp4996
Rp4997
s(g1650
g1188
tp4998
g5
(g9
S'"\x03\x84\n\x12ub?'
p4999
tp5000
Rp5001
sg2846
g5
(g9
S'\xcc\xe9\xf0YC\xcdf?'
p5002
tp5003
Rp5004
s(S'diff-x-pos-20'
p5005
S'action-1'
p5006
tp5007
g5
(g9
S'~\xce\\\xa9!bT\xbf'
p5008
tp5009
Rp5010
s(S'diff-x-pos--40'
p5011
S'action-1'
p5012
tp5013
g5
(g9
S'\xfb\xdb\xc7\xa6n\x19l?'
p5014
tp5015
Rp5016
s(S'diff-x-pos-34'
p5017
S'prev-action-3'
p5018
tp5019
g5
(g9
S'@\xb4\x0cl|jQ\xbf'
p5020
tp5021
Rp5022
s(g929
S'prev-action-4'
p5023
tp5024
g5
(g9
S'\xe7\xdc\x15\xf2}\x97i\xbf'
p5025
tp5026
Rp5027
s(S'diff-x-pos--83'
p5028
S'action-1'
p5029
tp5030
g5
(g9
S'\x03C\xda\xaf\xf2`g?'
p5031
tp5032
Rp5033
s(S'diff-x-pos-16'
p5034
S'action-4'
p5035
tp5036
g5
(g9
S"'((\xa1=\xcc\x7f\xbf"
p5037
tp5038
Rp5039
s(S'action-1'
p5040
S'object-0-x-52'
p5041
tp5042
g5
(g9
S"\xfdA\xac'\x81Y\xa8?"
p5043
tp5044
Rp5045
s(S'diff-x-pos-39'
p5046
S'prev-action-4'
p5047
tp5048
g5
(g9
S'A\x05E\x88\xd1u8?'
p5049
tp5050
Rp5051
sS'object-1-dy-1'
p5052
g5
(g9
S'\xe64/\x8a]+\xa6\xbf'
p5053
tp5054
Rp5055
s(S'diff-x-pos--68'
p5056
g3566
tp5057
g5
(g9
S"'\xa1\x1d\x18\x99\xc5V?"
p5058
tp5059
Rp5060
s(S'diff-x-pos--22'
p5061
S'prev-action-4'
p5062
tp5063
g5
(g9
S'\xc2\x88\xc1a\xec\xb1z?'
p5064
tp5065
Rp5066
s(S'diff-x-pos--53'
p5067
S'prev-action-1'
p5068
tp5069
g5
(g9
S'*\x9a\xd8T\xcf1`?'
p5070
tp5071
Rp5072
s(g1496
S'object-0-x-20'
p5073
tp5074
g5
(g9
S'u\x90\x06\x19\xdcy\x91?'
p5075
tp5076
Rp5077
s(g681
S'prev-action-1'
p5078
tp5079
g5
(g9
S'X\x16\x01\xed$\xd0C?'
p5080
tp5081
Rp5082
s(S'diff-x-pos-22'
p5083
S'prev-action-3'
p5084
tp5085
g5
(g9
S'R\xfd\xdb\xcc\x11\xa8M\xbf'
p5086
tp5087
Rp5088
s(S'diff-x-pos--66'
p5089
S'prev-action-4'
p5090
tp5091
g5
(g9
S'\x7f\no\x8c_\xc6p?'
p5092
tp5093
Rp5094
s(S'diff-x-pos--57'
p5095
S'prev-action-4'
p5096
tp5097
g5
(g9
S'\xf8,U!\xd2\xc3R?'
p5098
tp5099
Rp5100
s(g1545
S'action-4'
p5101
tp5102
g5
(g9
S'\xe1b\x089\n\t4\xbf'
p5103
tp5104
Rp5105
s(g764
S'prev-action-3'
p5106
tp5107
g5
(g9
S'\xa9\xd4\xf1J\xe9\x02\x99?'
p5108
tp5109
Rp5110
s(S'diff-x-pos--14'
p5111
S'prev-action-3'
p5112
tp5113
g5
(g9
S'\xb7`\x08G\xc53h?'
p5114
tp5115
Rp5116
s(g1738
S'object-1-x-60'
p5117
tp5118
g5
(g9
S'7\x1eO\xd1\xd3\xde\xa5?'
p5119
tp5120
Rp5121
s(g866
g440
tp5122
g5
(g9
S'x\xc6%"\xd8/\x92\xbf'
p5123
tp5124
Rp5125
sg4207
g5
(g9
S'\x12\x90a\xc4\x7f\xb1\xa7?'
p5126
tp5127
Rp5128
s(S'diff-x-pos-46'
p5129
S'action-1'
p5130
tp5131
g5
(g9
S'!\xf7\x86\xcf0)`\xbf'
p5132
tp5133
Rp5134
s(S'diff-x-pos--54'
p5135
S'action-1'
p5136
tp5137
g5
(g9
S'\xe3$\x90m@Zt?'
p5138
tp5139
Rp5140
s(g1980
g3646
tp5141
g5
(g9
S'F\xb8}825}?'
p5142
tp5143
Rp5144
s(g2753
S'action-4'
p5145
tp5146
g5
(g9
S'\x1f\xb8\xd0\xd61\xfc_?'
p5147
tp5148
Rp5149
s(S'diff-x-pos--71'
p5150
S'prev-action-3'
p5151
tp5152
g5
(g9
S'1.2 \xbc\x9cq?'
p5153
tp5154
Rp5155
s(S'diff-x-pos--64'
p5156
S'action-4'
p5157
tp5158
g5
(g9
S' \xc9\xc2\xc3\xc4I/?'
p5159
tp5160
Rp5161
s(S'diff-x-pos--66'
p5162
S'action-4'
p5163
tp5164
g5
(g9
S'\xc0\x982\xd8\xee\xf0l?'
p5165
tp5166
Rp5167
s(S'diff-x-pos-0'
p5168
S'prev-action-1'
p5169
tp5170
g5
(g9
S'\x96\x08~0\xf6\xefh\xbf'
p5171
tp5172
Rp5173
s(S'diff-x-pos--1'
p5174
S'action-1'
p5175
tp5176
g5
(g9
S'\xd1\xf0\xa3VPfq\xbf'
p5177
tp5178
Rp5179
s(S'diff-x-pos-10'
p5180
S'prev-action-1'
p5181
tp5182
g5
(g9
S'\xb0+\x13\x84\x08\xd0U\xbf'
p5183
tp5184
Rp5185
s(S'diff-x-pos-27'
p5186
S'action-1'
p5187
tp5188
g5
(g9
S'<1\xc6\xe3\xf7\x91P?'
p5189
tp5190
Rp5191
s(S'diff-x-pos--62'
p5192
S'prev-action-4'
p5193
tp5194
g5
(g9
S'\x96\xa2Y\xfbw\xd8L?'
p5195
tp5196
Rp5197
s(S'diff-x-pos--74'
p5198
S'action-1'
p5199
tp5200
g5
(g9
S' ~\xd4\xe3\xf1\xac[?'
p5201
tp5202
Rp5203
s(S'diff-x-pos--32'
p5204
S'prev-action-4'
p5205
tp5206
g5
(g9
S'\x82\x9a\x12\x86e^z?'
p5207
tp5208
Rp5209
s(S'diff-x-pos--81'
p5210
S'prev-action-3'
p5211
tp5212
g5
(g9
S'\xc3\x00t\xa0\xba\xe5S?'
p5213
tp5214
Rp5215
s(g3245
S'action-4'
p5216
tp5217
g5
(g9
S'$g\xbb&\x9f\x16A\xbf'
p5218
tp5219
Rp5220
s(g2775
S'action-4'
p5221
tp5222
g5
(g9
S'\xf1#\xd3\x85\x87\xf7O\xbf'
p5223
tp5224
Rp5225
s(S'diff-x-pos-28'
p5226
g2352
tp5227
g5
(g9
S'D/cC\x89\x1d:?'
p5228
tp5229
Rp5230
sS'diff-x-pos-62'
p5231
g5
(g9
S'\xa0\x10Vt2A\x05?'
p5232
tp5233
Rp5234
sg2316
g5
(g9
S'\xfd]6f\xdd2K?'
p5235
tp5236
Rp5237
sg1251
g5
(g9
S'`\xb3\xc1\xecB.4?'
p5238
tp5239
Rp5240
sg4860
g5
(g9
S'\x8fx\xd1\xd9\x0c\xe1\x13\xbf'
p5241
tp5242
Rp5243
s(S'diff-x-pos--63'
p5244
S'action-1'
p5245
tp5246
g5
(g9
S'\xd3\xbb\xee\xb5 \xa7Y?'
p5247
tp5248
Rp5249
sg1261
g5
(g9
S'\x1f\xed\xf4l\xf7\x7f\x02\xbf'
p5250
tp5251
Rp5252
s(g2958
S'action-4'
p5253
tp5254
g5
(g9
S'^\xcf\xc0q=\x8e\t?'
p5255
tp5256
Rp5257
s(g27
g1422
tp5258
g5
(g9
S'\xe4\xb1\xb4\xe7\xdb\xc5\xb2?'
p5259
tp5260
Rp5261
s(S'diff-x-pos-21'
p5262
g4704
tp5263
g5
(g9
S'\xc4l\xe0t\xdas\xef>'
p5264
tp5265
Rp5266
s(S'object-0-dx--1'
p5267
S'prev-action-4'
p5268
tp5269
g5
(g9
S'\xb8\xf9\x1aLS\x15\x8b?'
p5270
tp5271
Rp5272
s(S'diff-x-pos--42'
p5273
g2233
tp5274
g5
(g9
S'F\x1bD\xe8\x01\xaeo?'
p5275
tp5276
Rp5277
s(S'diff-x-pos--88'
p5278
S'prev-action-1'
p5279
tp5280
g5
(g9
S'A(\xdaG\xfaZG?'
p5281
tp5282
Rp5283
s(S'action-4'
p5284
g312
tp5285
g5
(g9
S'\xf6\xc9#$Bu3?'
p5286
tp5287
Rp5288
s(g4966
S'action-3'
p5289
tp5290
g5
(g9
S'3\xaf\x00\xd9BSG?'
p5291
tp5292
Rp5293
s(S'action-3'
p5294
S'object-1-x-120'
p5295
tp5296
g5
(g9
S'\xbe&!\xa2Go\x82?'
p5297
tp5298
Rp5299
s(g2570
S'prev-action-4'
p5300
tp5301
g5
(g9
S'\xa5(\xbf-\x037"?'
p5302
tp5303
Rp5304
s(S'diff-x-pos--85'
p5305
S'action-1'
p5306
tp5307
g5
(g9
S'\\\x7f\x90\x92\x88|.?'
p5308
tp5309
Rp5310
s(S'diff-x-pos-51'
p5311
S'prev-action-1'
p5312
tp5313
g5
(g9
S',\xe29k`5P?'
p5314
tp5315
Rp5316
s(g70
S'object-0-x-100'
p5317
tp5318
g5
(g9
S'\xed\xafs\xa1\x11\xcfy?'
p5319
tp5320
Rp5321
s(S'diff-x-pos--18'
p5322
S'prev-action-4'
p5323
tp5324
g5
(g9
S"\x0e\x04@'J\xd7Z?"
p5325
tp5326
Rp5327
s(S'diff-x-pos--78'
p5328
S'prev-action-3'
p5329
tp5330
g5
(g9
S'4\x88[\xd8\x0fvI\xbf'
p5331
tp5332
Rp5333
s(S'diff-x-pos--32'
p5334
S'prev-action-3'
p5335
tp5336
g5
(g9
S'\xad\xfa)\xac\xab\xb2y?'
p5337
tp5338
Rp5339
s(g2547
g659
tp5340
g5
(g9
S';\x04~k \x08\xb5\xbf'
p5341
tp5342
Rp5343
s(g1802
S'prev-action-3'
p5344
tp5345
g5
(g9
S'\x96\\\x19\x9b\x1f\xf0n?'
p5346
tp5347
Rp5348
s(S'diff-x-pos-7'
p5349
S'prev-action-1'
p5350
tp5351
g5
(g9
S'\nH\x7fKz\xcad\xbf'
p5352
tp5353
Rp5354
s(g433
g3434
tp5355
g5
(g9
S'\xf9s\xeb\xd2\xe59\xa6?'
p5356
tp5357
Rp5358
s(S'diff-x-pos-60'
p5359
S'action-1'
p5360
tp5361
g5
(g9
S'\\/%\x1dS\x05\xf5>'
p5362
tp5363
Rp5364
s(g2513
S'prev-action-4'
p5365
tp5366
g5
(g9
S'y\x83\xee\x87\x8d\x9fG\xbf'
p5367
tp5368
Rp5369
s(g356
S'prev-action-1'
p5370
tp5371
g5
(g9
S'p\xf8\x97\xa296\xf4>'
p5372
tp5373
Rp5374
s(g3027
S'prev-action-3'
p5375
tp5376
g5
(g9
S'ESaf\xbc\xd9k?'
p5377
tp5378
Rp5379
s(g3323
S'prev-action-3'
p5380
tp5381
g5
(g9
S'\xc4M\x86h\x8a\x9bP?'
p5382
tp5383
Rp5384
s(g5328
S'action-3'
p5385
tp5386
g5
(g9
S'\xcf\xb1\xa2R\x95R<?'
p5387
tp5388
Rp5389
s(S'diff-x-pos-26'
p5390
S'prev-action-1'
p5391
tp5392
g5
(g9
S'\nq\xd3\t(_]\xbf'
p5393
tp5394
Rp5395
s(g3510
S'action-4'
p5396
tp5397
g5
(g9
S'Kr5^(\xf2]?'
p5398
tp5399
Rp5400
s(S'diff-x-pos-31'
p5401
S'prev-action-3'
p5402
tp5403
g5
(g9
S' \xa8H\x12\xdbL6\xbf'
p5404
tp5405
Rp5406
s(g1816
g623
tp5407
g5
(g9
S'\xba\xe0\xcb?\xdb\x91V?'
p5408
tp5409
Rp5410
s(S'object-0-dx--1'
p5411
g1306
tp5412
g5
(g9
S'%\x96&Z\x98\xa5\xb0?'
p5413
tp5414
Rp5415
s(S'diff-x-pos--65'
p5416
S'action-3'
p5417
tp5418
g5
(g9
S'n@H\xd5\xbf\x95j?'
p5419
tp5420
Rp5421
sg2909
g5
(g9
S'\x8c\x9bK@w\xfe\xcf?'
p5422
tp5423
Rp5424
sS'object-0-x-84'
p5425
g5
(g9
S'\xaa\n\xe1V,\x03\xb8?'
p5426
tp5427
Rp5428
sg4138
g5
(g9
S'\xd3^(\xbb\xffH\xd1?'
p5429
tp5430
Rp5431
s(g4631
S'action-3'
p5432
tp5433
g5
(g9
S'\x87\xdf\xaa\xbf\x92\x88\xa5?'
p5434
tp5435
Rp5436
s(g1432
S'action-1'
p5437
tp5438
g5
(g9
S'\xad\xf3\x13\x92twx?'
p5439
tp5440
Rp5441
sS'object-0-x-68'
p5442
g5
(g9
S' \x8b8\xb3\xf6Z\xcc?'
p5443
tp5444
Rp5445
s(S'diff-x-pos--50'
p5446
S'action-4'
p5447
tp5448
g5
(g9
S'\x19\xfe\xbc\xe4\x92\x98\x80\xbf'
p5449
tp5450
Rp5451
s(S'diff-x-pos--49'
p5452
S'action-1'
p5453
tp5454
g5
(g9
S'\x11\x12\x17\x06\xea-b?'
p5455
tp5456
Rp5457
s(g2164
S'action-3'
p5458
tp5459
g5
(g9
S'\xecQIH&\xad\xd8>'
p5460
tp5461
Rp5462
s(S'diff-x-pos--46'
p5463
S'action-3'
p5464
tp5465
g5
(g9
S'\x9dg=\x0e\x15\x97[?'
p5466
tp5467
Rp5468
s(S'diff-x-pos-56'
p5469
S'action-1'
p5470
tp5471
g5
(g9
S'\xd8#\x94u J\t?'
p5472
tp5473
Rp5474
s(S'diff-x-pos-26'
p5475
S'action-1'
p5476
tp5477
g5
(g9
S'\x01\xb4oP\xee14\xbf'
p5478
tp5479
Rp5480
s(g2136
g172
tp5481
g5
(g9
S'l\x95q\x80\x98\x07\x0c\xbf'
p5482
tp5483
Rp5484
sS'object-0-x-12'
p5485
g5
(g9
S'&\n%\x95eO\x7f\xbf'
p5486
tp5487
Rp5488
s(S'diff-x-pos-11'
p5489
S'prev-action-4'
p5490
tp5491
g5
(g9
S'}P\xdc^\x98\xfdj\xbf'
p5492
tp5493
Rp5494
s(S'diff-x-pos-25'
p5495
S'prev-action-1'
p5496
tp5497
g5
(g9
S'b\x12\x99t(;Z\xbf'
p5498
tp5499
Rp5500
s(g2227
S'action-4'
p5501
tp5502
g5
(g9
S'\xf5\xa5\x81\x9f\xd8\x87h?'
p5503
tp5504
Rp5505
s(S'diff-x-pos--44'
p5506
S'prev-action-3'
p5507
tp5508
g5
(g9
S'n\x11@\xbf\x1b\xa3v?'
p5509
tp5510
Rp5511
s(g4207
g3528
tp5512
g5
(g9
S'b\xeda.f\xf4\x99?'
p5513
tp5514
Rp5515
s(g3097
S'prev-action-4'
p5516
tp5517
g5
(g9
S'H\xd8&\xd8njd\xbf'
p5518
tp5519
Rp5520
s(S'diff-x-pos--34'
p5521
S'action-1'
p5522
tp5523
g5
(g9
S'\xb7\x03\xea \xe3{t?'
p5524
tp5525
Rp5526
s(S'diff-x-pos-59'
p5527
S'action-3'
p5528
tp5529
g5
(g9
S'\x1f\x91\x03Z\x9599?'
p5530
tp5531
Rp5532
s(S'diff-x-pos-41'
p5533
S'action-3'
p5534
tp5535
g5
(g9
S'\xf4\xb7w|A\x07V?'
p5536
tp5537
Rp5538
s(S'diff-x-pos--29'
p5539
S'prev-action-1'
p5540
tp5541
g5
(g9
S'\x0f8\xe8\xcclGy?'
p5542
tp5543
Rp5544
s(S'diff-x-pos-5'
p5545
S'action-1'
p5546
tp5547
g5
(g9
S'>2\x1b\xba\nMg\xbf'
p5548
tp5549
Rp5550
s(g2576
S'prev-action-4'
p5551
tp5552
g5
(g9
S'\xf6x\xaeG\xd4j\x06\xbf'
p5553
tp5554
Rp5555
s(S'diff-x-pos--30'
p5556
S'prev-action-0'
p5557
tp5558
g5
(g9
S'\xe8(\xde\xa6\x00\x10\x8b?'
p5559
tp5560
Rp5561
s(S'diff-x-pos--54'
p5562
S'prev-action-1'
p5563
tp5564
g5
(g9
S'\xd1\xce\xe8$\xd5/V?'
p5565
tp5566
Rp5567
s(S'diff-x-pos-46'
p5568
S'prev-action-1'
p5569
tp5570
g5
(g9
S'\xa0\x13N\x16\x9ea8\xbf'
p5571
tp5572
Rp5573
s(g4074
S'action-4'
p5574
tp5575
g5
(g9
S'\x8f\x99\xda\x82\xe5\x0e \xbf'
p5576
tp5577
Rp5578
s(g941
S'action-1'
p5579
tp5580
g5
(g9
S'\xf8\x97\x1a\x922\xb2k\xbf'
p5581
tp5582
Rp5583
s(g4099
S'prev-action-3'
p5584
tp5585
g5
(g9
S'\xfe\xe6o\xc3\xacUM?'
p5586
tp5587
Rp5588
s(S'diff-x-pos--75'
p5589
S'action-3'
p5590
tp5591
g5
(g9
S'\xf6\xb2X\x1dN\xa8\x16?'
p5592
tp5593
Rp5594
s(S'diff-x-pos--56'
p5595
S'action-3'
p5596
tp5597
g5
(g9
S'\xa1\xc0\xe5\xe4\x99\xe0r?'
p5598
tp5599
Rp5600
sg1182
g5
(g9
S'\x05-oU2\x88r?'
p5601
tp5602
Rp5603
s(g3053
S'prev-action-3'
p5604
tp5605
g5
(g9
S'\x95g\xf5\xfez\xb9D?'
p5606
tp5607
Rp5608
s(S'diff-x-pos-22'
p5609
g91
tp5610
g5
(g9
S'\x11<\xd2\xbbFWK\xbf'
p5611
tp5612
Rp5613
s(S'action-1'
p5614
S'object-0-x-116'
p5615
tp5616
g5
(g9
S'6\xbc\xd8l\xbf\x9c]?'
p5617
tp5618
Rp5619
s(g3114
g4768
tp5620
g5
(g9
S':\xfcdO\xc4s&?'
p5621
tp5622
Rp5623
s(g3053
g344
tp5624
g5
(g9
S'3~$d`\xe9\x7f?'
p5625
tp5626
Rp5627
s(g1685
S'action-3'
p5628
tp5629
g5
(g9
S'Fo\xf2<\x11_X?'
p5630
tp5631
Rp5632
s(g1211
g1412
tp5633
g5
(g9
S'\xa0\xadv\x9d\xf5\x92\xb1?'
p5634
tp5635
Rp5636
s(S'diff-x-pos--39'
p5637
S'prev-action-0'
p5638
tp5639
g5
(g9
S'-\t\xea\xaa\x08@\x83?'
p5640
tp5641
Rp5642
s(g208
S'action-1'
p5643
tp5644
g5
(g9
S'\x8a\x98\xc5\xa6\xf8SY?'
p5645
tp5646
Rp5647
s(S'diff-x-pos--62'
p5648
g1406
tp5649
g5
(g9
S'B"\xf9\x12\x0cl\x89?'
p5650
tp5651
Rp5652
sg5056
g5
(g9
S'd\xe7\xf2-\x1d\xe6\x82?'
p5653
tp5654
Rp5655
s(S'diff-x-pos-18'
p5656
S'prev-action-1'
p5657
tp5658
g5
(g9
S'Y5J\x0bY\x85\x83\xbf'
p5659
tp5660
Rp5661
s(S'diff-x-pos--67'
p5662
S'prev-action-4'
p5663
tp5664
g5
(g9
S'\x0f\x16\x8e\x05\x82(\x8f\xbf'
p5665
tp5666
Rp5667
s(g659
g156
tp5668
g5
(g9
S'\xa3\xde]\x7f\xfe\xbb\xa8?'
p5669
tp5670
Rp5671
s(g929
S'action-4'
p5672
tp5673
g5
(g9
S'\xeb\x85j\xd2\x98\xabv\xbf'
p5674
tp5675
Rp5676
s(S'diff-x-pos--64'
p5677
S'prev-action-1'
p5678
tp5679
g5
(g9
S'\x8a7{\x7f\\v[\xbf'
p5680
tp5681
Rp5682
s(S'diff-x-pos--89'
p5683
S'prev-action-3'
p5684
tp5685
g5
(g9
S'\xec\xd7\x15\xe3\xb2E0\xbf'
p5686
tp5687
Rp5688
s(g572
g5425
tp5689
g5
(g9
S'\xe3\xbd\xcaU!\xe8\xa9?'
p5690
tp5691
Rp5692
s(S'action-3'
p5693
S'object-1-x-72'
p5694
tp5695
g5
(g9
S'(\xeb,\xa6\x9fi\x97?'
p5696
tp5697
Rp5698
s(S'diff-x-pos--69'
p5699
S'prev-action-3'
p5700
tp5701
g5
(g9
S'\x14\xd7\xb2\x0e\x7f>\x17\xbf'
p5702
tp5703
Rp5704
s(g3339
S'action-3'
p5705
tp5706
g5
(g9
S'=\x1c\xaf\x98r\x14\x1a?'
p5707
tp5708
Rp5709
s(g4349
S'prev-action-3'
p5710
tp5711
g5
(g9
S'\x8a&r\x87*\xdb]?'
p5712
tp5713
Rp5714
s(g1518
S'action-4'
p5715
tp5716
g5
(g9
S'\xb8\xdc\x807\x8a\x80\xee\xbe'
p5717
tp5718
Rp5719
s(g764
S'action-4'
p5720
tp5721
g5
(g9
S'\xb1C\xa0\\;y\x89?'
p5722
tp5723
Rp5724
sg1744
g5
(g9
S'X\xb0f4C\xdbD\xbf'
p5725
tp5726
Rp5727
s(S'diff-x-pos--48'
p5728
S'action-4'
p5729
tp5730
g5
(g9
S'r\x96\x04\xdf\t\xe1f?'
p5731
tp5732
Rp5733
s(S'diff-x-pos-23'
p5734
S'action-3'
p5735
tp5736
g5
(g9
S'ai\x97\x8eW?.\xbf'
p5737
tp5738
Rp5739
s(S'diff-x-pos-6'
p5740
S'prev-action-3'
p5741
tp5742
g5
(g9
S'\xa9\xda=@\x13\xc6h\xbf'
p5743
tp5744
Rp5745
s(g5447
g4962
tp5746
g5
(g9
S'}$\x18tO0t?'
p5747
tp5748
Rp5749
s(S'diff-x-pos-3'
p5750
S'prev-action-1'
p5751
tp5752
g5
(g9
S'\x18\x91\x17Jg\x84k\xbf'
p5753
tp5754
Rp5755
s(g4087
S'prev-action-4'
p5756
tp5757
g5
(g9
S'\xfb\xcc\xfe*\x80\x8e}?'
p5758
tp5759
Rp5760
s(S'diff-x-pos-19'
p5761
S'prev-action-4'
p5762
tp5763
g5
(g9
S'\xeb\xfa_h\x90\x12}\xbf'
p5764
tp5765
Rp5766
s(S'diff-x-pos--40'
p5767
S'prev-action-3'
p5768
tp5769
g5
(g9
S'\xa8\xbc\xefD\x9b\xa9\xfd\xbe'
p5770
tp5771
Rp5772
s(S'diff-x-pos--72'
p5773
S'action-3'
p5774
tp5775
g5
(g9
S'\x18\x96\x06i\xe1\x17(?'
p5776
tp5777
Rp5778
s(g2007
S'action-4'
p5779
tp5780
g5
(g9
S'\xee\x1f@3\r\xe3P?'
p5781
tp5782
Rp5783
s(S'diff-x-pos--79'
p5784
g4579
tp5785
g5
(g9
S'**[\xcc\x98GN?'
p5786
tp5787
Rp5788
s(g1785
S'action-3'
p5789
tp5790
g5
(g9
S'k\xa4>89\xf4j?'
p5791
tp5792
Rp5793
s(S'diff-x-pos-39'
p5794
S'action-3'
p5795
tp5796
g5
(g9
S'\xc8\x7fl\xa7B\x10;\xbf'
p5797
tp5798
Rp5799
s(g4185
S'prev-action-1'
p5800
tp5801
g5
(g9
S'\xee\x93\x00&\xc2\xf8\x8f?'
p5802
tp5803
Rp5804
s(S'diff-x-pos--86'
p5805
S'action-4'
p5806
tp5807
g5
(g9
S'4UR\x18\xd9Z9?'
p5808
tp5809
Rp5810
s(S'diff-x-pos--70'
p5811
S'prev-action-3'
p5812
tp5813
g5
(g9
S'ZII\xfb\xe2\xb0`?'
p5814
tp5815
Rp5816
s(g3107
S'action-4'
p5817
tp5818
g5
(g9
S'\x8aP\xb8\xab\xdf\x8bl\xbf'
p5819
tp5820
Rp5821
s(g1816
S'prev-action-4'
p5822
tp5823
g5
(g9
S'\x86?\xa4\xc7\x9bg\x80?'
p5824
tp5825
Rp5826
s(S'diff-x-pos--73'
p5827
S'action-3'
p5828
tp5829
g5
(g9
S'J/\x8eC\xdf\xc1e\xbf'
p5830
tp5831
Rp5832
s(g1856
S'object-0-x-112'
p5833
tp5834
g5
(g9
S'.S8U>\x96\x86?'
p5835
tp5836
Rp5837
s(g4157
S'prev-action-4'
p5838
tp5839
g5
(g9
S'\x10\xf1?\x7fa\xc8a?'
p5840
tp5841
Rp5842
s(g1839
g4151
tp5843
g5
(g9
S'\x81R\xf9\x16R\xa94\xbf'
p5844
tp5845
Rp5846
s(g2001
S'prev-action-3'
p5847
tp5848
g5
(g9
S'{\xaeZ\xb4\xa0\xc0T\xbf'
p5849
tp5850
Rp5851
s(g1823
S'action-1'
p5852
tp5853
g5
(g9
S'\xc0/ds7\xb3n?'
p5854
tp5855
Rp5856
s(g4855
S'object-1-x-124'
p5857
tp5858
g5
(g9
S'\xb9q\x08\xffw\xc8d\xbf'
p5859
tp5860
Rp5861
sg3647
g5
(g9
S'\x9b\xd5O<x\xfd\xad?'
p5862
tp5863
Rp5864
s(g3854
S'prev-action-1'
p5865
tp5866
g5
(g9
S':\x00B\xcao\xc0 ?'
p5867
tp5868
Rp5869
s(g4087
g4121
tp5870
g5
(g9
S'\x05\xe6\xd9x\x03\x88.?'
p5871
tp5872
Rp5873
s(g792
S'prev-action-3'
p5874
tp5875
g5
(g9
S'\xa6\x1fg.\x99\xc5L?'
p5876
tp5877
Rp5878
s(g1010
S'object-0-x-16'
p5879
tp5880
g5
(g9
S'(\x06\x93][\x0cq?'
p5881
tp5882
Rp5883
s(g3318
S'object-1-x-76'
p5884
tp5885
g5
(g9
S'6,9\xc0\xbc\xc3\x92?'
p5886
tp5887
Rp5888
s(g4854
S'prev-action-3'
p5889
tp5890
g5
(g9
S'-\xbb\xa1\xd6?c2\xbf'
p5891
tp5892
Rp5893
s(g3045
S'action-4'
p5894
tp5895
g5
(g9
S'\xf1s\xf5\xab\x9e\xeew?'
p5896
tp5897
Rp5898
s(g1823
S'prev-action-1'
p5899
tp5900
g5
(g9
S'3\x9b\n\xe7\xce\xffd?'
p5901
tp5902
Rp5903
s(S'diff-x-pos--48'
p5904
S'prev-action-3'
p5905
tp5906
g5
(g9
S'\x05\x97\xb7\x8dr\xf6r?'
p5907
tp5908
Rp5909
s(g5805
S'prev-action-4'
p5910
tp5911
g5
(g9
S'n\xf4YqV(`?'
p5912
tp5913
Rp5914
s(S'diff-x-pos-53'
p5915
g1738
tp5916
g5
(g9
S'eZ\xdeyL{Q\xbf'
p5917
tp5918
Rp5919
s(g4467
S'object-0-x-44'
p5920
tp5921
g5
(g9
S'L\xb7\xee\xef\xf6<\xac?'
p5922
tp5923
Rp5924
sg2519
g5
(g9
S'$\xa6\x0e\xf3\\+\xa5?'
p5925
tp5926
Rp5927
s(g4033
S'prev-action-1'
p5928
tp5929
g5
(g9
S':\x022\x1a\xbb\xf3S?'
p5930
tp5931
Rp5932
sg3760
g5
(g9
S'\xef\\kx\xb1\x9a\xab?'
p5933
tp5934
Rp5935
s(g1644
S'prev-action-3'
p5936
tp5937
g5
(g9
S'P\xba\x14\xb3\xdc"t?'
p5938
tp5939
Rp5940
s(g1506
S'action-1'
p5941
tp5942
g5
(g9
S'\xe0z\xa5\xb9\xc07t?'
p5943
tp5944
Rp5945
s(g2977
S'prev-action-3'
p5946
tp5947
g5
(g9
S'\xdc20\xd3\xd2\tc?'
p5948
tp5949
Rp5950
sg4674
g5
(g9
S'b\\\x1c\xc9\x06\xc3\x94?'
p5951
tp5952
Rp5953
s(S'diff-x-pos-32'
p5954
S'action-3'
p5955
tp5956
g5
(g9
S'\x14\n\xa8q\r\xbdQ\xbf'
p5957
tp5958
Rp5959
s(S'action-1'
p5960
S'object-0-x-48'
p5961
tp5962
g5
(g9
S'hw\xa9\xe6\xa9\xa5\xac?'
p5963
tp5964
Rp5965
s(g866
g27
tp5966
g5
(g9
S'\x992\xde\xff\xec\x9b\xb3\xbf'
p5967
tp5968
Rp5969
s(S'diff-x-pos-12'
p5970
S'prev-action-1'
p5971
tp5972
g5
(g9
S'1\xa1\x81IM\xc4P\xbf'
p5973
tp5974
Rp5975
sg2588
g5
(g9
S"\xb5\xd2\xd9\xa5\xd3'\xa6?"
p5976
tp5977
Rp5978
sg618
g5
(g9
S'\x9b`\xf5|\x82\x0f\xa2?'
p5979
tp5980
Rp5981
s(g2455
S'prev-action-4'
p5982
tp5983
g5
(g9
S'\xae30\xe0\xb9\xb1D?'
p5984
tp5985
Rp5986
s(g4866
S'prev-action-4'
p5987
tp5988
g5
(g9
S"\xc9'\x04\xc4\xb6&\x80\xbf"
p5989
tp5990
Rp5991
s(g768
S'action-1'
p5992
tp5993
g5
(g9
S'\x02reJ\x84ri?'
p5994
tp5995
Rp5996
sS'diff-y-pos--5'
p5997
g5
(g9
S'@\xa8BUS\xd8\x96?'
p5998
tp5999
Rp6000
s(S'diff-x-pos-36'
p6001
S'prev-action-3'
p6002
tp6003
g5
(g9
S'P\xdd\x07&\x8f\xf7`\xbf'
p6004
tp6005
Rp6006
s(g2025
S'prev-action-4'
p6007
tp6008
g5
(g9
S'jw.-|\xe1j?'
p6009
tp6010
Rp6011
s(g4722
S'action-1'
p6012
tp6013
g5
(g9
S'\x98\xadfi6\xa0a?'
p6014
tp6015
Rp6016
sg2227
g5
(g9
S'z\xc7\x1b-)5c?'
p6017
tp6018
Rp6019
s(g4860
S'prev-action-4'
p6020
tp6021
g5
(g9
S'\x8fx\xd1\xd9\x0c\xe1\x13\xbf'
p6022
tp6023
Rp6024
sg2386
g5
(g9
S'M\x0f\xac\xac\xd6;7?'
p6025
tp6026
Rp6027
sg2050
g5
(g9
S',el\t\x9cLa?'
p6028
tp6029
Rp6030
sg2198
g5
(g9
S'\xb4\xec B|\x82\\\xbf'
p6031
tp6032
Rp6033
sg5150
g5
(g9
S'\xe6\xa0a\xe3S\xfbz?'
p6034
tp6035
Rp6036
sg1506
g5
(g9
S'G\xbb\x01!\xc9@y?'
p6037
tp6038
Rp6039
s(g768
S'prev-action-3'
p6040
tp6041
g5
(g9
S'\xe4|\x0e=\xc6\x85Z?'
p6042
tp6043
Rp6044
sg3918
g5
(g9
S'\xc12\xdc\xe4\xb3\xffc?'
p6045
tp6046
Rp6047
sg123
g5
(g9
S'\x95~\xf35MV~?'
p6048
tp6049
Rp6050
s(S'diff-x-pos-16'
p6051
S'prev-action-1'
p6052
tp6053
g5
(g9
S'a\x85\x97\xecZzs\xbf'
p6054
tp6055
Rp6056
s(S'diff-x-pos--56'
p6057
S'prev-action-4'
p6058
tp6059
g5
(g9
S'\x13\x82\xecP\xf3-e?'
p6060
tp6061
Rp6062
s(S'action-1'
p6063
S'object-1-x-80'
p6064
tp6065
g5
(g9
S'\xfe\x9b\xc1w\xc3\x8b\x8e?'
p6066
tp6067
Rp6068
s(g5231
S'prev-action-1'
p6069
tp6070
g5
(g9
S')\xb4\xe3\xaa\x82\x961?'
p6071
tp6072
Rp6073
s(S'diff-x-pos-32'
p6074
S'prev-action-1'
p6075
tp6076
g5
(g9
S'\x1d\x0f\xe2N\xfc\xef-\xbf'
p6077
tp6078
Rp6079
s(g1812
S'prev-action-4'
p6080
tp6081
g5
(g9
S'\x0c\xda\xf6P/\\i?'
p6082
tp6083
Rp6084
s(S'diff-x-pos--54'
p6085
S'action-4'
p6086
tp6087
g5
(g9
S'4~\xbdq\xaa\xafK?'
p6088
tp6089
Rp6090
s(S'diff-x-pos--41'
p6091
S'prev-action-3'
p6092
tp6093
g5
(g9
S'\x90\t\xb2\x7f\rGb?'
p6094
tp6095
Rp6096
s(S'action-4'
p6097
S'object-1-x-116'
p6098
tp6099
g5
(g9
S'/h\xb2=\xf7\xe1g\xbf'
p6100
tp6101
Rp6102
s(g1876
S'action-4'
p6103
tp6104
g5
(g9
S'4\x84\x80\xea\x10(Q\xbf'
p6105
tp6106
Rp6107
s(S'diff-x-pos--80'
p6108
S'prev-action-1'
p6109
tp6110
g5
(g9
S'v\xc7\xc7\x94\xce\xf9Q?'
p6111
tp6112
Rp6113
s(S'diff-x-pos--64'
p6114
S'action-1'
p6115
tp6116
g5
(g9
S'p\x8a\x8e\x87\x89kP\xbf'
p6117
tp6118
Rp6119
s(g5245
S'object-1-x-104'
p6120
tp6121
g5
(g9
S'\xb4\xb5[>\xd7\xacx?'
p6122
tp6123
Rp6124
s(S'action-1'
p6125
S'object-0-x-56'
p6126
tp6127
g5
(g9
S'ar\x84%\\\xe8\xae?'
p6128
tp6129
Rp6130
s(g248
S'object-0-x-20'
p6131
tp6132
g5
(g9
S'\x16\xd2!\xef\x10bp?'
p6133
tp6134
Rp6135
s(g3260
S'prev-action-4'
p6136
tp6137
g5
(g9
S'\xc8\xfd\x90\xf0\x953X?'
p6138
tp6139
Rp6140
s(g2042
S'action-4'
p6141
tp6142
g5
(g9
S'\xfa\xf4K\x9b\x9d\xf7y\xbf'
p6143
tp6144
Rp6145
s(g1720
S'action-4'
p6146
tp6147
g5
(g9
S'\x87#\xc0\x1bs\xbdc\xbf'
p6148
tp6149
Rp6150
s(g1894
S'object-0-x-84'
p6151
tp6152
g5
(g9
S'\xdf\xa7\x9a\x12\x00X\x96?'
p6153
tp6154
Rp6155
s(g4157
S'action-4'
p6156
tp6157
g5
(g9
S'\xa0\xd8[\xe0{!4\xbf'
p6158
tp6159
Rp6160
s(g2973
S'action-1'
p6161
tp6162
g5
(g9
S'\xf6\x085\x87\x1aD\x05\xbf'
p6163
tp6164
Rp6165
s(S'diff-x-pos--52'
p6166
S'prev-action-3'
p6167
tp6168
g5
(g9
S'P\xe5\x12\tj|\xf9\xbe'
p6169
tp6170
Rp6171
s(g2943
S'action-4'
p6172
tp6173
g5
(g9
S'a\xa14<G\x17x?'
p6174
tp6175
Rp6176
s(g3918
S'action-4'
p6177
tp6178
g5
(g9
S'\xea\xacvn\x8cQ]?'
p6179
tp6180
Rp6181
s(S'diff-x-pos-15'
p6182
S'prev-action-1'
p6183
tp6184
g5
(g9
S'\xd9\xe66\xef\x8f\xc0d\xbf'
p6185
tp6186
Rp6187
sS'diff-y-pos--6'
p6188
g5
(g9
S'M\xc7:-\xb6d\xa6?'
p6189
tp6190
Rp6191
s(S'diff-x-pos--82'
p6192
S'action-1'
p6193
tp6194
g5
(g9
S'\xe1"fz\x92G \xbf'
p6195
tp6196
Rp6197
s(g1245
g4395
tp6198
g5
(g9
S'\xb08\xda<\xa2\xbea?'
p6199
tp6200
Rp6201
s(g397
S'action-3'
p6202
tp6203
g5
(g9
S'\xdf\xafSB\xe2\xa7t?'
p6204
tp6205
Rp6206
sg28
g5
(g9
S'zx\xf6\xf3\xb9J\x96?'
p6207
tp6208
Rp6209
sg1177
g5
(g9
S'e\x1e\x12\xad\x15p\x9f?'
p6210
tp6211
Rp6212
sg2524
g5
(g9
S"w\x19\x80'\xfe+\xb8?"
p6213
tp6214
Rp6215
s(S'diff-x-pos-13'
p6216
g3522
tp6217
g5
(g9
S'E\x18\x81f\x92\xc2b\xbf'
p6218
tp6219
Rp6220
s(S'diff-x-pos--73'
p6221
S'prev-action-1'
p6222
tp6223
g5
(g9
S'\x12(y\x1a\xa4=H?'
p6224
tp6225
Rp6226
s(S'diff-x-pos-31'
p6227
S'prev-action-1'
p6228
tp6229
g5
(g9
S'v\xa99\x9e\x9e\x0fg\xbf'
p6230
tp6231
Rp6232
s(S'action-4'
p6233
S'object-0-x-68'
p6234
tp6235
g5
(g9
S'\xe74\x16\xf9=\x82\xb7?'
p6236
tp6237
Rp6238
sg2753
g5
(g9
S'\x14\x98%\xc0\xbcij?'
p6239
tp6240
Rp6241
s(S'diff-x-pos-5'
p6242
S'prev-action-1'
p6243
tp6244
g5
(g9
S'\x9c\xc4\x8f~\x9c\xcfc\xbf'
p6245
tp6246
Rp6247
s(g3189
S'object-1-x-96'
p6248
tp6249
g5
(g9
S'E\x9b4\xcc\xb7\xb9o?'
p6250
tp6251
Rp6252
s(g1662
S'action-1'
p6253
tp6254
g5
(g9
S".\xe02\xe8'\xcaj?"
p6255
tp6256
Rp6257
s(S'diff-x-pos--70'
p6258
g1114
tp6259
g5
(g9
S'\xc8]Px\x8c\x91A\xbf'
p6260
tp6261
Rp6262
s(g2600
S'prev-action-4'
p6263
tp6264
g5
(g9
S'\xe1V)\xb1\xae]2?'
p6265
tp6266
Rp6267
sS'object-0-dy--1'
p6268
g5
(g9
S'\x0e<\x89\xa5Bc\xba?'
p6269
tp6270
Rp6271
s(g3560
S'action-3'
p6272
tp6273
g5
(g9
S'\x96\x14\rZ\x99Ev?'
p6274
tp6275
Rp6276
s(S'diff-x-pos-41'
p6277
S'prev-action-3'
p6278
tp6279
g5
(g9
S'\xeeC\xf6\xf0\xfa\xa3J\xbf'
p6280
tp6281
Rp6282
s(g6272
S'object-0-x-40'
p6283
tp6284
g5
(g9
S'D\xaa\xab\rp\t\xa9?'
p6285
tp6286
Rp6287
s(g5527
S'prev-action-3'
p6288
tp6289
g5
(g9
S'\x1f\x91\x03Z\x9599?'
p6290
tp6291
Rp6292
s(g4336
S'action-4'
p6293
tp6294
g5
(g9
S'3\xbeE\xe6p\xe6R\xbf'
p6295
tp6296
Rp6297
s(g5784
S'prev-action-3'
p6298
tp6299
g5
(g9
S'\x1et[\x95s\xe6A\xbf'
p6300
tp6301
Rp6302
s(g1587
S'prev-action-1'
p6303
tp6304
g5
(g9
S',e\x03\xe3\x1a\x0cX?'
p6305
tp6306
Rp6307
s(g2386
S'action-4'
p6308
tp6309
g5
(g9
S'VA\x1a}cb)\xbf'
p6310
tp6311
Rp6312
s(g2274
S'prev-action-4'
p6313
tp6314
g5
(g9
S'&\x18\x7f\x97,\xb5x?'
p6315
tp6316
Rp6317
s(g957
S'action-4'
p6318
tp6319
g5
(g9
S'_\xc2\x15v\xf2u{\xbf'
p6320
tp6321
Rp6322
s(g1911
g5442
tp6323
g5
(g9
S'\xb8\xd0\xbbQ\x9f\x12\xad?'
p6324
tp6325
Rp6326
s(g1557
S'prev-action-4'
p6327
tp6328
g5
(g9
S'\xa2\x19|\xff\x8b\xc1a\xbf'
p6329
tp6330
Rp6331
s(S'diff-x-pos-6'
p6332
S'action-1'
p6333
tp6334
g5
(g9
S'\xdf0\xcf\x0f\x88Uy\xbf'
p6335
tp6336
Rp6337
s(S'diff-x-pos--11'
p6338
S'prev-action-3'
p6339
tp6340
g5
(g9
S'\xf9\xb5\x7fh\xfdbg?'
p6341
tp6342
Rp6343
sg1227
g5
(g9
S'\xf3\xc0Dk\xac>d\xbf'
p6344
tp6345
Rp6346
s(S'diff-x-pos-50'
p6347
S'action-1'
p6348
tp6349
g5
(g9
S'\xed8$\x9bj\xe2a?'
p6350
tp6351
Rp6352
s(g4074
S'prev-action-1'
p6353
tp6354
g5
(g9
S'RV^+\x943\x16\xbf'
p6355
tp6356
Rp6357
s(g6253
S'object-0-x-68'
p6358
tp6359
g5
(g9
S'\x00\xf9|\xc4_\xaa\xb2?'
p6360
tp6361
Rp6362
s(S'diff-x-pos-48'
p6363
S'prev-action-4'
p6364
tp6365
g5
(g9
S'\xf6$f7\xd2\xf9f?'
p6366
tp6367
Rp6368
s(g2943
S'prev-action-4'
p6369
tp6370
g5
(g9
S'\xef\xe0jJ\x04\xbf\x7f?'
p6371
tp6372
Rp6373
sg676
g5
(g9
S'4\xbc/\xa4\xab\xbe\x9d?'
p6374
tp6375
Rp6376
s(S'diff-x-pos--94'
p6377
S'action-4'
p6378
tp6379
g5
(g9
S'{4\xa0z\xc6\xd3\x08\xbf'
p6380
tp6381
Rp6382
s(g3592
S'action-1'
p6383
tp6384
g5
(g9
S'g\xb6@\x94\xcb\x10N?'
p6385
tp6386
Rp6387
s(g1471
S'prev-action-4'
p6388
tp6389
g5
(g9
S'\x0c\x83\xaa\xa4q\xcas?'
p6390
tp6391
Rp6392
s(S'diff-x-pos-18'
p6393
S'action-3'
p6394
tp6395
g5
(g9
S'\xbc\xca**.]g\xbf'
p6396
tp6397
Rp6398
s(S'diff-x-pos--50'
p6399
g4228
tp6400
g5
(g9
S'\x19\x81\xa0\x95\xde\xc8\x8e?'
p6401
tp6402
Rp6403
s(S'action-3'
p6404
S'object-0-x-104'
p6405
tp6406
g5
(g9
S'\x11\x8c)\x89,\xc4\x8f?'
p6407
tp6408
Rp6409
sg345
g5
(g9
S'\x17\x0b\xfc+\x01\xe4\xc8?'
p6410
tp6411
Rp6412
sg1882
g5
(g9
S'+\xd3\x81\xe8\x0c\x90\xcc?'
p6413
tp6414
Rp6415
s(S'diff-x-pos--67'
p6416
g2298
tp6417
g5
(g9
S'n\xee\xc63\xac\xb0\x9d?'
p6418
tp6419
Rp6420
s(g3027
g4115
tp6421
g5
(g9
S'\x1af\xe3\xca\xcc\xa7p?'
p6422
tp6423
Rp6424
s(S'diff-x-pos--66'
p6425
S'prev-action-1'
p6426
tp6427
g5
(g9
S',\x9c.\x98\x9de5?'
p6428
tp6429
Rp6430
s(g659
g1333
tp6431
g5
(g9
S"p'`\x91t\x98]?"
p6432
tp6433
Rp6434
s(g1400
S'action-4'
p6435
tp6436
g5
(g9
S'\xea[\xfcue\x07G?'
p6437
tp6438
Rp6439
s(S'diff-x-pos--75'
p6440
S'prev-action-1'
p6441
tp6442
g5
(g9
S'\xa1\xf9\xbaf\x96\x13`?'
p6443
tp6444
Rp6445
s(S'diff-x-pos--43'
p6446
S'action-3'
p6447
tp6448
g5
(g9
S'\xc6ZCj\x96\xc1l?'
p6449
tp6450
Rp6451
s(g2340
S'prev-action-3'
p6452
tp6453
g5
(g9
S'\xe2O\x06\xe8\xc2\x08q\xbf'
p6454
tp6455
Rp6456
s(g1194
g5960
tp6457
g5
(g9
S'\xf5<G\x0e\x9b\x8a<?'
p6458
tp6459
Rp6460
s(S'action-3'
p6461
S'object-0-x-124'
p6462
tp6463
g5
(g9
S'\xf9\x81_\xfaQ\x99U?'
p6464
tp6465
Rp6466
s(S'diff-x-pos-21'
p6467
S'prev-action-4'
p6468
tp6469
g5
(g9
S'\x0e\x8ah\xc1#\x8c3\xbf'
p6470
tp6471
Rp6472
s(g5273
S'prev-action-1'
p6473
tp6474
g5
(g9
S'\x04\x95\xdf\x92\xcf|c?'
p6475
tp6476
Rp6477
s(g5150
S'action-4'
p6478
tp6479
g5
(g9
S'\xa8\xc0\xdc2\xcdVs?'
p6480
tp6481
Rp6482
s(g967
g433
tp6483
g5
(g9
S'\xe0\xe7\x80\xf3\xeb\xea\x85\xbf'
p6484
tp6485
Rp6486
s(g2422
S'action-4'
p6487
tp6488
g5
(g9
S'}]\x98\x13Y8a\xbf'
p6489
tp6490
Rp6491
s(S'diff-x-pos--92'
p6492
S'action-3'
p6493
tp6494
g5
(g9
S'\x06\xc9\xeb\x1f3\xcdU\xbf'
p6495
tp6496
Rp6497
s(g945
g2328
tp6498
g5
(g9
S'\xa19\xc5\x16\xbdZT\xbf'
p6499
tp6500
Rp6501
s(g4115
g5375
tp6502
g5
(g9
S'Z#\xdcG\x06\xa8\xd0?'
p6503
tp6504
Rp6505
s(g961
S'prev-action-3'
p6506
tp6507
g5
(g9
S'?=\xd6`\x83\xc8r\xbf'
p6508
tp6509
Rp6510
s(S'action-3'
p6511
S'object-1-x-116'
p6512
tp6513
g5
(g9
S'\x94nG\x87fj\x80\xbf'
p6514
tp6515
Rp6516
s(g2029
S'prev-action-1'
p6517
tp6518
g5
(g9
S'\x1d1\x03w\xeb\x1fe\xbf'
p6519
tp6520
Rp6521
s(g4239
S'action-1'
p6522
tp6523
g5
(g9
S'\xdc1 \x85&\xa86?'
p6524
tp6525
Rp6526
s(g1382
S'prev-action-1'
p6527
tp6528
g5
(g9
S'g\xc7\xbb\x92\x15\xb5g\xbf'
p6529
tp6530
Rp6531
s(S'diff-x-pos--49'
p6532
S'prev-action-3'
p6533
tp6534
g5
(g9
S'\x903\xe5G\x7f\x0bb?'
p6535
tp6536
Rp6537
s(S'diff-x-pos--22'
p6538
S'action-1'
p6539
tp6540
g5
(g9
S'\xef%\xe8@M\xba\x86?'
p6541
tp6542
Rp6543
s(S'diff-x-pos--37'
p6544
S'action-3'
p6545
tp6546
g5
(g9
S'HKwjz\x95a?'
p6547
tp6548
Rp6549
s(g5267
g1738
tp6550
g5
(g9
S']\xe1\xcc\x86\xcdk\xc0?'
p6551
tp6552
Rp6553
s(S'diff-x-pos-10'
p6554
S'action-1'
p6555
tp6556
g5
(g9
S'\xd4\x98z\x8ac\xe6Z\xbf'
p6557
tp6558
Rp6559
s(S'diff-x-pos--15'
p6560
S'prev-action-3'
p6561
tp6562
g5
(g9
S';\xedxO\xc0\xb4C?'
p6563
tp6564
Rp6565
s(S'diff-x-pos--67'
p6566
S'prev-action-1'
p6567
tp6568
g5
(g9
S')\xe7\xeb\x9d[x\x99\xbf'
p6569
tp6570
Rp6571
s(g4189
S'action-3'
p6572
tp6573
g5
(g9
S'\\\xc1\xac\xce7\x1e]?'
p6574
tp6575
Rp6576
s(g2316
S'prev-action-4'
p6577
tp6578
g5
(g9
S'R\xc3Rpq\xef\x16\xbf'
p6579
tp6580
Rp6581
s(g1984
S'action-4'
p6582
tp6583
g5
(g9
S'\xc0\xf5\xaeG.\xfdy?'
p6584
tp6585
Rp6586
s(g1323
g1343
tp6587
g5
(g9
S'\xc1\xfa\xd7\x99\xfa\xcb_\xbf'
p6588
tp6589
Rp6590
s(g5156
S'prev-action-4'
p6591
tp6592
g5
(g9
S'6Hw\xde\xb7\xb8c?'
p6593
tp6594
Rp6595
s(g5411
g1152
tp6596
g5
(g9
S'q\xd0D:\xa0\x90\xb7?'
p6597
tp6598
Rp6599
s(S'diff-x-pos--47'
p6600
S'prev-action-1'
p6601
tp6602
g5
(g9
S':\xc6X_+\x17L?'
p6603
tp6604
Rp6605
s(g4279
S'action-3'
p6606
tp6607
g5
(g9
S'6\x1c\x8e\\.\xd10?'
p6608
tp6609
Rp6610
s(S'diff-x-pos--28'
p6611
S'action-3'
p6612
tp6613
g5
(g9
S'\x1d\xcbU\xe1\xe4+o?'
p6614
tp6615
Rp6616
s(g1980
S'prev-action-4'
p6617
tp6618
g5
(g9
S'\x12\x8e1\x17\xca\xc5k?'
p6619
tp6620
Rp6621
sg208
g5
(g9
S'\x8a\x98\xc5\xa6\xf8SY?'
p6622
tp6623
Rp6624
s(g6227
S'action-1'
p6625
tp6626
g5
(g9
S'\xc4\xfcXF\xff\xdci\xbf'
p6627
tp6628
Rp6629
s(S'diff-x-pos--21'
p6630
S'prev-action-1'
p6631
tp6632
g5
(g9
S'\x03\x01\x94\xb9\x8f7g?'
p6633
tp6634
Rp6635
s(S'diff-x-pos--63'
p6636
S'action-4'
p6637
tp6638
g5
(g9
S'\xc7\xaa\x893\xb8\xb8O?'
p6639
tp6640
Rp6641
s(g2007
S'prev-action-4'
p6642
tp6643
g5
(g9
S'QQ\xa8-7\xfcP?'
p6644
tp6645
Rp6646
s(S'action-4'
p6647
g322
tp6648
g5
(g9
S'\xad \xd7\xf3{*v?'
p6649
tp6650
Rp6651
s(S'diff-x-pos--53'
p6652
S'prev-action-4'
p6653
tp6654
g5
(g9
S'\x1c\xd7\xec\x99?\xf7}?'
p6655
tp6656
Rp6657
s(g2245
S'action-3'
p6658
tp6659
g5
(g9
S'\xe7b\xe8\x04\x81g^\xbf'
p6660
tp6661
Rp6662
s(g4486
g4994
tp6663
g5
(g9
S'\x83\xdb\xbe\x96\xf1\xe3\x96?'
p6664
tp6665
Rp6666
s(S'diff-x-pos-26'
p6667
S'prev-action-3'
p6668
tp6669
g5
(g9
S'Q\x9b\x8f\xfd\x89\xa3\x18\xbf'
p6670
tp6671
Rp6672
s(g5056
S'prev-action-1'
p6673
tp6674
g5
(g9
S'\xc1\xee\xd2\xce\n\xbdb?'
p6675
tp6676
Rp6677
s(g2335
S'object-0-x-52'
p6678
tp6679
g5
(g9
S'\x95\x8fV\xe5\xe7\xda\xa8?'
p6680
tp6681
Rp6682
s(S'diff-x-pos--60'
p6683
S'action-3'
p6684
tp6685
g5
(g9
S't\x02fJ\xd2z@?'
p6686
tp6687
Rp6688
s(S'diff-x-pos-51'
p6689
S'action-3'
p6690
tp6691
g5
(g9
S"r\xe2\xee\xde\xbf\x89'\xbf"
p6692
tp6693
Rp6694
s(S'diff-x-pos--91'
p6695
S'action-4'
p6696
tp6697
g5
(g9
S'\xf6\xf2\xc0\x80\xe5\x018?'
p6698
tp6699
Rp6700
s(g3077
S'action-4'
p6701
tp6702
g5
(g9
S'\x90Q*(E\xa3Z?'
p6703
tp6704
Rp6705
s(g4412
S'prev-action-3'
p6706
tp6707
g5
(g9
S'L\x10^\x93mfW\xbf'
p6708
tp6709
Rp6710
s(g5750
S'action-1'
p6711
tp6712
g5
(g9
S'\x1c\x0c\xd9\xbf\x1a\x7fL\xbf'
p6713
tp6714
Rp6715
s(g4099
S'action-3'
p6716
tp6717
g5
(g9
S'\x9a\x99bYL*\xba\xbe'
p6718
tp6719
Rp6720
s(g2198
S'prev-action-4'
p6721
tp6722
g5
(g9
S'4\xf6\xe9\xb17\x12R\xbf'
p6723
tp6724
Rp6725
s(g2193
S'prev-action-4'
p6726
tp6727
g5
(g9
S'\xc2\xd5\xa6\xbb\x91\xf0A?'
p6728
tp6729
Rp6730
s(g4185
g4909
tp6731
g5
(g9
S'>\xbaDrtgA\xbf'
p6732
tp6733
Rp6734
s(S'diff-x-pos-26'
p6735
S'action-3'
p6736
tp6737
g5
(g9
S'3\xf9\x9b3M\xfc9?'
p6738
tp6739
Rp6740
sg5784
g5
(g9
S'i\xd5A\x11X\xa7>\xbf'
p6741
tp6742
Rp6743
s(S'diff-x-pos-34'
p6744
S'action-3'
p6745
tp6746
g5
(g9
S'-|\xa2\xc8\xb2\r4?'
p6747
tp6748
Rp6749
s(S'action-1'
p6750
S'object-0-x-76'
p6751
tp6752
g5
(g9
S'-;ft\x83\xee\xad?'
p6753
tp6754
Rp6755
s(S'diff-x-pos-19'
p6756
S'action-1'
p6757
tp6758
g5
(g9
S'\x9c6{\xa8\x86\xb9p\xbf'
p6759
tp6760
Rp6761
s(S'action-4'
p6762
S'object-0-x-100'
p6763
tp6764
g5
(g9
S'*\xfe\x9b\x7f\xc5I\x96?'
p6765
tp6766
Rp6767
s(S'diff-x-pos-14'
p6768
S'action-3'
p6769
tp6770
g5
(g9
S'\xe8\x08\x11T\x96\xd7Z?'
p6771
tp6772
Rp6773
s(g723
S'prev-action-3'
p6774
tp6775
g5
(g9
S'\x82>@\xde\x12uk\xbf'
p6776
tp6777
Rp6778
s(g6636
S'prev-action-3'
p6779
tp6780
g5
(g9
S'\xe4\xe7\xdf\xa0V5Z?'
p6781
tp6782
Rp6783
s(S'diff-x-pos--45'
p6784
S'action-4'
p6785
tp6786
g5
(g9
S'\xe0\xab\x17\x03\xb5\rx?'
p6787
tp6788
Rp6789
s(S'diff-x-pos-1'
p6790
S'prev-action-3'
p6791
tp6792
g5
(g9
S'2\xcd\x06\xe6\xa5\xf1Z\xbf'
p6793
tp6794
Rp6795
s(g3929
S'action-3'
p6796
tp6797
g5
(g9
S'\xc0/\x1c\xfc\xff\x7fR?'
p6798
tp6799
Rp6800
sg659
g5
(g9
S'{b\x05\x898z\xf2?'
p6801
tp6802
Rp6803
sg15
g5
(g9
S'\x0c\xa0r\x8d\xa8\xb1\xed?'
p6804
tp6805
Rp6806
sg45
g5
(g9
S"\x1f'\xd6\xf9\xd4\x8a\xed?"
p6807
tp6808
Rp6809
s(S'diff-x-pos--17'
p6810
S'action-4'
p6811
tp6812
g5
(g9
S'Y\x08\xbew\xee\x11`?'
p6813
tp6814
Rp6815
s(g5198
S'prev-action-3'
p6816
tp6817
g5
(g9
S'\x140\xe2\x9e\xaa\xe7Q\xbf'
p6818
tp6819
Rp6820
s(S'action-1'
p6821
g719
tp6822
g5
(g9
S'\xe1z\x91E\x07\\\x1f\xbf'
p6823
tp6824
Rp6825
s(g1383
g5485
tp6826
g5
(g9
S'<\x0e\xe1\x1c.{w\xbf'
p6827
tp6828
Rp6829
s(S'diff-x-pos--20'
p6830
S'action-1'
p6831
tp6832
g5
(g9
S's\x1b\n\x0e\xe8\xa8T?'
p6833
tp6834
Rp6835
s(S'diff-x-pos--24'
p6836
S'prev-action-3'
p6837
tp6838
g5
(g9
S'P\xe9\xe4.8\xbdu?'
p6839
tp6840
Rp6841
sS'diff-y-pos--11'
p6842
g5
(g9
S'\xee\xc2\x03\x8fZ\xc1\xac?'
p6843
tp6844
Rp6845
sS'diff-y-pos--10'
p6846
g5
(g9
S'aM\xaa\xfc\x0bO\xc4?'
p6847
tp6848
Rp6849
sg670
g5
(g9
S'\x1aP\x11G\x06\xb4]?'
p6850
tp6851
Rp6852
s(S'diff-x-pos-0'
p6853
S'action-3'
p6854
tp6855
g5
(g9
S'@M|\x12\xdb\xaeu\xbf'
p6856
tp6857
Rp6858
s(S'diff-x-pos--83'
p6859
S'prev-action-4'
p6860
tp6861
g5
(g9
S'\xbaB\x1f\x0c3O`?'
p6862
tp6863
Rp6864
s(g3860
S'action-4'
p6865
tp6866
g5
(g9
S'\x10\xc9\x8d\xc2`\x0bU?'
p6867
tp6868
Rp6869
s(S'diff-x-pos-44'
p6870
S'action-3'
p6871
tp6872
g5
(g9
S'|\x8b\xd0\xd1\\NJ\xbf'
p6873
tp6874
Rp6875
s(S'diff-x-pos--93'
p6876
S'prev-action-4'
p6877
tp6878
g5
(g9
S'f\xd7\x06\xbf\xc0<F\xbf'
p6879
tp6880
Rp6881
s(S'diff-x-pos--33'
p6882
S'action-4'
p6883
tp6884
g5
(g9
S'\xccn\xa5\x9b\x80\xcfw?'
p6885
tp6886
Rp6887
s(S'diff-x-pos-44'
p6888
g1477
tp6889
g5
(g9
S'\x14\xecI\xaf\xee5a\xbf'
p6890
tp6891
Rp6892
s(S'diff-x-pos--93'
p6893
S'action-1'
p6894
tp6895
g5
(g9
S'pf\xde\x97\xa5\x84\xcf\xbe'
p6896
tp6897
Rp6898
s(g5231
S'action-4'
p6899
tp6900
g5
(g9
S'\xb8\x9e\x8fo\xf1\xdb\xea>'
p6901
tp6902
Rp6903
s(g6435
S'object-0-x-116'
p6904
tp6905
g5
(g9
S'\xa77~,\xac\x96c\xbf'
p6906
tp6907
Rp6908
s(S'object-1-dx-1'
p6909
g1152
tp6910
g5
(g9
S'q\xddk\xfc\x94\xa4\x95?'
p6911
tp6912
Rp6913
s(g776
g659
tp6914
g5
(g9
S'N\xf6lzF\x1cQ?'
p6915
tp6916
Rp6917
sg1153
g5
(g9
S'\xd3_\xb2\xf4\x81\x9e\xb1?'
p6918
tp6919
Rp6920
s(S'diff-x-pos--14'
p6921
S'action-1'
p6922
tp6923
g5
(g9
S'V\xe1\xab\xe0\x1bED?'
p6924
tp6925
Rp6926
sg1610
g5
(g9
S'f\r\xca#\xf2i\xb6?'
p6927
tp6928
Rp6929
s(S'diff-x-pos--4'
p6930
S'prev-action-3'
p6931
tp6932
g5
(g9
S'\x0f\x9c?\xe9\xefQt\xbf'
p6933
tp6934
Rp6935
sg434
g5
(g9
S'$"M8\xfa\xdc\xae?'
p6936
tp6937
Rp6938
s(S'diff-x-pos-38'
p6939
g2412
tp6940
g5
(g9
S'\x8cE\xb38D\xc5c\xbf'
p6941
tp6942
Rp6943
s(g577
S'prev-action-1'
p6944
tp6945
g5
(g9
S'B\xe0\xac\x01\xce*0?'
p6946
tp6947
Rp6948
s(S'diff-x-pos-57'
p6949
S'action-3'
p6950
tp6951
g5
(g9
S'\xcdLu\xdb\x126\x18?'
p6952
tp6953
Rp6954
s(S'diff-x-pos-24'
p6955
S'prev-action-3'
p6956
tp6957
g5
(g9
S'\x92\xa2\x91\xce\xbbFw\xbf'
p6958
tp6959
Rp6960
s(g3789
S'action-4'
p6961
tp6962
g5
(g9
S'\x1c\xe9\xfa\x05\n+p\xbf'
p6963
tp6964
Rp6965
s(g4176
S'prev-action-3'
p6966
tp6967
g5
(g9
S"\xd1'\xdb\xa5\x1b`l?"
p6968
tp6969
Rp6970
sg3860
g5
(g9
S'\xce\xca\xe3\x08\xc2\xca\x85?'
p6971
tp6972
Rp6973
sg57
g5
(g9
S'M)$5Be\x85\xbf'
p6974
tp6975
Rp6976
sg647
g5
(g9
S'+\xba\x160K\x0cR?'
p6977
tp6978
Rp6979
sg4412
g5
(g9
S'f\xca\x05\xb0V#R\xbf'
p6980
tp6981
Rp6982
sg2822
g5
(g9
S'h\xbe\xde;\x85\xa6C\xbf'
p6983
tp6984
Rp6985
sg473
g5
(g9
S';\xac\x04\xecu\x8eq\xbf'
p6986
tp6987
Rp6988
s(g3031
S'prev-action-4'
p6989
tp6990
g5
(g9
S'\xb3Cz\xc1\xc8\xfbs?'
p6991
tp6992
Rp6993
sg4866
g5
(g9
S'\xd4O\x94qo\xc8\x8b\xbf'
p6994
tp6995
Rp6996
s(S'diff-x-pos-55'
p6997
S'prev-action-1'
p6998
tp6999
g5
(g9
S'\xe9\x1d\x9e\x19\xa6\xf3@?'
p7000
tp7001
Rp7002
s(g870
S'prev-action-3'
p7003
tp7004
g5
(g9
S'\x9a\xfbW\xbb\x99\x01f\xbf'
p7005
tp7006
Rp7007
sg1471
g5
(g9
S'ZU\x96o(Z\x80?'
p7008
tp7009
Rp7010
sg4239
g5
(g9
S'\xe0\x11\xcf\x9di\x9a\\\xbf'
p7011
tp7012
Rp7013
s(S'diff-x-pos--15'
p7014
S'action-3'
p7015
tp7016
g5
(g9
S'\xe2\x8fT/\xe9\x8bn?'
p7017
tp7018
Rp7019
s(S'diff-x-pos--36'
p7020
S'prev-action-3'
p7021
tp7022
g5
(g9
S'\xdf\xb91a"\xd0~?'
p7023
tp7024
Rp7025
s(g2021
S'prev-action-4'
p7026
tp7027
g5
(g9
S'\xbc"\xdd\x1b\x81\xe7h?'
p7028
tp7029
Rp7030
s(g6172
g2392
tp7031
g5
(g9
S'#.\xf3\x0f\x8f@\x91?'
p7032
tp7033
Rp7034
sg3705
g5
(g9
S'\xd9,|\x01\xc0\xf9q?'
p7035
tp7036
Rp7037
s(g4801
S'prev-action-4'
p7038
tp7039
g5
(g9
S'-YSI\xc2^q\xbf'
p7040
tp7041
Rp7042
sg362
g5
(g9
S'3\x11\xe8|4\xffk?'
p7043
tp7044
Rp7045
s(S'diff-x-pos--65'
p7046
S'prev-action-4'
p7047
tp7048
g5
(g9
S"3\x87#'\t\x0cC\xbf"
p7049
tp7050
Rp7051
sg3716
g5
(g9
S'>3\xbf\xcd\x1cGq?'
p7052
tp7053
Rp7054
sg1927
g5
(g9
S'\xb8fObeE$\xbf'
p7055
tp7056
Rp7057
sg4631
g5
(g9
S'\xf6\xe3&\x93\x87`\xc1?'
p7058
tp7059
Rp7060
sg1685
g5
(g9
S'{Q\x8b\xbd\xddY\x7f?'
p7061
tp7062
Rp7063
s(g1893
S'prev-action-3'
p7064
tp7065
g5
(g9
S'k)[gh9p\xbf'
p7066
tp7067
Rp7068
s(g1495
S'prev-action-4'
p7069
tp7070
g5
(g9
S'\x05<b\xbe\x07\xc6|?'
p7071
tp7072
Rp7073
s(g5437
S'object-0-x-44'
p7074
tp7075
g5
(g9
S'O\xbfA\xc9\x99\x14\xa9?'
p7076
tp7077
Rp7078
s(g467
S'action-1'
p7079
tp7080
g5
(g9
S'\xac\x0f\x1e_\xda\xedd\xbf'
p7081
tp7082
Rp7083
s(g547
S'action-4'
p7084
tp7085
g5
(g9
S'\xfe\xc6\xda\xb0\x02\x89\x85\xbf'
p7086
tp7087
Rp7088
s(g2322
S'action-1'
p7089
tp7090
g5
(g9
S'\x94\xb9\xb4\xc0\\Xs?'
p7091
tp7092
Rp7093
s(S'action-1'
p7094
S'object-0-x-72'
p7095
tp7096
g5
(g9
S'\xc6\xbe*\xc0L`\xb0?'
p7097
tp7098
Rp7099
s(g3896
S'action-4'
p7100
tp7101
g5
(g9
S'\\\x85\xdf\xdc\xb9\xf33\xbf'
p7102
tp7103
Rp7104
s(g5244
S'prev-action-4'
p7105
tp7106
g5
(g9
S'\xae \xa7\x08\xb3\x99R?'
p7107
tp7108
Rp7109
s(g957
S'prev-action-4'
p7110
tp7111
g5
(g9
S'\x1b\xf2A\xaft\xdfi\xbf'
p7112
tp7113
Rp7114
s(g427
S'prev-action-1'
p7115
tp7116
g5
(g9
S'\xf0 \x8fE\x0c\xd5N?'
p7117
tp7118
Rp7119
sg3789
g5
(g9
S'J9y\xe0J\xcc&\xbf'
p7120
tp7121
Rp7122
s(g1791
S'prev-action-4'
p7123
tp7124
g5
(g9
S'\xb6\xe0K\xfa\r\xfcm?'
p7125
tp7126
Rp7127
s(S'diff-x-pos--29'
p7128
S'prev-action-3'
p7129
tp7130
g5
(g9
S'<\x9f\xd6R\x11\na?'
p7131
tp7132
Rp7133
sg3817
g5
(g9
S'\xab\x13\x87v\x0e\x96\x8d\xbf'
p7134
tp7135
Rp7136
sg506
g5
(g9
S'\x95\\\xf6@/c\x8b\xbf'
p7137
tp7138
Rp7139
sg571
g5
(g9
S'Y2\x95[\\`\x98\xbf'
p7140
tp7141
Rp7142
sg368
g5
(g9
S'\x16"\x8ae~\xb1\x8b\xbf'
p7143
tp7144
Rp7145
sg338
g5
(g9
S'\xb9i\xa4\x82\xd2\xf9\x7f\xbf'
p7146
tp7147
Rp7148
sg4649
g5
(g9
S'\x9b\x07*\xf0\xa0\xea\x89\xbf'
p7149
tp7150
Rp7151
sg547
g5
(g9
S'\xe0D\xe2\xa4v^\x95\xbf'
p7152
tp7153
Rp7154
sg1557
g5
(g9
S'\xa8\xe1\xbe\xac\x01\xc3{\xbf'
p7155
tp7156
Rp7157
s(g933
S'action-4'
p7158
tp7159
g5
(g9
S'\xc9\x8fjIP\xbf{\xbf'
p7160
tp7161
Rp7162
s(g3716
S'prev-action-3'
p7163
tp7164
g5
(g9
S'p\xc4\x9ay.\xaej?'
p7165
tp7166
Rp7167
s(S'object-1-dx--1'
p7168
g15
tp7169
g5
(g9
S'\xa5`\xb8h\xbdl\x90?'
p7170
tp7171
Rp7172
s(S'diff-x-pos--30'
p7173
g4027
tp7174
g5
(g9
S'\x8a\xafX\xa6\xf0\x83\x81?'
p7175
tp7176
Rp7177
s(g4370
g107
tp7178
g5
(g9
S'$P\xfa\x13\xb6-t\xbf'
p7179
tp7180
Rp7181
s(g4649
S'prev-action-4'
p7182
tp7183
g5
(g9
S'\x07\xec2d\xf3n\x81\xbf'
p7184
tp7185
Rp7186
s(S'diff-x-pos--31'
p7187
S'prev-action-3'
p7188
tp7189
g5
(g9
S'%\x92\xbe\xc12\x99y?'
p7190
tp7191
Rp7192
s(g2822
g5693
tp7193
g5
(g9
S'\xe2\xe6\xd2\xbd\xd2\tg?'
p7194
tp7195
Rp7196
s(g112
S'object-0-x-24'
p7197
tp7198
g5
(g9
S'\xfa\x1e\xce\x97\xca\x80l?'
p7199
tp7200
Rp7201
s(S'diff-x-pos-49'
p7202
S'action-3'
p7203
tp7204
g5
(g9
S'\xc8\xf9\xa1yX\xd6,?'
p7205
tp7206
Rp7207
sg4091
g5
(g9
S'\x12\xf3\x01\xb2O$\xa4?'
p7208
tp7209
Rp7210
s(S'diff-x-pos--27'
p7211
S'action-3'
p7212
tp7213
g5
(g9
S'\x00x\xf4\xaa6\xbaC\xbf'
p7214
tp7215
Rp7216
s(g4349
S'action-4'
p7217
tp7218
g5
(g9
S'1\xc3\x16\xff\xd0\x01;?'
p7219
tp7220
Rp7221
s(g6001
S'action-1'
p7222
tp7223
g5
(g9
S")?qg\xe2\xb0'?"
p7224
tp7225
Rp7226
s(g4274
S'object-0-x-28'
p7227
tp7228
g5
(g9
S'\xd3\xdcK\x96|$\x8f?'
p7229
tp7230
Rp7231
s(S'diff-x-pos--8'
p7232
S'prev-action-1'
p7233
tp7234
g5
(g9
S'k\xbfLyP\xa3r\xbf'
p7235
tp7236
Rp7237
s(g3448
S'action-4'
p7238
tp7239
g5
(g9
S'\xbaM\x01\xbe\xdc2^\xbf'
p7240
tp7241
Rp7242
s(g2011
S'action-4'
p7243
tp7244
g5
(g9
S'i\x99T\xcb\xc2\xaaj\xbf'
p7245
tp7246
Rp7247
s(g236
S'prev-action-3'
p7248
tp7249
g5
(g9
S'\x00 \xa1\xc4Z\xf6\x1c?'
p7250
tp7251
Rp7252
s(g1970
S'action-4'
p7253
tp7254
g5
(g9
S'\xe9g\x0b\xd3t\x87q?'
p7255
tp7256
Rp7257
s(S'diff-x-pos-9'
p7258
S'prev-action-1'
p7259
tp7260
g5
(g9
S'\x14%oX\xda\xd7_?'
p7261
tp7262
Rp7263
s(g2057
S'object-1-x-68'
p7264
tp7265
g5
(g9
S';\xdf\xcb\xcb\n5\x98?'
p7266
tp7267
Rp7268
s(S'diff-x-pos--18'
p7269
S'prev-action-3'
p7270
tp7271
g5
(g9
S'\x02<\xe5xyYq?'
p7272
tp7273
Rp7274
stp7275
Rp7276
.