ccollections
Counter
p0
((dp1
(S'diff-x-pos--89'
p2
S'action-4'
p3
tp4
cnumpy.core.multiarray
scalar
p5
(cnumpy
dtype
p6
(S'f8'
p7
I0
I1
tp8
Rp9
(I3
S'<'
p10
NNNI-1
I-1
I0
tp11
bS'T\xf4u8.\xe1\xc3?'
p12
tp13
Rp14
s(S'action-4'
p15
S'object-1-x-80.0'
p16
tp17
g5
(g9
S'Y\\\xcfI\x7fA\xfc\xbf'
p18
tp19
Rp20
s(S'diff-x-pos--94'
p21
S'action-3'
p22
tp23
g5
(g9
S'b\x13/\xb1\x8bA\x03\xc0'
p24
tp25
Rp26
s(S'diff-x-pos--80'
p27
S'action-4'
p28
tp29
g5
(g9
S'\xaa\x92j\x9btz\xfa\xbf'
p30
tp31
Rp32
s(S'diff-x-pos-2'
p33
S'prev-action-3'
p34
tp35
g5
(g9
S'\xb4a\xd8Mi?\xbf?'
p36
tp37
Rp38
s(S'diff-x-pos--7'
p39
S'prev-action-1'
p40
tp41
g5
(g9
S'm\x03\xa0\xca\x89\xfa\xe2\xbf'
p42
tp43
Rp44
s(S'diff-x-pos--27'
p45
S'action-4'
p46
tp47
g5
(g9
S'\x10\xeb\xbc\x07\x11\xa0\x01@'
p48
tp49
Rp50
s(S'diff-x-pos-40'
p51
S'action-3'
p52
tp53
g5
(g9
S'=t\xc2\xdc_I\xf2?'
p54
tp55
Rp56
s(S'diff-x-pos-54'
p57
S'action-1'
p58
tp59
g5
(g9
S'\xb8g\xf2\x01lP\x01\xc0'
p60
tp61
Rp62
s(S'diff-x-pos--43'
p63
S'prev-action-4'
p64
tp65
g5
(g9
S'\x92\x02j\x85\xc3{\xe7\xbf'
p66
tp67
Rp68
s(S'diff-x-pos--96'
p69
S'prev-action-4'
p70
tp71
g5
(g9
S'\xbe:\xe4\xb6\xec-\x00\xc0'
p72
tp73
Rp74
s(S'action-4'
p75
S'object-1-x-60.0'
p76
tp77
g5
(g9
S'\x84gL\xc3\xf3\xa2\xeb\xbf'
p78
tp79
Rp80
s(S'diff-x-pos--80'
p81
S'prev-action-1'
p82
tp83
g5
(g9
S'$r\xfa\xac\x06\x1a\xfd?'
p84
tp85
Rp86
s(S'diff-x-pos--35'
p87
S'action-3'
p88
tp89
g5
(g9
S'~ \x1b\xcf\xb1{\xe4?'
p90
tp91
Rp92
s(S'diff-x-pos--25'
p93
S'prev-action-4'
p94
tp95
g5
(g9
S'\xbc\xda\xb5\xf7\xc1i\x01@'
p96
tp97
Rp98
s(S'diff-x-pos--75'
p99
S'prev-action-4'
p100
tp101
g5
(g9
S'X\xad"MU\x94\xd5?'
p102
tp103
Rp104
s(S'diff-x-pos-43'
p105
S'prev-action-4'
p106
tp107
g5
(g9
S'^f\xf8pSr\xf4\xbf'
p108
tp109
Rp110
s(S'diff-x-pos--26'
p111
S'prev-action-1'
p112
tp113
g5
(g9
S'\xa8\x19\x9e\x10(\xe0\xee?'
p114
tp115
Rp116
s(S'diff-x-pos--9'
p117
S'action-3'
p118
tp119
g5
(g9
S'\x9c\xfc\xd4\xcb\xaa\xef\xdb?'
p120
tp121
Rp122
s(S'diff-x-pos-40'
p123
S'prev-action-1'
p124
tp125
g5
(g9
S'\xaa\xb1\x97pN\xa6\xe9\xbf'
p126
tp127
Rp128
s(S'diff-x-pos--7'
p129
S'action-3'
p130
tp131
g5
(g9
S'\xf5\xaczN\xe8\x83\xe2\xbf'
p132
tp133
Rp134
s(S'diff-x-pos--61'
p135
S'action-3'
p136
tp137
g5
(g9
S'56G\xaa\xfc\xad\xe0\xbf'
p138
tp139
Rp140
s(S'diff-x-pos-47'
p141
S'prev-action-1'
p142
tp143
g5
(g9
S'\x82&\x81\xa8\xb2/\xe7?'
p144
tp145
Rp146
s(S'diff-x-pos-51'
p147
S'action-1'
p148
tp149
g5
(g9
S'\x18\xb14`\x80g\xd1?'
p150
tp151
Rp152
s(S'diff-x-pos-21'
p153
S'prev-action-1'
p154
tp155
g5
(g9
S'\x12I\x0e\x8a\xb6\x11\xc3\xbf'
p156
tp157
Rp158
s(S'diff-x-pos-33'
p159
S'prev-action-4'
p160
tp161
g5
(g9
S'P\x18&f\xc1\xc5\xf8?'
p162
tp163
Rp164
s(S'diff-x-pos--79'
p165
S'action-3'
p166
tp167
g5
(g9
S'\xc8\xecNAy\xc2\xfc\xbf'
p168
tp169
Rp170
s(S'diff-x-pos--62'
p171
S'prev-action-3'
p172
tp173
g5
(g9
S'\x98\x1b\xf5\xe8\xa1\x1c\xdd?'
p174
tp175
Rp176
s(S'diff-x-pos-17'
p177
S'action-1'
p178
tp179
g5
(g9
S'\xc3\xe1\x90\x90\xe1\x82\xe0\xbf'
p180
tp181
Rp182
s(S'diff-x-pos-37'
p183
S'action-4'
p184
tp185
g5
(g9
S'\xf8\xdeC\xf7\x92\xa3\xf0\xbf'
p186
tp187
Rp188
s(S'diff-x-pos--13'
p189
S'action-4'
p190
tp191
g5
(g9
S'\x00\xeas\x92\xc5\x0f\xdb\xbf'
p192
tp193
Rp194
s(S'diff-x-pos-9'
p195
S'action-3'
p196
tp197
g5
(g9
S'\xbb0U\x82\x0b)\xf7?'
p198
tp199
Rp200
s(S'diff-x-pos--98'
p201
S'action-1'
p202
tp203
g5
(g9
S'\xab\x97\xab}\xdb2\xfb\xbf'
p204
tp205
Rp206
s(S'action-3'
p207
S'object-1-x-80.0'
p208
tp209
g5
(g9
S'h\xa7A\x0cu\xb7\xde?'
p210
tp211
Rp212
s(S'diff-x-pos--69'
p213
S'action-4'
p214
tp215
g5
(g9
S'\xd0R\xe8\xe9^n\xfb?'
p216
tp217
Rp218
s(S'diff-x-pos--46'
p219
S'prev-action-4'
p220
tp221
g5
(g9
S'\x04\x88\xc0\xc6tc\xf0?'
p222
tp223
Rp224
s(S'diff-x-pos--53'
p225
S'action-4'
p226
tp227
g5
(g9
S'\xb1\xdf\xbc\\\xc8\x95\xf0\xbf'
p228
tp229
Rp230
s(S'diff-x-pos--49'
p231
S'prev-action-4'
p232
tp233
g5
(g9
S'\xd7\xa4\xb4\x1f\x9d\xa8\xe9?'
p234
tp235
Rp236
s(S'diff-x-pos-25'
p237
S'action-4'
p238
tp239
g5
(g9
S'\xd6;\x87\x02r\x08\xf3\xbf'
p240
tp241
Rp242
s(S'action-4'
p243
S'object-0-x-120.0'
p244
tp245
g5
(g9
S'\x18\xf7\xd1\xb6Z\n\x0c@'
p246
tp247
Rp248
s(S'diff-x-pos--13'
p249
S'prev-action-4'
p250
tp251
g5
(g9
S'\xa8\x9bI\x9e\xe8\xe0\xd2?'
p252
tp253
Rp254
s(S'diff-x-pos--37'
p255
S'action-4'
p256
tp257
g5
(g9
S'@\x82x7\xeee\xf3?'
p258
tp259
Rp260
s(g45
S'prev-action-1'
p261
tp262
g5
(g9
S'\xe5\xaec\xa7\xa1\x15\x01@'
p263
tp264
Rp265
s(S'diff-x-pos-52'
p266
S'action-4'
p267
tp268
g5
(g9
S'\x98\x0c\x87\x05\xfd\x9a\xcd\xbf'
p269
tp270
Rp271
s(S'diff-x-pos-59'
p272
S'action-4'
p273
tp274
g5
(g9
S'\x98\x94"\xce\xd1\x05\xef\xbf'
p275
tp276
Rp277
s(S'diff-x-pos--8'
p278
S'action-1'
p279
tp280
g5
(g9
S'\x8ch\xbf\x93\x8e\xbb\xfe?'
p281
tp282
Rp283
s(S'diff-x-pos--55'
p284
S'action-4'
p285
tp286
g5
(g9
S'\x14E\x1e\x17I\xbe\xe9?'
p287
tp288
Rp289
s(S'diff-x-pos--31'
p290
S'action-1'
p291
tp292
g5
(g9
S'\xdb\x9f\x98\xf0\x96{\xd3\xbf'
p293
tp294
Rp295
s(S'diff-x-pos-48'
p296
S'action-1'
p297
tp298
g5
(g9
S'\x18\x7fT\xd6\xb5\x0c\xfd?'
p299
tp300
Rp301
s(S'diff-x-pos-4'
p302
S'prev-action-4'
p303
tp304
g5
(g9
S'\x92\x92JW\x15\xd2\xd6?'
p305
tp306
Rp307
s(S'diff-x-pos--30'
p308
S'prev-action-1'
p309
tp310
g5
(g9
S'\xfa\x96\x90`\xfa\xe6\xf2?'
p311
tp312
Rp313
s(S'diff-x-pos--61'
p314
S'action-1'
p315
tp316
g5
(g9
S'\xf2$\x1c\xdc\xaf[\x08@'
p317
tp318
Rp319
s(S'diff-x-pos--63'
p320
S'prev-action-1'
p321
tp322
g5
(g9
S'\x9c\xcb\xfaE\x89\xba\xfb\xbf'
p323
tp324
Rp325
s(S'action-4'
p326
S'object-0-x-50.0'
p327
tp328
g5
(g9
S'\xb0[!^\xf1\x88\xf6?'
p329
tp330
Rp331
s(S'diff-x-pos--65'
p332
S'action-1'
p333
tp334
g5
(g9
S'X\xc7\xc1\xdc1\xcd\xe5?'
p335
tp336
Rp337
s(S'diff-x-pos-26'
p338
S'action-4'
p339
tp340
g5
(g9
S'\xcc\x1d\x87|\xda\xbb\xfc\xbf'
p341
tp342
Rp343
s(g249
S'action-3'
p344
tp345
g5
(g9
S'R\x8f\xf4\x1b\xed_\x07@'
p346
tp347
Rp348
s(S'action-4'
p349
S'object-0-x-130.0'
p350
tp351
g5
(g9
S'\x8c\xdf\xff0\x9ek\xf4?'
p352
tp353
Rp354
s(S'diff-x-pos--26'
p355
S'action-1'
p356
tp357
g5
(g9
S'\x07I\xa2\xa5\x83x\xf4\xbf'
p358
tp359
Rp360
s(S'diff-x-pos--75'
p361
S'action-4'
p362
tp363
g5
(g9
S'\x8a6\xbat\x13\x05\xf0?'
p364
tp365
Rp366
s(S'diff-x-pos--23'
p367
S'prev-action-4'
p368
tp369
g5
(g9
S'RH\xeenG\xab\xc9\xbf'
p370
tp371
Rp372
s(S'diff-x-pos-37'
p373
S'action-3'
p374
tp375
g5
(g9
S'>B\xce\x0f\xfc~\x00@'
p376
tp377
Rp378
s(S'diff-x-pos-55'
p379
S'action-4'
p380
tp381
g5
(g9
S'\xa7\xbd\xcf\x98H\xe0\x01\xc0'
p382
tp383
Rp384
s(S'diff-x-pos--105'
p385
S'prev-action-4'
p386
tp387
g5
(g9
S'hl\xefG!a\xb3?'
p388
tp389
Rp390
s(S'diff-x-pos--59'
p391
S'action-3'
p392
tp393
g5
(g9
S'\xdcWJ\xc7@)\xfd\xbf'
p394
tp395
Rp396
s(S'object-0-dx-1'
p397
S'prev-action-3'
p398
tp399
g5
(g9
S'\xcd\x84pk\xcf\xc6\xd1?'
p400
tp401
Rp402
s(S'diff-x-pos--39'
p403
S'prev-action-3'
p404
tp405
g5
(g9
S'D\x88@@a?\xdc\xbf'
p406
tp407
Rp408
s(S'diff-x-pos-2'
p409
S'action-3'
p410
tp411
g5
(g9
S'S\xe3\x0ef\x19\xc7\xe1\xbf'
p412
tp413
Rp414
s(S'diff-x-pos-4'
p415
S'prev-action-3'
p416
tp417
g5
(g9
S"\x06\xb2t\x85\xaf'\xc3?"
p418
tp419
Rp420
s(S'action-3'
p421
S'object-0-x-40.0'
p422
tp423
g5
(g9
S'\xf7\x8b\xb3\xb8\x99\x93\xf0?'
p424
tp425
Rp426
s(S'diff-x-pos--63'
p427
S'action-1'
p428
tp429
g5
(g9
S'I\xd0\xed\x08H?\xd7\xbf'
p430
tp431
Rp432
s(S'diff-x-pos--3'
p433
S'action-4'
p434
tp435
g5
(g9
S'\x10}\xa8\xd8\xa3\xfc\xc6?'
p436
tp437
Rp438
sS'object-1-x-120.0'
p439
g5
(g9
S'\xd9\x84?\xf2|\xed\xc7?'
p440
tp441
Rp442
s(S'diff-x-pos-3'
p443
S'action-3'
p444
tp445
g5
(g9
S'a\xed\xbc\x90\xa2\x1a\xe4?'
p446
tp447
Rp448
sS'prev-action-0'
p449
g5
(g9
S'3\x97\x1f\xc2\xb3\x1e,@'
p450
tp451
Rp452
sS'prev-action-1'
p453
g5
(g9
S'\x01\x88\xa4&\x1d\xe4.@'
p454
tp455
Rp456
s(S'diff-x-pos--90'
p457
S'prev-action-3'
p458
tp459
g5
(g9
S'\xf1%\xf2\xe3\xbb\xba\xd6?'
p460
tp461
Rp462
sS'diff-x-pos--120'
p463
g5
(g9
S'\xef\xfeon}\x11\xe0\xbf'
p464
tp465
Rp466
sS'prev-action-4'
p467
g5
(g9
S'=\x9b\xc1D\x9a\xb30@'
p468
tp469
Rp470
s(S'diff-x-pos--63'
p471
S'prev-action-4'
p472
tp473
g5
(g9
S'pC\xa7\xd8`\x01\xc1?'
p474
tp475
Rp476
s(S'diff-x-pos--36'
p477
S'action-1'
p478
tp479
g5
(g9
S'\xd0\x9a\xe1_{\xad\xcb\xbf'
p480
tp481
Rp482
s(S'diff-x-pos-43'
p483
S'action-1'
p484
tp485
g5
(g9
S'\xba\x94g"\xe6q\xed\xbf'
p486
tp487
Rp488
s(S'diff-x-pos--72'
p489
S'prev-action-1'
p490
tp491
g5
(g9
S'l\xdc~\x86\xeet\xf0\xbf'
p492
tp493
Rp494
s(S'diff-x-pos--35'
p495
S'prev-action-4'
p496
tp497
g5
(g9
S'8Wo\x98B\xb5\xb1\xbf'
p498
tp499
Rp500
s(S'diff-x-pos-55'
p501
S'action-3'
p502
tp503
g5
(g9
S"\x9a\x90U\xfd\x11'\xe4?"
p504
tp505
Rp506
s(S'diff-x-pos-45'
p507
S'prev-action-3'
p508
tp509
g5
(g9
S'\xb0u\xb1v\xac\x88\xf1?'
p510
tp511
Rp512
s(S'diff-x-pos--34'
p513
S'prev-action-3'
p514
tp515
g5
(g9
S'\xa8_\xa6\xa2\xb4\xbb\xf0?'
p516
tp517
Rp518
s(S'diff-x-pos--96'
p519
S'action-1'
p520
tp521
g5
(g9
S'\xa4\xbb\xae\x83q\x85\xf8\xbf'
p522
tp523
Rp524
sS'diff-x-pos--103'
p525
g5
(g9
S'`c\x1em\xa6-\xe4\xbf'
p526
tp527
Rp528
sS'diff-y-pos-0'
p529
g5
(g9
S'\xa2`uN\xc0\xa1\x02\xc0'
p530
tp531
Rp532
s(S'diff-x-pos--17'
p533
S'action-1'
p534
tp535
g5
(g9
S'\xb8\xf9\xe1\x9b\xd4\xdc\xe7\xbf'
p536
tp537
Rp538
s(S'diff-x-pos--100'
p539
S'prev-action-4'
p540
tp541
g5
(g9
S'w~\x880\xcco\xec\xbf'
p542
tp543
Rp544
sS'object-1-x-100.0'
p545
g5
(g9
S'\xd8\x07`|&&\xe6?'
p546
tp547
Rp548
s(S'diff-x-pos-2'
p549
S'action-4'
p550
tp551
g5
(g9
S'c\xa7\xfa\x84\xb7s\xe7\xbf'
p552
tp553
Rp554
s(S'diff-x-pos-29'
p555
S'action-3'
p556
tp557
g5
(g9
S'\x89\xd685\xe9\xde\xfd?'
p558
tp559
Rp560
s(S'diff-x-pos-30'
p561
S'action-3'
p562
tp563
g5
(g9
S'\xb6Y\x11\xcezo\xdd?'
p564
tp565
Rp566
s(S'diff-x-pos-38'
p567
S'prev-action-3'
p568
tp569
g5
(g9
S'\xbd\xba\x18\x05\xaa\xd1\xec?'
p570
tp571
Rp572
s(S'diff-x-pos--4'
p573
S'action-1'
p574
tp575
g5
(g9
S'\xe0.r\xbf\xcc\xa6u?'
p576
tp577
Rp578
s(S'diff-x-pos--112'
p579
S'action-3'
p580
tp581
g5
(g9
S'\xdd}\x9a\x1a9h\xef?'
p582
tp583
Rp584
sS'object-1-dx--1'
p585
g5
(g9
S'\xa0U0\x92\xf1\xc9\xfd\xbf'
p586
tp587
Rp588
s(S'diff-x-pos-63'
p589
S'action-3'
p590
tp591
I1
s(S'diff-x-pos--95'
p592
S'action-4'
p593
tp594
g5
(g9
S'\x01\xf14\xbdm\xd2\xea\xbf'
p595
tp596
Rp597
s(S'diff-x-pos--33'
p598
S'action-1'
p599
tp600
g5
(g9
S'\x15\xd1R\xea\xd6&\x0e@'
p601
tp602
Rp603
s(S'action-3'
p604
S'object-0-x-90.0'
p605
tp606
g5
(g9
S'y1\x8ei\x03\x95\xfa?'
p607
tp608
Rp609
sS'object-1-dy--1'
p610
g5
(g9
S'\xc6\xf9\xe6\x02A\x1e\xf1\xbf'
p611
tp612
Rp613
s(S'diff-x-pos--51'
p614
S'action-1'
p615
tp616
g5
(g9
S'6\x11\x12jg\x81\xf6\xbf'
p617
tp618
Rp619
s(S'diff-x-pos--120'
p620
S'action-4'
p621
tp622
g5
(g9
S'\x1f\xa6\xf9\x9c\xab\xfa\x02@'
p623
tp624
Rp625
s(S'action-3'
p626
S'object-1-x-70.0'
p627
tp628
g5
(g9
S'\xd5?\xf9.\x04\xfe\xe0\xbf'
p629
tp630
Rp631
s(S'action-4'
p632
S'object-0-x-60.0'
p633
tp634
g5
(g9
S'\x9b`\x96\xea\x80S\xee?'
p635
tp636
Rp637
s(S'diff-x-pos--4'
p638
S'prev-action-4'
p639
tp640
g5
(g9
S'JB\xd9\xa7]\x85\xe2\xbf'
p641
tp642
Rp643
s(S'diff-x-pos--24'
p644
S'action-1'
p645
tp646
g5
(g9
S'&\xeel\x11\xdf\xc7\xf2?'
p647
tp648
Rp649
s(S'diff-x-pos-38'
p650
S'action-4'
p651
tp652
g5
(g9
S'k\xd6\xce\x9dB\xa4\x03\xc0'
p653
tp654
Rp655
s(S'diff-x-pos--77'
p656
S'action-4'
p657
tp658
g5
(g9
S':\x04\x9fZ\xb9\xec\xc8\xbf'
p659
tp660
Rp661
s(S'diff-x-pos-57'
p662
S'action-4'
p663
tp664
g5
(g9
S'\x86\xf8\xca\xdb{\xee\xe0\xbf'
p665
tp666
Rp667
s(S'diff-x-pos--97'
p668
S'prev-action-3'
p669
tp670
g5
(g9
S'\xac\xd7\x9d4\xd1X\xce?'
p671
tp672
Rp673
s(S'action-1'
p674
S'object-1-x-70.0'
p675
tp676
g5
(g9
S'\x0fE D\xcf\xae\xfa\xbf'
p677
tp678
Rp679
s(S'diff-x-pos-35'
p680
S'prev-action-1'
p681
tp682
g5
(g9
S'\xdb\xc3\x7f\xae\xac\x9d\xe3\xbf'
p683
tp684
Rp685
s(S'diff-x-pos-42'
p686
S'prev-action-3'
p687
tp688
g5
(g9
S'.\xc0D\xa7\xad\xc1\xcf\xbf'
p689
tp690
Rp691
sS'object-0-x-70.0'
p692
g5
(g9
S'09\xcc\x1bd\xbd\x11@'
p693
tp694
Rp695
s(S'diff-x-pos--10'
p696
S'action-1'
p697
tp698
g5
(g9
S'\n\xdd\xc4}\x13\x8e\xe3\xbf'
p699
tp700
Rp701
s(S'diff-x-pos-14'
p702
S'prev-action-1'
p703
tp704
g5
(g9
S'\xb0\xf1/\xe0F\x1e\xd0?'
p705
tp706
Rp707
s(S'diff-x-pos-25'
p708
S'action-3'
p709
tp710
g5
(g9
S'\xc0\xbb\xf9\x9c\xd5\xd1\x0c@'
p711
tp712
Rp713
s(S'diff-x-pos-19'
p714
S'prev-action-3'
p715
tp716
g5
(g9
S'\x9e\x1dk\xab\xe8\xcc\xfd?'
p717
tp718
Rp719
s(S'diff-x-pos--114'
p720
S'prev-action-4'
p721
tp722
g5
(g9
S'\x0cT\xd0\x8f_"\xd1?'
p723
tp724
Rp725
s(S'diff-x-pos-34'
p726
S'prev-action-1'
p727
tp728
g5
(g9
S'\xcc\xf9\xbd\x10u\xd7\xcd\xbf'
p729
tp730
Rp731
sS'diff-x-pos--54'
p732
g5
(g9
S'\xd5c\xdb/\x19\xf3\xe1\xbf'
p733
tp734
Rp735
s(S'action-1'
p736
S'object-0-x-0.0'
p737
tp738
g5
(g9
S'\xdb\xe2\xea\xaf*\xf7\x0f@'
p739
tp740
Rp741
sS'diff-x-pos--56'
p742
g5
(g9
S'\xa6e\xfe\xb3h\x9a\xdc\xbf'
p743
tp744
Rp745
sS'diff-x-pos--57'
p746
g5
(g9
S'\xbc\xce\n\xab\xfb\xd3\xcd?'
p747
tp748
Rp749
sS'diff-x-pos--50'
p750
g5
(g9
S'\x8c\xda\x8bBy\xbb\xbb?'
p751
tp752
Rp753
sS'diff-x-pos--51'
p754
g5
(g9
S'\xe0\xe5\xc9\xd5\x89z\xec\xbf'
p755
tp756
Rp757
sS'diff-x-pos--52'
p758
g5
(g9
S'\xd6\xcf`\xfe\x84\x82\xdd\xbf'
p759
tp760
Rp761
sS'diff-x-pos--53'
p762
g5
(g9
S'\xe9<\xf9\x81\x13\xdc\xee\xbf'
p763
tp764
Rp765
s(g674
S'object-0-x-60.0'
p766
tp767
g5
(g9
S'b\xde\xb3\xd0\xf2\xcd\xf9?'
p768
tp769
Rp770
sS'diff-x-pos--58'
p771
g5
(g9
S',\x88\xf4\xdb\xd8\xdc\xf5?'
p772
tp773
Rp774
sS'diff-x-pos--59'
p775
g5
(g9
S'\x88V\x90\xfb\xa0\x8a\xe7?'
p776
tp777
Rp778
s(S'diff-x-pos--102'
p779
S'action-4'
p780
tp781
g5
(g9
S'\xc4COg\x07b\xfe?'
p782
tp783
Rp784
s(S'diff-x-pos--38'
p785
S'action-1'
p786
tp787
g5
(g9
S'\xc6\xeafw\xf1\x1b\xfb\xbf'
p788
tp789
Rp790
sS'object-0-y-0.0'
p791
g5
(g9
S'\x1d\xaf^(`;6@'
p792
tp793
Rp794
s(S'diff-x-pos--68'
p795
S'action-3'
p796
tp797
g5
(g9
S'\xac\x8b\xe5W\xe5,\xe4\xbf'
p798
tp799
Rp800
s(S'diff-x-pos--59'
p801
S'prev-action-4'
p802
tp803
g5
(g9
S'\n)\xeb\x84\x15\xaa\xf4?'
p804
tp805
Rp806
s(S'diff-x-pos-57'
p807
S'prev-action-3'
p808
tp809
g5
(g9
S'gs2\xbc\x19M\xde\xbf'
p810
tp811
Rp812
s(S'action-1'
p813
S'object-0-x-100.0'
p814
tp815
g5
(g9
S'\x88\x03\xd1\xdb\xc6\xe2\x0b@'
p816
tp817
Rp818
s(g785
S'prev-action-1'
p819
tp820
g5
(g9
S'\xf0T\xf9N\xbd\x0b\xbc\xbf'
p821
tp822
Rp823
s(S'diff-x-pos--14'
p824
S'prev-action-1'
p825
tp826
g5
(g9
S'\x9e\x9c\xe9\x86\xc3\xde\xf5\xbf'
p827
tp828
Rp829
s(S'object-1-dx-1'
p830
S'prev-action-1'
p831
tp832
g5
(g9
S'\x8a\xfc\xa7\xd3\x85\x97\xf1\xbf'
p833
tp834
Rp835
s(S'diff-x-pos--2'
p836
S'action-4'
p837
tp838
g5
(g9
S'\xd8\x12\x96\xa19\xb9\xef\xbf'
p839
tp840
Rp841
sS'object-0-x-90.0'
p842
g5
(g9
S'\xbc$>\x94?\x9c\x13@'
p843
tp844
Rp845
s(S'diff-x-pos--106'
p846
S'prev-action-4'
p847
tp848
g5
(g9
S'X\xa4\xbd\xfc;\xbc\xcf\xbf'
p849
tp850
Rp851
s(g433
S'prev-action-1'
p852
tp853
g5
(g9
S'\xa45\xce\x13,\xb3\xda\xbf'
p854
tp855
Rp856
s(S'diff-x-pos--28'
p857
S'prev-action-1'
p858
tp859
g5
(g9
S'\x1b\x8c\xa3Q\x10[\x02@'
p860
tp861
Rp862
s(S'diff-x-pos--71'
p863
S'prev-action-1'
p864
tp865
g5
(g9
S'8\xfd\xd66-\x1a\xda?'
p866
tp867
Rp868
s(S'diff-x-pos--107'
p869
S'prev-action-3'
p870
tp871
g5
(g9
S'\xb1\x9e\xe8\x84\x18\x05\xcc?'
p872
tp873
Rp874
sS'object-1-dx-1'
p875
g5
(g9
S'\xb9\xb5it\x1cm\xf5?'
p876
tp877
Rp878
s(S'action-1'
p879
S'object-0-x-10.0'
p880
tp881
g5
(g9
S'\xf2}q*\xda\xc8\xce\xbf'
p882
tp883
Rp884
s(S'diff-x-pos--83'
p885
S'action-4'
p886
tp887
g5
(g9
S'\xa8\xc8\xfaI\x9d\xdf\xcd?'
p888
tp889
Rp890
s(S'diff-x-pos--55'
p891
S'prev-action-1'
p892
tp893
g5
(g9
S'\ngWh\x0f\x14\xf0\xbf'
p894
tp895
Rp896
s(S'diff-x-pos-42'
p897
S'action-3'
p898
tp899
g5
(g9
S'\x96\x0b\x05"\t\xa5\xf8?'
p900
tp901
Rp902
s(S'diff-x-pos-10'
p903
S'prev-action-3'
p904
tp905
g5
(g9
S'\x8c\xca\xa1p\xb4F\xd2?'
p906
tp907
Rp908
s(S'diff-x-pos--37'
p909
S'prev-action-1'
p910
tp911
g5
(g9
S'\x96!|H\xb9S\xe0\xbf'
p912
tp913
Rp914
s(S'diff-x-pos--74'
p915
S'action-3'
p916
tp917
g5
(g9
S'\xb8qKxn%\xb4\xbf'
p918
tp919
Rp920
s(g266
S'prev-action-1'
p921
tp922
g5
(g9
S'B\x95\xc79qp\xd1?'
p923
tp924
Rp925
s(g668
S'action-3'
p926
tp927
g5
(g9
S'\xc0\xf0;\xc9\xaa\xa3\xd9\xbf'
p928
tp929
Rp930
s(S'diff-x-pos-57'
p931
S'prev-action-4'
p932
tp933
g5
(g9
S'\xdd\x80c\xc3f\xca\xf6?'
p934
tp935
Rp936
s(S'diff-x-pos--91'
p937
S'prev-action-1'
p938
tp939
g5
(g9
S'\r\xe2\x1aM\x8ar\xf0\xbf'
p940
tp941
Rp942
sS'diff-x-pos-12'
p943
g5
(g9
S'@\xc3{\xf3\xc72\x99?'
p944
tp945
Rp946
sS'diff-x-pos-13'
p947
g5
(g9
S'P\x01h\x89#\xae\xd0\xbf'
p948
tp949
Rp950
sg903
g5
(g9
S'vpr\xa2\x7f\\\xd9?'
p951
tp952
Rp953
sS'diff-x-pos-11'
p954
g5
(g9
S'0;\xca\x08A\xaa\xdf\xbf'
p955
tp956
Rp957
sS'diff-x-pos-16'
p958
g5
(g9
S'`\x97\xba\x1aW\xf5\xb8?'
p959
tp960
Rp961
sS'diff-x-pos-17'
p962
g5
(g9
S'\x10F\xe4\xbd\xc7\xa0\x97?'
p963
tp964
Rp965
sS'diff-x-pos-14'
p966
g5
(g9
S'\xd0\x83R\xb0\x0e\xa9\xd0\xbf'
p967
tp968
Rp969
sS'diff-x-pos-15'
p970
g5
(g9
S'+\x98\xadH\xc4\x94\xd4?'
p971
tp972
Rp973
s(S'diff-x-pos-28'
p974
S'action-1'
p975
tp976
g5
(g9
S'\xf0\x05\xc3\xd7<\xb0\xf6?'
p977
tp978
Rp979
sS'diff-x-pos-18'
p980
g5
(g9
S'\x14\xd1\xd4)H\x8c\xcf\xbf'
p981
tp982
Rp983
sS'diff-x-pos-19'
p984
g5
(g9
S'\xc2"\xff\x0c\x9e\xf2\xf7?'
p985
tp986
Rp987
s(g130
S'object-0-x-100.0'
p988
tp989
g5
(g9
S'\xe3/\xf4dN]\xe3?'
p990
tp991
Rp992
s(S'diff-x-pos--51'
p993
S'prev-action-1'
p994
tp995
g5
(g9
S'j\x9d\xddT\xca}\xf9\xbf'
p996
tp997
Rp998
s(g471
S'action-3'
p999
tp1000
g5
(g9
S'L\xe6$?m\xb3\xf6\xbf'
p1001
tp1002
Rp1003
s(S'diff-x-pos--94'
p1004
S'prev-action-1'
p1005
tp1006
g5
(g9
S'\xb1\xe2 3\x1bA\xe2\xbf'
p1007
tp1008
Rp1009
s(S'diff-x-pos--44'
p1010
S'action-3'
p1011
tp1012
g5
(g9
S"\xe5\x9f\xe5_v'\x03\xc0"
p1013
tp1014
Rp1015
s(S'diff-x-pos--33'
p1016
S'prev-action-1'
p1017
tp1018
g5
(g9
S'PD\xeb\x02\x8e\xcc\xa2?'
p1019
tp1020
Rp1021
s(S'diff-x-pos--42'
p1022
S'action-3'
p1023
tp1024
g5
(g9
S'@~Uu\x82\xa4\xdb?'
p1025
tp1026
Rp1027
s(g561
S'prev-action-3'
p1028
tp1029
g5
(g9
S'\xd4\xa4\x1dE\xb3S\xe2?'
p1030
tp1031
Rp1032
s(S'diff-x-pos--85'
p1033
S'action-3'
p1034
tp1035
g5
(g9
S'\x80\x1duu\x19\x14{\xbf'
p1036
tp1037
Rp1038
s(S'action-4'
p1039
S'object-0-x-110.0'
p1040
tp1041
g5
(g9
S'\x8c}\xcd8m\xe1\xf7?'
p1042
tp1043
Rp1044
s(S'diff-x-pos-2'
p1045
S'prev-action-4'
p1046
tp1047
g5
(g9
S'\xc6kt\x1a\xf6a\xd1\xbf'
p1048
tp1049
Rp1050
s(S'diff-x-pos--44'
p1051
S'action-4'
p1052
tp1053
g5
(g9
S'`\x15\x8f\xda{\x8c\x08@'
p1054
tp1055
Rp1056
s(S'diff-x-pos--100'
p1057
S'action-4'
p1058
tp1059
g5
(g9
S'\xccU\xb7\xd5\xc5\xd2\xff?'
p1060
tp1061
Rp1062
s(S'diff-x-pos--32'
p1063
S'prev-action-1'
p1064
tp1065
g5
(g9
S'\x86Q,\x8e\x93I\xca?'
p1066
tp1067
Rp1068
s(S'diff-x-pos--43'
p1069
S'prev-action-1'
p1070
tp1071
g5
(g9
S'\x00\x00\xe6hW\x1e\xeb>'
p1072
tp1073
Rp1074
s(S'diff-x-pos--81'
p1075
S'prev-action-4'
p1076
tp1077
g5
(g9
S'\xce\xea\xcdF\xad\xc3\xd0\xbf'
p1078
tp1079
Rp1080
s(S'diff-x-pos--96'
p1081
S'prev-action-1'
p1082
tp1083
g5
(g9
S'\xf2\x11\x1e\xed?\xf7\xe4?'
p1084
tp1085
Rp1086
s(S'diff-x-pos-6'
p1087
S'prev-action-1'
p1088
tp1089
g5
(g9
S'\x14;\xf0\xbd\xc6\xe7\xf4\xbf'
p1090
tp1091
Rp1092
s(g507
S'action-3'
p1093
tp1094
g5
(g9
S'\xaa\x82h\x88>M\xf2?'
p1095
tp1096
Rp1097
s(S'action-1'
p1098
g439
tp1099
g5
(g9
S'aO2\xbf\x84\xbe\xf5?'
p1100
tp1101
Rp1102
s(S'diff-x-pos--25'
p1103
S'prev-action-1'
p1104
tp1105
g5
(g9
S"\xb1R\xf0\xa7J'\xe6?"
p1106
tp1107
Rp1108
s(S'diff-x-pos-58'
p1109
S'prev-action-4'
p1110
tp1111
g5
(g9
S'3\xca?\x80\xd5\xd1\xc1?'
p1112
tp1113
Rp1114
s(S'diff-x-pos-43'
p1115
S'prev-action-1'
p1116
tp1117
g5
(g9
S'\\\x91\xe8\xda]\xcf\xfe\xbf'
p1118
tp1119
Rp1120
s(S'diff-x-pos-6'
p1121
S'action-4'
p1122
tp1123
g5
(g9
S'\xb4\xaeIh\x9f\xc2\xdc?'
p1124
tp1125
Rp1126
s(S'diff-x-pos-1'
p1127
S'action-1'
p1128
tp1129
g5
(g9
S'@\xe5\x1c\xd1\x11\xe7\xf3?'
p1130
tp1131
Rp1132
s(g457
S'action-3'
p1133
tp1134
g5
(g9
S'N%)\xd1\x1a\xd4\xfe\xbf'
p1135
tp1136
Rp1137
s(S'diff-x-pos-40'
p1138
S'prev-action-4'
p1139
tp1140
g5
(g9
S'f\x95R\x88\x90!\xf0?'
p1141
tp1142
Rp1143
s(S'diff-x-pos--21'
p1144
S'action-1'
p1145
tp1146
g5
(g9
S'z\xdd\x97\xccs\xb4\xf6\xbf'
p1147
tp1148
Rp1149
s(g39
S'action-4'
p1150
tp1151
g5
(g9
S';_`1R\x96\xd5\xbf'
p1152
tp1153
Rp1154
s(S'diff-x-pos--3'
p1155
S'prev-action-4'
p1156
tp1157
g5
(g9
S'\x7f\xcb\xf3\x87\xa7!\x00@'
p1158
tp1159
Rp1160
s(g674
S'prev-action-4'
p1161
tp1162
g5
(g9
S'\x81i\x98\xd1\x0f\x9f\x13@'
p1163
tp1164
Rp1165
s(S'diff-x-pos--47'
p1166
S'action-1'
p1167
tp1168
g5
(g9
S'\x08G\xa8\x07[\x02\xc2\xbf'
p1169
tp1170
Rp1171
s(S'object-0-dx--1'
p1172
S'prev-action-1'
p1173
tp1174
g5
(g9
S'\xe0X\xa8\xf7\x1cs\x92\xbf'
p1175
tp1176
Rp1177
s(S'diff-x-pos-33'
p1178
S'prev-action-3'
p1179
tp1180
g5
(g9
S'\xe0&\xa7\xaa\xe4\xdb\xe3?'
p1181
tp1182
Rp1183
s(S'diff-x-pos--8'
p1184
S'prev-action-4'
p1185
tp1186
g5
(g9
S'd\xd9\xb7\xe6\x8b\x93\xe1\xbf'
p1187
tp1188
Rp1189
s(S'diff-x-pos--15'
p1190
S'action-3'
p1191
tp1192
g5
(g9
S'>8j\xc4O\xf5\xe2?'
p1193
tp1194
Rp1195
s(S'diff-x-pos--85'
p1196
S'action-4'
p1197
tp1198
g5
(g9
S' \xcdJB\xcf0\x07@'
p1199
tp1200
Rp1201
s(g403
S'action-3'
p1202
tp1203
g5
(g9
S'\xae\xcb\x7f\x17\x19\xf6\xd6?'
p1204
tp1205
Rp1206
s(S'object-0-dx-1'
p1207
g207
tp1208
g5
(g9
S'\x98\xb6B\xf3\x0b\xda\xb2?'
p1209
tp1210
Rp1211
s(S'diff-x-pos--86'
p1212
S'action-3'
p1213
tp1214
g5
(g9
S'Y\xb1{\xf2fE\xff\xbf'
p1215
tp1216
Rp1217
s(S'diff-x-pos--49'
p1218
S'action-3'
p1219
tp1220
g5
(g9
S'q\xc2\xfc|4r\xe0\xbf'
p1221
tp1222
Rp1223
s(S'diff-x-pos-9'
p1224
S'action-4'
p1225
tp1226
g5
(g9
S'\xc0/s\xed\xef~\x04\xc0'
p1227
tp1228
Rp1229
s(S'diff-x-pos--98'
p1230
S'action-4'
p1231
tp1232
g5
(g9
S'\x8a\xe7\xc0\xc0WG\x00@'
p1233
tp1234
Rp1235
s(S'diff-x-pos--58'
p1236
S'prev-action-4'
p1237
tp1238
g5
(g9
S'\xd0\xdf\x88.\xa5S\x9e?'
p1239
tp1240
Rp1241
s(S'diff-x-pos-60'
p1242
S'prev-action-4'
p1243
tp1244
g5
(g9
S'As\xb6\x1d\xc3,\x04\xc0'
p1245
tp1246
Rp1247
s(S'action-1'
p1248
S'object-0-x-50.0'
p1249
tp1250
g5
(g9
S'\x98B&\xf2\xf4\xff\x8e\xbf'
p1251
tp1252
Rp1253
s(g183
S'prev-action-3'
p1254
tp1255
g5
(g9
S'cl\xca\xb4Gf\x03@'
p1256
tp1257
Rp1258
s(g189
S'prev-action-3'
p1259
tp1260
g5
(g9
S'\xeef&`\xb1\xb5\xe6?'
p1261
tp1262
Rp1263
s(g338
S'prev-action-4'
p1264
tp1265
g5
(g9
S'\x9d\t\x992,\r\xec?'
p1266
tp1267
Rp1268
s(g1051
g453
tp1269
g5
(g9
S',\xaf\x03\xec\xac\\\xe9\xbf'
p1270
tp1271
Rp1272
s(S'diff-x-pos--92'
p1273
S'prev-action-3'
p1274
tp1275
g5
(g9
S'\xc4}#\x86\xa9\xa0\xeb\xbf'
p1276
tp1277
Rp1278
s(S'diff-x-pos-52'
p1279
S'action-3'
p1280
tp1281
g5
(g9
S'\xd6e\xe7oT\x07\xd9?'
p1282
tp1283
Rp1284
s(S'action-1'
p1285
S'prev-action-3'
p1286
tp1287
g5
(g9
S'p\x1c\xb7\xb9mp\x1c@'
p1288
tp1289
Rp1290
s(S'diff-x-pos-59'
p1291
S'action-1'
p1292
tp1293
g5
(g9
S'\xd7G7N\xadL\xe9?'
p1294
tp1295
Rp1296
s(S'action-3'
p1297
S'object-0-x-10.0'
p1298
tp1299
g5
(g9
S'Qm\xc4\x85|\xaa\x0b@'
p1300
tp1301
Rp1302
s(S'diff-x-pos-41'
p1303
S'action-1'
p1304
tp1305
g5
(g9
S'\xa0\xbar0\x07\xe8\xd7?'
p1306
tp1307
Rp1308
s(g296
S'prev-action-1'
p1309
tp1310
g5
(g9
S'\x83\xc3Ty!4\xef?'
p1311
tp1312
Rp1313
s(S'diff-x-pos--104'
p1314
S'prev-action-1'
p1315
tp1316
g5
(g9
S'<\x82\xa6\x93\x1f\xa8\xe1\xbf'
p1317
tp1318
Rp1319
s(S'diff-x-pos-5'
p1320
S'action-3'
p1321
tp1322
g5
(g9
S'E\nh\x88\xba\xb0\t@'
p1323
tp1324
Rp1325
s(S'diff-x-pos--115'
p1326
S'prev-action-3'
p1327
tp1328
g5
(g9
S' \x107\xd4\x17\x9c\x9f\xbf'
p1329
tp1330
Rp1331
s(g1052
g453
tp1332
g5
(g9
S'l\x9cTs\xee*\x15@'
p1333
tp1334
Rp1335
s(S'diff-x-pos--41'
p1336
S'action-1'
p1337
tp1338
g5
(g9
S'\xca\x84kk\x9d\x11\xf6?'
p1339
tp1340
Rp1341
s(S'diff-x-pos-27'
p1342
S'prev-action-1'
p1343
tp1344
g5
(g9
S'\xb4e\xb0\xf4\xa3b\xdb?'
p1345
tp1346
Rp1347
sS'diff-x-pos--14'
p1348
g5
(g9
S'\xc0\xbb>QZ\xaar\xbf'
p1349
tp1350
Rp1351
s(S'diff-x-pos-13'
p1352
S'prev-action-1'
p1353
tp1354
g5
(g9
S'\xd3\xd60I\xb0B\xed?'
p1355
tp1356
Rp1357
s(S'action-3'
p1358
S'prev-action-0'
p1359
tp1360
g5
(g9
S'S\xc6\xde\xc2\xc4\xee\x13@'
p1361
tp1362
Rp1363
s(S'diff-x-pos--49'
p1364
S'action-4'
p1365
tp1366
g5
(g9
S'\xe4\rt`\x9cx\xef?'
p1367
tp1368
Rp1369
s(g525
S'action-3'
p1370
tp1371
g5
(g9
S'O\x07z\x8c\xc4.\xe1?'
p1372
tp1373
Rp1374
s(S'diff-x-pos--75'
p1375
S'action-1'
p1376
tp1377
g5
(g9
S'.`\xb96\x8c2\xf1\xbf'
p1378
tp1379
Rp1380
s(S'diff-x-pos--46'
p1381
S'action-4'
p1382
tp1383
g5
(g9
S'\xddB$\xdfv\xd7\x00@'
p1384
tp1385
Rp1386
s(S'diff-x-pos--23'
p1387
S'prev-action-1'
p1388
tp1389
g5
(g9
S'"\xb9\nV\xd2S\xf3?'
p1390
tp1391
Rp1392
s(S'diff-x-pos--58'
p1393
S'prev-action-3'
p1394
tp1395
g5
(g9
S'\x82\xb9\xdd)xf\xb4\xbf'
p1396
tp1397
Rp1398
s(S'diff-x-pos-56'
p1399
S'prev-action-4'
p1400
tp1401
g5
(g9
S'T"-.\xaa&\xca\xbf'
p1402
tp1403
Rp1404
s(S'diff-x-pos--105'
p1405
S'prev-action-1'
p1406
tp1407
g5
(g9
S'\xb6~d8\xae\xcd\xf6\xbf'
p1408
tp1409
Rp1410
s(S'diff-x-pos--3'
p1411
S'action-1'
p1412
tp1413
g5
(g9
S'/C\x9d\x14\xa7\x1b\xec?'
p1414
tp1415
Rp1416
s(S'diff-x-pos--86'
p1417
S'prev-action-1'
p1418
tp1419
g5
(g9
S'\xc6\xc7v\x10Do\xeb\xbf'
p1420
tp1421
Rp1422
sS'diff-x-pos--15'
p1423
g5
(g9
S'\x8c\x11\x0b\xe9C+\xe6?'
p1424
tp1425
Rp1426
s(S'diff-x-pos-15'
p1427
S'action-3'
p1428
tp1429
g5
(g9
S'\xf0\x83$!\xf06\x00@'
p1430
tp1431
Rp1432
s(S'diff-x-pos--52'
p1433
S'action-1'
p1434
tp1435
g5
(g9
S'\x06\xc1\x942\x0f\x7f\xc5\xbf'
p1436
tp1437
Rp1438
s(S'diff-x-pos--110'
p1439
S'action-3'
p1440
tp1441
g5
(g9
S'(\x905\x11\x95\xbe\xed\xbf'
p1442
tp1443
Rp1444
s(S'diff-x-pos--62'
p1445
S'action-1'
p1446
tp1447
g5
(g9
S'\xe4\xe9\x1d\x89\x95\x85\xd4?'
p1448
tp1449
Rp1450
s(S'diff-x-pos-17'
p1451
S'prev-action-1'
p1452
tp1453
g5
(g9
S'\xb1w\xaa\x94O6\xd6?'
p1454
tp1455
Rp1456
s(S'diff-x-pos-18'
p1457
S'prev-action-3'
p1458
tp1459
g5
(g9
S'\xac\xaf\xfa\x8cg}\xd9\xbf'
p1460
tp1461
Rp1462
s(S'diff-x-pos--9'
p1463
S'action-4'
p1464
tp1465
g5
(g9
S'\xf5VP{d(\xe2?'
p1466
tp1467
Rp1468
s(S'diff-x-pos--64'
p1469
S'prev-action-3'
p1470
tp1471
g5
(g9
S'$R<\xf5\xe0\x1a\xcb\xbf'
p1472
tp1473
Rp1474
s(g153
S'action-1'
p1475
tp1476
g5
(g9
S'|[\xd9\xddU\xc4\xd1\xbf'
p1477
tp1478
Rp1479
s(S'diff-x-pos--101'
p1480
S'prev-action-1'
p1481
tp1482
g5
(g9
S'\x08\xb93\xa2l+\xd5?'
p1483
tp1484
Rp1485
sg1040
g5
(g9
S'.7W\xe3\x9a\xde\x0c@'
p1486
tp1487
Rp1488
s(g135
S'prev-action-3'
p1489
tp1490
g5
(g9
S'\x8b\x8a\x06O\xe6:\x03\xc0'
p1491
tp1492
Rp1493
s(S'diff-x-pos--76'
p1494
S'prev-action-4'
p1495
tp1496
g5
(g9
S'\xc9\xf8\x9a<\xcb\xb2\xff\xbf'
p1497
tp1498
Rp1499
s(S'diff-x-pos-46'
p1500
S'prev-action-4'
p1501
tp1502
g5
(g9
S'p\x1eq~\xadC\xa9?'
p1503
tp1504
Rp1505
s(S'diff-x-pos--87'
p1506
S'prev-action-3'
p1507
tp1508
g5
(g9
S'\xc2\x1es\xcfc\x1a\xd3?'
p1509
tp1510
Rp1511
s(S'diff-x-pos--84'
p1512
S'action-1'
p1513
tp1514
g5
(g9
S'\x1cM9h\x0b\xea\xfa?'
p1515
tp1516
Rp1517
s(S'diff-x-pos--70'
p1518
S'prev-action-1'
p1519
tp1520
g5
(g9
S'\xdc|\xef\x10\xe4k\xeb?'
p1521
tp1522
Rp1523
s(S'diff-x-pos--36'
p1524
S'action-4'
p1525
tp1526
g5
(g9
S'\x9c\xec\xbf\xd7/\x0b\xf3?'
p1527
tp1528
Rp1529
s(S'diff-x-pos-43'
p1530
S'action-4'
p1531
tp1532
g5
(g9
S'\x84{\x8b\xb96\xe1\xf9\xbf'
p1533
tp1534
Rp1535
s(g87
S'prev-action-3'
p1536
tp1537
g5
(g9
S'u}\xc9a;]\xe5?'
p1538
tp1539
Rp1540
s(S'diff-x-pos--108'
p1541
S'prev-action-3'
p1542
tp1543
g5
(g9
S'\x8e\x99O\xcbk\x02\xf2\xbf'
p1544
tp1545
Rp1546
s(S'action-1'
p1547
S'object-0-x-30.0'
p1548
tp1549
g5
(g9
S'}\xa3g*\xd4\x08\xf7?'
p1550
tp1551
Rp1552
s(S'diff-x-pos-7'
p1553
S'action-4'
p1554
tp1555
g5
(g9
S'\xcb\x98\xc3\xa4h!\xe0\xbf'
p1556
tp1557
Rp1558
s(S'diff-x-pos-22'
p1559
S'action-4'
p1560
tp1561
g5
(g9
S'\x94\xab\xd0\xb3\xbay\xd5?'
p1562
tp1563
Rp1564
s(g1081
S'action-4'
p1565
tp1566
g5
(g9
S'h\r:\xb6\xb3\x11\x0b@'
p1567
tp1568
Rp1569
s(S'diff-x-pos-27'
p1570
S'action-1'
p1571
tp1572
g5
(g9
S'!\x16\x8c{\x1eT\xe7?'
p1573
tp1574
Rp1575
s(S'diff-x-pos-54'
p1576
S'prev-action-1'
p1577
tp1578
g5
(g9
S'vMO\xd3\xbf\x04\x00@'
p1579
tp1580
Rp1581
s(S'diff-x-pos-8'
p1582
S'prev-action-3'
p1583
tp1584
g5
(g9
S'\xa9\xf1\x90\xb8c5\xec?'
p1585
tp1586
Rp1587
s(S'diff-x-pos--101'
p1588
S'action-1'
p1589
tp1590
g5
(g9
S'\xb2\xc8\x03\x03T\x96\xe9\xbf'
p1591
tp1592
Rp1593
s(S'diff-x-pos--110'
p1594
S'action-4'
p1595
tp1596
g5
(g9
S'\x8e\x8c\xc3l\xa6\x0f\xf3?'
p1597
tp1598
Rp1599
s(S'diff-x-pos-51'
p1600
S'action-4'
p1601
tp1602
g5
(g9
S'\x05\x04\xbe\xd1R\xd3\xdc\xbf'
p1603
tp1604
Rp1605
s(S'diff-x-pos--99'
p1606
S'prev-action-3'
p1607
tp1608
g5
(g9
S"'\xbe\xbfo*\x19\xd1\xbf"
p1609
tp1610
Rp1611
s(S'diff-x-pos--102'
p1612
S'prev-action-1'
p1613
tp1614
g5
(g9
S'\xbc\t\x941\x1fB\xe8\xbf'
p1615
tp1616
Rp1617
s(S'diff-x-pos--19'
p1618
S'prev-action-3'
p1619
tp1620
g5
(g9
S'\x16\xb8\x80n\xe3G\xe4?'
p1621
tp1622
Rp1623
s(S'diff-x-pos--88'
p1624
S'action-4'
p1625
tp1626
g5
(g9
S'\x0eh\xd1v\xe9I\xc7\xbf'
p1627
tp1628
Rp1629
s(S'diff-x-pos-12'
p1630
S'action-3'
p1631
tp1632
g5
(g9
S'\xa3\x81\x88F,h\xfd?'
p1633
tp1634
Rp1635
s(S'diff-x-pos-47'
p1636
S'action-1'
p1637
tp1638
g5
(g9
S'\xed\x08=b\xedw\xdd?'
p1639
tp1640
Rp1641
s(S'diff-x-pos--89'
p1642
S'prev-action-4'
p1643
tp1644
g5
(g9
S';\x81\xf5Vf9\xed?'
p1645
tp1646
Rp1647
s(S'diff-x-pos--95'
p1648
S'action-1'
p1649
tp1650
g5
(g9
S'8;\x91[0\x1c\xf0?'
p1651
tp1652
Rp1653
s(S'diff-x-pos--76'
p1654
S'prev-action-3'
p1655
tp1656
g5
(g9
S'\xcce\xef\xa3\xf0\x0b\xf7?'
p1657
tp1658
Rp1659
s(S'diff-x-pos--11'
p1660
S'prev-action-1'
p1661
tp1662
g5
(g9
S'\xf6\xe6\x90\xcd\xd8\xd8\xd1?'
p1663
tp1664
Rp1665
s(S'diff-x-pos--16'
p1666
S'action-1'
p1667
tp1668
g5
(g9
S'\x90\xe8\xc4\xb9B\xbc\xca\xbf'
p1669
tp1670
Rp1671
s(g696
S'prev-action-4'
p1672
tp1673
g5
(g9
S'\x8a\xaf\xb2\xd9\x059\xe4?'
p1674
tp1675
Rp1676
s(S'diff-x-pos-50'
p1677
S'prev-action-4'
p1678
tp1679
g5
(g9
S'BQY\x03\xba1\xf8\xbf'
p1680
tp1681
Rp1682
s(S'diff-x-pos--6'
p1683
S'prev-action-3'
p1684
tp1685
g5
(g9
S'\xc8S\xcf\xb7\xfbk\xe6?'
p1686
tp1687
Rp1688
s(S'diff-x-pos--121'
p1689
S'prev-action-3'
p1690
tp1691
g5
(g9
S'\x98\x83T\x8b\xefI\xd9?'
p1692
tp1693
Rp1694
s(S'diff-x-pos-53'
p1695
S'prev-action-1'
p1696
tp1697
g5
(g9
S'\xbfC\xa18s\x05\xd8?'
p1698
tp1699
Rp1700
s(S'diff-x-pos--48'
p1701
S'action-1'
p1702
tp1703
g5
(g9
S'\xf3!\x83#\xc8Y\xda?'
p1704
tp1705
Rp1706
s(S'diff-x-pos--45'
p1707
S'action-3'
p1708
tp1709
g5
(g9
S'\x82\xdd\t|>\xc7\xe3\xbf'
p1710
tp1711
Rp1712
s(S'diff-x-pos-6'
p1713
S'prev-action-4'
p1714
tp1715
g5
(g9
S'(\x85L\xf1[w\xdd?'
p1716
tp1717
Rp1718
s(S'diff-x-pos--77'
p1719
S'action-1'
p1720
tp1721
g5
(g9
S'\xe8\xb8Wl\x03\x02\xf1?'
p1722
tp1723
Rp1724
s(g1636
S'prev-action-3'
p1725
tp1726
g5
(g9
S'\x04\xb1p\x16H\x1d\xd4?'
p1727
tp1728
Rp1729
s(S'diff-x-pos--80'
p1730
S'prev-action-3'
p1731
tp1732
g5
(g9
S'b\\\xe6\xc5a\x01\x00\xc0'
p1733
tp1734
Rp1735
s(S'diff-x-pos-36'
p1736
S'prev-action-1'
p1737
tp1738
g5
(g9
S'@\xc9E\xa1\xe1\xb0\xbd\xbf'
p1739
tp1740
Rp1741
s(S'diff-x-pos--34'
p1742
S'prev-action-4'
p1743
tp1744
g5
(g9
S')b\x1a\x94\xc3<\xed\xbf'
p1745
tp1746
Rp1747
s(S'diff-x-pos-35'
p1748
S'prev-action-4'
p1749
tp1750
g5
(g9
S'~\xb3\x08jh\xf4\xeb\xbf'
p1751
tp1752
Rp1753
s(S'diff-x-pos--99'
p1754
S'prev-action-4'
p1755
tp1756
g5
(g9
S'H\xecK\x80\x9cW\xd4?'
p1757
tp1758
Rp1759
s(S'diff-x-pos-27'
p1760
S'prev-action-4'
p1761
tp1762
g5
(g9
S'k"\xc0\\\xd7(\xfe\xbf'
p1763
tp1764
Rp1765
s(S'diff-x-pos--45'
p1766
S'prev-action-3'
p1767
tp1768
g5
(g9
S'D\xeb\xf4OK7\xc7?'
p1769
tp1770
Rp1771
s(S'diff-x-pos--109'
p1772
S'prev-action-1'
p1773
tp1774
g5
(g9
S'\xad\xa0\xd8\x18\xa0<\xc8?'
p1775
tp1776
Rp1777
s(S'diff-x-pos--48'
p1778
S'prev-action-1'
p1779
tp1780
g5
(g9
S'\xf8\x83\x1d\xe1\xe8o\xfa?'
p1781
tp1782
Rp1783
s(S'action-1'
p1784
S'object-0-x-20.0'
p1785
tp1786
g5
(g9
S'\xa8\x96\xba\xbe\x8a\xf5\xf7?'
p1787
tp1788
Rp1789
s(S'diff-x-pos--60'
p1790
S'action-1'
p1791
tp1792
g5
(g9
S'\x02\xaeu\xeb\xa8@\xe2?'
p1793
tp1794
Rp1795
s(S'diff-x-pos--10'
p1796
S'action-4'
p1797
tp1798
g5
(g9
S'\xee\x87R\xb7y\x86\xe4?'
p1799
tp1800
Rp1801
s(S'object-1-dx--1'
p1802
g453
tp1803
g5
(g9
S'\x0b?\xf7!\x16\xd6\xe3?'
p1804
tp1805
Rp1806
s(S'diff-x-pos--114'
p1807
S'prev-action-1'
p1808
tp1809
g5
(g9
S'\xabq\x93\xd2\xf6\x85\xf1\xbf'
p1810
tp1811
Rp1812
s(S'diff-x-pos--40'
p1813
S'action-4'
p1814
tp1815
g5
(g9
S'\xeb\xbau\x899\xe2\xdf?'
p1816
tp1817
Rp1818
s(S'action-4'
p1819
S'object-0-x-30.0'
p1820
tp1821
g5
(g9
S'6F\x915\xc5\x83\xf7?'
p1822
tp1823
Rp1824
s(S'diff-x-pos--119'
p1825
S'prev-action-3'
p1826
tp1827
g5
(g9
S' \xd8M\xdfo\xa3\xf0?'
p1828
tp1829
Rp1830
s(S'diff-x-pos-16'
p1831
S'action-1'
p1832
tp1833
g5
(g9
S'\x96,\x9f\x81\x9e`\xd3?'
p1834
tp1835
Rp1836
s(S'diff-x-pos-39'
p1837
S'prev-action-1'
p1838
tp1839
g5
(g9
S'\x84\xac\x88{>\r\xea\xbf'
p1840
tp1841
Rp1842
s(S'diff-x-pos--12'
p1843
S'prev-action-1'
p1844
tp1845
g5
(g9
S'L\xe3\xd9}HP\xa5?'
p1846
tp1847
Rp1848
s(S'diff-x-pos--102'
p1849
S'action-1'
p1850
tp1851
g5
(g9
S'cx\xef/,G\xec\xbf'
p1852
tp1853
Rp1854
s(S'diff-x-pos--38'
p1855
S'action-4'
p1856
tp1857
g5
(g9
S'B\xb2\xec}\xab\x1f\x02@'
p1858
tp1859
Rp1860
s(S'action-3'
p1861
S'object-0-x-80.0'
p1862
tp1863
g5
(g9
S'T\xda8\xaej\xc8\xdb?'
p1864
tp1865
Rp1866
sg1069
g5
(g9
S'\x86\xe3\xa2\xdd\x1c\xfb\xe6\xbf'
p1867
tp1868
Rp1869
sg1022
g5
(g9
S'tq\xcav\xce6\xf8?'
p1870
tp1871
Rp1872
sS'diff-x-pos--41'
p1873
g5
(g9
S'\x88-f\xe9Y\x8a\x02@'
p1874
tp1875
Rp1876
sS'diff-x-pos--40'
p1877
g5
(g9
S'\xeb\xb2>\xc6\xa8\x0c\x01\xc0'
p1878
tp1879
Rp1880
sS'diff-x-pos--47'
p1881
g5
(g9
S'D\xfdf\xb2\xb2\xcb\xc0?'
p1882
tp1883
Rp1884
sg1381
g5
(g9
S'\xc7\xc3\x0b\x98\x19\x1a\xe4\xbf'
p1885
tp1886
Rp1887
sg1707
g5
(g9
S'\xce\x10U\x86\x0b\xe6\xc6?'
p1888
tp1889
Rp1890
sg1051
g5
(g9
S'\xb6\xd6,f\x85X\xb5?'
p1891
tp1892
Rp1893
s(S'diff-x-pos--1'
p1894
S'prev-action-3'
p1895
tp1896
g5
(g9
S'\xdc\xd8gM\xf0p\xf6?'
p1897
tp1898
Rp1899
sg1364
g5
(g9
S'\xcavG\xa9\x9d\x1d\xf1?'
p1900
tp1901
Rp1902
sS'diff-x-pos--48'
p1903
g5
(g9
S'08\x0c\x9f\x95\xd4\xf4?'
p1904
tp1905
Rp1906
s(S'diff-x-pos-67'
p1907
S'prev-action-1'
p1908
tp1909
g5
(g9
S'\x9a\xb3\xa3\x15\xe3\x86\xc7\xbf'
p1910
tp1911
Rp1912
s(S'diff-x-pos--53'
p1913
S'action-3'
p1914
tp1915
g5
(g9
S'F\x05.V\xee\x9a\xe6\xbf'
p1916
tp1917
Rp1918
s(g746
S'prev-action-1'
p1919
tp1920
g5
(g9
S'Z\x9f&c\x19\x1b\xc9\xbf'
p1921
tp1922
Rp1923
s(S'diff-x-pos--111'
p1924
S'action-1'
p1925
tp1926
g5
(g9
S'\xacE\x80\xa0\x99\xb6\xe4\xbf'
p1927
tp1928
Rp1929
s(S'diff-x-pos--108'
p1930
S'action-3'
p1931
tp1932
g5
(g9
S'\xec[n,te\n\xc0'
p1933
tp1934
Rp1935
s(S'diff-x-pos-53'
p1936
S'action-4'
p1937
tp1938
g5
(g9
S'\tG\xc6l\xa2r\x05\xc0'
p1939
tp1940
Rp1941
s(g1023
S'object-0-x-20.0'
p1942
tp1943
g5
(g9
S'\xba$\xd0\xe8\x970\x06@'
p1944
tp1945
Rp1946
s(g477
S'prev-action-4'
p1947
tp1948
g5
(g9
S'\xfe>\xf3\x7f\xe6i\xcc\xbf'
p1949
tp1950
Rp1951
s(S'object-1-dx-1'
p1952
S'prev-action-4'
p1953
tp1954
g5
(g9
S'\xe4(\xfb\xcf\xc2\x92\xee?'
p1955
tp1956
Rp1957
s(S'diff-x-pos-62'
p1958
S'prev-action-3'
p1959
tp1960
g5
(g9
S'\xe7\xe8\xd13\xe30\xd5?'
p1961
tp1962
Rp1963
s(S'diff-x-pos-32'
p1964
S'prev-action-3'
p1965
tp1966
g5
(g9
S'\xa9z\xc70\xc7\xef\xe9?'
p1967
tp1968
Rp1969
s(S'diff-x-pos--16'
p1970
S'prev-action-4'
p1971
tp1972
g5
(g9
S'D\xfc\x84\x9e?\x06\xcd?'
p1973
tp1974
Rp1975
s(S'diff-x-pos-20'
p1976
S'action-3'
p1977
tp1978
g5
(g9
S'r5P\x0cJo\xe9?'
p1979
tp1980
Rp1981
s(S'diff-x-pos--72'
p1982
S'action-1'
p1983
tp1984
g5
(g9
S'\x0b{"\x11\xb32\xf4\xbf'
p1985
tp1986
Rp1987
s(S'diff-x-pos--76'
p1988
S'action-4'
p1989
tp1990
g5
(g9
S'\xcc\xd0\xf8\xb4\xbd\x8e\xd7?'
p1991
tp1992
Rp1993
s(S'diff-x-pos--106'
p1994
S'prev-action-3'
p1995
tp1996
g5
(g9
S'\x16\x07\x1ft1K\xd3\xbf'
p1997
tp1998
Rp1999
s(g1877
g1861
tp2000
g5
(g9
S'\x18\xb2\x90\r\x1f\xf5\xfb\xbf'
p2001
tp2002
Rp2003
sg589
g5
(g9
S'\x8e\xd4\x0f~\x96\xc3\xe4?'
p2004
tp2005
Rp2006
s(S'diff-x-pos--28'
p2007
S'prev-action-4'
p2008
tp2009
g5
(g9
S'\xa13M\xb1\x13\x85\xd6\xbf'
p2010
tp2011
Rp2012
s(S'diff-x-pos-49'
p2013
S'action-1'
p2014
tp2015
g5
(g9
S'\xd4\xe2\x8a\xfc8\\\xfa\xbf'
p2016
tp2017
Rp2018
s(S'diff-x-pos--107'
p2019
S'prev-action-4'
p2020
tp2021
g5
(g9
S'\xb8n\xaeic\x81\xee?'
p2022
tp2023
Rp2024
s(S'diff-x-pos--103'
p2025
S'prev-action-4'
p2026
tp2027
g5
(g9
S'22\xa6\x1drg\xe4\xbf'
p2028
tp2029
Rp2030
s(S'diff-x-pos--64'
p2031
S'action-3'
p2032
tp2033
g5
(g9
S'\xc4\x9b\x9f5\xde2\xf5\xbf'
p2034
tp2035
Rp2036
s(S'diff-x-pos--83'
p2037
S'action-3'
p2038
tp2039
g5
(g9
S'\x85L\x87\xc2\x87\x8d\xf6?'
p2040
tp2041
Rp2042
s(S'diff-x-pos--111'
p2043
S'prev-action-4'
p2044
tp2045
g5
(g9
S'\x02\xdd\x9a\xaf\x18\x12\xe0\xbf'
p2046
tp2047
Rp2048
s(S'diff-x-pos-10'
p2049
S'prev-action-4'
p2050
tp2051
g5
(g9
S'\xf4\xd5\xe3t\xad\n\xe0\xbf'
p2052
tp2053
Rp2054
sg1907
g5
(g9
S'\x9a\xb3\xa3\x15\xe3\x86\xc7\xbf'
p2055
tp2056
Rp2057
s(S'diff-x-pos--62'
p2058
S'prev-action-1'
p2059
tp2060
g5
(g9
S'\xc0\xe6\xed*\x13m\xeb\xbf'
p2061
tp2062
Rp2063
s(S'diff-x-pos--110'
p2064
S'prev-action-3'
p2065
tp2066
g5
(g9
S"'$}'\xe7}\xeb?"
p2067
tp2068
Rp2069
sS'diff-x-pos-66'
p2070
g5
(g9
S'\x1a\xe6D\xb2\xa2@\xd9\xbf'
p2071
tp2072
Rp2073
sg477
g5
(g9
S'g\xe6\xca\x08\x0c\xb9\xf9\xbf'
p2074
tp2075
Rp2076
sg255
g5
(g9
S'\x8a\xf2\xe7G\xc25\xe8\xbf'
p2077
tp2078
Rp2079
sS'diff-x-pos--34'
p2080
g5
(g9
S'\xe6\n\xa5dO\xde\xe0?'
p2081
tp2082
Rp2083
sg87
g5
(g9
S'\xd6\xec\xa4w6!\xd6\xbf'
p2084
tp2085
Rp2086
sS'diff-x-pos--32'
p2087
g5
(g9
S'\\\xe6Bw\xa4H\xfa\xbf'
p2088
tp2089
Rp2090
sg1016
g5
(g9
S'=\x89\xee0\xe0\x90\xe3?'
p2091
tp2092
Rp2093
sg308
g5
(g9
S'\x9eQ\xff\x819<\xf0?'
p2094
tp2095
Rp2096
sS'diff-x-pos--31'
p2097
g5
(g9
S'\xc7A\xae\xa6\xf5\xca\xe8\xbf'
p2098
tp2099
Rp2100
s(S'diff-x-pos-22'
p2101
S'prev-action-1'
p2102
tp2103
g5
(g9
S'74\x05\x90\xf6\x1d\xe7\xbf'
p2104
tp2105
Rp2106
sS'diff-x-pos--38'
p2107
g5
(g9
S'\x9bn\x94\xe5\xbc\xe3\xe8\xbf'
p2108
tp2109
Rp2110
s(S'diff-x-pos--105'
p2111
S'action-1'
p2112
tp2113
g5
(g9
S'\x99\x95!0\xe2p\xfc\xbf'
p2114
tp2115
Rp2116
s(S'diff-x-pos--82'
p2117
S'action-3'
p2118
tp2119
g5
(g9
S'\x12\x0c\xd1\x10P\xf5\x05\xc0'
p2120
tp2121
Rp2122
sS'diff-x-pos-29'
p2123
g5
(g9
S'83\xad\x06A+\xee\xbf'
p2124
tp2125
Rp2126
sS'diff-x-pos-28'
p2127
g5
(g9
S'\xf8\xe5\x99n\xa0>\xa7?'
p2128
tp2129
Rp2130
s(g525
S'prev-action-3'
p2131
tp2132
g5
(g9
S'73\x94\x116\x9c\xf1?'
p2133
tp2134
Rp2135
sg338
g5
(g9
S'@\\j\xc4w!\x9a\xbf'
p2136
tp2137
Rp2138
sg708
g5
(g9
S'\xd0\xdf\x1c(<\xa5\xf5?'
p2139
tp2140
Rp2141
sS'diff-x-pos-24'
p2142
g5
(g9
S'\x1eLj\x06\xc3\x19\xd8?'
p2143
tp2144
Rp2145
sS'diff-x-pos-23'
p2146
g5
(g9
S'\xacW\xb9\xd2\x06\xc7\xe1\xbf'
p2147
tp2148
Rp2149
sg1559
g5
(g9
S'\x00\xadaW\xc8\x84\xf7?'
p2150
tp2151
Rp2152
sg153
g5
(g9
S'\x02V\xb4\x05\xbeD\xe2?'
p2153
tp2154
Rp2155
sg1976
g5
(g9
S'\x0c\xc13\x92\x8cT\xd4\xbf'
p2156
tp2157
Rp2158
sS'diff-x-pos--18'
p2159
g5
(g9
S'\x94\xc7NHo\xb6\xc7?'
p2160
tp2161
Rp2162
s(S'diff-x-pos--73'
p2163
S'prev-action-3'
p2164
tp2165
g5
(g9
S'\xb6\x02\x07\xdb""\xda?'
p2166
tp2167
Rp2168
s(S'diff-x-pos-46'
p2169
S'action-3'
p2170
tp2171
g5
(g9
S' \xf4\x0fe\x0c\xfd\x9d?'
p2172
tp2173
Rp2174
s(S'diff-x-pos--54'
p2175
S'action-3'
p2176
tp2177
g5
(g9
S"\x84\xf8'\xf9\xfd\xe2\xe0?"
p2178
tp2179
Rp2180
s(g598
S'prev-action-4'
p2181
tp2182
g5
(g9
S'<\x80:*\xfb\xf3\xc8\xbf'
p2183
tp2184
Rp2185
s(S'diff-x-pos--17'
p2186
S'prev-action-1'
p2187
tp2188
g5
(g9
S'\x1aP\xbf8}w\xf7?'
p2189
tp2190
Rp2191
s(S'diff-x-pos-5'
p2192
g398
tp2193
g5
(g9
S'R##\x94\xc1&\x01@'
p2194
tp2195
Rp2196
s(S'diff-x-pos-3'
p2197
S'action-4'
p2198
tp2199
g5
(g9
S'\x8a\xb2\xc45\xd1\x97\xf5\xbf'
p2200
tp2201
Rp2202
s(S'diff-x-pos--29'
p2203
S'action-3'
p2204
tp2205
g5
(g9
S'\x8a\xa5\x90\xf0i\xe4\xf7?'
p2206
tp2207
Rp2208
s(S'diff-x-pos-0'
p2209
S'prev-action-3'
p2210
tp2211
g5
(g9
S'0{\xdc(v\xd5\xa5\xbf'
p2212
tp2213
Rp2214
s(S'action-4'
p2215
S'object-0-x-40.0'
p2216
tp2217
g5
(g9
S'\xf2\xae=\xdf\xfd\x84\xf7?'
p2218
tp2219
Rp2220
s(S'diff-x-pos-41'
p2221
S'prev-action-1'
p2222
tp2223
g5
(g9
S'\\\x80\xc6\xe1\x1e\x99\xd7?'
p2224
tp2225
Rp2226
s(g272
S'prev-action-1'
p2227
tp2228
g5
(g9
S'\xd4BN\xe6\x80\xef\xf3?'
p2229
tp2230
Rp2231
s(S'diff-x-pos-64'
p2232
S'action-4'
p2233
tp2234
g5
(g9
S'M\xe6\xdaRIs\xd1?'
p2235
tp2236
Rp2237
s(S'diff-x-pos--20'
p2238
S'prev-action-1'
p2239
tp2240
g5
(g9
S'\x96"jL\x1cT\xec?'
p2241
tp2242
Rp2243
s(S'diff-x-pos--79'
p2244
S'prev-action-1'
p2245
tp2246
g5
(g9
S'u\x1a.\xcc\xdb6\xf8\xbf'
p2247
tp2248
Rp2249
s(S'diff-x-pos--44'
p2250
S'action-1'
p2251
tp2252
g5
(g9
S'1;\xe0=\x05\xe9\xe2\xbf'
p2253
tp2254
Rp2255
s(S'diff-x-pos--52'
p2256
S'prev-action-4'
p2257
tp2258
g5
(g9
S'A\xde]\x05\xe8J\xd7\xbf'
p2259
tp2260
Rp2261
s(S'diff-x-pos--100'
p2262
S'action-1'
p2263
tp2264
g5
(g9
S'o_\xf9\x00)t\xd9\xbf'
p2265
tp2266
Rp2267
s(S'diff-x-pos--81'
p2268
S'prev-action-1'
p2269
tp2270
g5
(g9
S'8\xa1\x17\xec\xe2\x0e\xe5?'
p2271
tp2272
Rp2273
s(S'diff-x-pos--66'
p2274
S'action-4'
p2275
tp2276
g5
(g9
S'\xc5Q\x8e!\xca\xdf\x01@'
p2277
tp2278
Rp2279
s(S'diff-x-pos-60'
p2280
S'action-4'
p2281
tp2282
g5
(g9
S'~\xad\x87\xef-P\xf4\xbf'
p2283
tp2284
Rp2285
s(S'diff-x-pos--58'
p2286
S'action-4'
p2287
tp2288
g5
(g9
S'\xd1V\xc0t\xef\xdb\xf7?'
p2289
tp2290
Rp2291
s(S'diff-x-pos--98'
p2292
S'prev-action-4'
p2293
tp2294
g5
(g9
S'\x1a\xc3>\xb7_w\xee\xbf'
p2295
tp2296
Rp2297
s(S'diff-x-pos-58'
p2298
S'prev-action-1'
p2299
tp2300
g5
(g9
S'\x90\x83i\xbb\x9e\xef\xbe?'
p2301
tp2302
Rp2303
s(S'diff-x-pos--113'
p2304
S'action-1'
p2305
tp2306
g5
(g9
S'\xb1r\xc0\xc7\x06\xc8\xe2\xbf'
p2307
tp2308
Rp2309
s(S'diff-x-pos-50'
p2310
S'action-3'
p2311
tp2312
g5
(g9
S'\x8b1[\xf6\xa9\xfc\xfa?'
p2313
tp2314
Rp2315
s(S'diff-x-pos-25'
p2316
S'prev-action-3'
p2317
tp2318
g5
(g9
S'6\xf2i\x12\xe2T\xf4?'
p2319
tp2320
Rp2321
s(S'diff-x-pos--73'
p2322
S'prev-action-4'
p2323
tp2324
g5
(g9
S'*\x03\xe0v\x93\xe7\xd6?'
p2325
tp2326
Rp2327
s(g513
S'action-3'
p2328
tp2329
g5
(g9
S'\x10FE"\xd6F\xeb?'
p2330
tp2331
Rp2332
s(S'diff-x-pos--89'
p2333
S'action-3'
p2334
tp2335
g5
(g9
S'H\x9d\xbane\x91\xd3?'
p2336
tp2337
Rp2338
sg208
g5
(g9
S'\x0fp\xf7~\xcf,\xe8\xbf'
p2339
tp2340
Rp2341
s(S'diff-x-pos-44'
p2342
S'action-4'
p2343
tp2344
g5
(g9
S'\xba.q\xb7\xa6\xcb\x0b\xc0'
p2345
tp2346
Rp2347
s(S'diff-x-pos--70'
p2348
S'action-4'
p2349
tp2350
g5
(g9
S'\x18f\xba\xcb\xf0\xd0\x01@'
p2351
tp2352
Rp2353
s(S'diff-x-pos--88'
p2354
S'prev-action-3'
p2355
tp2356
g5
(g9
S'\xca\xf4\x81T\x03;\xe8?'
p2357
tp2358
Rp2359
s(S'diff-x-pos-61'
p2360
S'action-3'
p2361
tp2362
g5
(g9
S'P\xc4\xc6\x9d\x18\x8b\xcf?'
p2363
tp2364
Rp2365
s(S'action-3'
p2366
S'object-0-x-0.0'
p2367
tp2368
g5
(g9
S'?$$\xf7\xae\x08\x05@'
p2369
tp2370
Rp2371
s(S'diff-x-pos--91'
p2372
S'prev-action-4'
p2373
tp2374
g5
(g9
S']\x89w\x0b\xe9\xa7\xdb?'
p2375
tp2376
Rp2377
s(g1600
S'prev-action-3'
p2378
tp2379
g5
(g9
S'\x80\xf0M\xe9\x11\x12\xf3?'
p2380
tp2381
Rp2382
s(S'diff-x-pos--50'
p2383
S'action-1'
p2384
tp2385
g5
(g9
S'\x06\x95\xd6\xd5\xb5\xa8\xe5?'
p2386
tp2387
Rp2388
s(S'diff-x-pos--78'
p2389
S'prev-action-1'
p2390
tp2391
g5
(g9
S'\xd0z\xc0\x83n\xd2\xe8?'
p2392
tp2393
Rp2394
s(g2038
S'object-1-x-120.0'
p2395
tp2396
g5
(g9
S'%\xfflK\xc63\xec\xbf'
p2397
tp2398
Rp2399
s(S'diff-x-pos--25'
p2400
S'action-1'
p2401
tp2402
g5
(g9
S' \xfb~\xf4\xa2\x19\xaf\xbf'
p2403
tp2404
Rp2405
s(S'diff-x-pos-7'
p2406
S'prev-action-3'
p2407
tp2408
g5
(g9
S'\x00Z+ ]\xe6\xd0?'
p2409
tp2410
Rp2411
s(S'diff-x-pos-60'
p2412
S'action-3'
p2413
tp2414
g5
(g9
S'\xcc\xc5p\x15\x8b\xd0\xc1?'
p2415
tp2416
Rp2417
s(S'diff-x-pos--57'
p2418
S'action-3'
p2419
tp2420
g5
(g9
S'\x8a\xdai?\xafO\xec?'
p2421
tp2422
Rp2423
s(g1069
S'action-1'
p2424
tp2425
g5
(g9
S's\r"5\xef\xc8\xdc\xbf'
p2426
tp2427
Rp2428
s(S'diff-x-pos-11'
p2429
S'prev-action-1'
p2430
tp2431
g5
(g9
S'\xad\x9e\xbf\x94&\x13\xe9\xbf'
p2432
tp2433
Rp2434
s(g1512
S'prev-action-4'
p2435
tp2436
g5
(g9
S'HM\xc99\xd2_\xe5\xbf'
p2437
tp2438
Rp2439
s(g2389
S'action-1'
p2440
tp2441
g5
(g9
S'\x9e\xe2\xb2E\xd8\x16\xd2?'
p2442
tp2443
Rp2444
s(g1010
S'prev-action-4'
p2445
tp2446
g5
(g9
S'\xc2\xe8%R\xefd\xe4?'
p2447
tp2448
Rp2449
s(S'diff-x-pos--11'
p2450
S'action-3'
p2451
tp2452
g5
(g9
S'E1ADQ\xdb\xed?'
p2453
tp2454
Rp2455
s(S'diff-x-pos--92'
p2456
S'prev-action-4'
p2457
tp2458
g5
(g9
S'\xe0\xc2d\xab\xc4\xc0\x8f\xbf'
p2459
tp2460
Rp2461
s(S'action-1'
p2462
g449
tp2463
g5
(g9
S"'\xea\x1b-\x91S\x15@"
p2464
tp2465
Rp2466
s(S'diff-x-pos--101'
p2467
S'action-4'
p2468
tp2469
g5
(g9
S'&\xfb\xfe\xbd\x1d\x95\xf3?'
p2470
tp2471
Rp2472
s(S'diff-x-pos-48'
p2473
S'prev-action-4'
p2474
tp2475
g5
(g9
S'\x94\xccX_\x91O\xda\xbf'
p2476
tp2477
Rp2478
s(S'diff-x-pos--42'
p2479
S'prev-action-3'
p2480
tp2481
g5
(g9
S'\xf4\x8cX\x9f\x84\xbe\xce\xbf'
p2482
tp2483
Rp2484
s(S'diff-x-pos--118'
p2485
S'action-1'
p2486
tp2487
g5
(g9
S'0\xc9\x9a\x87\xa1\x7f\xbb?'
p2488
tp2489
Rp2490
s(S'diff-x-pos-61'
p2491
S'action-4'
p2492
tp2493
g5
(g9
S'\xf7\xc9\x07\\7\xb5\xf7\xbf'
p2494
tp2495
Rp2496
s(S'diff-x-pos--117'
p2497
S'action-3'
p2498
tp2499
g5
(g9
S'\xa0F\x19\x1d\x9f\xf3\xd9?'
p2500
tp2501
Rp2502
s(S'diff-x-pos--9'
p2503
S'prev-action-3'
p2504
tp2505
g5
(g9
S'\xce\\\x1b\xbb\x88\xee\xd6\xbf'
p2506
tp2507
Rp2508
s(S'diff-x-pos--18'
p2509
S'action-3'
p2510
tp2511
g5
(g9
S'\x18=\x99\xb9\x1d4\xcf\xbf'
p2512
tp2513
Rp2514
s(S'action-1'
p2515
S'object-0-x-90.0'
p2516
tp2517
g5
(g9
S'\xfc\x06\xc6\xbfC1\xf3?'
p2518
tp2519
Rp2520
s(S'diff-x-pos-11'
p2521
S'action-4'
p2522
tp2523
g5
(g9
S'\x84\x82\xf2\xe8O+\xf4\xbf'
p2524
tp2525
Rp2526
s(S'diff-x-pos--113'
p2527
S'prev-action-1'
p2528
tp2529
g5
(g9
S'n\xc2\xdc\xcd\xca\xec\xd1\xbf'
p2530
tp2531
Rp2532
s(g2298
S'action-1'
p2533
tp2534
g5
(g9
S'\x81\x8b{\xde\xe6\xcf\xe3?'
p2535
tp2536
Rp2537
s(S'diff-x-pos--46'
p2538
S'action-1'
p2539
tp2540
g5
(g9
S'z\xf1\x89\x91\xa8!\xfa\xbf'
p2541
tp2542
Rp2543
s(S'diff-x-pos-28'
p2544
S'prev-action-1'
p2545
tp2546
g5
(g9
S'\xc0\xec\xed\x9d<\x83\xfd\xbf'
p2547
tp2548
Rp2549
s(S'diff-x-pos-56'
p2550
S'prev-action-1'
p2551
tp2552
g5
(g9
S'\x88\xe8L\x8cB-\xb1?'
p2553
tp2554
Rp2555
s(S'diff-x-pos-56'
p2556
S'action-3'
p2557
tp2558
g5
(g9
S'\xf7\x9a\xb6C5\xca\xfa?'
p2559
tp2560
Rp2561
s(g2538
S'prev-action-3'
p2562
tp2563
g5
(g9
S'\xc2_\xae\x1dM\xb6\xe2\xbf'
p2564
tp2565
Rp2566
s(S'diff-x-pos--81'
p2567
S'action-1'
p2568
tp2569
g5
(g9
S'E/\xd65\xee\xfe\xd2?'
p2570
tp2571
Rp2572
s(g147
S'prev-action-1'
p2573
tp2574
g5
(g9
S'\rX\xa6\x02\x8a\x83\xdc\xbf'
p2575
tp2576
Rp2577
s(S'diff-x-pos--52'
p2578
S'action-4'
p2579
tp2580
g5
(g9
S'\xb1\xac\x8e-\xdcg\xfb?'
p2581
tp2582
Rp2583
s(g750
S'prev-action-4'
p2584
tp2585
g5
(g9
S'\x81\x92\x06\xfa\xec\x80\xf0?'
p2586
tp2587
Rp2588
s(S'diff-x-pos-68'
p2589
S'prev-action-4'
p2590
tp2591
g5
(g9
S'\xe7\x995m\xf3G\xeb\xbf'
p2592
tp2593
Rp2594
s(g589
S'prev-action-4'
p2595
tp2596
g5
(g9
S'Z\xa9Q\\\x1f\xdf\xe2?'
p2597
tp2598
Rp2599
s(g962
S'prev-action-4'
p2600
tp2601
g5
(g9
S'vJ_\x13\xb0\xfd\xe3\xbf'
p2602
tp2603
Rp2604
s(S'diff-x-pos-10'
p2605
S'action-3'
p2606
tp2607
g5
(g9
S'\xb0\xd1\x14f\x89\xb7\xb5\xbf'
p2608
tp2609
Rp2610
s(S'diff-x-pos-18'
p2611
S'prev-action-4'
p2612
tp2613
g5
(g9
S'\xbcx\xc9J\x16\xa4\xcc?'
p2614
tp2615
Rp2616
s(S'diff-x-pos--67'
p2617
S'prev-action-3'
p2618
tp2619
g5
(g9
S'\xd7\xebEF\xf0\xd3\xf8\xbf'
p2620
tp2621
Rp2622
s(S'diff-x-pos--117'
p2623
S'prev-action-1'
p2624
tp2625
g5
(g9
S'\xb8C#/\x0f\xf7\xf5?'
p2626
tp2627
Rp2628
s(g2485
S'prev-action-3'
p2629
tp2630
g5
(g9
S'\x9c\x8e\xd1\x0f\xe7\x1e\xef?'
p2631
tp2632
Rp2633
s(g1022
S'prev-action-4'
p2634
tp2635
g5
(g9
S'\xa7\xd0\xc6iV\xac\x01@'
p2636
tp2637
Rp2638
s(S'diff-x-pos-21'
p2639
S'action-4'
p2640
tp2641
g5
(g9
S'\xc5\x9dx\xf4\x8e\xaa\xf4\xbf'
p2642
tp2643
Rp2644
s(S'diff-x-pos--107'
p2645
S'action-3'
p2646
tp2647
g5
(g9
S'D\xd6\x9b?F\xa9\xbd?'
p2648
tp2649
Rp2650
s(S'diff-x-pos--71'
p2651
S'action-1'
p2652
tp2653
g5
(g9
S'\xbc,`\x07bA\xf2\xbf'
p2654
tp2655
Rp2656
s(g2175
S'prev-action-3'
p2657
tp2658
g5
(g9
S'\x10\xe1\x08\x0c\xedd\xb2?'
p2659
tp2660
Rp2661
s(S'diff-x-pos-31'
p2662
S'action-3'
p2663
tp2664
g5
(g9
S'\x8c\x1c]\x95XH\xe1?'
p2665
tp2666
Rp2667
s(g2169
S'prev-action-3'
p2668
tp2669
g5
(g9
S'\xe8mB\xb7\xbf\xbb\xb6\xbf'
p2670
tp2671
Rp2672
s(g954
S'action-3'
p2673
tp2674
g5
(g9
S'c\xb8\xc5O\xbd\xcf\xe5?'
p2675
tp2676
Rp2677
s(g207
S'prev-action-4'
p2678
tp2679
g5
(g9
S'e\x19-\xfc\xc1#\x17@'
p2680
tp2681
Rp2682
s(S'diff-x-pos--56'
p2683
S'action-1'
p2684
tp2685
g5
(g9
S'\xc7\x06a\xdc\xe8N\xf8\xbf'
p2686
tp2687
Rp2688
s(S'diff-x-pos--66'
p2689
S'prev-action-3'
p2690
tp2691
g5
(g9
S'\xf0\xe8\xcd\xf3\x05\x80\xb6\xbf'
p2692
tp2693
Rp2694
s(S'diff-x-pos--51'
p2695
S'prev-action-3'
p2696
tp2697
g5
(g9
S'\x08\xf9\x92\xde\x9b\xdb\xdb?'
p2698
tp2699
Rp2700
s(S'diff-x-pos-32'
p2701
S'action-1'
p2702
tp2703
g5
(g9
S'\xc0\xc6\x94lB\xf1\xc7\xbf'
p2704
tp2705
Rp2706
s(S'diff-x-pos-7'
p2707
S'action-1'
p2708
tp2709
g5
(g9
S'\x95\xddh0/\xc7\xf9?'
p2710
tp2711
Rp2712
s(g2101
S'action-1'
p2713
tp2714
g5
(g9
S'^\n\xb9\xfa\xf1\xf2\xdd?'
p2715
tp2716
Rp2717
s(S'object-0-dx-1'
p2718
g467
tp2719
g5
(g9
S'\xb6e\xd0\x0e\xa3l\xf8?'
p2720
tp2721
Rp2722
s(S'diff-x-pos--68'
p2723
S'prev-action-3'
p2724
tp2725
g5
(g9
S'>b\xdc\xdc\x89\x06\xdf\xbf'
p2726
tp2727
Rp2728
s(S'diff-x-pos--50'
p2729
S'prev-action-3'
p2730
tp2731
g5
(g9
S'\x1b6\xd5h\xa9{\xd5?'
p2732
tp2733
Rp2734
sg1405
g5
(g9
S'\xd6\xff\xa1\xdd&\xb5\xf5\xbf'
p2735
tp2736
Rp2737
sS'diff-x-pos--104'
p2738
g5
(g9
S'\xb42\xa4\xf9\xdc\xa4\xf3\xbf'
p2739
tp2740
Rp2741
sg2645
g5
(g9
S'6\x7f\x13H\x03\x83\xc5\xbf'
p2742
tp2743
Rp2744
s(S'diff-x-pos--79'
p2745
S'action-4'
p2746
tp2747
g5
(g9
S'"\xfa|$m\xfc\x00@'
p2748
tp2749
Rp2750
sg1588
g5
(g9
S'y\x90\r\xa0\xf4\xd7\xfe\xbf'
p2751
tp2752
Rp2753
sg2262
g5
(g9
S"\xfc'd\xf0\xd5\x88\xe3\xbf"
p2754
tp2755
Rp2756
s(g903
S'action-4'
p2757
tp2758
g5
(g9
S'\xd8\x0e\rh#\xc7\xb1\xbf'
p2759
tp2760
Rp2761
sg779
g5
(g9
S'\\\xde\xdeh\xb3K\xc3\xbf'
p2762
tp2763
Rp2764
s(S'diff-x-pos--102'
p2765
S'prev-action-4'
p2766
tp2767
g5
(g9
S'\xf8\x04\x02N/\x9d\xa3\xbf'
p2768
tp2769
Rp2770
sg1772
g5
(g9
S'k\x8b*1\xbb\xef\xe8\xbf'
p2771
tp2772
Rp2773
sS'diff-x-pos--108'
p2774
g5
(g9
S'e\xc6\x15\x8e\x8b\xff\xd1\xbf'
p2775
tp2776
Rp2777
s(g2360
S'prev-action-1'
p2778
tp2779
g5
(g9
S'\x00\xe8v\rG\xf3\xc5?'
p2780
tp2781
Rp2782
s(S'diff-x-pos--88'
p2783
S'action-1'
p2784
tp2785
g5
(g9
S'\x94f\x8e\xcb\xd5\xd1\x00@'
p2786
tp2787
Rp2788
s(S'object-0-dx--1'
p2789
S'action-4'
p2790
tp2791
g5
(g9
S'*\xe6#6 `\x01@'
p2792
tp2793
Rp2794
s(g869
S'action-4'
p2795
tp2796
g5
(g9
S'\xb5X\xcb\xe6\xf6\x80\xd1\xbf'
p2797
tp2798
Rp2799
s(g857
S'action-4'
p2800
tp2801
g5
(g9
S'\xbc\xf7\x03oI\xf1\xca?'
p2802
tp2803
Rp2804
s(g2333
S'prev-action-1'
p2805
tp2806
g5
(g9
S'\xd3ff\x97\xd4\xa2\xf4?'
p2807
tp2808
Rp2809
s(S'diff-x-pos-34'
p2810
S'action-1'
p2811
tp2812
g5
(g9
S'\xb7\xa6\x8a\x1f\xf68\xc1\xbf'
p2813
tp2814
Rp2815
s(S'diff-x-pos-33'
p2816
S'action-1'
p2817
tp2818
g5
(g9
S'\x06\x1b\xc73\xa3\xe6\xdb?'
p2819
tp2820
Rp2821
s(S'diff-x-pos--16'
p2822
S'action-4'
p2823
tp2824
g5
(g9
S'`\xce\xb4in\xdc\xbb\xbf'
p2825
tp2826
Rp2827
s(S'diff-x-pos--90'
p2828
S'prev-action-4'
p2829
tp2830
g5
(g9
S'qBo\x1d\xd9\x1a\xe0\xbf'
p2831
tp2832
Rp2833
s(S'diff-x-pos--10'
p2834
S'prev-action-1'
p2835
tp2836
g5
(g9
S'LW\x81N\xd0C\xe6?'
p2837
tp2838
Rp2839
s(S'diff-x-pos-50'
p2840
S'prev-action-1'
p2841
tp2842
g5
(g9
S'\xb9\x95N\xf03$\xfb?'
p2843
tp2844
Rp2845
s(S'diff-x-pos--121'
p2846
S'prev-action-4'
p2847
tp2848
g5
(g9
S'\x80\xe4\x7f0b?Y?'
p2849
tp2850
Rp2851
s(g1936
S'prev-action-4'
p2852
tp2853
g5
(g9
S'\x8e\x19\xae \xd8\xc9\xee\xbf'
p2854
tp2855
Rp2856
s(S'diff-x-pos-45'
p2857
S'prev-action-4'
p2858
tp2859
g5
(g9
S')Rp;}\xa0\xdb\xbf'
p2860
tp2861
Rp2862
s(g1913
S'prev-action-3'
p2863
tp2864
g5
(g9
S'\xedum\xd8g\xc9\xe3?'
p2865
tp2866
Rp2867
s(S'diff-x-pos--8'
p2868
S'action-4'
p2869
tp2870
g5
(g9
S'\xe8\x9d\x845\xbe\xd2\xdf\xbf'
p2871
tp2872
Rp2873
s(S'diff-x-pos--1'
p2874
S'action-3'
p2875
tp2876
g5
(g9
S'x\x94>\x8b\xe1q\xf8\xbf'
p2877
tp2878
Rp2879
s(g2087
S'action-4'
p2880
tp2881
g5
(g9
S'\xa4K\xe8\x99S9\xda\xbf'
p2882
tp2883
Rp2884
s(S'diff-x-pos--64'
p2885
g449
tp2886
g5
(g9
S'\x00\x00\x00\x00\x00\x00\x00\x00'
p2887
tp2888
Rp2889
s(g795
S'prev-action-4'
p2890
tp2891
g5
(g9
S'f7r\x0f\t\r\xf2?'
p2892
tp2893
Rp2894
s(S'diff-x-pos--100'
p2895
S'prev-action-3'
p2896
tp2897
g5
(g9
S'P\xee\xcdl\xe0\xbf\x8b?'
p2898
tp2899
Rp2900
s(S'action-1'
p2901
S'object-1-x-90.0'
p2902
tp2903
g5
(g9
S't\xc8\xc5\x1b\x9e\xa6\xfa?'
p2904
tp2905
Rp2906
s(g421
S'object-1-x-90.0'
p2907
tp2908
g5
(g9
S'\x02\xca\xb3\x1c\x0e)\xf6\xbf'
p2909
tp2910
Rp2911
s(S'diff-x-pos--91'
p2912
S'action-1'
p2913
tp2914
g5
(g9
S'\x9d\x82Z\x8f\xc0\x8c\xea\xbf'
p2915
tp2916
Rp2917
s(S'diff-x-pos-38'
p2918
S'prev-action-4'
p2919
tp2920
g5
(g9
S'\xa2\xfc\x86\xf9\xd45\xda\xbf'
p2921
tp2922
Rp2923
s(S'diff-x-pos--20'
p2924
S'action-3'
p2925
tp2926
g5
(g9
S'\xaa\x90\xbaf\x1d\xca\xe8?'
p2927
tp2928
Rp2929
s(g1843
S'action-1'
p2930
tp2931
g5
(g9
S'f\x0c\x80\xcfT\xb0\xd8?'
p2932
tp2933
Rp2934
s(S'diff-x-pos-39'
p2935
S'action-1'
p2936
tp2937
g5
(g9
S'v\xa4\xda\x91\xd5\xf8\xe1?'
p2938
tp2939
Rp2940
s(S'diff-x-pos-0'
p2941
S'action-1'
p2942
tp2943
g5
(g9
S'\x86\xde\xd5E6B\xf1\xbf'
p2944
tp2945
Rp2946
s(g463
S'prev-action-4'
p2947
tp2948
g5
(g9
S'\x0e\xac\xd4[\x80\xc9\xde?'
p2949
tp2950
Rp2951
s(g2462
S'object-0-x-40.0'
p2952
tp2953
g5
(g9
S'1?\x0b\x89\xc3\xc4\xd0?'
p2954
tp2955
Rp2956
s(S'diff-x-pos-49'
p2957
S'prev-action-4'
p2958
tp2959
g5
(g9
S'\xf0PMC\x9e\xea\xe7\xbf'
p2960
tp2961
Rp2962
s(g1825
S'action-3'
p2963
tp2964
g5
(g9
S'6|\xb3C<\xac\xd7\xbf'
p2965
tp2966
Rp2967
s(S'diff-x-pos--114'
p2968
S'action-1'
p2969
tp2970
g5
(g9
S'g:x>\x95\xcd\xf2\xbf'
p2971
tp2972
Rp2973
s(g585
g467
tp2974
g5
(g9
S'\xfe\x86g\xfa\x1f\xdb\xf7\xbf'
p2975
tp2976
Rp2977
s(S'diff-x-pos--73'
p2978
S'action-1'
p2979
tp2980
g5
(g9
S'\x00\xd0\xbet\xc4\xef\x12?'
p2981
tp2982
Rp2983
s(S'diff-x-pos-64'
p2984
S'prev-action-4'
p2985
tp2986
g5
(g9
S'\xc0\xbe\xfa\xc7y-\xea\xbf'
p2987
tp2988
Rp2989
s(S'action-4'
p2990
S'object-0-x-10.0'
p2991
tp2992
g5
(g9
S'\x9d\xf4e\xe7\xf7u\xc4?'
p2993
tp2994
Rp2995
s(g196
S'object-0-x-70.0'
p2996
tp2997
g5
(g9
S'T\xfb`\xae\xaek\xc2\xbf'
p2998
tp2999
Rp3000
s(S'diff-x-pos--82'
p3001
S'prev-action-1'
p3002
tp3003
g5
(g9
S'@I\xea\x17\xd3\xbb\xa7?'
p3004
tp3005
Rp3006
s(S'diff-x-pos--57'
p3007
g2215
tp3008
g5
(g9
S"'\x07\xf2\xfec \xe6?"
p3009
tp3010
Rp3011
s(g1754
S'action-4'
p3012
tp3013
g5
(g9
S'\xb4r\xabmN\x96\xf4?'
p3014
tp3015
Rp3016
s(S'diff-x-pos-29'
p3017
S'prev-action-3'
p3018
tp3019
g5
(g9
S"\x80'M\x899\x16\x9e\xbf"
p3020
tp3021
Rp3022
s(S'diff-x-pos-35'
p3023
S'action-4'
p3024
tp3025
g5
(g9
S'\xd0O\x96\xed\xb5\xc6\x04\xc0'
p3026
tp3027
Rp3028
s(S'diff-x-pos-24'
p3029
S'prev-action-1'
p3030
tp3031
g5
(g9
S'x\x8eg\x8f\xd8]\xb3?'
p3032
tp3033
Rp3034
s(S'diff-x-pos--21'
p3035
S'action-3'
p3036
tp3037
g5
(g9
S'\x00\xddd!\xf2\x84\xe9?'
p3038
tp3039
Rp3040
s(S'diff-x-pos--74'
p3041
S'prev-action-4'
p3042
tp3043
g5
(g9
S'\xf9\xd0<\xd9\xa8E\xe5\xbf'
p3044
tp3045
Rp3046
s(S'diff-x-pos--80'
p3047
S'action-3'
p3048
tp3049
g5
(g9
S'-\xf9Q\x93`\x17\xf4?'
p3050
tp3051
Rp3052
s(S'diff-x-pos--2'
p3053
S'prev-action-3'
p3054
tp3055
g5
(g9
S'\x1e\xa4\x1d\x05\xb1\xb7\xf1?'
p3056
tp3057
Rp3058
sg1326
g5
(g9
S'p\x19\xc4\xf7a\x8b\xcc\xbf'
p3059
tp3060
Rp3061
sS'object-1-x-110.0'
p3062
g5
(g9
S'\xb1\xa1/XM\xbb\xe9?'
p3063
tp3064
Rp3065
s(S'diff-x-pos--77'
p3066
S'prev-action-1'
p3067
tp3068
g5
(g9
S'l\xe9q\xae\xe5a\xe0\xbf'
p3069
tp3070
Rp3071
s(S'action-1'
p3072
S'object-1-x-100.0'
p3073
tp3074
g5
(g9
S'4\x17\xd7\xe2OK\xd6?'
p3075
tp3076
Rp3077
s(g1695
S'action-1'
p3078
tp3079
g5
(g9
S'\x941nNmN\xe6?'
p3080
tp3081
Rp3082
s(S'diff-x-pos-16'
p3083
S'prev-action-4'
p3084
tp3085
g5
(g9
S'O\xd2\xe4:\x06\xb1\xf1?'
p3086
tp3087
Rp3088
s(g2037
S'prev-action-1'
p3089
tp3090
g5
(g9
S'\xdd\x00\xf3\x84\x999\xf9?'
p3091
tp3092
Rp3093
s(g1524
S'prev-action-1'
p3094
tp3095
g5
(g9
S'\xd4\x1a\x82|\xc9e\xce\xbf'
p3096
tp3097
Rp3098
s(S'diff-x-pos--6'
p3099
S'action-3'
p3100
tp3101
g5
(g9
S'\xfc\xe7\x9a\x02\xee\xda\xee?'
p3102
tp3103
Rp3104
s(S'diff-x-pos-0'
p3105
S'prev-action-4'
p3106
tp3107
g5
(g9
S't7\xbe\x07\xd6&\xe9\xbf'
p3108
tp3109
Rp3110
s(S'diff-x-pos-32'
p3111
S'prev-action-4'
p3112
tp3113
g5
(g9
S')\xee\x18]J\x14\xe5\xbf'
p3114
tp3115
Rp3116
s(S'diff-x-pos-49'
p3117
S'prev-action-3'
p3118
tp3119
g5
(g9
S'l\xe0[e`\xa0\xb2?'
p3120
tp3121
Rp3122
s(S'diff-x-pos--16'
p3123
S'prev-action-1'
p3124
tp3125
g5
(g9
S'\xe8\xfb%\x00n\xbb\xca\xbf'
p3126
tp3127
Rp3128
s(S'diff-x-pos--40'
p3129
S'prev-action-1'
p3130
tp3131
g5
(g9
S'#\xc2\x88\xff\xd7\x1c\xd3\xbf'
p3132
tp3133
Rp3134
s(S'diff-x-pos--106'
p3135
S'action-1'
p3136
tp3137
g5
(g9
S"9'\xd0\xc3\x15\xae\xf9\xbf"
p3138
tp3139
Rp3140
s(S'diff-x-pos--76'
p3141
S'action-3'
p3142
tp3143
g5
(g9
S'\xc4W<\xf1\xdb\xf4\xe7\xbf'
p3144
tp3145
Rp3146
s(S'diff-x-pos-20'
p3147
S'prev-action-1'
p3148
tp3149
g5
(g9
S"\xccG:'\xf0\x80\xe7?"
p3150
tp3151
Rp3152
s(S'diff-x-pos--95'
p3153
S'prev-action-1'
p3154
tp3155
g5
(g9
S'h\x9e\xad\xbb\r\xab\xd6\xbf'
p3156
tp3157
Rp3158
sS'diff-x-pos--121'
p3159
g5
(g9
S'\xbc^\x07=A\x1e\xd9?'
p3160
tp3161
Rp3162
s(S'diff-x-pos-62'
p3163
S'action-1'
p3164
tp3165
g5
(g9
S'\x80\x88n\xa7\xadp\xe4\xbf'
p3166
tp3167
Rp3168
sS'diff-x-pos--98'
p3169
g5
(g9
S'*FH"\xc4\x95\x02\xc0'
p3170
tp3171
Rp3172
sS'diff-x-pos--99'
p3173
g5
(g9
S'\x0e\xe3ri\x95\x8d\xcf\xbf'
p3174
tp3175
Rp3176
s(g1630
S'prev-action-3'
p3177
tp3178
g5
(g9
S'\x82Wa\xe9z\xcf\xf6?'
p3179
tp3180
Rp3181
sg398
g5
(g9
S'\x1d\x94\xd3\xa8\xab\xa11@'
p3182
tp3183
Rp3184
s(g1348
S'action-4'
p3185
tp3186
g5
(g9
S'\xc7\x9c\x80\xe7\xb0\xae\xe9?'
p3187
tp3188
Rp3189
sg457
g5
(g9
S'[\x9bk\xaaCq\xff\xbf'
p3190
tp3191
Rp3192
sg937
g5
(g9
S'%\xe4\xc6\xec\xfe\x0f\xe9\xbf'
p3193
tp3194
Rp3195
sS'diff-x-pos--92'
p3196
g5
(g9
S'\x87\xecaVk\x13\xef\xbf'
p3197
tp3198
Rp3199
sS'diff-x-pos--93'
p3200
g5
(g9
S']\x9a\x14P\x8ao\xf2\xbf'
p3201
tp3202
Rp3203
sg21
g5
(g9
S'^\xf8\x9cf\x14%\xca?'
p3204
tp3205
Rp3206
sS'diff-x-pos--95'
p3207
g5
(g9
S'\x8b\xa3x[e\x13\xd3\xbf'
p3208
tp3209
Rp3210
sS'diff-x-pos--96'
p3211
g5
(g9
S'xN\xfb\xe4O\xaf\xd0?'
p3212
tp3213
Rp3214
sS'diff-x-pos--97'
p3215
g5
(g9
S'\x04\x1a5Y|\xf7\xba?'
p3216
tp3217
Rp3218
s(S'diff-x-pos--110'
p3219
S'prev-action-4'
p3220
tp3221
g5
(g9
S'\x14\x9a\xdf@\x11c\xe0?'
p3222
tp3223
Rp3224
s(S'diff-x-pos-8'
p3225
S'action-3'
p3226
tp3227
g5
(g9
S'\x06\xc5Aqn\xa0\xde\xbf'
p3228
tp3229
Rp3230
s(g775
S'prev-action-3'
p3231
tp3232
g5
(g9
S'!\xd8\n;>\xc0\xe1\xbf'
p3233
tp3234
Rp3235
s(g1559
S'prev-action-4'
p3236
tp3237
g5
(g9
S'\x96\xc4j\xbe\xae/\xcc\xbf'
p3238
tp3239
Rp3240
sS'diff-x-pos--29'
p3241
g5
(g9
S'\x14*^\xe2\xb9|\xc1\xbf'
p3242
tp3243
Rp3244
s(g2080
S'action-4'
p3245
tp3246
g5
(g9
S'?\x95\xea\x19B\xbf\xec\xbf'
p3247
tp3248
Rp3249
s(g1405
S'action-4'
p3250
tp3251
g5
(g9
S'\xb4N\x11\xc1\xba\x0e\xb7?'
p3252
tp3253
Rp3254
s(S'diff-x-pos-55'
p3255
S'prev-action-4'
p3256
tp3257
g5
(g9
S'\xe3_\x90\xed[\x8c\xe7?'
p3258
tp3259
Rp3260
s(g958
S'prev-action-3'
p3261
tp3262
g5
(g9
S'h`Q$\xf6\xd2\x01\xc0'
p3263
tp3264
Rp3265
sg93
g5
(g9
S'\xd5\xc5\xb1ar\x00\xfe?'
p3266
tp3267
Rp3268
sS'diff-x-pos--24'
p3269
g5
(g9
S'\xb0p\x95C\xcd\xab\xea?'
p3270
tp3271
Rp3272
sS'diff-x-pos--27'
p3273
g5
(g9
S'^\x1f\xee\xbcv(\x08@'
p3274
tp3275
Rp3276
sS'diff-x-pos--26'
p3277
g5
(g9
S'\x80\xf3D\xd9\xcce\xb9?'
p3278
tp3279
Rp3280
sS'diff-x-pos--21'
p3281
g5
(g9
S'S\xb5nro5\xe5\xbf'
p3282
tp3283
Rp3284
sS'diff-x-pos--20'
p3285
g5
(g9
S'\x98\x9bB\x07I\t\xc0?'
p3286
tp3287
Rp3288
sg367
g5
(g9
S'^\xc4l\x18p\x06\xe4?'
p3289
tp3290
Rp3291
sS'diff-x-pos--22'
p3292
g5
(g9
S'\xe0e\xcaL\xee\xdb\x9e?'
p3293
tp3294
Rp3295
s(g1506
S'action-3'
p3296
tp3297
g5
(g9
S'0`&w\x99\x05\xc1\xbf'
p3298
tp3299
Rp3300
s(S'diff-x-pos--65'
p3301
S'prev-action-1'
p3302
tp3303
g5
(g9
S'\xb8\x06\xdb\xb5\x99*\xe3\xbf'
p3304
tp3305
Rp3306
sg857
g5
(g9
S'\xcc\x1aB\xef\x8c4\x00@'
p3307
tp3308
Rp3309
sg2918
g5
(g9
S'\x88\xf7N\x9a\xee\xf5\xe3?'
p3310
tp3311
Rp3312
sg2935
g5
(g9
S'@\x82\x8aq\x9am\xcd\xbf'
p3313
tp3314
Rp3315
s(g255
S'prev-action-4'
p3316
tp3317
g5
(g9
S'|:x\xc4a\x82\xee?'
p3318
tp3319
Rp3320
s(S'diff-x-pos--41'
p3321
S'prev-action-1'
p3322
tp3323
g5
(g9
S'D\xf7Fw1\x0f\xf4?'
p3324
tp3325
Rp3326
s(S'action-1'
p3327
S'object-0-x-130.0'
p3328
tp3329
g5
(g9
S'\xe8\x15\xdfe\x1e\x0f\xe2?'
p3330
tp3331
Rp3332
sS'diff-x-pos-30'
p3333
g5
(g9
S' )\x13\xae\xfb\xd0\xcd\xbf'
p3334
tp3335
Rp3336
sS'diff-x-pos-31'
p3337
g5
(g9
S'\x9a\xe209\xd6\x84\xd9?'
p3338
tp3339
Rp3340
sg3111
g5
(g9
S'$xt=\xf3Y\xd0\xbf'
p3341
tp3342
Rp3343
sg159
g5
(g9
S'\x18\x01\x8e\xcc\xb7!\xef?'
p3344
tp3345
Rp3346
sS'diff-x-pos-34'
p3347
g5
(g9
S'\xcf\x14zx\x12A\xe6\xbf'
p3348
tp3349
Rp3350
sg3023
g5
(g9
S'\xc2\xf1Y%\x01H\xd5\xbf'
p3351
tp3352
Rp3353
sS'diff-x-pos-36'
p3354
g5
(g9
S'z\xd8E\x15\xe8\x02\xd6?'
p3355
tp3356
Rp3357
sg183
g5
(g9
S'\xb1\x9e2R\x1f\x94\xe2?'
p3358
tp3359
Rp3360
s(S'diff-x-pos--2'
p3361
S'action-1'
p3362
tp3363
g5
(g9
S'\xbe\x1b\xb6\x99\x1f\xac\xf3?'
p3364
tp3365
Rp3366
s(S'diff-x-pos-42'
p3367
g243
tp3368
g5
(g9
S'\x9f\x9c\x96B\xd1\xda\x02\xc0'
p3369
tp3370
Rp3371
sg2718
g5
(g9
S'8\xc27XK\xa7\xf8?'
p3372
tp3373
Rp3374
s(g3285
S'prev-action-4'
p3375
tp3376
g5
(g9
S'\xa8\x83\xe9|\x9fy\xd6?'
p3377
tp3378
Rp3379
s(S'diff-x-pos--109'
p3380
S'action-1'
p3381
tp3382
g5
(g9
S',eA\xdcr\xb7\xd0\xbf'
p3383
tp3384
Rp3385
s(S'diff-x-pos--52'
p3386
S'prev-action-1'
p3387
tp3388
g5
(g9
S'@\xe1\xb1%/\x0e\xf3?'
p3389
tp3390
Rp3391
s(g3215
S'action-4'
p3392
tp3393
g5
(g9
S',\xbea\x19\xc6B\xf4?'
p3394
tp3395
Rp3396
s(S'diff-x-pos-15'
p3397
S'prev-action-3'
p3398
tp3399
g5
(g9
S'\xc4B\x9b\tr\xfe\xb5?'
p3400
tp3401
Rp3402
s(S'diff-x-pos--9'
p3403
S'prev-action-1'
p3404
tp3405
g5
(g9
S'z\x89\xb4U\xd5\t\xf5?'
p3406
tp3407
Rp3408
s(S'diff-x-pos--69'
p3409
S'prev-action-4'
p3410
tp3411
g5
(g9
S'\xb0#\xa3\xcd\xb8\x12\x99\xbf'
p3412
tp3413
Rp3414
s(g2868
S'prev-action-3'
p3415
tp3416
g5
(g9
S'2\xc3\x89\x19l\xc6\xe8?'
p3417
tp3418
Rp3419
s(S'diff-x-pos--58'
p3420
S'action-3'
p3421
tp3422
g5
(g9
S'\x086\x1e0\xae\xa0\xd2?'
p3423
tp3424
Rp3425
s(g201
S'prev-action-1'
p3426
tp3427
g5
(g9
S'pr!\x96e9\xd1?'
p3428
tp3429
Rp3430
s(g367
S'action-1'
p3431
tp3432
g5
(g9
S'\xb0\xb3j\xac\xf5\xbf\xdb?'
p3433
tp3434
Rp3435
s(g1224
S'prev-action-3'
p3436
tp3437
g5
(g9
S'SF\x03He\xd3\xd6?'
p3438
tp3439
Rp3440
s(g3159
S'action-1'
p3441
tp3442
g5
(g9
S'$\xc1\xb6\xcd\xfa"\xf0?'
p3443
tp3444
Rp3445
s(g2159
S'prev-action-1'
p3446
tp3447
g5
(g9
S'Z\xc7\x9e\x92\xd7\xc9\xf6?'
p3448
tp3449
Rp3450
s(g947
S'action-1'
p3451
tp3452
g5
(g9
S'd=\xe5\xabb)\xf5\xbf'
p3453
tp3454
Rp3455
s(S'diff-x-pos--115'
p3456
S'action-3'
p3457
tp3458
g5
(g9
S'\x1e\x07l4C\x1b\xee\xbf'
p3459
tp3460
Rp3461
sg3117
g5
(g9
S'\xacJ\xcf\xa0\x0c@\xe5\xbf'
p3462
tp3463
Rp3464
sg2473
g5
(g9
S'\x9b\xf8\xa4\xcdHS\xe7\xbf'
p3465
tp3466
Rp3467
s(S'diff-x-pos--104'
p3468
S'action-1'
p3469
tp3470
g5
(g9
S'\xbd\x8a\x12;{\x94\xff?'
p3471
tp3472
Rp3473
sg2857
g5
(g9
S'\xba\xa1\xc5\xd7{8\xfa?'
p3474
tp3475
Rp3476
sg2342
g5
(g9
S'\r\xd42\xdbz\xee\xd5?'
p3477
tp3478
Rp3479
sg1636
g5
(g9
S':\xc7\x9d\x1f\xd6\x85\xeb?'
p3480
tp3481
Rp3482
s(g159
S'action-4'
p3483
tp3484
g5
(g9
S'\xd3u{\xf9K\x88\xf9\xbf'
p3485
tp3486
Rp3487
sg2221
g5
(g9
S'\xf1D\xaf`&$\xe4\xbf'
p3488
tp3489
Rp3490
sg1138
g5
(g9
S'\x1b\xef.\x88\xa5\x83\xd3\xbf'
p3491
tp3492
Rp3493
s(S'diff-x-pos--19'
p3494
S'action-1'
p3495
tp3496
g5
(g9
S'v\xf9|1!e\xc0\xbf'
p3497
tp3498
Rp3499
sg3367
g5
(g9
S'x^\x1cC\x16\xda\xdf\xbf'
p3500
tp3501
Rp3502
s(S'diff-x-pos-52'
p3503
S'prev-action-3'
p3504
tp3505
g5
(g9
S'\xcc:\x9e\xae)M\xd3\xbf'
p3506
tp3507
Rp3508
s(S'diff-x-pos-30'
p3509
S'prev-action-4'
p3510
tp3511
g5
(g9
S'}\xbcftO\x90\xe0\xbf'
p3512
tp3513
Rp3514
s(S'diff-x-pos-3'
p3515
S'prev-action-4'
p3516
tp3517
g5
(g9
S'\xb0Qi\xd3\xba\xd0\xea\xbf'
p3518
tp3519
Rp3520
s(S'diff-x-pos--72'
p3521
S'prev-action-3'
p3522
tp3523
g5
(g9
S'i\x95\xf7S\n\x00\xe0\xbf'
p3524
tp3525
Rp3526
s(S'diff-x-pos--7'
p3527
S'prev-action-3'
p3528
tp3529
g5
(g9
S'\x11\xc0\xd24\xf6\xa2\xda\xbf'
p3530
tp3531
Rp3532
s(g1576
S'action-3'
p3533
tp3534
g5
(g9
S's\xb1v2\x03\x81\x1d@'
p3535
tp3536
Rp3537
s(g1103
S'action-4'
p3538
tp3539
g5
(g9
S'q\x8b*\x9a6l\xee?'
p3540
tp3541
Rp3542
s(g1814
S'object-0-x-20.0'
p3543
tp3544
g5
(g9
S'\xb43\xf7]\xf1\xb6\xe6?'
p3545
tp3546
Rp3547
s(S'object-1-dx--1'
p3548
g207
tp3549
g5
(g9
S'\xcc\x9cC\xa3\xe7\xcf\xfc\xbf'
p3550
tp3551
Rp3552
s(S'diff-x-pos--35'
p3553
S'action-1'
p3554
tp3555
g5
(g9
S'\xac\xbd\xb7\x93_\xe3\xf1\xbf'
p3556
tp3557
Rp3558
s(g1417
S'action-1'
p3559
tp3560
g5
(g9
S'ht\xac\x06\xac\t\xa3\xbf'
p3561
tp3562
Rp3563
s(S'diff-x-pos-9'
p3564
S'prev-action-4'
p3565
tp3566
g5
(g9
S'4\x88\xe3\x08\x8e\xbb\x9a\xbf'
p3567
tp3568
Rp3569
s(S'diff-x-pos--43'
p3570
S'action-4'
p3571
tp3572
g5
(g9
S'\x1eIRse\x8b\xd5?'
p3573
tp3574
Rp3575
s(g2142
S'action-1'
p3576
tp3577
g5
(g9
S']\xd7j\x12]w\xe2?'
p3578
tp3579
Rp3580
s(S'diff-x-pos--84'
p3581
S'prev-action-3'
p3582
tp3583
g5
(g9
S']\xaenc\xff\x8a\xe8?'
p3584
tp3585
Rp3586
s(S'diff-x-pos-40'
p3587
S'prev-action-3'
p3588
tp3589
g5
(g9
S'\xa0\xf0$d\xa5^\xe0\xbf'
p3590
tp3591
Rp3592
sS'object-0-y-20.0'
p3593
g5
(g9
S'\xb1^\xe0\xfaL\xef3@'
p3594
tp3595
Rp3596
s(S'diff-x-pos-44'
p3597
S'prev-action-3'
p3598
tp3599
g5
(g9
S':@_\x1e\x7f\x12\xe5?'
p3600
tp3601
Rp3602
s(g1196
S'prev-action-4'
p3603
tp3604
g5
(g9
S'\x00\x99Ke6j\xf4?'
p3605
tp3606
Rp3607
s(S'diff-x-pos--3'
p3608
S'prev-action-3'
p3609
tp3610
g5
(g9
S'\xaa\xb9\x04|\x93\xd4\xe0\xbf'
p3611
tp3612
Rp3613
s(S'diff-x-pos--101'
p3614
S'action-3'
p3615
tp3616
g5
(g9
S'\xa8SE.\xf4\xd0\x02\xc0'
p3617
tp3618
Rp3619
s(S'diff-x-pos-21'
p3620
S'prev-action-3'
p3621
tp3622
g5
(g9
S'\x1d!\xe5\xc6\xeek\xf9?'
p3623
tp3624
Rp3625
s(S'diff-x-pos-33'
p3626
S'action-3'
p3627
tp3628
g5
(g9
S'\xd0Wh\x89\xbf\x0f\x01@'
p3629
tp3630
Rp3631
s(S'action-4'
p3632
S'object-1-x-70.0'
p3633
tp3634
g5
(g9
S'\x14\x92\xa2\x0f\xb8\x10\xd9\xbf'
p3635
tp3636
Rp3637
s(g3173
S'action-3'
p3638
tp3639
g5
(g9
S'e$\x9e\xa3\x9e7\xfd\xbf'
p3640
tp3641
Rp3642
s(S'diff-x-pos--67'
p3643
S'action-4'
p3644
tp3645
g5
(g9
S'N\xea\x8fZ\xb4l\xe6?'
p3646
tp3647
Rp3648
s(S'diff-x-pos-18'
p3649
S'action-1'
p3650
tp3651
g5
(g9
S'wS\xdd\xab\x0b\xca\x00@'
p3652
tp3653
Rp3654
s(g962
S'action-3'
p3655
tp3656
g5
(g9
S'$\x06\xc8\r1V\xc6\xbf'
p3657
tp3658
Rp3659
s(g129
S'prev-action-4'
p3660
tp3661
g5
(g9
S'\xe6,wa/1\xe8?'
p3662
tp3663
Rp3664
s(S'diff-x-pos--39'
p3665
S'action-4'
p3666
tp3667
g5
(g9
S'\x8d\xb6\xd5\x08\xba\xa3\xec\xbf'
p3668
tp3669
Rp3670
s(g1138
S'action-4'
p3671
tp3672
g5
(g9
S'\xe5\x81_\x0e\x8ae\xe3\xbf'
p3673
tp3674
Rp3675
s(S'diff-x-pos-54'
p3676
S'action-4'
p3677
tp3678
g5
(g9
S'\xb5K\x95\xaaB\xce\x11\xc0'
p3679
tp3680
Rp3681
s(S'diff-x-pos--90'
p3682
S'action-1'
p3683
tp3684
g5
(g9
S'\xdb\xc8&J\x1f6\xeb\xbf'
p3685
tp3686
Rp3687
s(g1109
S'action-4'
p3688
tp3689
g5
(g9
S'gw\x95\x1b\xc4\xb0\xf7\xbf'
p3690
tp3691
Rp3692
s(g2127
S'prev-action-4'
p3693
tp3694
g5
(g9
S'~\x7f\xe2n\x93\xb3\xe9\xbf'
p3695
tp3696
Rp3697
s(g302
S'action-4'
p3698
tp3699
g5
(g9
S"tz\x04\xf1V'\x02\xc0"
p3700
tp3701
Rp3702
s(S'diff-x-pos-23'
p3703
S'prev-action-4'
p3704
tp3705
g5
(g9
S'\x11\x06\xbeJ\xdat\xfb?'
p3706
tp3707
Rp3708
s(S'diff-x-pos--75'
p3709
S'prev-action-3'
p3710
tp3711
g5
(g9
S'\x16\xe2e\x89\x9f\xb7\xb4?'
p3712
tp3713
Rp3714
s(g1075
S'action-4'
p3715
tp3716
g5
(g9
S'T\xcerK\xd7\xda\xff?'
p3717
tp3718
Rp3719
s(g3277
S'prev-action-4'
p3720
tp3721
g5
(g9
S'R\xcb\xe1\xceu\xb1\xd4\xbf'
p3722
tp3723
Rp3724
s(g2456
S'action-4'
p3725
tp3726
g5
(g9
S'\x17\xcb\xec\xbeE\t\xc5?'
p3727
tp3728
Rp3729
s(S'diff-x-pos--31'
p3730
S'prev-action-1'
p3731
tp3732
g5
(g9
S'\\\xdb3I\xf9\x1e\xdb\xbf'
p3733
tp3734
Rp3735
s(S'diff-x-pos--27'
p3736
S'prev-action-3'
p3737
tp3738
g5
(g9
S' \x85\x9a\xb23\xd1\xf3?'
p3739
tp3740
Rp3741
s(S'diff-x-pos--68'
p3742
S'action-4'
p3743
tp3744
g5
(g9
S'\x9c\x13\x19]P\x9d\xf5?'
p3745
tp3746
Rp3747
s(S'diff-x-pos-63'
p3748
S'prev-action-1'
p3749
tp3750
g5
(g9
S'4\xb3\xe2\x1brG\xae?'
p3751
tp3752
Rp3753
s(S'diff-x-pos--92'
p3754
S'prev-action-0'
p3755
tp3756
g5
(g9
S'G\xf6\xa6?f\x9a\xf3?'
p3757
tp3758
Rp3759
s(g2497
S'prev-action-4'
p3760
tp3761
g5
(g9
S'&\xd5\x9d\xe111\xf0\xbf'
p3762
tp3763
Rp3764
s(S'diff-x-pos--118'
p3765
S'prev-action-4'
p3766
tp3767
g5
(g9
S'\xf5\xe0x\x9032\xe8?'
p3768
tp3769
Rp3770
s(S'diff-x-pos-48'
p3771
S'action-3'
p3772
tp3773
g5
(g9
S'DM\xbfM\x87]\xf9?'
p3774
tp3775
Rp3776
s(S'diff-x-pos--60'
p3777
S'prev-action-3'
p3778
tp3779
g5
(g9
S'\xb8\xa1#\xf0B\x14\xa3\xbf'
p3780
tp3781
Rp3782
s(S'diff-x-pos--30'
p3783
S'prev-action-3'
p3784
tp3785
g5
(g9
S'0\x08\xf4\xba\xc1\xb0\xad\xbf'
p3786
tp3787
Rp3788
s(S'diff-x-pos-26'
p3789
S'action-3'
p3790
tp3791
g5
(g9
S'v*2\x8e\x9f\xda\xea?'
p3792
tp3793
Rp3794
s(S'action-4'
p3795
S'prev-action-0'
p3796
tp3797
g5
(g9
S'\x94\xfb\x88(#\xf6\r@'
p3798
tp3799
Rp3800
s(g3196
S'action-1'
p3801
tp3802
g5
(g9
S'.\x11\x8fF}\xde\xfd?'
p3803
tp3804
Rp3805
s(S'diff-x-pos--42'
p3806
S'action-4'
p3807
tp3808
g5
(g9
S'NH\xa6RW\xe9\x02@'
p3809
tp3810
Rp3811
s(g2984
S'action-1'
p3812
tp3813
I-1
s(g3281
S'prev-action-4'
p3814
tp3815
g5
(g9
S'\xda\x9f\xa7\xbfL\xa6\x94\xbf'
p3816
tp3817
Rp3818
s(S'diff-x-pos--13'
p3819
S'action-1'
p3820
tp3821
g5
(g9
S'=(\xb0vx\x12\xf4\xbf'
p3822
tp3823
Rp3824
s(S'diff-x-pos--19'
p3825
S'prev-action-4'
p3826
tp3827
g5
(g9
S'\xfa\x7f5\xb5\xfd\x7f\xfb\xbf'
p3828
tp3829
Rp3830
s(g196
S'prev-action-1'
p3831
tp3832
g5
(g9
S'/\xe0\xa5\x05\x19\xa9\x16@'
p3833
tp3834
Rp3835
s(S'diff-x-pos-37'
p3836
S'action-1'
p3837
tp3838
g5
(g9
S'\xe5X\xfd\xfcUA\xdc\xbf'
p3839
tp3840
Rp3841
s(S'diff-x-pos-65'
p3842
S'action-1'
p3843
tp3844
g5
(g9
S'\xc0D\xdd\x8e\x10\xf9\xe3\xbf'
p3845
tp3846
Rp3847
s(g2146
S'prev-action-3'
p3848
tp3849
g5
(g9
S'\x05[\xef\x9ew\xef\xe5\xbf'
p3850
tp3851
Rp3852
s(S'diff-x-pos--69'
p3853
S'action-3'
p3854
tp3855
g5
(g9
S'`\x82\x9b\x96\xf9\xbe\x03\xc0'
p3856
tp3857
Rp3858
s(S'diff-x-pos--49'
p3859
S'prev-action-1'
p3860
tp3861
g5
(g9
S'o\x85 \xfa\x97\xc8\xe4?'
p3862
tp3863
Rp3864
s(S'diff-x-pos--93'
p3865
S'prev-action-3'
p3866
tp3867
g5
(g9
S'\x80\x10X\x8c\x02\nU?'
p3868
tp3869
Rp3870
s(S'object-0-dx-1'
p3871
g453
tp3872
g5
(g9
S'\xee\x10\xd3E.\xdc\xd0\xbf'
p3873
tp3874
Rp3875
s(g3292
g207
tp3876
g5
(g9
S',\xc6\x05\x93\xa6\xd7\xc3?'
p3877
tp3878
Rp3879
s(g1279
S'prev-action-4'
p3880
tp3881
g5
(g9
S'\xd0\xec\x1cy\xac3\xd4?'
p3882
tp3883
Rp3884
s(S'diff-x-pos--37'
p3885
S'action-1'
p3886
tp3887
g5
(g9
S'\x9ev\xea\xe0\x9d\x11\xe5\xbf'
p3888
tp3889
Rp3890
s(S'diff-x-pos--39'
p3891
S'prev-action-1'
p3892
tp3893
g5
(g9
S'\xe4\xcbY\x94l\x8f\xf4\xbf'
p3894
tp3895
Rp3896
s(g1423
S'prev-action-1'
p3897
tp3898
g5
(g9
S'dt/\xbd\xa4\x16\xdd?'
p3899
tp3900
Rp3901
s(S'diff-x-pos--55'
p3902
S'action-1'
p3903
tp3904
g5
(g9
S'\xb7\xd2\x16#u\xbf\xe2?'
p3905
tp3906
Rp3907
s(S'diff-x-pos-4'
p3908
S'prev-action-1'
p3909
tp3910
g5
(g9
S'\xd4d\xdd\x1f\x03}\xfc\xbf'
p3911
tp3912
Rp3913
s(S'diff-x-pos-44'
p3914
S'prev-action-1'
p3915
tp3916
g5
(g9
S'+\xb9\xc5C\xff\xe4\xdb?'
p3917
tp3918
Rp3919
s(S'diff-x-pos--47'
p3920
S'prev-action-3'
p3921
tp3922
g5
(g9
S'\x1a\xfd\x97X\x03\xa4\xe7\xbf'
p3923
tp3924
Rp3925
sg579
g5
(g9
S'X\x1d\x05[\x1e\x9a\xf2?'
p3926
tp3927
Rp3928
sg2527
g5
(g9
S'\xaa\x14c\x92H^\xd6\xbf'
p3929
tp3930
Rp3931
s(S'diff-x-pos--28'
p3932
S'action-1'
p3933
tp3934
g5
(g9
S'*\xc0C\xe6}\x96\x03@'
p3935
tp3936
Rp3937
sg2043
g5
(g9
S'\x86\x82Rn\x02\xa4\xed\xbf'
p3938
tp3939
Rp3940
sS'diff-x-pos--116'
p3941
g5
(g9
S'\xbe\x01%\x17%^\xe8\xbf'
p3942
tp3943
Rp3944
sg2497
g5
(g9
S"\xcc\xa2'Q\xf5\xbb\xde?"
p3945
tp3946
Rp3947
sS'diff-x-pos--114'
p3948
g5
(g9
S';h\xd1]\x1b\xa4\xe9\xbf'
p3949
tp3950
Rp3951
s(S'diff-x-pos--61'
p3952
S'prev-action-4'
p3953
tp3954
g5
(g9
S';\x1e\x0f-A7\x05@'
p3955
tp3956
Rp3957
sg3765
g5
(g9
S'c<\xe9\x1c\xdb\x8b\xdc\xbf'
p3958
tp3959
Rp3960
s(g984
S'action-4'
p3961
tp3962
g5
(g9
S'\x96r\n\xea\xae\xbc\xf9\xbf'
p3963
tp3964
Rp3965
s(g3515
S'action-1'
p3966
tp3967
g5
(g9
S'\x10\x16\xd3>\x1br\xa9?'
p3968
tp3969
Rp3970
s(S'diff-x-pos--21'
p3971
S'prev-action-3'
p3972
tp3973
g5
(g9
S'Ib&\tVL\xc3\xbf'
p3974
tp3975
Rp3976
s(S'diff-x-pos--87'
p3977
S'prev-action-4'
p3978
tp3979
g5
(g9
S'M@\x95\x89\xf0\xe8\xe6?'
p3980
tp3981
Rp3982
s(g3682
S'prev-action-1'
p3983
tp3984
g5
(g9
S'~\x83\xb0\x14\x86\x12\xfd\xbf'
p3985
tp3986
Rp3987
s(S'diff-x-pos--5'
p3988
S'action-4'
p3989
tp3990
g5
(g9
S'\x04\x13\xf5\xb5\xcc\xf3\xf4\xbf'
p3991
tp3992
Rp3993
s(S'diff-x-pos-43'
p3994
S'action-3'
p3995
tp3996
g5
(g9
S'\xd0h\xbc\xa7\x01\xd2\xea?'
p3997
tp3998
Rp3999
s(S'diff-x-pos-55'
p4000
S'action-1'
p4001
tp4002
g5
(g9
S'b\xca\xe3\xe8X\xeb\xf4?'
p4003
tp4004
Rp4005
s(S'diff-x-pos-45'
p4006
S'prev-action-1'
p4007
tp4008
g5
(g9
S',\x81\xe0_\xdd/\xef?'
p4009
tp4010
Rp4011
sg2789
g5
(g9
S'\xbd\xc5`\xf4\xda|\xf4\xbf'
p4012
tp4013
Rp4014
s(g3211
S'action-3'
p4015
tp4016
g5
(g9
S'\x8a\x8b\x86\xef!r\xf9\xbf'
p4017
tp4018
Rp4019
s(S'diff-x-pos--59'
p4020
S'action-4'
p4021
tp4022
g5
(g9
S'\x94@\xb2\xffM\x84\x0e@'
p4023
tp4024
Rp4025
s(S'diff-x-pos-36'
p4026
S'action-3'
p4027
tp4028
g5
(g9
S'\x03\x802\x0c\x16R\x04@'
p4029
tp4030
Rp4031
s(S'diff-x-pos--32'
p4032
S'action-3'
p4033
tp4034
g5
(g9
S'\xc3\xa0:s\x99\xa9\xe3\xbf'
p4035
tp4036
Rp4037
s(S'diff-x-pos-8'
p4038
S'prev-action-4'
p4039
tp4040
g5
(g9
S'h\x95P23\xb6\x03\xc0'
p4041
tp4042
Rp4043
sS'object-1-y-10.0'
p4044
g5
(g9
S'9\xaf\x86m\xa58\xf4?'
p4045
tp4046
Rp4047
s(g3196
S'prev-action-1'
p4048
tp4049
g5
(g9
S'\x1fdo\x9eE\x14\xf5\xbf'
p4050
tp4051
Rp4052
s(S'diff-x-pos-30'
p4053
S'action-1'
p4054
tp4055
g5
(g9
S'\x96\xddgX\xa5\x1f\xfa?'
p4056
tp4057
Rp4058
s(S'diff-x-pos-38'
p4059
S'prev-action-1'
p4060
tp4061
g5
(g9
S'g\xec\xe6G\xbc\xfc\xc0?'
p4062
tp4063
Rp4064
s(g638
S'action-3'
p4065
tp4066
g5
(g9
S'r0\x01\xb1\xce\x02\xdd\xbf'
p4067
tp4068
Rp4069
s(S'diff-x-pos--112'
p4070
S'action-1'
p4071
tp4072
g5
(g9
S'>)!\x82I>\xd9\xbf'
p4073
tp4074
Rp4075
s(g2209
S'action-4'
p4076
tp4077
g5
(g9
S'\xa5\x8d\x86X\xc2\xa0\xe6?'
p4078
tp4079
Rp4080
s(g620
S'prev-action-3'
p4081
tp4082
g5
(g9
S'>M\x16\xdd\xd1z\xeb\xbf'
p4083
tp4084
Rp4085
s(S'diff-x-pos--93'
p4086
S'prev-action-1'
p4087
tp4088
g5
(g9
S'\xcc\xde\xae{%\x05\xf1\xbf'
p4089
tp4090
Rp4091
sg1994
g5
(g9
S'0\xe6\xfb\xc237\xd7\xbf'
p4092
tp4093
Rp4094
s(S'diff-x-pos--33'
p4095
S'action-3'
p4096
tp4097
g5
(g9
S'T5U\x1f\xe3_\x01\xc0'
p4098
tp4099
Rp4100
s(S'diff-x-pos--114'
p4101
S'action-4'
p4102
tp4103
g5
(g9
S'{\xe2\xe5~\x9db\xe1?'
p4104
tp4105
Rp4106
s(S'diff-x-pos-19'
p4107
S'action-3'
p4108
tp4109
g5
(g9
S'\xa6\xe2\xf6\xa6\xde\xd2\x01@'
p4110
tp4111
Rp4112
s(S'diff-x-pos-14'
p4113
S'action-1'
p4114
tp4115
g5
(g9
S'\xd3\xe3\xd5?\x86\xe3\xf0\xbf'
p4116
tp4117
Rp4118
s(g3865
S'action-4'
p4119
tp4120
g5
(g9
S'\xf3\xa1\x01T\xee\xa7\xda\xbf'
p4121
tp4122
Rp4123
s(S'diff-x-pos--5'
p4124
S'action-3'
p4125
tp4126
g5
(g9
S'(j\xe2t\x04+\xd1?'
p4127
tp4128
Rp4129
s(S'diff-x-pos--6'
p4130
g1161
tp4131
g5
(g9
S'\xdc\xe2\xcc\x93\x92\x8c\xe2\xbf'
p4132
tp4133
Rp4134
s(g2695
S'action-3'
p4135
tp4136
g5
(g9
S'\x08\xe97A\xfe\x16\xfd\xbf'
p4137
tp4138
Rp4139
s(g2689
S'action-1'
p4140
tp4141
g5
(g9
S'$\xf8\x0e\xb8\xdd\xfe\xe5\xbf'
p4142
tp4143
Rp4144
sS'object-0-dy-1'
p4145
g5
(g9
S'\xc2\xb7{T\x8d\xbb\xf3\xbf'
p4146
tp4147
Rp4148
s(S'diff-x-pos--82'
p4149
S'prev-action-4'
p4150
tp4151
g5
(g9
S'\xc3W\x19m/\x15\xeb\xbf'
p4152
tp4153
Rp4154
s(S'diff-x-pos--24'
p4155
S'action-3'
p4156
tp4157
g5
(g9
S'\xc5r\x90\x11\xed\xa0\xf8\xbf'
p4158
tp4159
Rp4160
s(S'diff-x-pos--85'
p4161
S'prev-action-1'
p4162
tp4163
g5
(g9
S'\xe6c7\xd2\xa2\xa9\xb6?'
p4164
tp4165
Rp4166
s(S'diff-x-pos-35'
p4167
S'action-1'
p4168
tp4169
g5
(g9
S'I$\x8a\xdf b\xd3\xbf'
p4170
tp4171
Rp4172
s(S'diff-x-pos--32'
p4173
g2901
tp4174
g5
(g9
S'\x13\x06W\xae\x05\xcb\xe3\xbf'
p4175
tp4176
Rp4177
s(S'diff-x-pos--97'
p4178
S'prev-action-1'
p4179
tp4180
g5
(g9
S'B\x82&V\x1fk\xed\xbf'
p4181
tp4182
Rp4183
s(S'diff-x-pos--17'
p4184
S'prev-action-4'
p4185
tp4186
g5
(g9
S'\xa0\xa7\xef\x1e4\xd9\x9c\xbf'
p4187
tp4188
Rp4189
s(S'diff-x-pos--74'
p4190
S'prev-action-1'
p4191
tp4192
g5
(g9
S'vBB\xb2\x8f\x93\xf4\xbf'
p4193
tp4194
Rp4195
s(S'diff-x-pos--2'
p4196
S'prev-action-4'
p4197
tp4198
g5
(g9
S'\xf0\xc0i\xaf \x8a\xde\xbf'
p4199
tp4200
Rp4201
s(g3023
S'prev-action-3'
p4202
tp4203
g5
(g9
S':\xbf\xedB\nw\xf2?'
p4204
tp4205
Rp4206
s(S'diff-x-pos--77'
p4207
S'prev-action-4'
p4208
tp4209
g5
(g9
S'L\xc8[a\x91\x17\xe6\xbf'
p4210
tp4211
Rp4212
s(S'diff-x-pos-46'
p4213
S'action-4'
p4214
tp4215
g5
(g9
S'i\xc9\xfaa\xcd\xb6\xf5\xbf'
p4216
tp4217
Rp4218
s(g644
S'prev-action-1'
p4219
tp4220
g5
(g9
S'\xd3K\xc5\x8d\x98\x0f\x01@'
p4221
tp4222
Rp4223
s(S'diff-x-pos--4'
p4224
S'action-4'
p4225
tp4226
g5
(g9
S'\xe4\xe49X.\xd9\xbd?'
p4227
tp4228
Rp4229
s(S'diff-x-pos-42'
p4230
S'prev-action-1'
p4231
tp4232
g5
(g9
S'\x0bt\x1c$|\x99\xe0\xbf'
p4233
tp4234
Rp4235
s(S'diff-x-pos--116'
p4236
S'prev-action-4'
p4237
tp4238
g5
(g9
S'\xa0K\x00k`\x9b\xa2?'
p4239
tp4240
Rp4241
sS'diff-y-pos--9'
p4242
g5
(g9
S'\x87\xb8\xf6C\xc6\x9b\xd6?'
p4243
tp4244
Rp4245
sS'diff-y-pos--8'
p4246
g5
(g9
S'@\x97\xf9\xff\xbf@\xdd?'
p4247
tp4248
Rp4249
s(g966
S'prev-action-3'
p4250
tp4251
g5
(g9
S'+\x12]\xdc\xcb\x03\xd7\xbf'
p4252
tp4253
Rp4254
sS'diff-y-pos--4'
p4255
g5
(g9
S'@\xb2\x8b\xec\xb4\xe4\xdd\xbf'
p4256
tp4257
Rp4258
sS'diff-y-pos--7'
p4259
g5
(g9
S'\xe0y\xe6\xa2K7\x90?'
p4260
tp4261
Rp4262
s(g984
S'prev-action-1'
p4263
tp4264
g5
(g9
S'\xbb\x85\xdf\xb5V&\xf2\xbf'
p4265
tp4266
Rp4267
sS'diff-y-pos--1'
p4268
g5
(g9
S'=8\xf8\\\xccr\xf2\xbf'
p4269
tp4270
Rp4271
sS'diff-y-pos--3'
p4272
g5
(g9
S'\xf0\x18\x88\x13ST\xc7?'
p4273
tp4274
Rp4275
sS'diff-y-pos--2'
p4276
g5
(g9
S'\xd2\xeds3\x80%\xd1\xbf'
p4277
tp4278
Rp4279
s(S'diff-x-pos-20'
p4280
S'prev-action-4'
p4281
tp4282
g5
(g9
S'\x19\xae\x9bgs]\xe9?'
p4283
tp4284
Rp4285
s(S'diff-x-pos--95'
p4286
S'prev-action-4'
p4287
tp4288
g5
(g9
S'R\xe1\xa4\xd3\xb6\xdd\xf2?'
p4289
tp4290
Rp4291
s(S'diff-x-pos--93'
p4292
S'action-3'
p4293
tp4294
g5
(g9
S'\xd8\x8b\xd7\x87\x11\xd1\xfd\xbf'
p4295
tp4296
Rp4297
s(S'object-1-dx-1'
p4298
g4135
tp4299
g5
(g9
S'\xd6\x9c\x96\xaax\xb0\xcc?'
p4300
tp4301
Rp4302
s(g463
S'action-1'
p4303
tp4304
g5
(g9
S'L8\xa2\xf1\xbd\xab\xf8\xbf'
p4305
tp4306
Rp4307
s(S'diff-x-pos--14'
p4308
S'action-3'
p4309
tp4310
g5
(g9
S'\xbe\x8c\xa7i\x9b]\xe1\xbf'
p4311
tp4312
Rp4313
s(S'diff-x-pos--112'
p4314
S'prev-action-3'
p4315
tp4316
g5
(g9
S'@ot\xf1\x05S\x02@'
p4317
tp4318
Rp4319
s(g4224
S'prev-action-1'
p4320
tp4321
g5
(g9
S'l\xed@\x16Z\x1e\xf4?'
p4322
tp4323
Rp4324
s(g2107
S'action-3'
p4325
tp4326
g5
(g9
S'\x00\xb1<\xf7C\x95\xf5\xbf'
p4327
tp4328
Rp4329
s(S'diff-x-pos-38'
p4330
S'action-3'
p4331
tp4332
g5
(g9
S'\x02F;\x04\x08f\xf8?'
p4333
tp4334
Rp4335
s(g931
S'action-1'
p4336
tp4337
g5
(g9
S'\x8f\xd1]]\x9a!\xd5?'
p4338
tp4339
Rp4340
sg1506
g5
(g9
S'hv,\xeb\xd8\x14\xce?'
p4341
tp4342
Rp4343
sg1212
g5
(g9
S'\xe2\x1d\xae\x90\xeb\x15\xd7\xbf'
p4344
tp4345
Rp4346
sg1033
g5
(g9
S'A\xc9\rYH\x0b\x05@'
p4347
tp4348
Rp4349
sg1512
g5
(g9
S'Dt\xfaV\xea\xd8\xc4?'
p4350
tp4351
Rp4352
sS'diff-x-pos--83'
p4353
g5
(g9
S'\xf4\xba\x92,\x8b\xfa\xea\xbf'
p4354
tp4355
Rp4356
sg2117
g5
(g9
S'@\xcb\xb8\x07)\xe2\xbf?'
p4357
tp4358
Rp4359
sg2567
g5
(g9
S'9Hc\xc3\x01\x12\xf1?'
p4360
tp4361
Rp4362
sg81
g5
(g9
S'M\xc8\xada\xf5\x15\xbf\xbf'
p4363
tp4364
Rp4365
sg2
g5
(g9
S'\x92\x05y\x07\xc9\xdd\xe3?'
p4366
tp4367
Rp4368
sS'diff-x-pos--88'
p4369
g5
(g9
S'~\x13y\x94\x0f4\xe9?'
p4370
tp4371
Rp4372
s(S'diff-x-pos--38'
p4373
S'prev-action-3'
p4374
tp4375
g5
(g9
S'pjr\x1e,n\xc1?'
p4376
tp4377
Rp4378
s(S'diff-x-pos-55'
p4379
S'prev-action-3'
p4380
tp4381
g5
(g9
S'\xa0\xdb&M\xd2j\xf0?'
p4382
tp4383
Rp4384
s(S'diff-x-pos--116'
p4385
S'prev-action-3'
p4386
tp4387
g5
(g9
S'\x10/\xad\xa5\xe7\xd4\xeb\xbf'
p4388
tp4389
Rp4390
s(g2197
S'prev-action-3'
p4391
tp4392
g5
(g9
S'0\xdeN\x19\x84\xdc\xcd?'
p4393
tp4394
Rp4395
s(g3354
S'prev-action-4'
p4396
tp4397
g5
(g9
S'(I\xfd\xc2\x14^\xdf\xbf'
p4398
tp4399
Rp4400
s(S'diff-x-pos--28'
p4401
S'prev-action-3'
p4402
tp4403
g5
(g9
S'\xd8\xa4\x06y\xe2C\xb5?'
p4404
tp4405
Rp4406
sg696
g5
(g9
S'\x83\xeff\x1dR\xcd\xf7?'
p4407
tp4408
Rp4409
sS'diff-x-pos--11'
p4410
g5
(g9
S'\xcf\x19u"\xb4\xae\xf3?'
p4411
tp4412
Rp4413
sg1843
g5
(g9
S'\xdb\xb7\x1a-\x16\xf9\xe4?'
p4414
tp4415
Rp4416
sg3819
g5
(g9
S'\xed\xfb\x9b\\p\xe9\xf3?'
p4417
tp4418
Rp4419
s(S'diff-x-pos--116'
p4420
S'action-4'
p4421
tp4422
g5
(g9
S'5\xa0\x8f;zH\x07@'
p4423
tp4424
Rp4425
s(S'diff-x-pos-4'
p4426
S'action-3'
p4427
tp4428
g5
(g9
S'\xdfP\x92\xfc\xe0\xd8\xfa?'
p4429
tp4430
Rp4431
sg1970
g5
(g9
S'\x01{\xc0\x0e@\xf0\xd6?'
p4432
tp4433
Rp4434
sg533
g5
(g9
S'\xb0\x02]\x03\x97y\xfc?'
p4435
tp4436
Rp4437
s(g290
S'prev-action-4'
p4438
tp4439
g5
(g9
S'\xa2\xb1\xcc\xcbzm\xd0\xbf'
p4440
tp4441
Rp4442
sS'diff-x-pos--19'
p4443
g5
(g9
S':\xe5\xbaX\xe4\xf2\xf9\xbf'
p4444
tp4445
Rp4446
s(g3902
S'prev-action-3'
p4447
tp4448
g5
(g9
S'\xefjo\x95\xaao\xd7\xbf'
p4449
tp4450
Rp4451
s(S'diff-x-pos-42'
p4452
S'action-1'
p4453
tp4454
g5
(g9
S'TX\x84IOh\xd4?'
p4455
tp4456
Rp4457
s(S'diff-x-pos--62'
p4458
S'prev-action-0'
p4459
tp4460
g5
(g9
S'^\x1c\xb0\xe15\xac\xd4\xbf'
p4461
tp4462
Rp4463
s(S'diff-x-pos--37'
p4464
S'prev-action-3'
p4465
tp4466
g5
(g9
S'\xc6\x05\xf2a52\xf3\xbf'
p4467
tp4468
Rp4469
s(S'diff-x-pos--22'
p4470
S'prev-action-1'
p4471
tp4472
g5
(g9
S'\xf8\xca\xeeq\xb7\xc8\xb8\xbf'
p4473
tp4474
Rp4475
s(S'diff-x-pos--97'
p4476
S'action-1'
p4477
tp4478
g5
(g9
S'\xac\xe0\xfeB\xc7T\xe8\xbf'
p4479
tp4480
Rp4481
s(S'diff-x-pos--69'
p4482
S'prev-action-1'
p4483
tp4484
g5
(g9
S'^\r\x0f\xc9B\xd3\xd6\xbf'
p4485
tp4486
Rp4487
s(g2146
S'action-1'
p4488
tp4489
g5
(g9
S'ncAb\xa0\xf0\xed\xbf'
p4490
tp4491
Rp4492
s(S'diff-x-pos--23'
p4493
S'action-4'
p4494
tp4495
g5
(g9
S'\xc58;\xea\xe2\xd2\xf4\xbf'
p4496
tp4497
Rp4498
s(g3671
S'object-0-x-100.0'
p4499
tp4500
g5
(g9
S'\xaf\x8c\xae\x1a\x8f\xac\x00@'
p4501
tp4502
Rp4503
s(S'diff-x-pos-25'
p4504
S'action-1'
p4505
tp4506
g5
(g9
S'\xd3[O\x0f\xfd\xf5\xf0\xbf'
p4507
tp4508
Rp4509
s(S'diff-x-pos--33'
p4510
S'prev-action-3'
p4511
tp4512
g5
(g9
S'\x00uN\x1b\x16\xa1\xe8?'
p4513
tp4514
Rp4515
s(g3783
S'action-1'
p4516
tp4517
g5
(g9
S'\x88J\xa2\xf2\xc1\xb8\xcf?'
p4518
tp4519
Rp4520
s(S'diff-x-pos--71'
p4521
S'prev-action-4'
p4522
tp4523
g5
(g9
S'@\x08h\x9f\x91\x95\xbd?'
p4524
tp4525
Rp4526
s(S'diff-x-pos-47'
p4527
S'prev-action-4'
p4528
tp4529
g5
(g9
S'D\xdfnP\x02\xe2\xc6\xbf'
p4530
tp4531
Rp4532
s(S'action-3'
p4533
S'object-1-x-100.0'
p4534
tp4535
g5
(g9
S'R\xc2AnZ\x1f\xed\xbf'
p4536
tp4537
Rp4538
s(S'diff-x-pos--55'
p4539
S'prev-action-4'
p4540
tp4541
g5
(g9
S"\xc2' \x7fX7\xea?"
p4542
tp4543
Rp4544
sS'object-0-x-80.0'
p4545
g5
(g9
S'\x82\xdb\x8b\x12R\\\x17@'
p4546
tp4547
Rp4548
s(S'diff-x-pos--60'
p4549
S'prev-action-1'
p4550
tp4551
g5
(g9
S'\x83k\x8c\xef\xdeq\xca?'
p4552
tp4553
Rp4554
s(g3333
S'prev-action-1'
p4555
tp4556
g5
(g9
S'&ewxEo\xd2\xbf'
p4557
tp4558
Rp4559
s(g3273
S'action-1'
p4560
tp4561
g5
(g9
S'\xca\x06\x1c\xde\xf7-\xf4?'
p4562
tp4563
Rp4564
sg1109
g5
(g9
S'(v=8#\xec\xca\xbf'
p4565
tp4566
Rp4567
sg1291
g5
(g9
S'\xcd\xc8(\xc2[\x13\xe6\xbf'
p4568
tp4569
Rp4570
sg1399
g5
(g9
S'\xd66,\xbe\x06J\xd4?'
p4571
tp4572
Rp4573
sg931
g5
(g9
S'\xa8\xeb@\xc7b:\xd7\xbf'
p4574
tp4575
Rp4576
sg1576
g5
(g9
S'\x14\x8fA7TT\xe8?'
p4577
tp4578
Rp4579
sg4000
g5
(g9
S'|\xa2C(\xbd\x06\xd3\xbf'
p4580
tp4581
Rp4582
sg1279
g5
(g9
S'\\GF\x04\xf4V\xd2?'
p4583
tp4584
Rp4585
sg1936
g5
(g9
S'2\xb57v\xd1\xfc\xf0?'
p4586
tp4587
Rp4588
sg1677
g5
(g9
S'D\xea\xf5D\x8e\xb3\xe4\xbf'
p4589
tp4590
Rp4591
sg1600
g5
(g9
S'\xc5s\xc0\x8e\xbe0\xe8\xbf'
p4592
tp4593
Rp4594
s(g3211
S'prev-action-3'
p4595
tp4596
g5
(g9
S'\x1e@xp\r\x0c\xfa?'
p4597
tp4598
Rp4599
s(g1004
S'action-1'
p4600
tp4601
g5
(g9
S'\xbf\xc9\xb4\x04\xc5\xbd\xe9\xbf'
p4602
tp4603
Rp4604
s(g2857
S'action-1'
p4605
tp4606
g5
(g9
S'\xe0\x00\xdc\x07\xadU\n@'
p4607
tp4608
Rp4609
s(g1530
S'prev-action-3'
p4610
tp4611
g5
(g9
S'F\xe6\xffT\x88\x10\xf8?'
p4612
tp4613
Rp4614
s(g4124
S'prev-action-4'
p4615
tp4616
g5
(g9
S'4i?\xc1\x07\xd1\xd0?'
p4617
tp4618
Rp4619
s(S'diff-x-pos--60'
p4620
S'prev-action-4'
p4621
tp4622
g5
(g9
S'\x1cI\xdaAL\xee\xb4?'
p4623
tp4624
Rp4625
sS'object-0-y-10.0'
p4626
g5
(g9
S'}1\xb8>\x01\xac5@'
p4627
tp4628
Rp4629
s(g1052
S'object-1-x-90.0'
p4630
tp4631
g5
(g9
S'\x14\xf1\xbd.G\xca\xf0\xbf'
p4632
tp4633
Rp4634
s(S'diff-x-pos--61'
p4635
S'action-4'
p4636
tp4637
g5
(g9
S'\xa4\x0f\xe5\xb5\x7f\xd4\x01\xc0'
p4638
tp4639
Rp4640
s(S'diff-x-pos-52'
p4641
S'action-1'
p4642
tp4643
g5
(g9
S'}\xcfD.<:\xc0?'
p4644
tp4645
Rp4646
s(g2816
S'prev-action-1'
p4647
tp4648
g5
(g9
S'4\xab2\xd5\xd7"\xf3\xbf'
p4649
tp4650
Rp4651
s(g886
S'object-1-x-120.0'
p4652
tp4653
g5
(g9
S'\xca|\xcf\xec\xc7\x9b\xd2\xbf'
p4654
tp4655
Rp4656
s(S'diff-x-pos--5'
p4657
S'action-1'
p4658
tp4659
g5
(g9
S'W\xad\xb7\x8a\xed\xbe\xe8?'
p4660
tp4661
Rp4662
s(g549
S'prev-action-1'
p4663
tp4664
g5
(g9
S'\x18\xc8-\xd8\xa7\x03\xc3?'
p4665
tp4666
Rp4667
s(S'diff-x-pos--39'
p4668
g1547
tp4669
g5
(g9
S'\xbf5\xa2-\x13\xd8\xd9?'
p4670
tp4671
Rp4672
s(S'diff-x-pos-40'
p4673
S'action-1'
p4674
tp4675
g5
(g9
S'\x14\xde<o\x08\xef\xea\xbf'
p4676
tp4677
Rp4678
s(S'object-0-dx-1'
p4679
g674
tp4680
g5
(g9
S'\x01\xdf\xc5c\xb0\x8b\xe9?'
p4681
tp4682
Rp4683
s(S'action-4'
p4684
S'object-0-x-0.0'
p4685
tp4686
g5
(g9
S'\xa6(}\x88b\t\xd4\xbf'
p4687
tp4688
Rp4689
s(g3676
S'prev-action-4'
p4690
tp4691
g5
(g9
S'\xe3sR\xd9\xe6\x98\xf1\xbf'
p4692
tp4693
Rp4694
sg350
g5
(g9
S'e\x9d\xf1F\xa0j\xfd?'
p4695
tp4696
Rp4697
s(g373
S'prev-action-1'
p4698
tp4699
g5
(g9
S'boI\xb0\x06\xa2\xfe\xbf'
p4700
tp4701
Rp4702
sg403
g5
(g9
S'p\xd7\x12\x99\x8f\xf2\xc0\xbf'
p4703
tp4704
Rp4705
s(S'diff-x-pos--26'
p4706
S'prev-action-3'
p4707
tp4708
g5
(g9
S'\xac\x95\x04\x8e\xb3Z\xe1\xbf'
p4709
tp4710
Rp4711
s(g3819
S'prev-action-1'
p4712
tp4713
g5
(g9
S"\xa8\x0c\xb3'\xec\xb2\xce?"
p4714
tp4715
Rp4716
s(g3281
S'action-4'
p4717
tp4718
g5
(g9
S'Xv=\xaa\x9f\x17\xa5\xbf'
p4719
tp4720
Rp4721
s(g3273
S'prev-action-4'
p4722
tp4723
g5
(g9
S'\x08\x91\x16\x1e&\xae\xd6\xbf'
p4724
tp4725
Rp4726
s(S'diff-x-pos--7'
p4727
S'action-1'
p4728
tp4729
g5
(g9
S'\x0f\xa6\x98\xe3;4\xe5?'
p4730
tp4731
Rp4732
s(S'diff-x-pos--109'
p4733
S'prev-action-4'
p4734
tp4735
g5
(g9
S'*\x0bg3*\x99\xc0?'
p4736
tp4737
Rp4738
s(g3072
g1919
tp4739
g5
(g9
S'\x96\x95N\xd42\xf4\x11@'
p4740
tp4741
Rp4742
sg4499
g5
(g9
S'\x12N\xde\xc7T\xb3\x18@'
p4743
tp4744
Rp4745
s(g1881
S'action-4'
p4746
tp4747
g5
(g9
S'\x1c\xe0\xca\xde\xe4\xae\x01@'
p4748
tp4749
Rp4750
s(S'diff-x-pos--94'
p4751
S'prev-action-3'
p4752
tp4753
g5
(g9
S'\xaa+\xe73t\xb1\xe0?'
p4754
tp4755
Rp4756
s(S'diff-x-pos-48'
p4757
S'prev-action-3'
p4758
tp4759
g5
(g9
S'\xe6\xaa\xa6\xcb\xd0\xaf\xf4\xbf'
p4760
tp4761
Rp4762
s(S'diff-x-pos--50'
p4763
S'prev-action-1'
p4764
tp4765
g5
(g9
S'V"\x13\xc0\x1f$\xf4\xbf'
p4766
tp4767
Rp4768
s(S'diff-x-pos--104'
p4769
S'prev-action-3'
p4770
tp4771
g5
(g9
S'\x07\r\xb9\x0e\xc5"\xe5\xbf'
p4772
tp4773
Rp4774
s(S'diff-x-pos--115'
p4775
S'prev-action-1'
p4776
tp4777
g5
(g9
S'\x0e2\xd4!+U\xf2?'
p4778
tp4779
Rp4780
s(g1423
S'action-4'
p4781
tp4782
g5
(g9
S'\x1c\x06\x81\xa8\x8e!\xcd\xbf'
p4783
tp4784
Rp4785
s(g75
g398
tp4786
g5
(g9
S'\xe00|\x9c\x80\x8e\x18@'
p4787
tp4788
Rp4789
s(S'diff-x-pos--56'
p4790
S'prev-action-1'
p4791
tp4792
g5
(g9
S'\x94\xd03\x99\x01\xdb\xf3\xbf'
p4793
tp4794
Rp4795
s(g3748
S'action-1'
p4796
tp4797
g5
(g9
S'f$\xc3\xf1Z\xed\xda\xbf'
p4798
tp4799
Rp4800
s(S'diff-x-pos--119'
p4801
S'prev-action-4'
p4802
tp4803
g5
(g9
S"\x9a'9\x1a\\\xfa\xca?"
p4804
tp4805
Rp4806
s(S'diff-x-pos-13'
p4807
S'prev-action-3'
p4808
tp4809
g5
(g9
S"\x80m\xac'\xc8\xa4\xc1?"
p4810
tp4811
Rp4812
s(S'action-3'
p4813
S'object-0-x-30.0'
p4814
tp4815
g5
(g9
S'\x14\x93\xd5=6\x06\xfc?'
p4816
tp4817
Rp4818
sS'diff-x-pos-27'
p4819
g5
(g9
S'm[D\x9e\xda\xda\xed\xbf'
p4820
tp4821
Rp4822
s(S'diff-x-pos--26'
p4823
S'action-4'
p4824
tp4825
g5
(g9
S'0n\xce\x0b\xdc\xf8\xdc\xbf'
p4826
tp4827
Rp4828
s(S'diff-x-pos-9'
p4829
S'action-1'
p4830
tp4831
g5
(g9
S'9N\x86\x83\x8d\x14\xfe?'
p4832
tp4833
Rp4834
s(g4493
S'prev-action-3'
p4835
tp4836
g5
(g9
S'|7\xdao\xc5l\xd8\xbf'
p4837
tp4838
Rp4839
s(g3169
S'action-3'
p4840
tp4841
g5
(g9
S'\xe6a3$\xaeC\x05\xc0'
p4842
tp4843
Rp4844
sS'object-0-x-120.0'
p4845
g5
(g9
S'mD\x08\xf5\xfe\xf2\x0e@'
p4846
tp4847
Rp4848
s(g771
S'prev-action-1'
p4849
tp4850
g5
(g9
S'U@\xd8\xc9\xf1\xa9\xf6?'
p4851
tp4852
Rp4853
s(g754
g467
tp4854
g5
(g9
S'\xa4\xb0O\xc9y&\xd1?'
p4855
tp4856
Rp4857
sg3902
g5
(g9
S'\xce[F\x9c\x9b\xa8\xe1\xbf'
p4858
tp4859
Rp4860
s(g970
S'action-1'
p4861
tp4862
g5
(g9
S'\x98\x06\x874\xf9\xc4\xd0?'
p4863
tp4864
Rp4865
s(g2070
S'prev-action-1'
p4866
tp4867
g5
(g9
S'\x1a\xe6D\xb2\xa2@\xd9\xbf'
p4868
tp4869
Rp4870
s(g758
S'action-3'
p4871
tp4872
g5
(g9
S'F$j\xc3M\x0c\x00\xc0'
p4873
tp4874
Rp4875
s(g4668
S'prev-action-4'
p4876
tp4877
g5
(g9
S'\x14\nq\xfby\xa5\xe2\xbf'
p4878
tp4879
Rp4880
s(g4236
S'action-1'
p4881
tp4882
g5
(g9
S'\xfc+\xe6\x0e\x0c\xda\xf2\xbf'
p4883
tp4884
Rp4885
s(S'diff-x-pos-62'
p4886
S'prev-action-4'
p4887
tp4888
g5
(g9
S'\xd4\xcb\xa3\xa5\x115\xf6\xbf'
p4889
tp4890
Rp4891
s(S'diff-x-pos--109'
p4892
S'prev-action-3'
p4893
tp4894
g5
(g9
S'3;\x1d\xe2\x96\x92\xf1\xbf'
p4895
tp4896
Rp4897
s(g177
S'prev-action-3'
p4898
tp4899
g5
(g9
S'\x96a\xf2\r\x1d?\xd3?'
p4900
tp4901
Rp4902
s(S'diff-x-pos--15'
p4903
S'prev-action-4'
p4904
tp4905
g5
(g9
S'hS\x930\xc1\xe3\xdb\xbf'
p4906
tp4907
Rp4908
s(S'diff-x-pos-41'
p4909
S'action-4'
p4910
tp4911
g5
(g9
S'_\xb2x\xde\xb1\xe9\x04\xc0'
p4912
tp4913
Rp4914
s(S'diff-x-pos--67'
p4915
g1359
tp4916
g5
(g9
S'\xb4\x0b\xe4j-\xbd\xf6?'
p4917
tp4918
Rp4919
s(S'diff-x-pos--31'
p4920
S'action-3'
p4921
tp4922
g5
(g9
S'4\r\x11\x08\x99\x84\xfb\xbf'
p4923
tp4924
Rp4925
s(S'diff-x-pos--120'
p4926
S'action-3'
p4927
tp4928
g5
(g9
S'g\x13\x89\xffWR\xf5\xbf'
p4929
tp4930
Rp4931
s(g2738
S'prev-action-4'
p4932
tp4933
g5
(g9
S'\x10\x895:T\xb5\x8f\xbf'
p4934
tp4935
Rp4936
s(S'diff-x-pos-1'
p4937
S'action-3'
p4938
tp4939
g5
(g9
S'\x00\xc8\xca\x9a*\x9f\xc1\xbf'
p4940
tp4941
Rp4942
s(g2192
g75
tp4943
g5
(g9
S'`\xeax\x98aP\xe3\xbf'
p4944
tp4945
Rp4946
s(S'diff-x-pos--41'
p4947
S'action-3'
p4948
tp4949
g5
(g9
S'\x10Bc=s\xe0\x8a?'
p4950
tp4951
Rp4952
s(g326
g467
tp4953
g5
(g9
S'\xf3\xe8@E\x97\x0b\x18@'
p4954
tp4955
Rp4956
s(g732
S'prev-action-4'
p4957
tp4958
g5
(g9
S'\x1e\x89u`\xae\xca\xde?'
p4959
tp4960
Rp4961
s(g1155
S'action-3'
p4962
tp4963
g5
(g9
S'\x80\xb9\xfd\xc6#i\x8f?'
p4964
tp4965
Rp4966
sg2952
g5
(g9
S'\x8b\x05\x1a=\xe4$\x06@'
p4967
tp4968
Rp4969
s(g3301
S'action-3'
p4970
tp4971
g5
(g9
S'\xc8|Hq\\\x98\x01\xc0'
p4972
tp4973
Rp4974
s(g916
S'object-1-x-110.0'
p4975
tp4976
g5
(g9
S'+cu\xb1;s\xfd\xbf'
p4977
tp4978
Rp4979
s(S'diff-x-pos--87'
p4980
S'prev-action-1'
p4981
tp4982
g5
(g9
S'\xf6\xb1\x836\xec\xf0\xe8\xbf'
p4983
tp4984
Rp4985
s(g3277
S'action-3'
p4986
tp4987
g5
(g9
S'\xc13*v\x17M\xfd?'
p4988
tp4989
Rp4990
s(S'diff-x-pos--35'
p4991
S'prev-action-1'
p4992
tp4993
g5
(g9
S'\n\t\x8eJ.7\xee\xbf'
p4994
tp4995
Rp4996
s(g775
S'action-1'
p4997
tp4998
g5
(g9
S'\xfe\xfdQ\xba\n\x1a\xf4\xbf'
p4999
tp5000
Rp5001
s(S'diff-x-pos-54'
p5002
S'prev-action-3'
p5003
tp5004
g5
(g9
S'\x00\xfcZ\x8du3\xc2\xbf'
p5005
tp5006
Rp5007
s(g3225
S'prev-action-1'
p5008
tp5009
g5
(g9
S'$\xf26\x90\xb6"\xf2?'
p5010
tp5011
Rp5012
s(S'diff-x-pos-24'
p5013
S'action-4'
p5014
tp5015
g5
(g9
S'\xe9\xa0\x9f\x87\x8cO\xed\xbf'
p5016
tp5017
Rp5018
s(g171
S'action-3'
p5019
tp5020
g5
(g9
S'2\x06\x9eh{k\xfc\xbf'
p5021
tp5022
Rp5023
s(g33
S'action-1'
p5024
tp5025
g5
(g9
S'\x89\xe9\xca~V\x99\xf4?'
p5026
tp5027
Rp5028
s(g3333
S'action-4'
p5029
tp5030
g5
(g9
S'\x94L\xd7\xc0\xd1\x9a\x02\xc0'
p5031
tp5032
Rp5033
s(S'diff-x-pos--112'
p5034
S'action-4'
p5035
tp5036
g5
(g9
S'\x82Q\x80\\(k\xe2?'
p5037
tp5038
Rp5039
s(S'diff-x-pos-12'
p5040
S'action-1'
p5041
tp5042
g5
(g9
S'\xbfS/\xa5\xfc\xc1\xeb\xbf'
p5043
tp5044
Rp5045
s(g141
S'action-3'
p5046
tp5047
g5
(g9
S'4&g\xe6\r\x7f\x07@'
p5048
tp5049
Rp5050
s(g1873
g15
tp5051
g5
(g9
S'f\x1f\xcc\x01\xab\x9a\xed?'
p5052
tp5053
Rp5054
s(g3207
S'action-3'
p5055
tp5056
g5
(g9
S'r\xaeSOK\xdf\xdd\xbf'
p5057
tp5058
Rp5059
s(g1994
S'action-3'
p5060
tp5061
g5
(g9
S'Y\x89X\x0f\xf1\x13\xf0\xbf'
p5062
tp5063
Rp5064
s(g1988
S'prev-action-1'
p5065
tp5066
g5
(g9
S'\xa0\xa9X\xd0\x06e\xe8?'
p5067
tp5068
Rp5069
s(g3285
g813
tp5070
g5
(g9
S'\xb4\n\xbf[U\x8e\xc9?'
p5071
tp5072
Rp5073
s(g1970
S'action-3'
p5074
tp5075
g5
(g9
S'^\x11\x08\x83\xbe\xa2\xe5?'
p5076
tp5077
Rp5078
s(g966
S'action-4'
p5079
tp5080
g5
(g9
S'\xb1\xd1\xde/:K\xf8\xbf'
p5081
tp5082
Rp5083
s(S'action-1'
p5084
g4845
tp5085
g5
(g9
S'\xd8\x8b\xa1\x11\xbb\xcas?'
p5086
tp5087
Rp5088
s(S'diff-x-pos--18'
p5089
S'action-1'
p5090
tp5091
g5
(g9
S'\xf82\xe0:r\x8f\xda\xbf'
p5092
tp5093
Rp5094
s(S'diff-x-pos--6'
p5095
S'prev-action-1'
p5096
tp5097
g5
(g9
S'\x00\xfc\x93\x1a\x93\xd0\xa2?'
p5098
tp5099
Rp5100
s(S'diff-x-pos--36'
p5101
S'action-3'
p5102
tp5103
g5
(g9
S'\xd7OG:F\xa7\x04\xc0'
p5104
tp5105
Rp5106
s(S'diff-x-pos-53'
p5107
S'prev-action-3'
p5108
tp5109
g5
(g9
S'\tqf\xb8``\xfa?'
p5110
tp5111
Rp5112
s(S'diff-x-pos--70'
p5113
S'action-3'
p5114
tp5115
g5
(g9
S'\x91\n,\x9d@\xfc\xfe\xbf'
p5116
tp5117
Rp5118
s(g3269
S'action-4'
p5119
tp5120
g5
(g9
S'\xfe<\xee\xa1\xf4.\xf3?'
p5121
tp5122
Rp5123
s(g2080
S'prev-action-1'
p5124
tp5125
g5
(g9
S'\x17[\xe5fSG\xd9?'
p5126
tp5127
Rp5128
s(g1184
S'action-3'
p5129
tp5130
g5
(g9
S'\x88\xf7ce\xd62\xea\xbf'
p5131
tp5132
Rp5133
s(g4207
S'action-3'
p5134
tp5135
g5
(g9
S'd\x83\xbb\xeei\xab\xfc\xbf'
p5136
tp5137
Rp5138
sS'diff-y-pos--12'
p5139
g5
(g9
S'\x1b\xe6\xd6K8(\x0c\xc0'
p5140
tp5141
Rp5142
s(S'diff-x-pos--1'
p5143
S'action-4'
p5144
tp5145
g5
(g9
S'\xe9S\xe0\x03\x8b\xf7\xe3?'
p5146
tp5147
Rp5148
s(g3215
S'prev-action-4'
p5149
tp5150
g5
(g9
S'\x9e\xaf%\x94\xda3\xe9?'
p5151
tp5152
Rp5153
s(S'diff-x-pos--17'
p5154
S'action-3'
p5155
tp5156
g5
(g9
S'\x04\xa9\x86Y\xd6\x18\xe6?'
p5157
tp5158
Rp5159
s(g3029
S'action-3'
p5160
tp5161
g5
(g9
S'\x94\xefi\xf8\x10\xe5\xe6?'
p5162
tp5163
Rp5164
s(g2123
S'action-1'
p5165
tp5166
g5
(g9
S' \x9e0\x9c\x9aC\xcb\xbf'
p5167
tp5168
Rp5169
s(g3367
S'prev-action-4'
p5170
tp5171
g5
(g9
S'\x89\xe9\xbe\xd8\xb89\xd1?'
p5172
tp5173
Rp5174
s(S'diff-x-pos--2'
p5175
S'prev-action-1'
p5176
tp5177
g5
(g9
S'\xa0\x0f]H\xd4u\xa9\xbf'
p5178
tp5179
Rp5180
s(g4527
S'action-4'
p5181
tp5182
g5
(g9
S'\x82U\xc7\n\x96L\x04\xc0'
p5183
tp5184
Rp5185
s(g4410
S'action-4'
p5186
tp5187
g5
(g9
S'\xc5q\x1au\x07k\xdc\xbf'
p5188
tp5189
Rp5190
s(S'object-1-dx--1'
p5191
g398
tp5192
g5
(g9
S'\x89\xdd\x88Q\xb9\xb3\xef\xbf'
p5193
tp5194
Rp5195
s(g3948
S'prev-action-3'
p5196
tp5197
g5
(g9
S'\x80$\xaa\xedO\xd4\x9a?'
p5198
tp5199
Rp5200
s(g3347
S'prev-action-4'
p5201
tp5202
g5
(g9
S'\x80\x91\x86\xe5Q#\xa1?'
p5203
tp5204
Rp5205
s(g2935
S'prev-action-3'
p5206
tp5207
g5
(g9
S'\xfc8\xad\xf2&\xfc\xf1\xbf'
p5208
tp5209
Rp5210
s(S'diff-x-pos--12'
p5211
S'prev-action-3'
p5212
tp5213
g5
(g9
S'P\xf5\x8c\xb6\xa6\xce\xc5?'
p5214
tp5215
Rp5216
s(g2159
S'action-4'
p5217
tp5218
g5
(g9
S'\xc8\x1a\xea]\\\x02\xeb?'
p5219
tp5220
Rp5221
s(S'diff-x-pos-27'
p5222
S'action-3'
p5223
tp5224
g5
(g9
S':\xe8\x7f:4\x14\xb6\xbf'
p5225
tp5226
Rp5227
s(g2874
S'prev-action-1'
p5228
tp5229
g5
(g9
S'\xbe\x9f\x1e)\x9a\xdb\x02\xc0'
p5230
tp5231
Rp5232
s(S'diff-x-pos--91'
p5233
S'prev-action-3'
p5234
tp5235
g5
(g9
S'd\x933a{\xfb\xc7\xbf'
p5236
tp5237
Rp5238
s(g762
S'action-1'
p5239
tp5240
g5
(g9
S'\xb0\x87\xae\x8dk\xea\xe8?'
p5241
tp5242
Rp5243
s(S'diff-x-pos--45'
p5244
S'prev-action-4'
p5245
tp5246
g5
(g9
S'\xa7\x02\x83\x1c\x8aA\xe1?'
p5247
tp5248
Rp5249
s(g1903
S'prev-action-4'
p5250
tp5251
g5
(g9
S'\xdd\xcf\xa4w\xd4+\xd2?'
p5252
tp5253
Rp5254
s(g1280
S'object-0-x-110.0'
p5255
tp5256
g5
(g9
S'\x7f\x05J\x1c.\x9f\xeb\xbf'
p5257
tp5258
Rp5259
s(g1348
S'prev-action-4'
p5260
tp5261
g5
(g9
S'S3\xa4\x90\x12T\xe6?'
p5262
tp5263
Rp5264
s(S'diff-x-pos--10'
p5265
S'action-3'
p5266
tp5267
g5
(g9
S'\x1c\x1a\xa0\x00\x1fQ\xf7?'
p5268
tp5269
Rp5270
s(g4280
S'action-1'
p5271
tp5272
g5
(g9
S'Z\xce,qw=\xb4?'
p5273
tp5274
Rp5275
s(S'diff-x-pos--106'
p5276
S'prev-action-1'
p5277
tp5278
g5
(g9
S'm\xe6\x03_7\xe4\xc7?'
p5279
tp5280
Rp5281
s(g3129
S'action-1'
p5282
tp5283
g5
(g9
S'\x16E\x94\xc2\x819\xec\xbf'
p5284
tp5285
Rp5286
s(S'diff-x-pos-34'
p5287
S'prev-action-3'
p5288
tp5289
g5
(g9
S'\xa2\xfeE\xa5\xd4\xba\xdf\xbf'
p5290
tp5291
Rp5292
s(g3941
S'action-3'
p5293
tp5294
g5
(g9
S'\xa6\xca\xe5y\xfd\xf2\x03\xc0'
p5295
tp5296
Rp5297
s(g5040
S'prev-action-4'
p5298
tp5299
g5
(g9
S'\xff|\x07\xe4|\xf0\xef\xbf'
p5300
tp5301
Rp5302
s(g4353
S'action-1'
p5303
tp5304
g5
(g9
S'}\x01\x08\x81`\xe3\x03\xc0'
p5305
tp5306
Rp5307
s(g958
S'action-4'
p5308
tp5309
g5
(g9
S'.T\x1dm\x8a\x88\x03\xc0'
p5310
tp5311
Rp5312
s(S'diff-x-pos-39'
p5313
S'prev-action-4'
p5314
tp5315
g5
(g9
S'\xf6>@\xe2\x12U\xfb?'
p5316
tp5317
Rp5318
sS'object-1-dy-1'
p5319
g5
(g9
S'\xc2\xb4@\xca\xd7\x82\xe1?'
p5320
tp5321
Rp5322
s(g2723
S'action-1'
p5323
tp5324
g5
(g9
S'\xa0f\xeda\xe1\xe3\xd9\xbf'
p5325
tp5326
Rp5327
s(g3292
g2678
tp5328
g5
(g9
S'G&\xf0\xcf$\xf2\xcf\xbf'
p5329
tp5330
Rp5331
s(S'diff-x-pos--53'
p5332
S'prev-action-1'
p5333
tp5334
g5
(g9
S'\x17c9\x1c\xe6\xac\xe7\xbf'
p5335
tp5336
Rp5337
s(g662
S'prev-action-1'
p5338
tp5339
g5
(g9
S"\xed\x1e'\x06\xb9\x05\xf5\xbf"
p5340
tp5341
Rp5342
s(S'diff-x-pos-22'
p5343
S'prev-action-3'
p5344
tp5345
g5
(g9
S'\xd0\xcf\x98\xbb\xdcL\x03@'
p5346
tp5347
Rp5348
s(S'diff-x-pos--66'
p5349
S'prev-action-4'
p5350
tp5351
g5
(g9
S'\xc6\xferY\x18\xa5\xe6?'
p5352
tp5353
Rp5354
s(S'diff-x-pos--57'
p5355
S'prev-action-4'
p5356
tp5357
g5
(g9
S'GC\xc5\xdd\xeb\x88\xdb?'
p5358
tp5359
Rp5360
s(g2774
S'action-4'
p5361
tp5362
g5
(g9
S'\x1e\x1d\xf0\xcf+_\x03@'
p5363
tp5364
Rp5365
s(g742
S'prev-action-3'
p5366
tp5367
g5
(g9
S'\xcc4\x97g\x03i\xd6?'
p5368
tp5369
Rp5370
s(S'diff-x-pos--14'
p5371
S'prev-action-3'
p5372
tp5373
g5
(g9
S'a\x88\x8c\xc8\x1fD\xe5?'
p5374
tp5375
Rp5376
s(g875
g4250
tp5377
g5
(g9
S'\xfd\x1d\x14\xe0@\xbb\xf7?'
p5378
tp5379
Rp5380
sg171
g5
(g9
S'\x8a^e\r7Y\xd8?'
p5381
tp5382
Rp5383
s(S'diff-x-pos-46'
p5384
S'action-1'
p5385
tp5386
g5
(g9
S'b\x11\n\xad\xb9\x8c\xfe?'
p5387
tp5388
Rp5389
s(S'diff-x-pos--54'
p5390
S'action-1'
p5391
tp5392
g5
(g9
S'\x13\x984\xee\xdd\xbe\xfa\xbf'
p5393
tp5394
Rp5395
s(g308
S'action-4'
p5396
tp5397
g5
(g9
S'\x01v\xdf9\xfb\xe7\xe9\xbf'
p5398
tp5399
Rp5400
s(g3117
g2790
tp5401
g5
(g9
S'\xfe\x93\xd4_\x0f\xc6\x02\xc0'
p5402
tp5403
Rp5404
s(S'diff-x-pos--71'
p5405
S'prev-action-3'
p5406
tp5407
g5
(g9
S'\xbfj\x94(%\xb2\xf1\xbf'
p5408
tp5409
Rp5410
s(g2645
S'prev-action-1'
p5411
tp5412
g5
(g9
S'$\xbbv.\xb5q\xf5\xbf'
p5413
tp5414
Rp5415
s(S'diff-x-pos--64'
p5416
S'action-4'
p5417
tp5418
g5
(g9
S'\\\x85\x91\x1c%q\x04@'
p5419
tp5420
Rp5421
s(g3241
S'action-1'
p5422
tp5423
g5
(g9
S'\xf7\x07\xf5\xa5\xc7y\x00\xc0'
p5424
tp5425
Rp5426
sS'object-0-x-60.0'
p5427
g5
(g9
S"\x13\x86We'\x05\x1f@"
p5428
tp5429
Rp5430
s(S'diff-x-pos-0'
p5431
S'prev-action-1'
p5432
tp5433
g5
(g9
S'\xdc[hs\x9b\xd5\xe8?'
p5434
tp5435
Rp5436
s(g1894
S'action-1'
p5437
tp5438
g5
(g9
S'\x02\xd3\x98\x19\xe2\xb6\xdb?'
p5439
tp5440
Rp5441
s(S'action-3'
p5442
S'object-0-x-130.0'
p5443
tp5444
g5
(g9
S'\x803\x9a\xfb9\x1aa\xbf'
p5445
tp5446
Rp5447
s(S'diff-x-pos-10'
p5448
S'prev-action-1'
p5449
tp5450
g5
(g9
S'\xe7(\xcc\r\x93\x95\xe3?'
p5451
tp5452
Rp5453
s(S'diff-x-pos--20'
p5454
S'prev-action-3'
p5455
tp5456
g5
(g9
S'\xc7\x1e\x87\xe4L\xc7\xf1\xbf'
p5457
tp5458
Rp5459
s(S'diff-x-pos--62'
p5460
S'prev-action-4'
p5461
tp5462
g5
(g9
S'L\x0b\xffV\xbc\xb0\xf1?'
p5463
tp5464
Rp5465
s(S'diff-x-pos--100'
p5466
S'action-3'
p5467
tp5468
g5
(g9
S'\xfa\x88\xd5F\x13\x9d\x01\xc0'
p5469
tp5470
Rp5471
s(g4190
S'action-1'
p5472
tp5473
g5
(g9
S'_I\xd4=\xb5\x8f\xf2\xbf'
p5474
tp5475
Rp5476
s(g4032
S'prev-action-4'
p5477
tp5478
g5
(g9
S'x\x14\x9f\x8f\xbfD\xf8\xbf'
p5479
tp5480
Rp5481
s(g2567
S'prev-action-3'
p5482
tp5483
g5
(g9
S'\xa7\xe4\x15>\xf7v\xe5?'
p5484
tp5485
Rp5486
s(S'diff-x-pos-45'
p5487
S'action-4'
p5488
tp5489
g5
(g9
S'Yq-`\x0e`\x06\xc0'
p5490
tp5491
Rp5492
s(S'diff-x-pos--82'
p5493
S'action-4'
p5494
tp5495
g5
(g9
S'\x0e\xa5+\xc4\xdb\xb9\xfa?'
p5496
tp5497
Rp5498
s(S'diff-x-pos-28'
p5499
S'action-3'
p5500
tp5501
g5
(g9
S'\xf6\x01u\xdfx\x05\xe1\xbf'
p5502
tp5503
Rp5504
sS'diff-x-pos-68'
p5505
g5
(g9
S'd\x98)K2\xe0\xc2?'
p5506
tp5507
Rp5508
s(S'diff-x-pos-58'
p5509
S'prev-action-3'
p5510
tp5511
g5
(g9
S'\x1b\x01\x19\x0b\xe4\x1a\xde\xbf'
p5512
tp5513
Rp5514
sg4886
g5
(g9
S'0@\x1e\x94\xf1\xf7\xcc\xbf'
p5515
tp5516
Rp5517
sS'diff-x-pos-61'
p5518
g5
(g9
S'\xd1\xe1BfW\x9b\xf1\xbf'
p5519
tp5520
Rp5521
sg1242
g5
(g9
S'\xf2\x99\xc8N\xa5\xf8\xfc\xbf'
p5522
tp5523
Rp5524
s(g2527
S'action-3'
p5525
tp5526
g5
(g9
S'\x00\xec\x05\x8dX:\xbf?'
p5527
tp5528
Rp5529
s(S'diff-x-pos-1'
p5530
S'action-4'
p5531
tp5532
g5
(g9
S'\xed\xa8\x87\x8a\xd6&\xf3\xbf'
p5533
tp5534
Rp5535
sg3842
g5
(g9
S'\xcc\xa19\xbc\xdc\xac\xdc\xbf'
p5536
tp5537
Rp5538
sg2232
g5
(g9
S'\xda\x8c\x92V[F\xe7\xbf'
p5539
tp5540
Rp5541
s(g2828
S'action-4'
p5542
tp5543
g5
(g9
S'\xe4\xdc\xa1\x97\xcd\xfb\xe9?'
p5544
tp5545
Rp5546
s(g3620
S'action-3'
p5547
tp5548
g5
(g9
S'\xce\x8fd\xb7\x01\x1f\x01@'
p5549
tp5550
Rp5551
s(S'diff-x-pos--115'
p5552
S'action-4'
p5553
tp5554
g5
(g9
S'\x05\x81a=\x12\x04\xf3?'
p5555
tp5556
Rp5557
s(S'object-0-dx--1'
p5558
g1953
tp5559
g5
(g9
S'\xa6Zh\xc6\x98R\xf4\xbf'
p5560
tp5561
Rp5562
s(g2479
S'action-1'
p5563
tp5564
g5
(g9
S'\xcf~\xd7\xcb\x00\x85\xf4\xbf'
p5565
tp5566
Rp5567
s(g2783
S'prev-action-1'
p5568
tp5569
g5
(g9
S'PL\xb6\xee4-\xb1?'
p5570
tp5571
Rp5572
s(g937
S'action-3'
p5573
tp5574
g5
(g9
S'\x08\x15\x87W\x91\xb7\x02\xc0'
p5575
tp5576
Rp5577
s(g2745
S'prev-action-4'
p5578
tp5579
g5
(g9
S'\xb6\xf5)\xdb\xf2\xb1\xf0?'
p5580
tp5581
Rp5582
s(S'diff-x-pos--85'
p5583
S'action-1'
p5584
tp5585
g5
(g9
S'\x82J\x12\xe4\xe6\xbf\xd0\xbf'
p5586
tp5587
Rp5588
s(S'diff-x-pos--72'
p5589
S'prev-action-4'
p5590
tp5591
g5
(g9
S'\x9a/c%0\xfe\xe4?'
p5592
tp5593
Rp5594
s(S'diff-x-pos--18'
p5595
S'prev-action-4'
p5596
tp5597
g5
(g9
S'\xf4\xd8\x8bjk\x0b\xe5\xbf'
p5598
tp5599
Rp5600
s(S'diff-x-pos--78'
p5601
S'prev-action-3'
p5602
tp5603
g5
(g9
S'\xbc\x02R-\xa3@\xe2\xbf'
p5604
tp5605
Rp5606
s(g2087
S'prev-action-3'
p5607
tp5608
g5
(g9
S'fp\xa5e]4\xd5\xbf'
p5609
tp5610
Rp5611
s(g2718
g326
tp5612
g5
(g9
S'\x8cOA\xce\xa4g\xe5?'
p5613
tp5614
Rp5615
s(S'diff-x-pos--43'
p5616
S'prev-action-3'
p5617
tp5618
g5
(g9
S'@\xc4\xf6-q\x11\x90?'
p5619
tp5620
Rp5621
s(S'diff-x-pos-7'
p5622
S'prev-action-1'
p5623
tp5624
g5
(g9
S'\n)\x0b\x15\x1b\x1f\x01\xc0'
p5625
tp5626
Rp5627
s(S'diff-x-pos-60'
p5628
S'prev-action-1'
p5629
tp5630
g5
(g9
S'(\x99H\xd9\xc1\xc1\xe6?'
p5631
tp5632
Rp5633
s(g1242
S'action-1'
p5634
tp5635
g5
(g9
S'Y\n\xde\x83\x11\xc5\xe5\xbf'
p5636
tp5637
Rp5638
s(S'diff-x-pos-37'
p5639
S'prev-action-4'
p5640
tp5641
g5
(g9
S'\xf8^\xde\xfcn\xf8\xb1?'
p5642
tp5643
Rp5644
s(g314
S'prev-action-1'
p5645
tp5646
g5
(g9
S'@\x03-g\x87\xd5\xa7?'
p5647
tp5648
Rp5649
s(S'diff-x-pos--25'
p5650
S'prev-action-3'
p5651
tp5652
g5
(g9
S'\x142d\xc3m\xcd\xef\xbf'
p5653
tp5654
Rp5655
s(g1212
S'prev-action-3'
p5656
tp5657
g5
(g9
S'T\xc3\xeb\xce\xd0\xe5\xc2\xbf'
p5658
tp5659
Rp5660
s(g5601
S'action-3'
p5661
tp5662
g5
(g9
S'\xa1?\xb6\xd5\xd6\xb2\xf5\xbf'
p5663
tp5664
Rp5665
s(g3789
S'prev-action-1'
p5666
tp5667
g5
(g9
S'\xf2\xbe\xb0\xa0\x9a\xa5\xe9\xbf'
p5668
tp5669
Rp5670
s(S'diff-x-pos--60'
p5671
S'action-4'
p5672
tp5673
g5
(g9
S'n\x93\xa0Y\x80u\xfb?'
p5674
tp5675
Rp5676
s(S'diff-x-pos-31'
p5677
S'prev-action-3'
p5678
tp5679
g5
(g9
S'\xecZ-9\xac3\xc8?'
p5680
tp5681
Rp5682
s(g3920
g4813
tp5683
g5
(g9
S'\xb8\xd7S\x06\x08\x04\xff\xbf'
p5684
tp5685
Rp5686
s(g2789
g3118
tp5687
g5
(g9
S'Z:6\xe6E\x8a\x7f?'
p5688
tp5689
Rp5690
s(g3765
S'action-3'
p5691
tp5692
g5
(g9
S'~\x89\x95V\x94\x95\xf8\xbf'
p5693
tp5694
Rp5695
s(g947
S'prev-action-4'
p5696
tp5697
g5
(g9
S'j\xf9\xe7\x0bz\x01\xf5\xbf'
p5698
tp5699
Rp5700
s(S'diff-x-pos--67'
p5701
S'action-3'
p5702
tp5703
g5
(g9
S'\xf6J\x0cy\xeb\x94\xf6\xbf'
p5704
tp5705
Rp5706
s(S'diff-x-pos--115'
p5707
S'prev-action-4'
p5708
tp5709
g5
(g9
S"\xfa\xd8{\x01'h\xf5\xbf"
p5710
tp5711
Rp5712
s(S'diff-x-pos--15'
p5713
S'action-1'
p5714
tp5715
g5
(g9
S'\x945\x82\x9d\xaf\xfc\xd4?'
p5716
tp5717
Rp5718
s(S'diff-x-pos-63'
p5719
S'action-4'
p5720
tp5721
g5
(g9
S'\x006\x8b\xb7\x1f\xd2\xb1?'
p5722
tp5723
Rp5724
s(g2589
S'action-4'
p5725
tp5726
g5
(g9
S'\xe7\x995m\xf3G\xeb\xbf'
p5727
tp5728
Rp5729
s(g750
g2990
tp5730
g5
(g9
S't/\xa2`\xcb}\xe5\xbf'
p5731
tp5732
Rp5733
sg4630
g5
(g9
S'\xf2\xe4W_n\x99\xe8\xbf'
p5734
tp5735
Rp5736
s(g2304
S'prev-action-3'
p5737
tp5738
g5
(g9
S'\x90\xa6\xaf$\xb6\xcc\xc4?'
p5739
tp5740
Rp5741
s(g3859
g879
tp5742
g5
(g9
S'\xfe\xa1\x17o\xd34\xe3?'
p5743
tp5744
Rp5745
s(g5509
S'action-3'
p5746
tp5747
g5
(g9
S'\xc1\x05\xa0\x8a\x98\xd6\xe4?'
p5748
tp5749
Rp5750
s(g219
S'action-3'
p5751
tp5752
g5
(g9
S'\x1av\xc4\xf8Q\x9a\xf1\xbf'
p5753
tp5754
Rp5755
s(g1399
S'action-1'
p5756
tp5757
g5
(g9
S'\xdd_n\x83s\xca\xf6\xbf'
p5758
tp5759
Rp5760
s(S'diff-x-pos-26'
p5761
S'action-1'
p5762
tp5763
g5
(g9
S'T\xbe\xb8\xac\t\xcc\xed?'
p5764
tp5765
Rp5766
s(g3842
S'prev-action-1'
p5767
tp5768
g5
(g9
S'\xcc\xa19\xbc\xdc\xac\xdc\xbf'
p5769
tp5770
Rp5771
sg675
g5
(g9
S'\xb0\xc4\xc2\xaf\xff\xb8\x04\xc0'
p5772
tp5773
Rp5774
s(S'diff-x-pos--81'
p5775
S'action-3'
p5776
tp5777
g5
(g9
S'\xe9\x11\x85\x15\x91\x88\xf3\xbf'
p5778
tp5779
Rp5780
s(g954
S'prev-action-4'
p5781
tp5782
g5
(g9
S'\xf8\xe1L<z\xa6\xe3?'
p5783
tp5784
Rp5785
s(S'diff-x-pos-25'
p5786
S'prev-action-1'
p5787
tp5788
g5
(g9
S'\xcc^\xf5&\xd3\xf6\xe0?'
p5789
tp5790
Rp5791
s(S'diff-x-pos--78'
p5792
S'action-4'
p5793
tp5794
g5
(g9
S'\x94\x1b\x9ag\x9d\xcf\xf3?'
p5795
tp5796
Rp5797
s(S'diff-x-pos--44'
p5798
S'prev-action-3'
p5799
tp5800
g5
(g9
S'\xcf\x84\x8d\x1a9\x8b\xce?'
p5801
tp5802
Rp5803
s(S'diff-x-pos--62'
p5804
S'action-4'
p5805
tp5806
g5
(g9
S'Y\xe3\xaf\xc9c`\xfd?'
p5807
tp5808
Rp5809
s(g3337
S'prev-action-4'
p5810
tp5811
g5
(g9
S'\xe6\xb1P\x8f\xdev\xda\xbf'
p5812
tp5813
Rp5814
s(S'diff-x-pos--34'
p5815
S'action-1'
p5816
tp5817
g5
(g9
S'\xe7YJ\\\xbbV\xe2?'
p5818
tp5819
Rp5820
s(S'diff-x-pos-59'
p5821
S'action-3'
p5822
tp5823
g5
(g9
S'\x0c|=B7Z\xe0\xbf'
p5824
tp5825
Rp5826
s(g2221
S'action-3'
p5827
tp5828
g5
(g9
S'\xa3\x13}\xc0N\xc7\xf9?'
p5829
tp5830
Rp5831
s(S'diff-x-pos--117'
p5832
S'prev-action-3'
p5833
tp5834
g5
(g9
S'\x00\xa2Gl\x00\x92\xbe?'
p5835
tp5836
Rp5837
s(g3347
S'action-4'
p5838
tp5839
g5
(g9
S'\x80d\t\xdf\x0e\xcb\xe7\xbf'
p5840
tp5841
Rp5842
s(g2462
g3062
tp5843
g5
(g9
S'4J\x16\xdf\xccn\xce?'
p5844
tp5845
Rp5846
s(S'diff-x-pos--29'
p5847
S'prev-action-1'
p5848
tp5849
g5
(g9
S'L\xe2Ll\xa7X\xf7\xbf'
p5850
tp5851
Rp5852
s(S'diff-x-pos--118'
p5853
S'action-4'
p5854
tp5855
g5
(g9
S'\xac\x1b\xc3\xedFu\xef?'
p5856
tp5857
Rp5858
s(S'diff-x-pos--117'
p5859
S'action-4'
p5860
tp5861
g5
(g9
S'\xa7J\xb4\x08\x96P\xf5?'
p5862
tp5863
Rp5864
s(S'diff-x-pos-5'
p5865
S'action-1'
p5866
tp5867
g5
(g9
S'LH^r\x81\xa0\xf0\xbf'
p5868
tp5869
Rp5870
s(S'diff-x-pos--101'
p5871
S'prev-action-4'
p5872
tp5873
g5
(g9
S'Gn\r]>\x91\xe1\xbf'
p5874
tp5875
Rp5876
s(S'diff-x-pos--30'
p5877
S'prev-action-0'
p5878
tp5879
g5
(g9
S'\x9d\xb1\x0f^\xb9\x9e\xe2?'
p5880
tp5881
Rp5882
s(S'diff-x-pos--54'
p5883
S'prev-action-1'
p5884
tp5885
g5
(g9
S'S\xa2\xcb\x00\x87\xd2\xf1\xbf'
p5886
tp5887
Rp5888
s(g5384
S'prev-action-1'
p5889
tp5890
g5
(g9
S'wKH\x18\xfe\xde\xe3?'
p5891
tp5892
Rp5893
s(g5505
S'action-3'
p5894
tp5895
I1
s(S'diff-x-pos--84'
p5896
S'action-4'
p5897
tp5898
g5
(g9
S'\xd1\xd6\x94\xee\xcb\xe2\xc1?'
p5899
tp5900
Rp5901
s(g2429
S'action-1'
p5902
tp5903
g5
(g9
S'\xbcw\xd1\xed\x0f\x8e\xb5?'
p5904
tp5905
Rp5906
s(S'diff-x-pos--113'
p5907
S'prev-action-4'
p5908
tp5909
g5
(g9
S'\x08K\xbc\xad\xb1\xaf\xcd\xbf'
p5910
tp5911
Rp5912
s(S'diff-x-pos--103'
p5913
S'action-1'
p5914
tp5915
g5
(g9
S'\xdb\xb6j\xf4\x96,\xe2\xbf'
p5916
tp5917
Rp5918
s(S'diff-x-pos--75'
p5919
S'action-3'
p5920
tp5921
g5
(g9
S'\x81\xcf1\xff\xaf\x93\xcc\xbf'
p5922
tp5923
Rp5924
s(g4790
S'action-3'
p5925
tp5926
g5
(g9
S'\xd6\xf8\x8b\xb7\xe4u\x00\xc0'
p5927
tp5928
Rp5929
s(g2111
S'prev-action-3'
p5930
tp5931
g5
(g9
S'\xa0\xe1w\xbc\xb9\x8a}\xbf'
p5932
tp5933
Rp5934
s(g4353
S'prev-action-3'
p5935
tp5936
g5
(g9
S"\xa6\xe8\x85\x9eM'\x02\xc0"
p5937
tp5938
Rp5939
s(S'diff-x-pos--22'
p5940
S'prev-action-3'
p5941
tp5942
g5
(g9
S'Sl@)\xff\x18\xd8?'
p5943
tp5944
Rp5945
s(g5343
S'action-3'
p5946
tp5947
g5
(g9
S'\xe4~~W:S\xe5?'
p5948
tp5949
Rp5950
s(g3354
S'action-4'
p5951
tp5952
g5
(g9
S'b\xe0\xc5\xed\xafA\x03\xc0'
p5953
tp5954
Rp5955
s(S'diff-x-pos--22'
p5956
S'action-4'
p5957
tp5958
g5
(g9
S'`\xe1K\x8bD:\xa9?'
p5959
tp5960
Rp5961
s(S'diff-x-pos--39'
p5962
S'prev-action-0'
p5963
tp5964
g5
(g9
S'\x04\x0c\x80\xf7\xd7i\x01@'
p5965
tp5966
Rp5967
s(S'diff-x-pos--110'
p5968
S'action-1'
p5969
tp5970
g5
(g9
S"\xa4:\x07'!\xd0\xc0?"
p5971
tp5972
Rp5973
sS'object-1-y-0.0'
p5974
g5
(g9
S"\x19Q\xe9\xaf^'\x02\xc0"
p5975
tp5976
Rp5977
s(g980
S'prev-action-1'
p5978
tp5979
g5
(g9
S'\xc8\xd4Q\xb5\x1ek\xb2\xbf'
p5980
tp5981
Rp5982
s(g5701
S'prev-action-4'
p5983
tp5984
g5
(g9
S'\x0c\x06\x01c\x02\xfa\xe5\xbf'
p5985
tp5986
Rp5987
s(g943
g3632
tp5988
g5
(g9
S'v\xd1E\xa8\xc5D\xee\xbf'
p5989
tp5990
Rp5991
s(S'diff-x-pos--64'
p5992
S'prev-action-1'
p5993
tp5994
g5
(g9
S'H\xcee,\xb4e\xb4?'
p5995
tp5996
Rp5997
s(g1588
S'prev-action-3'
p5998
tp5999
g5
(g9
S'\x9b\xc7\x13\x9a0Z\xfb\xbf'
p6000
tp6001
Rp6002
s(g2
S'prev-action-3'
p6003
tp6004
g5
(g9
S'\xaa\xa4$?\xa3P\xf9\xbf'
p6005
tp6006
Rp6007
s(g3853
S'prev-action-3'
p6008
tp6009
g5
(g9
S'J\xa7cN\xa1c\xde\xbf'
p6010
tp6011
Rp6012
s(S'diff-x-pos--84'
p6013
S'action-3'
p6014
tp6015
g5
(g9
S'g\x99,\x9bG\x8b\xfa\xbf'
p6016
tp6017
Rp6018
s(S'diff-x-pos-50'
p6019
S'prev-action-3'
p6020
tp6021
g5
(g9
S',s\xe0\x1e\x82\x98\xea\xbf'
p6022
tp6023
Rp6024
s(g3977
S'action-4'
p6025
tp6026
g5
(g9
S'r\xff\xca&\x0c\x8c\xf1?'
p6027
tp6028
Rp6029
s(g742
S'action-4'
p6030
tp6031
g5
(g9
S'\x80\xaf<\x0f\x0c\n\t@'
p6032
tp6033
Rp6034
s(S'diff-x-pos-14'
p6035
S'prev-action-4'
p6036
tp6037
g5
(g9
S'\xec\xc6Jh\x13\x87\xc3\xbf'
p6038
tp6039
Rp6040
s(S'diff-x-pos--108'
p6041
S'prev-action-1'
p6042
tp6043
g5
(g9
S'\xdf\xd8\x01\x9d\xf5E\xe4\xbf'
p6044
tp6045
Rp6046
s(S'diff-x-pos--48'
p6047
S'action-4'
p6048
tp6049
g5
(g9
S'\xcf\xb7\x85N\x9b\x17\xec\xbf'
p6050
tp6051
Rp6052
s(S'diff-x-pos-23'
p6053
S'action-3'
p6054
tp6055
g5
(g9
S'\xe4Y\xd7-\xea\x8b\xfa?'
p6056
tp6057
Rp6058
s(S'diff-x-pos-6'
p6059
S'prev-action-3'
p6060
tp6061
g5
(g9
S'\x97\xc0o\x87C\xdd\x03@'
p6062
tp6063
Rp6064
s(S'diff-x-pos--65'
p6065
S'prev-action-4'
p6066
tp6067
g5
(g9
S'\xe62\r\xb4!W\xe0?'
p6068
tp6069
Rp6070
s(g1907
S'action-3'
p6071
tp6072
g5
(g9
S'\x9a\xb3\xa3\x15\xe3\x86\xc7\xbf'
p6073
tp6074
Rp6075
s(S'diff-x-pos--80'
p6076
S'prev-action-4'
p6077
tp6078
g5
(g9
S' B\xed\x16\xb1\xeb\xae?'
p6079
tp6080
Rp6081
s(S'diff-x-pos-19'
p6082
S'prev-action-4'
p6083
tp6084
g5
(g9
S'\xd7\x15\xe7.\x18\x98\xe8?'
p6085
tp6086
Rp6087
sg2885
g5
(g9
S'\\\xac\xcf+\x18\x1f\xe6?'
p6088
tp6089
Rp6090
s(g5589
S'action-3'
p6091
tp6092
g5
(g9
S'\xeeg\xff\x1e\x8c2\xea\xbf'
p6093
tp6094
Rp6095
s(S'diff-x-pos-29'
p6096
S'action-4'
p6097
tp6098
g5
(g9
S')\xae\x842\x0b\xc6\x04\xc0'
p6099
tp6100
Rp6101
s(S'diff-x-pos--79'
p6102
S'action-1'
p6103
tp6104
g5
(g9
S'\x84H\xc8(;Z\xcc\xbf'
p6105
tp6106
Rp6107
s(g3173
S'prev-action-1'
p6108
tp6109
g5
(g9
S'\x9e\x9fE\xc5<\x05\xd3\xbf'
p6110
tp6111
Rp6112
s(g779
S'prev-action-3'
p6113
tp6114
g5
(g9
S'@r<L\x05\xa9\xe4?'
p6115
tp6116
Rp6117
s(S'diff-x-pos--12'
p6118
S'action-3'
p6119
tp6120
g5
(g9
S'Z\x1b\xa1\xa9N\x99\xb1\xbf'
p6121
tp6122
Rp6123
s(S'diff-x-pos-39'
p6124
S'action-3'
p6125
tp6126
g5
(g9
S'\xabXm\x12l\x94\x04@'
p6127
tp6128
Rp6129
s(g4443
S'prev-action-1'
p6130
tp6131
g5
(g9
S'\x8e\x82\x8b\xb5\xb0-\xe1\xbf'
p6132
tp6133
Rp6134
s(g6118
S'prev-action-4'
p6135
tp6136
g5
(g9
S'\x05\xb93\xef\xcf`\xdc?'
p6137
tp6138
Rp6139
s(g5113
S'prev-action-3'
p6140
tp6141
g5
(g9
S':-(\xc4\xe2H\xee\xbf'
p6142
tp6143
Rp6144
s(S'diff-x-pos--119'
p6145
S'action-1'
p6146
tp6147
g5
(g9
S'\rj\xd5\xa2\xe0\xf6\x04@'
p6148
tp6149
Rp6150
s(g3948
S'action-3'
p6151
tp6152
g5
(g9
S'\x99W\x1b\x7f9\xae\xc5\xbf'
p6153
tp6154
Rp6155
s(S'diff-x-pos--47'
p6156
S'prev-action-4'
p6157
tp6158
g5
(g9
S'\xa8\x11\xe8O\xbeT\xe3?'
p6159
tp6160
Rp6161
s(g2163
S'action-3'
p6162
tp6163
g5
(g9
S'L\xae\xde\x8f\x9d\xe7\xde\xbf'
p6164
tp6165
Rp6166
s(g3159
S'prev-action-1'
p6167
tp6168
g5
(g9
S'@0i\x1fl;q\xbf'
p6169
tp6170
Rp6171
s(S'diff-x-pos--86'
p6172
S'action-4'
p6173
tp6174
g5
(g9
S'\x84\x8d\x85n9\x18\xfa?'
p6175
tp6176
Rp6177
s(g1903
g421
tp6178
g5
(g9
S'\x89Kn=\xf1I\xfc?'
p6179
tp6180
Rp6181
s(g2117
S'prev-action-3'
p6182
tp6183
g5
(g9
S'\x8a\xcc\x91\\\xb7\x95\xed?'
p6184
tp6185
Rp6186
s(S'diff-x-pos--45'
p6187
S'action-1'
p6188
tp6189
g5
(g9
S't\x80\x99\x95\xec7\xd9?'
p6190
tp6191
Rp6192
s(S'diff-x-pos--5'
p6193
S'prev-action-1'
p6194
tp6195
g5
(g9
S'78p\xe9\xc2\xbc\xec?'
p6196
tp6197
Rp6198
s(g81
g1098
tp6199
g5
(g9
S'\xfa\xf3\xf6\xc7\xd2\xc6\xd1?'
p6200
tp6201
Rp6202
s(g1719
S'prev-action-3'
p6203
tp6204
g5
(g9
S'3\xb7\xbch\xf7\xd6\xd1?'
p6205
tp6206
Rp6207
s(S'diff-x-pos--20'
p6208
S'action-4'
p6209
tp6210
g5
(g9
S'T\xac\xd9{`+\xeb\xbf'
p6211
tp6212
Rp6213
s(g1707
S'prev-action-1'
p6214
tp6215
g5
(g9
S'D\xf9\xea\x0e\xdaU\xe1\xbf'
p6216
tp6217
Rp6218
s(g2043
S'action-4'
p6219
tp6220
g5
(g9
S't\xa1\xe3\xa8c\xa1\x05@'
p6221
tp6222
Rp6223
s(g6047
S'prev-action-3'
p6224
tp6225
g5
(g9
S'\x87\xff\xf4\xbf\x90L\xe4\xbf'
p6226
tp6227
Rp6228
s(S'diff-x-pos--12'
p6229
S'action-4'
p6230
tp6231
g5
(g9
S'\x98\xaa\x1d5+\xa8\xd5?'
p6232
tp6233
Rp6234
s(S'diff-x-pos-53'
p6235
S'action-3'
p6236
tp6237
g5
(g9
S'<\x95F\xd4o]\x08@'
p6238
tp6239
Rp6240
s(g3337
S'action-4'
p6241
tp6242
g5
(g9
S'/\xa6\xc9\xba\x97\xd6\xe5\xbf'
p6243
tp6244
Rp6245
s(S'diff-x-pos-49'
p6246
S'prev-action-1'
p6247
tp6248
g5
(g9
S'`\x8c\xa2te\xa1\x85?'
p6249
tp6250
Rp6251
s(S'diff-x-pos--16'
p6252
S'prev-action-3'
p6253
tp6254
g5
(g9
S'\xcd\xfa\x90?\xd7\xca\xd5?'
p6255
tp6256
Rp6257
s(g1654
g1248
tp6258
g5
(g9
S'\x18s\xc1\xb5\xceD\xe3?'
p6259
tp6260
Rp6261
s(g3207
S'prev-action-3'
p6262
tp6263
g5
(g9
S'\x95\xa2\x97\xbb\xcc\xf7\xf1\xbf'
p6264
tp6265
Rp6266
s(S'diff-x-pos-32'
p6267
S'action-3'
p6268
tp6269
g5
(g9
S'\x90@\x19/7\xf1\x03@'
p6270
tp6271
Rp6272
s(S'diff-x-pos-62'
p6273
S'action-3'
p6274
tp6275
g5
(g9
S'@B\xc1\xcf\xb9/\xf1?'
p6276
tp6277
Rp6278
s(g875
g5079
tp6279
g5
(g9
S'`U\xa6o\x8f\x8a\xc1\xbf'
p6280
tp6281
Rp6282
s(g943
g831
tp6283
g5
(g9
S'\xde\xa7>^\xc5\xc9\xd9\xbf'
p6284
tp6285
Rp6286
s(g1127
S'prev-action-4'
p6287
tp6288
g5
(g9
S'4\xeb\xe7u\xa7\xe1\xf4\xbf'
p6289
tp6290
Rp6291
s(S'diff-x-pos-16'
p6292
S'action-3'
p6293
tp6294
g5
(g9
S'\\C\xbfU!\xe4\x01@'
p6295
tp6296
Rp6297
s(g579
S'prev-action-4'
p6298
tp6299
g5
(g9
S'LO\xbc\x9d7q\xe2?'
p6300
tp6301
Rp6302
s(g5143
S'prev-action-4'
p6303
tp6304
g5
(g9
S'u\xc3\xb4\x07\x82\xf7\xde?'
p6305
tp6306
Rp6307
s(S'diff-x-pos--102'
p6308
S'action-3'
p6309
tp6310
g5
(g9
S'dcs\xbc\xe7\xa7\xf2\xbf'
p6311
tp6312
Rp6313
s(S'diff-x-pos--111'
p6314
S'prev-action-1'
p6315
tp6316
g5
(g9
S'\xe6pi\xf8+\xa4\xc9\xbf'
p6317
tp6318
Rp6319
s(g746
g3072
tp6320
g5
(g9
S'\t\x97\xcc)\x8a}\xf5\xbf'
p6321
tp6322
Rp6323
s(S'diff-x-pos--99'
p6324
S'action-1'
p6325
tp6326
g5
(g9
S'`U\x11#v\xbe\xd2?'
p6327
tp6328
Rp6329
sS'diff-y-pos--5'
p6330
g5
(g9
S'0C\x06\xc3`{\xdc?'
p6331
tp6332
Rp6333
s(g4026
S'prev-action-3'
p6334
tp6335
g5
(g9
S'\x08JJ\xa0\x9af\xee?'
p6336
tp6337
Rp6338
s(g2142
S'prev-action-4'
p6339
tp6340
g5
(g9
S'\x8c\xe0\x05\xac\xb0O\xf0\xbf'
p6341
tp6342
Rp6343
s(g3966
S'object-0-x-110.0'
p6344
tp6345
g5
(g9
S'G\xfa\x02\xce\xaf\xd5\x07@'
p6346
tp6347
Rp6348
s(S'diff-x-pos-8'
p6349
S'action-1'
p6350
tp6351
g5
(g9
S'L\xd01\x1b\x86\xf6\xd4?'
p6352
tp6353
Rp6354
sg5601
g5
(g9
S'P\xa4\x84\x1a\xe5\x13\xc5?'
p6355
tp6356
Rp6357
sg165
g5
(g9
S'\x8e\xe8\x1f)\x9a\xb1\xba?'
p6358
tp6359
Rp6360
sg489
g5
(g9
S'\xb7\x1e\x92;\xb7\xeb\xeb\xbf'
p6361
tp6362
Rp6363
sg2163
g5
(g9
S'\x84\x1e\xc6R\x98\xbb\xc0\xbf'
p6364
tp6365
Rp6366
sg5113
g5
(g9
S"\xcf\xde\x00&x'\xc5?"
p6367
tp6368
Rp6369
sg5405
g5
(g9
S'\xf2U\xd0\x81\x81\xa4\xe2\xbf'
p6370
tp6371
Rp6372
sg1654
g5
(g9
S'\x98\x0e\x06|F]\xcc?'
p6373
tp6374
Rp6375
s(S'diff-x-pos--57'
p6376
S'prev-action-3'
p6377
tp6378
g5
(g9
S'\xcc \x8c\xacVaQ\xbf'
p6379
tp6380
Rp6381
s(S'diff-x-pos--111'
p6382
S'action-3'
p6383
tp6384
g5
(g9
S'\xad0X\xdc\xbd\xdc\x07\xc0'
p6385
tp6386
Rp6387
sg361
g5
(g9
S'f\x8e\x95\x07\xbb\xff\xd2\xbf'
p6388
tp6389
Rp6390
s(S'diff-x-pos--108'
p6391
S'action-1'
p6392
tp6393
g5
(g9
S'\x0f\x18\xee\xaa[\x19\xe3?'
p6394
tp6395
Rp6396
s(g6292
S'prev-action-1'
p6397
tp6398
g5
(g9
S'\x00\x98i\x7f;\x84\xf3?'
p6399
tp6400
Rp6401
s(g2683
S'prev-action-4'
p6402
tp6403
g5
(g9
S'\xd4\xa79I\x9ah\xdc?'
p6404
tp6405
Rp6406
s(g1285
S'object-0-x-80.0'
p6407
tp6408
g5
(g9
S'\x16\xa2o+\xc9\x90\x04@'
p6409
tp6410
Rp6411
s(g3163
S'prev-action-1'
p6412
tp6413
g5
(g9
S"'\x13WL\xb5\x93\xea?"
p6414
tp6415
Rp6416
s(g2701
S'prev-action-1'
p6417
tp6418
g5
(g9
S'Z\x91\xd1\xe4\xec\x10\xda\xbf'
p6419
tp6420
Rp6421
s(S'diff-x-pos--87'
p6422
S'action-1'
p6423
tp6424
g5
(g9
S'8I\x01\xb5{Q\xe7\xbf'
p6425
tp6426
Rp6427
s(S'diff-x-pos--40'
p6428
S'prev-action-4'
p6429
tp6430
g5
(g9
S'\xa4\x89B\xf8\xfeA\xf1\xbf'
p6431
tp6432
Rp6433
s(g732
g4684
tp6434
g5
(g9
S'\xc4\xd3e\xb3\xa4\xa7\xe2?'
p6435
tp6436
Rp6437
s(g1873
S'prev-action-3'
p6438
tp6439
g5
(g9
S'\r\xe2\x8f\xd9qT\xea?'
p6440
tp6441
Rp6442
sg76
g5
(g9
S'4Uo`}A\xe8?'
p6443
tp6444
Rp6445
s(g3111
S'action-4'
p6446
tp6447
g5
(g9
S'-\x83\xfeoa}\x04\xc0'
p6448
tp6449
Rp6450
s(g2885
g2462
tp6451
g5
(g9
S'N17\xdb\xbf?\xe1\xbf'
p6452
tp6453
Rp6454
s(g1303
S'prev-action-4'
p6455
tp6456
g5
(g9
S'{9>\x16\xd76\xf6\xbf'
p6457
tp6458
Rp6459
s(S'diff-x-pos-20'
p6460
S'action-4'
p6461
tp6462
g5
(g9
S'\xe6\xd7\xc7\xa1\x9f\x10\xf3\xbf'
p6463
tp6464
Rp6465
s(g4819
S'action-4'
p6466
tp6467
g5
(g9
S'T:@I96\xf9\xbf'
p6468
tp6469
Rp6470
s(g6172
S'prev-action-4'
p6471
tp6472
g5
(g9
S'\x82\xa9\xda{\xc2\x9d\xe4?'
p6473
tp6474
Rp6475
s(g1439
S'prev-action-1'
p6476
tp6477
g5
(g9
S'\xb9fIV8L\xef\xbf'
p6478
tp6479
Rp6480
s(g758
S'prev-action-3'
p6481
tp6482
g5
(g9
S'\xb8\x9d\xf2c\x16\x9c\xf4\xbf'
p6483
tp6484
Rp6485
s(S'diff-x-pos--29'
p6486
S'action-4'
p6487
tp6488
g5
(g9
S'\xfa\x936|8~\xdb?'
p6489
tp6490
Rp6491
s(S'diff-x-pos--74'
p6492
S'action-4'
p6493
tp6494
g5
(g9
S'\x17G\xe8\x1f\xdd\xfb\xeb\xbf'
p6495
tp6496
Rp6497
s(g1427
S'prev-action-1'
p6498
tp6499
g5
(g9
S'\xac\xb9\xb7\x1f\xf4\xc7\xf1?'
p6500
tp6501
Rp6502
sS'diff-y-pos--6'
p6503
g5
(g9
S'XR\x9f\xf0\xc2\xaa\xf3?'
p6504
tp6505
Rp6506
s(S'diff-x-pos--105'
p6507
S'action-3'
p6508
tp6509
g5
(g9
S't\x03\xba\x99>+\xd5?'
p6510
tp6511
Rp6512
s(g3001
S'action-1'
p6513
tp6514
g5
(g9
S'\xdc\xff\xf1\xed\xe6.\xf3?'
p6515
tp6516
Rp6517
s(g771
S'action-1'
p6518
tp6519
g5
(g9
S'tpM\x93\x08\x9d\xda\xbf'
p6520
tp6521
Rp6522
s(g1387
S'action-3'
p6523
tp6524
g5
(g9
S'\x1a\xeeV\x8b\x1d\xe6\xf7?'
p6525
tp6526
Rp6527
s(S'diff-x-pos--103'
p6528
S'prev-action-1'
p6529
tp6530
g5
(g9
S'\xc5KP9P\x7f\xf1\xbf'
p6531
tp6532
Rp6533
s(S'diff-x-pos--121'
p6534
S'action-3'
p6535
tp6536
g5
(g9
S'\x84\xe4\x9e\x8f\x82s\xe6\xbf'
p6537
tp6538
Rp6539
s(S'diff-x-pos--113'
p6540
S'action-4'
p6541
tp6542
g5
(g9
S' Wqg\xbb\x8c\xbd?'
p6543
tp6544
Rp6545
s(g1033
S'prev-action-3'
p6546
tp6547
g5
(g9
S'F\x83\xac\x1f\xc0A\xf4?'
p6548
tp6549
Rp6550
s(S'diff-x-pos-13'
p6551
S'action-3'
p6552
tp6553
g5
(g9
S'4\xd1o\xda\xcd\xd4\xe4?'
p6554
tp6555
Rp6556
s(g2978
S'prev-action-1'
p6557
tp6558
g5
(g9
S'\xb4\n\xa5=\xc1\xb3\xec\xbf'
p6559
tp6560
Rp6561
s(g326
g545
tp6562
g5
(g9
S'\xc4\x1e\x9b|\xec\x0f\xf4?'
p6563
tp6564
Rp6565
s(S'diff-x-pos-31'
p6566
S'prev-action-1'
p6567
tp6568
g5
(g9
S'\x90s\xf5U\xef\xf0\xe3?'
p6569
tp6570
Rp6571
s(g585
g326
tp6572
g5
(g9
S'Hv\xcb\xf6\xfd\x80\xe7\xbf'
p6573
tp6574
Rp6575
s(g5530
S'prev-action-1'
p6576
tp6577
g5
(g9
S'\x01\x89\xae,f\x85\xd9?'
p6578
tp6579
Rp6580
s(g1326
S'action-1'
p6581
tp6582
g5
(g9
S'|\x02\x90\x88s\x1f\xde\xbf'
p6583
tp6584
Rp6585
s(g5865
S'prev-action-1'
p6586
tp6587
g5
(g9
S'_\xe6S.o\xae\xd6\xbf'
p6588
tp6589
Rp6590
s(g21
S'prev-action-4'
p6591
tp6592
g5
(g9
S'B\xea\xc11\xd81\xd0?'
p6593
tp6594
Rp6595
s(g4130
g674
tp6596
g5
(g9
S'0 \xec\xc9\xca\xa1\xd0?'
p6597
tp6598
Rp6599
s(g2738
S'action-3'
p6600
tp6601
g5
(g9
S'\xc3\xc7\xbfMa\xb8\xf3\xbf'
p6602
tp6603
Rp6604
s(g1518
S'action-1'
p6605
tp6606
g5
(g9
S'\xa5-E\xac\x8f\x05\xc0\xbf'
p6607
tp6608
Rp6609
s(g4369
S'prev-action-4'
p6610
tp6611
g5
(g9
S'p\xad\xfa\xdd\xa5\xc9\xa2\xbf'
p6612
tp6613
Rp6614
sS'object-0-dy--1'
p6615
g5
(g9
S'\xdc\xb4R\xb8\xfd\xe5\xf7?'
p6616
tp6617
Rp6618
s(S'diff-x-pos--19'
p6619
S'action-3'
p6620
tp6621
g5
(g9
S'\x88a\xc2\xf9G\xf8\xc3?'
p6622
tp6623
Rp6624
s(S'diff-x-pos-41'
p6625
S'prev-action-3'
p6626
tp6627
g5
(g9
S'\xa0\xdb\xd3\xb5\xf0\xf9\xd8?'
p6628
tp6629
Rp6630
s(g1772
S'action-4'
p6631
tp6632
g5
(g9
S'\x01\xd6\x9c\xec\xc4\x85\xf2?'
p6633
tp6634
Rp6635
s(g165
S'prev-action-3'
p6636
tp6637
g5
(g9
S"vF,'\x05`\xe2?"
p6638
tp6639
Rp6640
s(S'diff-x-pos-51'
p6641
S'prev-action-4'
p6642
tp6643
g5
(g9
S'e\x94\x04\xb0\x8e\t\xf8\xbf'
p6644
tp6645
Rp6646
s(g489
S'action-4'
p6647
tp6648
g5
(g9
S'\xbe\x1f\xd9\x82\x1dV\xf3?'
p6649
tp6650
Rp6651
s(g5792
S'prev-action-4'
p6652
tp6653
g5
(g9
S'\xd8\xee\xd4\xfc \xcd\xa4\xbf'
p6654
tp6655
Rp6656
s(g2070
S'action-4'
p6657
tp6658
g5
(g9
S'\x1a\xe6D\xb2\xa2@\xd9\xbf'
p6659
tp6660
Rp6661
s(S'diff-x-pos-15'
p6662
S'action-4'
p6663
tp6664
g5
(g9
S'\x85c?}\xedy\xff\xbf'
p6665
tp6666
Rp6667
s(g2707
S'prev-action-4'
p6668
tp6669
g5
(g9
S'\xe9\xf1\xc3@\xb0\xc5\xfb?'
p6670
tp6671
Rp6672
s(g1713
S'action-1'
p6673
tp6674
g5
(g9
S'|K\x9d\xb5Z\x0e\xe4?'
p6675
tp6676
Rp6677
s(S'diff-x-pos--11'
p6678
S'prev-action-3'
p6679
tp6680
g5
(g9
S'\xbcq&\xec\xa9+\xe3?'
p6681
tp6682
Rp6683
s(g2107
S'prev-action-4'
p6684
tp6685
g5
(g9
S'j\xdeQC\xd0\xbd\xe9\xbf'
p6686
tp6687
Rp6688
s(S'diff-x-pos--121'
p6689
S'action-4'
p6690
tp6691
g5
(g9
S'\xcc\x8c\xa8\x95l\xe5\xb5?'
p6692
tp6693
Rp6694
s(g1677
S'action-1'
p6695
tp6696
g5
(g9
S'\xc6\x83\x9f\x97\x81i\xdd\xbf'
p6697
tp6698
Rp6699
sg4685
g5
(g9
S'\x0e\xb1\xff\xaaV?\x19@'
p6700
tp6701
Rp6702
s(S'diff-x-pos--84'
p6703
S'prev-action-1'
p6704
tp6705
g5
(g9
S'\x00\xe0\xc9`kX\xb0?'
p6706
tp6707
Rp6708
s(g4861
S'object-0-x-70.0'
p6709
tp6710
g5
(g9
S'R\xb8\xee\x06\x96\xd4\x03@'
p6711
tp6712
Rp6713
s(S'diff-x-pos--29'
p6714
S'prev-action-4'
p6715
tp6716
g5
(g9
S'.,\xf6`\xec2\xf6?'
p6717
tp6718
Rp6719
s(S'diff-x-pos--94'
p6720
S'action-4'
p6721
tp6722
g5
(g9
S'T\x15\xc68NS\x0b@'
p6723
tp6724
Rp6725
s(g5518
S'action-1'
p6726
tp6727
g5
(g9
S'\xe1|`\x10\xe7C\xc1?'
p6728
tp6729
Rp6730
s(g207
g5427
tp6731
g5
(g9
S'0\xc2\xd7\x93:\xc7\x14@'
p6732
tp6733
Rp6734
s(g1463
S'prev-action-4'
p6735
tp6736
g5
(g9
S'\xd5AP\xf1\xfcp\xe5?'
p6737
tp6738
Rp6739
s(g2611
S'action-3'
p6740
tp6741
g5
(g9
S'B\x9c\xc8\xf4\x9a(\xe3\xbf'
p6742
tp6743
Rp6744
s(S'diff-x-pos-6'
p6745
S'action-3'
p6746
tp6747
g5
(g9
S'\x05\xac\xc20\x84\xf1\xe1?'
p6748
tp6749
Rp6750
s(S'diff-x-pos--50'
p6751
S'action-3'
p6752
tp6753
g5
(g9
S'\xbe\xad\xe8\x98%d\xba?'
p6754
tp6755
Rp6756
s(g1560
g842
tp6757
g5
(g9
S'\xde,\xd2\x93[U\x00@'
p6758
tp6759
Rp6760
s(S'diff-x-pos--67'
p6761
S'action-1'
p6762
tp6763
g5
(g9
S'F\x16k\xad\xeeK\xdc\xbf'
p6764
tp6765
Rp6766
s(g93
S'action-3'
p6767
tp6768
g5
(g9
S'\xf4\xef\x80XH\x86\xef?'
p6769
tp6770
Rp6771
s(S'diff-x-pos--66'
p6772
S'prev-action-1'
p6773
tp6774
g5
(g9
S'z\xc4P\xd0\xbdj\xcd\xbf'
p6775
tp6776
Rp6777
s(g4533
S'object-0-x-50.0'
p6778
tp6779
g5
(g9
S'\x7f\xea\xd6-\x96\xc1\xfe?'
p6780
tp6781
Rp6782
s(S'diff-x-pos-56'
p6783
S'action-4'
p6784
tp6785
g5
(g9
S'\x99)-\xf4\xfe+\xb1?'
p6786
tp6787
Rp6788
s(g361
S'prev-action-1'
p6789
tp6790
g5
(g9
S'-\xda\x88\x1b\xfc\xe0\xe6\xbf'
p6791
tp6792
Rp6793
s(S'diff-x-pos--43'
p6794
S'action-3'
p6795
tp6796
g5
(g9
S'\x16\x01\xbb\xfcW\\\xe3\xbf'
p6797
tp6798
Rp6799
s(S'diff-x-pos-11'
p6800
S'prev-action-3'
p6801
tp6802
g5
(g9
S'\xd3\xc1\xe4W\xe8\xd0\xd4\xbf'
p6803
tp6804
Rp6805
s(g5505
S'prev-action-1'
p6806
tp6807
I1
s(S'diff-x-pos--11'
p6808
S'action-1'
p6809
tp6810
g5
(g9
S'*;6\xbb\x9a\xb7\xe7?'
p6811
tp6812
Rp6813
s(g75
g692
tp6814
g5
(g9
S'\xed\xc8\x8f\x1b\xed\xcc\x00@'
p6815
tp6816
Rp6817
s(g2639
S'prev-action-4'
p6818
tp6819
g5
(g9
S'\xf1Y\x92\xe5\xb1\xce\xeb\xbf'
p6820
tp6821
Rp6822
s(S'diff-x-pos--42'
p6823
S'prev-action-1'
p6824
tp6825
g5
(g9
S'\x8ax`#7(\xdd\xbf'
p6826
tp6827
Rp6828
s(g2623
S'action-1'
p6829
tp6830
g5
(g9
S'\x9c\xb3\xb0{\x80\x1e\xf4\xbf'
p6831
tp6832
Rp6833
s(g5405
S'action-4'
p6834
tp6835
g5
(g9
S'\xcc\xda\xea&\x96T\xff?'
p6836
tp6837
Rp6838
s(g980
S'action-4'
p6839
tp6840
g5
(g9
S'\xec\xf2\x90\xe2R\xf1\xfb\xbf'
p6841
tp6842
Rp6843
s(g1451
S'action-4'
p6844
tp6845
g5
(g9
S'\x8a\x05\xf2\x11t\xd5\xe6?'
p6846
tp6847
Rp6848
s(S'diff-x-pos--92'
p6849
S'action-3'
p6850
tp6851
g5
(g9
S'j\xd0\xce\xd4\xad\x04\x08\xc0'
p6852
tp6853
Rp6854
s(S'action-3'
p6855
S'prev-action-3'
p6856
tp6857
g5
(g9
S'\xbe\x02\x1bM\xc0\x87\x11@'
p6858
tp6859
Rp6860
s(g6528
S'action-4'
p6861
tp6862
g5
(g9
S'\xcb\xb3-\x05\xd4/\xe3\xbf'
p6863
tp6864
Rp6865
s(S'diff-x-pos-65'
p6866
S'action-3'
p6867
tp6868
g5
(g9
S'g\xcf\x01\xc3\x88\x8a\xc6?'
p6869
tp6870
Rp6871
s(S'diff-x-pos-28'
p6872
S'prev-action-3'
p6873
tp6874
g5
(g9
S'\xe0\xfdi\xac}\x8b\x05@'
p6875
tp6876
Rp6877
s(S'diff-x-pos-56'
p6878
S'prev-action-3'
p6879
tp6880
g5
(g9
S'\xda\x8d/2\x0b\x12\xdd?'
p6881
tp6882
Rp6883
s(g6053
S'prev-action-1'
p6884
tp6885
g5
(g9
S'l\x04\xa3\xe4\xa1`\xf9\xbf'
p6886
tp6887
Rp6888
s(S'diff-x-pos--69'
p6889
S'action-1'
p6890
tp6891
g5
(g9
S'\x08{H\\\xfa&\xba\xbf'
p6892
tp6893
Rp6894
s(g1381
S'prev-action-1'
p6895
tp6896
g5
(g9
S'\x0c:\xef\x03[\x15\xf1\xbf'
p6897
tp6898
Rp6899
s(g1364
S'prev-action-3'
p6900
tp6901
g5
(g9
S'my\x8c\x8e\xf3k\xd8\xbf'
p6902
tp6903
Rp6904
sg5384
g5
(g9
S'\xa0\x0fG\xf9\xc0\x9b\xe2?'
p6905
tp6906
Rp6907
s(g4470
S'action-1'
p6908
tp6909
g5
(g9
S'nr?\xec\xb9J\xc6\xbf'
p6910
tp6911
Rp6912
s(g4464
S'action-3'
p6913
tp6914
g5
(g9
S'#@\xf7j\x00\xf8\xf4\xbf'
p6915
tp6916
Rp6917
s(S'object-0-dx--1'
p6918
S'action-3'
p6919
tp6920
g5
(g9
S'\xd4\xd4\x92\x81\xe4\xca\x04\xc0'
p6921
tp6922
Rp6923
s(g4861
S'object-1-x-60.0'
p6924
tp6925
g5
(g9
S'\xac\x91\xe3G2\xcc\xc2\xbf'
p6926
tp6927
Rp6928
s(g5448
S'action-1'
p6929
tp6930
g5
(g9
S'Tt\xfdj\x15\x9e\xe1?'
p6931
tp6932
Rp6933
s(S'diff-x-pos--15'
p6934
S'prev-action-3'
p6935
tp6936
g5
(g9
S'=\x01\xbd"\xd2\x91\xe5?'
p6937
tp6938
Rp6939
s(g6761
S'prev-action-1'
p6940
tp6941
g5
(g9
S'\xdb\xe1\xf2\xa8#w\xd5\xbf'
p6942
tp6943
Rp6944
s(S'diff-x-pos--55'
p6945
S'action-3'
p6946
tp6947
g5
(g9
S'\xaf\xb9=\xeb,\x13\xff\xbf'
p6948
tp6949
Rp6950
s(g5518
S'prev-action-4'
p6951
tp6952
g5
(g9
S'\xd0\xbe\xf1G\xc0Y\xf4\xbf'
p6953
tp6954
Rp6955
s(S'diff-x-pos--118'
p6956
S'prev-action-1'
p6957
tp6958
g5
(g9
S'p\xc3\xaf\x0b\xc2e\x01\xc0'
p6959
tp6960
Rp6961
s(g2097
S'action-4'
p6962
tp6963
g5
(g9
S'\\\x14\xe0\xf0\x03\xfe\xf3?'
p6964
tp6965
Rp6966
s(g2473
g1039
tp6967
g5
(g9
S'(\x92\xb9b\xf8\x84\x10\xc0'
p6968
tp6969
Rp6970
s(g2031
S'prev-action-4'
p6971
tp6972
g5
(g9
S'0\x07\x92\xe3\x19Y\xea?'
p6973
tp6974
Rp6975
s(S'object-0-dx--1'
p6976
S'action-1'
p6977
tp6978
g5
(g9
S'\xd2\xd0\x05\xbb\xa4N\xeb\xbf'
p6979
tp6980
Rp6981
s(g1881
S'prev-action-1'
p6982
tp6983
g5
(g9
S'lU\x93jc\x04\xd1?'
p6984
tp6985
Rp6986
s(S'diff-x-pos--107'
p6987
S'action-1'
p6988
tp6989
g5
(g9
S'\xe0\x8e\xab\xa4\x89[\x85\xbf'
p6990
tp6991
Rp6992
s(g4521
S'action-3'
p6993
tp6994
g5
(g9
S'\n\xd9r\xe0te\xf6\xbf'
p6995
tp6996
Rp6997
s(g4401
S'action-3'
p6998
tp6999
g5
(g9
S'k\x93\xc77\x16D\xe4\xbf'
p7000
tp7001
Rp7002
s(S'diff-x-pos--30'
p7003
S'prev-action-4'
p7004
tp7005
g5
(g9
S'\xa4\xfb\x82\xff.\x19\xe6\xbf'
p7006
tp7007
Rp7008
sg1439
g5
(g9
S'9\xaf&$\x80)\xd9?'
p7009
tp7010
Rp7011
s(S'diff-x-pos-31'
p7012
S'action-1'
p7013
tp7014
g5
(g9
S'\r\xfb\x04B\xaaP\xe1?'
p7015
tp7016
Rp7017
s(g3035
S'prev-action-1'
p7018
tp7019
g5
(g9
S'\xb8\xbfO\x14Oz\xdf\xbf'
p7020
tp7021
Rp7022
s(S'diff-x-pos--63'
p7023
S'action-4'
p7024
tp7025
g5
(g9
S'\x06\xf5\x8c\xaa9\xe0\xe9?'
p7026
tp7027
Rp7028
s(g2123
S'prev-action-4'
p7029
tp7030
g5
(g9
S'\xf2\x86\xea\xe7 _\xd4\xbf'
p7031
tp7032
Rp7033
s(g697
S'object-1-x-80.0'
p7034
tp7035
g5
(g9
S'\x14u\x86\x8et\xfa\xe0?'
p7036
tp7037
Rp7038
s(S'action-3'
p7039
S'object-0-x-120.0'
p7040
tp7041
g5
(g9
S'\xdb\xe3k\x05\xf7\xf5\xd6?'
p7042
tp7043
Rp7044
s(g2774
S'prev-action-4'
p7045
tp7046
g5
(g9
S'j\x14K\xb6\x83\xa5\xf7?'
p7047
tp7048
Rp7049
s(g762
S'prev-action-4'
p7050
tp7051
g5
(g9
S'\xd8O->\x95\xf8\xea\xbf'
p7052
tp7053
Rp7054
sg1942
g5
(g9
S'\xc2\x9e\xd5\xcf\x8c\xec\x13@'
p7055
tp7056
Rp7057
s(g5622
S'action-3'
p7058
tp7059
g5
(g9
S'\xcc\x9aN\x7fi\xf5\xf3\xbf'
p7060
tp7061
Rp7062
s(g2232
S'prev-action-1'
p7063
tp7064
g5
(g9
S'4\x8fA\x8b\xf38\xb7?'
p7065
tp7066
Rp7067
s(S'diff-x-pos-26'
p7068
S'prev-action-3'
p7069
tp7070
g5
(g9
S'8\xec\\\x80\xea\xc4\xb9\xbf'
p7071
tp7072
Rp7073
s(g3742
S'prev-action-1'
p7074
tp7075
g5
(g9
S'\xe0\xaa@\xfe\x04\xf6\xd4\xbf'
p7076
tp7077
Rp7078
s(g4620
S'action-3'
p7079
tp7080
g5
(g9
S'\xae\xaaf"\xabH\x00\xc0'
p7081
tp7082
Rp7083
s(S'diff-x-pos-51'
p7084
S'action-3'
p7085
tp7086
g5
(g9
S'Z\xca\xfbU\xd5z\xe2\xbf'
p7087
tp7088
Rp7089
s(S'diff-x-pos--91'
p7090
S'action-4'
p7091
tp7092
g5
(g9
S'\xa0\xfc+\xc0\xc1\x16\x03@'
p7093
tp7094
Rp7095
sg1530
g5
(g9
S'r\x11\xe1\xf6(1\xfb\xbf'
p7096
tp7097
Rp7098
sg1825
g5
(g9
S'T/\x92\xfa\t\x97\xf6?'
p7099
tp7100
Rp7101
s(S'diff-x-pos-39'
p7102
S'action-4'
p7103
tp7104
g5
(g9
S'\xee\xa9\xfc\x1d{\xe9\n\xc0'
p7105
tp7106
Rp7107
s(g4657
S'prev-action-3'
p7108
tp7109
g5
(g9
S'D\x98h88\xdc\xf6\xbf'
p7110
tp7111
Rp7112
sg327
g5
(g9
S'\x1b\xfc\t\xd1C\x86\n@'
p7113
tp7114
Rp7115
s(g6065
S'action-4'
p7116
tp7117
g5
(g9
S'\xbe\x19\xb7\xfal\x82\x00@'
p7118
tp7119
Rp7120
s(g4369
S'action-3'
p7121
tp7122
g5
(g9
S'c\x16\x06\x9ef \xf2\xbf'
p7123
tp7124
Rp7125
s(S'diff-x-pos--120'
p7126
S'prev-action-1'
p7127
tp7128
g5
(g9
S'\x98= \xfa]\xdb\xbf\xbf'
p7129
tp7130
Rp7131
s(S'diff-x-pos--70'
p7132
S'prev-action-4'
p7133
tp7134
g5
(g9
S'b\xd0qy\xb9M\xd0?'
p7135
tp7136
Rp7137
s(g2342
S'prev-action-4'
p7138
tp7139
g5
(g9
S'\xd2\xb2\xa8R\xc1\r\xe8\xbf'
p7140
tp7141
Rp7142
s(g4443
S'action-4'
p7143
tp7144
g5
(g9
S'*\x92\xc31Ie\xfa\xbf'
p7145
tp7146
Rp7147
s(S'diff-x-pos-34'
p7148
S'action-3'
p7149
tp7150
g5
(g9
S'\xec\xe5\xc7\xb9\xe7`\xc7?'
p7151
tp7152
Rp7153
s(g6082
S'action-1'
p7154
tp7155
g5
(g9
S'O\xa07R\x1f\x13\xec?'
p7156
tp7157
Rp7158
s(S'diff-x-pos--73'
p7159
S'action-4'
p7160
tp7161
g5
(g9
S'\x1eS4j\xa2\x88\xd6?'
p7162
tp7163
Rp7164
sg4814
g5
(g9
S'\xfa\x9es\xe7\xb3\xa4\x12@'
p7165
tp7166
Rp7167
s(S'diff-x-pos-14'
p7168
S'action-3'
p7169
tp7170
g5
(g9
S'B\n\xd0a>\x82\x02@'
p7171
tp7172
Rp7173
s(g1796
S'prev-action-3'
p7174
tp7175
g5
(g9
S'BagJ8w\xc4?'
p7176
tp7177
Rp7178
s(g427
S'prev-action-3'
p7179
tp7180
g5
(g9
S'\xcd\x06\x98}u\x0e\xe4?'
p7181
tp7182
Rp7183
s(g1766
S'action-4'
p7184
tp7185
g5
(g9
S'"\xc3\xa4%\x96\xc9\xd9?'
p7186
tp7187
Rp7188
s(g4937
S'prev-action-3'
p7189
tp7190
g5
(g9
S'\x80X\xf0\xbbG\x19\xea?'
p7191
tp7192
Rp7193
s(g1748
S'action-3'
p7194
tp7195
g5
(g9
S'!V\xdc\xe4\xf9\x89\x04@'
p7196
tp7197
Rp7198
sg326
g5
(g9
S'\x96\x8dU\xfa\x0505@'
p7199
tp7200
Rp7201
sg2462
g5
(g9
S'y\x81.c\xd0\xd55@'
p7202
tp7203
Rp7204
sg207
g5
(g9
S'90s\x04\xd8\xd04@'
p7205
tp7206
Rp7207
s(g2186
S'action-4'
p7208
tp7209
g5
(g9
S'\xfa\xaa\x8a$\x96[\xfd?'
p7210
tp7211
Rp7212
s(g915
S'prev-action-3'
p7213
tp7214
g5
(g9
S'\x98\xc8c\xb3\xb4\xcc\xc4\xbf'
p7215
tp7216
Rp7217
s(g2262
S'prev-action-1'
p7218
tp7219
g5
(g9
S'l=\xe2|\xed\xef\xd0?'
p7220
tp7221
Rp7222
sS'object-1-y-20.0'
p7223
g5
(g9
S'\xce\xa33G\xbc_\xe5\xbf'
p7224
tp7225
Rp7226
s(g4819
S'prev-action-3'
p7227
tp7228
g5
(g9
S'\x86\xb6\xe3 \x82\xc5\xe0?'
p7229
tp7230
Rp7231
s(S'diff-x-pos--24'
p7232
S'prev-action-3'
p7233
tp7234
g5
(g9
S'5\xbe\x18Bkh\xe3\xbf'
p7235
tp7236
Rp7237
sS'diff-y-pos--11'
p7238
g5
(g9
S'^\xe6\xbc\x08\x8a\xa4\xfe?'
p7239
tp7240
Rp7241
sS'diff-y-pos--10'
p7242
g5
(g9
S'\xb1o\x94w\xa6r\xf7?'
p7243
tp7244
Rp7245
sg4207
g5
(g9
S'\xfeUo[\xfb\x8d\xed\xbf'
p7246
tp7247
Rp7248
s(g5431
S'action-3'
p7249
tp7250
g5
(g9
S'D\x18\x83x0j\xd4?'
p7251
tp7252
Rp7253
s(S'diff-x-pos--83'
p7254
S'prev-action-4'
p7255
tp7256
g5
(g9
S'\x88h\x84\xf1\x1eB\xc3\xbf'
p7257
tp7258
Rp7259
sg915
g5
(g9
S'\x0b\x92\xa6Z\xfd\xe7\x00\xc0'
p7260
tp7261
Rp7262
s(g1642
S'action-1'
p7263
tp7264
g5
(g9
S'\n\xe7\xf8\x07+s\xc4?'
p7265
tp7266
Rp7267
s(S'diff-x-pos--6'
p7268
S'action-4'
p7269
tp7270
g5
(g9
S'\xa7\xa3\xf2\x88\xb0\x0f\xf1\xbf'
p7271
tp7272
Rp7273
s(g3597
S'action-3'
p7274
tp7275
g5
(g9
S'|Q\xe4KQ\x01\x07@'
p7276
tp7277
Rp7278
s(g3200
S'prev-action-4'
p7279
tp7280
g5
(g9
S'\x84\x19\x8dPu\xfa\xb6\xbf'
p7281
tp7282
Rp7283
s(g1016
S'action-4'
p7284
tp7285
g5
(g9
S'\xb7\xe5\x07\xfb\xee\x8a\xef\xbf'
p7286
tp7287
Rp7288
s(S'diff-x-pos--106'
p7289
S'action-4'
p7290
tp7291
g5
(g9
S'\x82\xdb4\xf1\x1c\xfa\x01@'
p7292
tp7293
Rp7294
s(g3914
S'action-1'
p7295
tp7296
g5
(g9
S'\xee\xde\xcc\x1b\x93 \xee?'
p7297
tp7298
Rp7299
s(g196
S'object-1-x-60.0'
p7300
tp7301
g5
(g9
S'\xb0P\xda\xda\xbeK\xfc?'
p7302
tp7303
Rp7304
s(g3200
S'action-1'
p7305
tp7306
g5
(g9
S'\x01Z\xc3\xcc\x82\x0b\xf2?'
p7307
tp7308
Rp7309
s(g4886
S'action-4'
p7310
tp7311
g5
(g9
S'\x0c\x8c\x1b]\xc2,\xe5\xbf'
p7312
tp7313
Rp7314
s(g5079
g4545
tp7315
g5
(g9
S'\xe2\xf9\xe0\xa3\xcd\xae\x06@'
p7316
tp7317
Rp7318
s(S'object-1-dx-1'
p7319
g428
tp7320
g5
(g9
S"'\xad\x0bM_\x08\xf4?"
p7321
tp7322
Rp7323
s(g754
g326
tp7324
g5
(g9
S'\x8a\x832`\x90\xad\x02@'
p7325
tp7326
Rp7327
s(S'diff-x-pos--14'
p7328
S'action-1'
p7329
tp7330
g5
(g9
S'"\x1b\xf7d\xd4\xec\xd0\xbf'
p7331
tp7332
Rp7333
s(S'diff-x-pos--112'
p7334
S'prev-action-1'
p7335
tp7336
g5
(g9
S'\xc8\xe8\xc1V\x89D\xfb\xbf'
p7337
tp7338
Rp7339
s(g573
S'prev-action-3'
p7340
tp7341
g5
(g9
S'\xf7\x87Q<%)\xf0\xbf'
p7342
tp7343
Rp7344
s(g2918
S'action-1'
p7345
tp7346
g5
(g9
S'\x94\xe2\x89\x84t\xdd\xf8?'
p7347
tp7348
Rp7349
s(S'diff-x-pos-29'
p7350
S'prev-action-1'
p7351
tp7352
g5
(g9
S'\x92\x86m\xc6\xfe\n\xe3\xbf'
p7353
tp7354
Rp7355
s(S'diff-x-pos--119'
p7356
S'prev-action-1'
p7357
tp7358
g5
(g9
S'\xf8\x91\xe9\xbft\xa2\xc4?'
p7359
tp7360
Rp7361
s(S'diff-x-pos-57'
p7362
S'action-3'
p7363
tp7364
g5
(g9
S'^\x98\x11\xda\n\xfe\xc4\xbf'
p7365
tp7366
Rp7367
s(g5013
S'prev-action-3'
p7368
tp7369
g5
(g9
S'\x9e\xfa\xa9\xe4C \xf5?'
p7370
tp7371
Rp7372
s(S'diff-x-pos-8'
p7373
S'action-4'
p7374
tp7375
g5
(g9
S'\x92\nw\x8a\x0f\x12\xd3\xbf'
p7376
tp7377
Rp7378
s(g533
S'prev-action-3'
p7379
tp7380
g5
(g9
S'n\xc4el\xfa\xd5\xd5?'
p7381
tp7382
Rp7383
sg4130
g5
(g9
S'p\xc2\xaeV\xc91\xc4?'
p7384
tp7385
Rp7386
sg39
g5
(g9
S'\xeal$\x07\xab5\xd0\xbf'
p7387
tp7388
Rp7389
sg638
g5
(g9
S'p\xee\xf4\xe7\xe75\xd5\xbf'
p7390
tp7391
Rp7392
sg4657
g5
(g9
S'f\x87\x82MS&\xd1\xbf'
p7393
tp7394
Rp7395
sg5175
g5
(g9
S'\xb8\x96\x00n\xf4\x92\xe2?'
p7396
tp7397
Rp7398
sg433
g5
(g9
S'\xb2\xac\xf1L:,\xf1?'
p7399
tp7400
Rp7401
s(g3269
S'prev-action-4'
p7402
tp7403
g5
(g9
S'\x80\x00g\xb1)*\xe6\xbf'
p7404
tp7405
Rp7406
sg5143
g5
(g9
S'\xd4\xd6\xa0\x0b\x8e!\xde\xbf'
p7407
tp7408
Rp7409
s(g4000
S'prev-action-1'
p7410
tp7411
g5
(g9
S'\x18\xfa\xff\xc6Wy\x00\xc0'
p7412
tp7413
Rp7414
s(g7356
S'action-4'
p7415
tp7416
g5
(g9
S't\x8bWtP\xd7\xea\xbf'
p7417
tp7418
Rp7419
sg2868
g5
(g9
S'\xa0\x8aX\xa7\xe7Z\xe3?'
p7420
tp7421
Rp7422
sg1463
g5
(g9
S'(\xd3\x95\x9f\xb1\x06\xfa?'
p7423
tp7424
Rp7425
sg3853
g5
(g9
S'\x86s&\xd2\x07d\xeb\xbf'
p7426
tp7427
Rp7428
sg3742
g5
(g9
S'\x8c\xd0\xabb\x957\xd4?'
p7429
tp7430
Rp7431
s(S'diff-x-pos--36'
p7432
S'prev-action-3'
p7433
tp7434
g5
(g9
S'";<\t\x16_\xf2\xbf'
p7435
tp7436
Rp7437
s(g708
S'prev-action-4'
p7438
tp7439
g5
(g9
S'\x0f\x07\x1f\xf7=\xac\xdc\xbf'
p7440
tp7441
Rp7442
s(g3941
S'prev-action-1'
p7443
tp7444
g5
(g9
S'\xd8D\xc1>dh\xb2?'
p7445
tp7446
Rp7447
sg135
g5
(g9
S'\x00>*\xdd\x87\xdd\xd2?'
p7448
tp7449
Rp7450
sg4620
g5
(g9
S'\xd5S8*\xfa\x11\xd0?'
p7451
tp7452
Rp7453
sg427
g5
(g9
S'\xaf\xbf3\xd8D&\xef\xbf'
p7454
tp7455
Rp7456
s(g443
S'prev-action-1'
p7457
tp7458
g5
(g9
S'\x18bM\xce""\xb1\xbf'
p7459
tp7460
Rp7461
sg6065
g5
(g9
S'2;|\x02tu\xe1?'
p7462
tp7463
Rp7464
s(g1877
S'prev-action-3'
p7465
tp7466
g5
(g9
S'&W\xb1(9 \xe8\xbf'
p7467
tp7468
Rp7469
sg5701
g5
(g9
S'G\x1b\x1f\xf7\x8cq\xf2\xbf'
p7470
tp7471
Rp7472
sg5349
g5
(g9
S'\x17!\xcaM\xd0\xf4\xd8?'
p7473
tp7474
Rp7475
s(g1976
S'prev-action-3'
p7476
tp7477
g5
(g9
S'1\xeb\xf7\xebT\x84\xfd\xbf'
p7478
tp7479
Rp7480
s(S'diff-x-pos--41'
p7481
S'prev-action-4'
p7482
tp7483
g5
(g9
S'J\x96\xebuK\xda\xce?'
p7484
tp7485
Rp7486
s(g3908
S'action-1'
p7487
tp7488
g5
(g9
S'\xde\x0b\xcb\xe7u\xdb\xe5\xbf'
p7489
tp7490
Rp7491
s(g5349
S'action-3'
p7492
tp7493
g5
(g9
S'+\x9f\xa2S\xf1\x82\xf2\xbf'
p7494
tp7495
Rp7496
s(S'diff-x-pos--9'
p7497
S'action-1'
p7498
tp7499
g5
(g9
S'\x13\xd1\xf0])\xed\xe3?'
p7500
tp7501
Rp7502
s(g4410
S'prev-action-4'
p7503
tp7504
g5
(g9
S'\x1b\x9d\xf6\xe3\xa3\x8a\xd6?'
p7505
tp7506
Rp7507
s(g1291
S'prev-action-4'
p7508
tp7509
g5
(g9
S':\xa7b\xc7.\xf9\xfe\xbf'
p7510
tp7511
Rp7512
s(g970
S'prev-action-4'
p7513
tp7514
g5
(g9
S'\xb4\x0fL\\T\x05\xec\xbf'
p7515
tp7516
Rp7517
s(S'diff-x-pos--59'
p7518
S'prev-action-1'
p7519
tp7520
g5
(g9
S'\x00\x08Gv\xa6\x97R\xbf'
p7521
tp7522
Rp7523
sg3225
g5
(g9
S'J\xff\x86\xe0\xf7\xbb\xdc\xbf'
p7524
tp7525
Rp7526
sg195
g5
(g9
S'\xda>\xeaUr\x7f\xe8?'
p7527
tp7528
Rp7529
s(g3241
S'prev-action-3'
p7530
tp7531
g5
(g9
S'X\xf2P\x0f\xc3\x9d\xb0\xbf'
p7532
tp7533
Rp7534
sg2209
g5
(g9
S'05:n\x1f\xe9\xaa\xbf'
p7535
tp7536
Rp7537
sg1127
g5
(g9
S'|\xcbA\xcc\xa0:\xb7\xbf'
p7538
tp7539
Rp7540
sg549
g5
(g9
S'\x00Io\xe7\xdaGP\xbf'
p7541
tp7542
Rp7543
sg3515
g5
(g9
S'hF\xdf&\xde}\xe5\xbf'
p7544
tp7545
Rp7546
sg302
g5
(g9
S'\xee)\\\xd9\x87c\xf4\xbf'
p7547
tp7548
Rp7549
sg2192
g5
(g9
S'\x0fW5\xd2\xc2\x18\xf9?'
p7550
tp7551
Rp7552
sg1713
g5
(g9
S'vgBM\x970\xfa?'
p7553
tp7554
Rp7555
sg5622
g5
(g9
S'4M<\nu\xf7\xc1\xbf'
p7556
tp7557
Rp7558
sg2991
g5
(g9
S'o\xb4\x93aN\x05\x0b@'
p7559
tp7560
Rp7561
s(g4807
S'action-4'
p7562
tp7563
g5
(g9
S'\x1aRMq\xcbM\xda?'
p7564
tp7565
Rp7566
s(g332
S'prev-action-3'
p7567
tp7568
g5
(g9
S'\xdf\x0eJ\x04\xecH\xe4?'
p7569
tp7570
Rp7571
s(S'object-1-dx--1'
p7572
g674
tp7573
g5
(g9
S'\xcd\x04\xf2\x18\xea\x8c\xe5?'
p7574
tp7575
Rp7576
s(g1924
S'prev-action-3'
p7577
tp7578
g5
(g9
S'0%u\x02{\xa3\xcc\xbf'
p7579
tp7580
Rp7581
s(S'diff-x-pos--30'
p7582
S'action-3'
p7583
tp7584
g5
(g9
S'I\xc3\x9a\xe0\x1e9\xf9?'
p7585
tp7586
Rp7587
s(S'diff-x-pos-5'
p7588
S'prev-action-4'
p7589
tp7590
g5
(g9
S'\xc2\xaf\xdfS$I\xcc\xbf'
p7591
tp7592
Rp7593
s(g1314
S'action-4'
p7594
tp7595
g5
(g9
S'\xa9\xf5\xf6\xe6\xf6\x80\xff\xbf'
p7596
tp7597
Rp7598
s(g2097
S'prev-action-3'
p7599
tp7600
g5
(g9
S'\xb0\xdbo\xe1\xdc%\xb8\xbf'
p7601
tp7602
Rp7603
s(g5175
S'action-3'
p7604
tp7605
g5
(g9
S'\x1c\xe4T\xb8\xdd\xe7\xd5?'
p7606
tp7607
Rp7608
s(S'diff-x-pos-49'
p7609
S'action-3'
p7610
tp7611
g5
(g9
S'\xbd2\xe6\xb5(\xa4\n@'
p7612
tp7613
Rp7614
s(S'diff-x-pos--109'
p7615
S'action-3'
p7616
tp7617
g5
(g9
S'n\xc2!\xce\xc5\xcf\xfa\xbf'
p7618
tp7619
Rp7620
s(g3736
S'action-3'
p7621
tp7622
g5
(g9
S'\xe0x\xe6\xce\xb1t\xdc\xbf'
p7623
tp7624
Rp7625
s(g2840
S'action-4'
p7626
tp7627
g5
(g9
S'\xb8E\xee\xb2\x10\xfc\xfd\xbf'
p7628
tp7629
Rp7630
s(S'diff-x-pos-36'
p7631
S'action-1'
p7632
tp7633
g5
(g9
S'0\xb7\xc1Cn\xff\xca?'
p7634
tp7635
Rp7636
s(S'diff-x-pos--8'
p7637
S'prev-action-1'
p7638
tp7639
g5
(g9
S'\xe4A\r\xe9\x0eP\xd8?'
p7640
tp7641
Rp7642
s(S'diff-x-pos-23'
p7643
S'action-4'
p7644
tp7645
g5
(g9
S'\xfbS\x13f\x1dw\xf4\xbf'
p7646
tp7647
Rp7648
s(g2127
S'action-4'
p7649
tp7650
g5
(g9
S"\x86k'\xc9\x16\xe7\xea\xbf"
p7651
tp7652
Rp7653
s(g3169
S'prev-action-3'
p7654
tp7655
g5
(g9
S'j\x87y\xce1>\xfa\xbf'
p7656
tp7657
Rp7658
s(g4991
S'action-4'
p7659
tp7660
g5
(g9
S'\xcd\x91\x07r\xc8\xe9\xc0?'
p7661
tp7662
Rp7663
s(g195
g3831
tp7664
g5
(g9
S'\rp_D8\xd7\xdb?'
p7665
tp7666
Rp7667
s(g2509
S'prev-action-3'
p7668
tp7669
g5
(g9
S'\xb1\x03\x9e\xe8\xa7\x9a\xe2\xbf'
p7670
tp7671
Rp7672
s(S'action-4'
p7673
S'object-1-x-110.0'
p7674
tp7675
g5
(g9
S'\x985\xd5`\x84A\x03@'
p7676
tp7677
Rp7678
stp7679
Rp7680
.