ccollections
Counter
p0
((dp1
(S'diff-x-pos--89'
p2
S'action-4'
p3
tp4
F7.678686707882006
s(S'diff-x-pos-47'
p5
S'prev-action-1'
p6
tp7
F0.8599634580142789
s(S'diff-x-pos--94'
p8
S'action-3'
p9
tp10
F-10.992886592501321
s(S'diff-x-pos--1'
p11
S'prev-action-1'
p12
tp13
F-1.0358008172131516
s(S'diff-x-pos-2'
p14
S'prev-action-3'
p15
tp16
F2.251853948027161
s(S'diff-x-pos--7'
p17
S'prev-action-1'
p18
tp19
F-0.36711639822500736
s(S'diff-x-pos--27'
p20
S'action-4'
p21
tp22
F-2.311719466183214
s(S'diff-x-pos-40'
p23
S'action-3'
p24
tp25
F8.961865956204749
s(S'diff-x-pos-54'
p26
S'action-1'
p27
tp28
F-0.595527169547754
s(S'diff-x-pos--43'
p29
S'prev-action-4'
p30
tp31
F-0.23680033335689177
s(S'diff-x-pos--96'
p32
S'prev-action-4'
p33
tp34
F1.407087425227245
s(S'action-4'
p35
S'object-1-x-60.0'
p36
tp37
F3.2714849714203713
s(S'diff-x-pos--35'
p38
S'action-3'
p39
tp40
F-0.7231246577708665
s(S'diff-x-pos--25'
p41
S'prev-action-4'
p42
tp43
F0.14517401457452855
s(S'diff-x-pos--75'
p44
S'prev-action-4'
p45
tp46
F0.45276803486389344
s(S'diff-x-pos-43'
p47
S'prev-action-4'
p48
tp49
F-2.13050545808526
s(S'diff-x-pos--26'
p50
S'prev-action-1'
p51
tp52
F-0.13412613371831228
s(g23
S'prev-action-1'
p53
tp54
F0.6122057205263793
s(S'diff-x-pos--7'
p55
S'action-3'
p56
tp57
F1.5040093268391344
s(S'diff-x-pos--61'
p58
S'action-3'
p59
tp60
F-4.525449065198475
s(S'action-4'
p61
S'object-1-x-80.0'
p62
tp63
F5.896455703572348
s(S'diff-x-pos-21'
p64
S'prev-action-1'
p65
tp66
F1.5360431912411894
s(S'diff-x-pos-33'
p67
S'prev-action-4'
p68
tp69
F2.5659105404315126
s(S'diff-x-pos-69'
p70
S'prev-action-4'
p71
tp72
F-1.6322739989759896
s(S'diff-x-pos-17'
p73
S'action-1'
p74
tp75
F-0.2395641869349881
s(S'diff-x-pos-37'
p76
S'action-4'
p77
tp78
F-10.228468394612749
s(S'diff-x-pos--13'
p79
S'action-4'
p80
tp81
F-0.08668034126665902
s(S'diff-x-pos-9'
p82
S'action-3'
p83
tp84
F6.241843031139308
s(S'diff-x-pos--98'
p85
S'action-1'
p86
tp87
F0.07450137044956845
s(S'action-3'
p88
S'object-1-x-80.0'
p89
tp90
F-0.6073724317334197
s(S'diff-x-pos--69'
p91
S'action-4'
p92
tp93
F5.945297610151671
s(S'diff-x-pos--46'
p94
S'prev-action-4'
p95
tp96
F1.7459749601424512
s(S'diff-x-pos--49'
p97
S'prev-action-4'
p98
tp99
F-0.655230915056158
s(S'diff-x-pos-25'
p100
S'action-4'
p101
tp102
F-6.7024585237599155
s(S'diff-x-pos-66'
p103
S'prev-action-3'
p104
tp105
F-0.17023872788893613
s(S'action-4'
p106
S'object-0-x-120.0'
p107
tp108
F12.24154977595305
s(S'diff-x-pos--13'
p109
S'prev-action-4'
p110
tp111
F-1.8163043228148466
s(S'diff-x-pos--37'
p112
S'action-4'
p113
tp114
F1.0556718205933102
s(g20
S'prev-action-1'
p115
tp116
F0.8159842244025487
s(S'diff-x-pos-63'
p117
S'prev-action-3'
p118
tp119
F0.466626460036602
s(S'diff-x-pos-52'
p120
S'action-4'
p121
tp122
F-10.880530839788761
s(S'diff-x-pos-59'
p123
S'action-4'
p124
tp125
F-4.739999695793316
s(S'diff-x-pos--55'
p126
S'action-4'
p127
tp128
F3.857713439201459
s(S'diff-x-pos--31'
p129
S'action-1'
p130
tp131
F0.5826712823859741
s(S'diff-x-pos-48'
p132
S'action-1'
p133
tp134
F1.6878754370837248
s(S'diff-x-pos-4'
p135
S'prev-action-4'
p136
tp137
F-1.0180399189342637
s(S'diff-x-pos--30'
p138
S'prev-action-1'
p139
tp140
F-0.9667939980742345
s(S'diff-x-pos--5'
p141
S'action-3'
p142
tp143
F3.358595638422177
s(S'action-4'
p144
S'object-0-x-50.0'
p145
tp146
F2.4179507884682723
s(S'diff-x-pos-3'
p147
S'action-4'
p148
tp149
F-2.680145631770714
s(S'diff-x-pos-26'
p150
S'action-4'
p151
tp152
F-8.25198740501696
s(S'diff-x-pos--13'
p153
S'action-3'
p154
tp155
F1.5332722049277745
s(g77
S'object-0-x-130.0'
p156
tp157
F-4.836674163621297
s(S'diff-x-pos--26'
p158
S'action-1'
p159
tp160
F0.1616582334190153
s(S'diff-x-pos--75'
p161
S'action-4'
p162
tp163
F6.7654945669376865
s(S'diff-x-pos--23'
p164
S'prev-action-4'
p165
tp166
F1.0024289048410941
s(S'diff-x-pos-37'
p167
S'action-3'
p168
tp169
F9.822531740463408
s(S'diff-x-pos-55'
p170
S'action-4'
p171
tp172
F-9.896044325428198
s(S'diff-x-pos--105'
p173
S'prev-action-4'
p174
tp175
F2.1186961618712608
s(S'diff-x-pos--59'
p176
S'action-3'
p177
tp178
F0.13787874189428706
s(S'object-0-dx-1'
p179
S'prev-action-3'
p180
tp181
F-0.7675891640426115
s(S'diff-x-pos--39'
p182
S'prev-action-3'
p183
tp184
F-2.2304352822991267
s(S'diff-x-pos-2'
p185
S'action-3'
p186
tp187
F3.047159088877679
s(S'diff-x-pos-4'
p188
S'prev-action-3'
p189
tp190
F2.0633586147910963
s(S'action-3'
p191
S'object-0-x-40.0'
p192
tp193
F8.069091272554903
s(S'diff-x-pos--3'
p194
S'action-4'
p195
tp196
F-2.2404488443107278
sS'object-1-x-120.0'
p197
F-1.433815309105708
s(S'diff-x-pos-3'
p198
S'action-3'
p199
tp200
F5.067832748873504
sS'prev-action-1'
p201
F46.79816263159745
s(S'diff-x-pos--90'
p202
S'prev-action-3'
p203
tp204
F-0.8206907640953554
sS'prev-action-3'
p205
F44.71125522885414
s(S'action-3'
p206
S'object-1-x-110.0'
p207
tp208
F-2.8153602508521836
s(S'diff-x-pos-1'
p209
S'prev-action-1'
p210
tp211
F-1.9862080829387274
s(S'diff-x-pos--36'
p212
S'action-1'
p213
tp214
F1.8122398993406823
s(g47
S'action-1'
p215
tp216
F-0.8896688087769753
s(S'diff-x-pos--79'
p217
S'action-4'
p218
tp219
F8.09445602742963
s(g38
S'prev-action-4'
p220
tp221
F-1.0550817307423004
s(S'diff-x-pos-55'
p222
S'action-3'
p223
tp224
F15.489186642613067
s(S'diff-x-pos-45'
p225
S'prev-action-3'
p226
tp227
F-0.9832455400509023
s(S'diff-x-pos--34'
p228
S'prev-action-3'
p229
tp230
F1.381984668076655
s(S'diff-x-pos-6'
p231
S'prev-action-4'
p232
tp233
F-1.8830306001331656
s(S'diff-x-pos--96'
p234
S'action-1'
p235
tp236
F1.9524233186429316
sS'diff-x-pos--103'
p237
F-3.4696493941990862
sS'diff-y-pos-0'
p238
F-3.8244385108909746
s(S'diff-x-pos--17'
p239
S'action-1'
p240
tp241
F1.3941320386173368
s(S'diff-x-pos--100'
p242
S'prev-action-4'
p243
tp244
F-0.4865634873098129
sS'object-1-x-100.0'
p245
F1.3276621319716626
s(S'diff-x-pos-2'
p246
S'action-4'
p247
tp248
F-2.586686561275311
s(S'diff-x-pos-29'
p249
S'action-3'
p250
tp251
F7.354174037283545
s(g195
S'object-1-x-70.0'
p252
tp253
F1.628627604426045
s(S'diff-x-pos-38'
p254
S'prev-action-3'
p255
tp256
F1.608861996581818
s(S'diff-x-pos--4'
p257
S'action-1'
p258
tp259
F1.5306470899332218
s(S'diff-x-pos--112'
p260
S'action-3'
p261
tp262
F-8.190446578363193
sS'object-1-dx--1'
p263
F-2.1470856848841255
s(S'diff-x-pos--95'
p264
S'action-4'
p265
tp266
F6.3814419741692285
s(S'diff-x-pos--33'
p267
S'action-1'
p268
tp269
F-0.9606115570963171
s(g39
S'object-0-x-90.0'
p270
tp271
F-3.826612506485789
sS'object-1-dy--1'
p272
F-3.3090934289930605
s(S'diff-x-pos--51'
p273
S'action-1'
p274
tp275
F0.2775498222898469
s(S'diff-x-pos--120'
p276
S'action-4'
p277
tp278
F-0.1854127571727977
s(S'action-3'
p279
S'object-1-x-70.0'
p280
tp281
F1.1753218132200112
s(S'action-4'
p282
S'object-0-x-60.0'
p283
tp284
F5.34924094469862
s(g257
S'prev-action-4'
p285
tp286
F-1.3187367479930479
s(S'diff-x-pos--24'
p287
S'action-1'
p288
tp289
F-0.21570596890895366
s(S'diff-x-pos-38'
p290
S'action-4'
p291
tp292
F-6.036430508802842
s(S'diff-x-pos--77'
p293
S'action-4'
p294
tp295
F4.332509118400655
s(S'diff-x-pos-57'
p296
S'action-4'
p297
tp298
F-8.030093483246493
s(S'diff-x-pos-3'
p299
S'prev-action-1'
p300
tp301
F0.43764213109715094
s(S'diff-x-pos--97'
p302
S'prev-action-3'
p303
tp304
F0.8692902246631139
s(g159
S'object-1-x-70.0'
p305
tp306
F-0.6454701398819851
s(S'diff-x-pos-35'
p307
S'prev-action-1'
p308
tp309
F1.1194662898317351
s(S'diff-x-pos-42'
p310
S'prev-action-3'
p311
tp312
F3.0574961955180746
s(S'diff-x-pos--10'
p313
S'action-1'
p314
tp315
F0.5773069714252498
s(S'diff-x-pos-14'
p316
S'prev-action-1'
p317
tp318
F-1.9200701496089523
s(S'diff-x-pos-25'
p319
S'action-3'
p320
tp321
F6.605747294933475
s(S'diff-x-pos-19'
p322
S'prev-action-3'
p323
tp324
F1.5951489571941044
s(S'diff-x-pos--114'
p325
S'prev-action-4'
p326
tp327
F-5.0617286248429165
s(S'diff-x-pos-34'
p328
S'prev-action-1'
p329
tp330
F1.3731176178418758
sS'diff-x-pos--54'
p331
F-1.573169334414204
sg126
F-3.857668751055543
sS'diff-x-pos--56'
p332
F-1.6216158162308325
sS'diff-x-pos--57'
p333
F-0.10472786596555672
sS'diff-x-pos--50'
p334
F-1.4644166923706619
sS'diff-x-pos--51'
p335
F1.2217626575625604
sS'diff-x-pos--52'
p336
F-1.542455894146103
sS'diff-x-pos--53'
p337
F2.4393870317302753
s(S'action-1'
p338
S'object-0-x-60.0'
p339
tp340
F2.0861280575191286
sS'diff-x-pos--58'
p341
F-2.1008722193986724
sS'diff-x-pos--59'
p342
F1.8979556507403412
s(S'diff-x-pos--102'
p343
S'action-4'
p344
tp345
F8.594848777699509
s(S'diff-x-pos--38'
p346
S'action-1'
p347
tp348
F-1.495483025917603
sS'object-0-y-0.0'
p349
F44.705465130849284
s(g58
S'prev-action-4'
p350
tp351
F-0.025806370584964045
s(S'diff-x-pos--68'
p352
S'action-3'
p353
tp354
F-6.466620952457345
s(g176
S'prev-action-4'
p355
tp356
F0.3831414360630533
s(S'diff-x-pos-57'
p357
S'prev-action-3'
p358
tp359
F2.535428056968382
s(S'action-1'
p360
S'object-0-x-100.0'
p361
tp362
F5.183902074691181
s(S'diff-x-pos--38'
p363
S'prev-action-1'
p364
tp365
F1.055357143893361
s(S'diff-x-pos--14'
p366
S'prev-action-1'
p367
tp368
F-2.208704632363891
s(S'object-1-dx-1'
p369
S'prev-action-1'
p370
tp371
F-1.8304998263581909
s(S'diff-x-pos--19'
p372
g191
tp373
F1.0073619007941168
sS'object-0-x-90.0'
p374
F7.868076898654081
s(S'diff-x-pos--106'
p375
S'prev-action-4'
p376
tp377
F-1.0737489328575314
s(g194
S'prev-action-1'
p378
tp379
F0.045489202247263716
s(S'diff-x-pos--28'
p380
S'prev-action-1'
p381
tp382
F-0.6834953154245691
s(S'diff-x-pos--71'
p383
S'prev-action-1'
p384
tp385
F-0.6049803232061652
s(S'diff-x-pos--107'
p386
S'prev-action-3'
p387
tp388
F-1.8456903848463062
sg369
F-1.8281916372147773
s(S'diff-x-pos--116'
p389
S'prev-action-4'
p390
tp391
F-0.7223292351071077
s(S'diff-x-pos--83'
p392
S'action-4'
p393
tp394
F7.323205966095504
s(S'diff-x-pos--55'
p395
S'prev-action-1'
p396
tp397
F-3.7949947199336354
s(g310
S'action-3'
p398
tp399
F9.423361457113431
s(S'diff-x-pos-10'
p400
S'prev-action-3'
p401
tp402
F1.496533035190715
s(S'diff-x-pos--37'
p403
S'prev-action-1'
p404
tp405
F-1.5104559498518006
s(S'diff-x-pos--74'
p406
S'action-3'
p407
tp408
F-9.387100771769333
s(S'diff-x-pos--22'
p409
S'prev-action-3'
p410
tp411
F1.0403192989995054
s(S'diff-x-pos--97'
p412
S'action-3'
p413
tp414
F-11.255880625195351
s(g296
S'prev-action-4'
p415
tp416
F0.394193256812742
s(S'diff-x-pos--79'
p417
S'prev-action-3'
p418
tp419
F-1.237134709515535
sS'diff-x-pos-12'
p420
F0.8859896306594055
sS'diff-x-pos-13'
p421
F0.9432290631207635
sS'diff-x-pos-10'
p422
F-0.6679527695517937
sS'diff-x-pos-11'
p423
F1.6649949549333485
sS'diff-x-pos-16'
p424
F1.7294989386317174
sS'diff-x-pos-17'
p425
F1.7242661459458701
sS'diff-x-pos-14'
p426
F0.5127599067292585
sS'diff-x-pos-15'
p427
F2.8332047761872983
s(S'diff-x-pos-28'
p428
S'action-1'
p429
tp430
F-1.7597835258797976
sS'diff-x-pos-18'
p431
F-0.8529188652726005
sS'diff-x-pos-19'
p432
F0.23185181859731296
s(S'diff-x-pos--51'
p433
S'prev-action-1'
p434
tp435
F-2.184438508680555
s(S'diff-x-pos--63'
p436
S'action-3'
p437
tp438
F-4.656843596712636
s(g8
S'prev-action-1'
p439
tp440
F-2.4099309495020664
s(S'diff-x-pos--44'
p441
S'action-3'
p442
tp443
F-1.311236627560454
s(S'diff-x-pos--33'
p444
S'prev-action-1'
p445
tp446
F1.7698993647943377
s(S'diff-x-pos--42'
p447
S'action-3'
p448
tp449
F-1.5742326394384438
s(S'diff-x-pos-30'
p450
S'prev-action-3'
p451
tp452
F3.2258256015488396
s(S'diff-x-pos--85'
p453
S'action-3'
p454
tp455
F-8.36647733028918
s(S'action-4'
p456
S'object-0-x-110.0'
p457
tp458
F6.5993690552956545
s(S'diff-x-pos-2'
p459
S'prev-action-4'
p460
tp461
F0.4796094870831842
s(S'diff-x-pos--44'
p462
S'action-4'
p463
tp464
F3.129121985419324
s(S'diff-x-pos--100'
p465
S'action-4'
p466
tp467
F8.45142721689917
s(S'diff-x-pos--32'
p468
S'prev-action-1'
p469
tp470
F0.6212611295069971
s(S'diff-x-pos--43'
p471
S'prev-action-1'
p472
tp473
F-1.0244913410652894
s(S'diff-x-pos--81'
p474
S'prev-action-4'
p475
tp476
F0.8650456227724101
s(g234
S'prev-action-1'
p477
tp478
F-1.8226531636604908
s(S'diff-x-pos--8'
p479
S'action-4'
p480
tp481
F-2.107366401628017
s(S'diff-x-pos-45'
p482
S'action-3'
p483
tp484
F10.51524536973459
s(g425
S'prev-action-1'
p485
tp486
F1.3730419658160637
s(S'diff-x-pos--25'
p487
S'prev-action-1'
p488
tp489
F-2.0473488160228577
s(S'diff-x-pos-58'
p490
S'prev-action-4'
p491
tp492
F2.9004752846183584
s(S'diff-x-pos-43'
p493
S'prev-action-1'
p494
tp495
F-2.582439841964901
s(S'diff-x-pos--63'
p496
S'action-4'
p497
tp498
F2.0517675774894535
s(S'diff-x-pos--90'
p499
S'action-3'
p500
tp501
F-8.630905039757698
s(S'diff-x-pos-40'
p502
S'prev-action-4'
p503
tp504
F-2.902253510037942
s(S'diff-x-pos-26'
p505
S'prev-action-3'
p506
tp507
F-0.19331008161686025
s(S'diff-x-pos--7'
p508
S'action-4'
p509
tp510
F-0.6200395084194744
s(S'diff-x-pos--3'
p511
S'prev-action-4'
p512
tp513
F1.1001734575048263
s(S'action-1'
p514
S'prev-action-4'
p515
tp516
F15.269618021588748
s(S'diff-x-pos--47'
p517
S'action-1'
p518
tp519
F0.5334766551826979
s(S'object-0-dx--1'
p520
g201
tp521
F-0.006683755222962828
s(S'diff-x-pos-33'
p522
S'prev-action-3'
p523
tp524
F1.2522792319723
s(g231
S'action-1'
p525
tp526
F-2.522395780537386
s(S'diff-x-pos--15'
p527
S'action-3'
p528
tp529
F0.9831158288209823
s(S'diff-x-pos--11'
p530
S'prev-action-4'
p531
tp532
F1.3866194777059377
s(S'diff-x-pos--39'
p533
g88
tp534
F-3.583758272754601
s(S'object-0-dx-1'
p535
S'action-3'
p536
tp537
F-3.114707179963255
s(g97
S'action-3'
p538
tp539
F-4.689044478414391
s(S'diff-x-pos-9'
p540
S'action-4'
p541
tp542
F-3.2585884089134445
s(S'diff-x-pos--98'
p543
S'action-4'
p544
tp545
F6.055419208466149
s(g341
S'prev-action-4'
p546
tp547
F0.14110035888821715
s(S'diff-x-pos-60'
p548
S'prev-action-4'
p549
tp550
F3.085857036138351
s(g288
S'object-0-x-50.0'
p551
tp552
F5.676254868967235
s(S'diff-x-pos-37'
p553
S'prev-action-3'
p554
tp555
F0.19989548152586079
s(g79
S'prev-action-3'
p556
tp557
F-0.46936681839154737
s(S'diff-x-pos-26'
p558
S'prev-action-4'
p559
tp560
F0.5730932599977352
s(g441
S'prev-action-1'
p561
tp562
F-1.1444545253085066
s(S'diff-x-pos--92'
p563
S'prev-action-3'
p564
tp565
F-0.6212614252195215
s(S'diff-x-pos-52'
p566
S'action-3'
p567
tp568
F11.564134027165354
s(g360
S'prev-action-3'
p569
tp570
F16.994132173605056
s(S'diff-x-pos-59'
p571
S'action-1'
p572
tp573
F2.7703055501860474
s(S'action-3'
p574
S'object-0-x-10.0'
p575
tp576
F10.00125620640516
s(S'diff-x-pos-41'
p577
S'action-1'
p578
tp579
F-0.7845519600572053
s(S'diff-x-pos-48'
p580
S'prev-action-1'
p581
tp582
F0.44152887631975474
s(S'diff-x-pos--104'
p583
S'prev-action-1'
p584
tp585
F-0.976757928406154
s(S'diff-x-pos-5'
p586
S'action-3'
p587
tp588
F5.570596879481216
s(S'diff-x-pos--115'
p589
S'prev-action-3'
p590
tp591
F-0.8499865263564879
s(S'action-4'
p592
g201
tp593
F17.21904157365496
s(S'diff-x-pos-63'
p594
S'action-3'
p595
tp596
F2.9024952830356585
s(S'diff-x-pos-68'
p597
S'action-1'
p598
tp599
F1.4321907950830295
s(S'diff-x-pos-13'
p600
S'prev-action-1'
p601
tp602
F-0.6929840046922826
s(S'diff-x-pos-25'
p603
S'prev-action-4'
p604
tp605
F-2.8539131576029293
s(S'diff-x-pos--49'
p606
S'action-4'
p607
tp608
F0.228955553973632
s(S'diff-x-pos--103'
p609
S'action-3'
p610
tp611
F-11.066660153367064
s(S'diff-x-pos--75'
p612
S'action-1'
p613
tp614
F-2.244664551011474
s(S'diff-x-pos--46'
p615
S'action-4'
p616
tp617
F2.8161808318842056
s(S'diff-x-pos--23'
p618
S'prev-action-1'
p619
tp620
F-1.6532659771246552
s(S'diff-x-pos--58'
p621
S'prev-action-3'
p622
tp623
F-1.9174987268946007
s(S'diff-x-pos-56'
p624
S'prev-action-4'
p625
tp626
F2.0318493310685923
s(S'diff-x-pos--105'
p627
S'prev-action-1'
p628
tp629
F-2.20470817217088
s(S'diff-x-pos--61'
p630
S'prev-action-3'
p631
tp632
F-1.2880745850436552
s(S'diff-x-pos--86'
p633
S'prev-action-1'
p634
tp635
F0.056389233976493536
s(S'diff-x-pos-15'
p636
S'action-3'
p637
tp638
F6.098396942410655
s(g336
S'action-1'
p639
tp640
F0.7135604490155495
s(S'diff-x-pos--110'
p641
S'action-3'
p642
tp643
F-9.164082334496468
s(S'diff-x-pos--62'
p644
S'action-1'
p645
tp646
F-0.435318902645931
s(S'action-1'
p647
S'object-1-x-120.0'
p648
tp649
F-5.683262424227943
s(S'diff-x-pos-18'
p650
S'prev-action-3'
p651
tp652
F2.2050764869583768
s(S'diff-x-pos--9'
p653
g61
tp654
F-0.1408373919253007
s(S'diff-x-pos--64'
p655
S'prev-action-3'
p656
tp657
F-1.8889036327797617
s(S'diff-x-pos-21'
p658
S'action-1'
p659
tp660
F0.3456283283045397
s(S'diff-x-pos--101'
p661
S'prev-action-1'
p662
tp663
F-2.6961149770779094
s(S'diff-x-pos--41'
p664
S'action-1'
p665
tp666
F-0.41684163383701345
s(S'diff-x-pos--3'
p667
S'action-1'
p668
tp669
F1.1213210810237362
s(S'diff-x-pos--76'
p670
S'prev-action-4'
p671
tp672
F0.20053301543437757
s(S'diff-x-pos-46'
p673
S'prev-action-4'
p674
tp675
F1.3237847358884078
s(S'diff-x-pos--87'
p676
S'prev-action-3'
p677
tp678
F-0.2147744638537782
s(S'diff-x-pos--84'
p679
S'action-1'
p680
tp681
F-0.2682413434765283
s(S'diff-x-pos--70'
p682
S'prev-action-1'
p683
tp684
F0.7127514852021332
s(S'diff-x-pos--36'
p685
S'action-4'
p686
tp687
F0.93061085430607
s(g493
S'action-4'
p688
tp689
F-8.04425605939871
s(S'diff-x-pos--35'
p690
S'prev-action-3'
p691
tp692
F1.0324028229145972
s(S'diff-x-pos--108'
p693
S'prev-action-3'
p694
tp695
F-1.031706486681813
s(S'diff-x-pos--34'
p696
S'prev-action-4'
p697
tp698
F-1.1686467717912155
s(S'diff-x-pos-7'
p699
S'action-4'
p700
tp701
F-2.3674568190333622
s(S'diff-x-pos-22'
p702
S'action-4'
p703
tp704
F-6.939631146125378
s(S'diff-x-pos--96'
p705
S'action-4'
p706
tp707
F5.954267460491619
s(S'diff-x-pos-67'
p708
S'action-1'
p709
tp710
F-1.4392359542644653
s(g26
S'prev-action-1'
p711
tp712
F-0.43839302748065945
s(S'diff-x-pos-8'
p713
S'prev-action-3'
p714
tp715
F0.999466743952059
s(S'diff-x-pos--110'
p716
S'action-4'
p717
tp718
F9.288998119364448
s(S'diff-x-pos--72'
p719
S'action-1'
p720
tp721
F-0.787161154849479
s(S'diff-x-pos--99'
p722
S'prev-action-3'
p723
tp724
F-1.6670228748557359
s(g343
S'prev-action-1'
p725
tp726
F-1.4455819433723622
s(S'diff-x-pos--19'
p727
S'prev-action-3'
p728
tp729
F0.0824543857556671
s(S'diff-x-pos--88'
p730
S'action-4'
p731
tp732
F7.170201640401689
s(g420
S'action-3'
p733
tp734
F8.037580972699992
s(S'diff-x-pos-47'
p735
S'action-1'
p736
tp737
F-1.8549272245856891
s(S'diff-x-pos--89'
p738
S'prev-action-4'
p739
tp740
F1.6747776071493894
s(S'diff-x-pos--95'
p741
S'action-1'
p742
tp743
F-1.0570890618239586
s(S'diff-x-pos--76'
p744
S'prev-action-3'
p745
tp746
F1.2306429609992833
s(S'diff-x-pos--16'
p747
S'action-1'
p748
tp749
F0.7746364269669359
s(S'diff-x-pos--10'
p750
S'prev-action-4'
p751
tp752
F0.5673090450657892
s(S'diff-x-pos-50'
p753
S'prev-action-4'
p754
tp755
F-0.7166004814695248
s(S'diff-x-pos--6'
p756
S'prev-action-3'
p757
tp758
F1.2024821927667655
s(S'diff-x-pos--121'
p759
S'prev-action-3'
p760
tp761
F0.180900130753048
s(S'diff-x-pos-53'
p762
S'prev-action-1'
p763
tp764
F-3.8315662610687853
s(S'diff-x-pos--48'
p765
S'action-1'
p766
tp767
F2.260404522268466
s(S'diff-x-pos--45'
p768
S'action-3'
p769
tp770
F-2.5734826760579934
s(S'diff-x-pos--8'
p771
S'action-1'
p772
tp773
F0.8474613068527261
s(S'diff-x-pos--77'
p774
S'action-1'
p775
tp776
F2.3603372139310466
s(S'diff-x-pos--80'
p777
S'prev-action-3'
p778
tp779
F-1.9043598630020775
s(S'diff-x-pos-36'
p780
S'prev-action-1'
p781
tp782
F4.235467931697911
s(S'diff-x-pos--109'
p783
S'action-4'
p784
tp785
F9.466219941991262
s(S'action-1'
p786
S'object-0-x-30.0'
p787
tp788
F2.6255517185855752
s(S'diff-x-pos-35'
p789
S'prev-action-4'
p790
tp791
F-0.6411513825641746
s(S'diff-x-pos--99'
p792
S'prev-action-4'
p793
tp794
F2.7180926647862496
s(S'diff-x-pos-27'
p795
S'prev-action-4'
p796
tp797
F2.8299699444711766
s(S'diff-x-pos--45'
p798
S'prev-action-3'
p799
tp800
F-1.2976426618273975
s(g783
S'prev-action-1'
p801
tp802
F-1.4128261975371246
s(S'diff-x-pos--48'
p803
S'prev-action-1'
p804
tp805
F-0.7194287619655261
s(S'action-1'
p806
S'object-0-x-20.0'
p807
tp808
F5.205570055093136
s(S'diff-x-pos--19'
p809
S'prev-action-4'
p810
tp811
F-3.506935926472848
s(S'diff-x-pos--10'
p812
S'action-4'
p813
tp814
F-0.33334402711010247
s(S'object-1-dx--1'
p815
S'prev-action-1'
p816
tp817
F0.8494514421910365
s(S'diff-x-pos--114'
p818
S'prev-action-1'
p819
tp820
F-0.40033391282132835
s(S'diff-x-pos--40'
p821
S'action-4'
p822
tp823
F-0.659327666789149
s(S'action-4'
p824
S'object-0-x-30.0'
p825
tp826
F-0.8881548975372262
s(S'diff-x-pos--119'
p827
S'prev-action-3'
p828
tp829
F-0.4633632878478058
s(S'diff-x-pos-16'
p830
S'action-1'
p831
tp832
F1.3634317824645295
s(S'diff-x-pos-39'
p833
S'prev-action-1'
p834
tp835
F4.426489856328079
s(S'diff-x-pos--12'
p836
S'prev-action-1'
p837
tp838
F-0.2914314641952416
s(S'diff-x-pos--102'
p839
S'action-1'
p840
tp841
F-1.6734492049572027
s(S'diff-x-pos--38'
p842
S'action-4'
p843
tp844
F1.770731395268344
s(S'action-3'
p845
S'object-0-x-80.0'
p846
tp847
F2.0599304848377136
sg471
F-1.4468650667227667
sS'diff-x-pos--42'
p848
F-0.19606886896828915
sS'diff-x-pos--41'
p849
F-1.5232769399672215
sg821
F-1.3304226217773882
sS'diff-x-pos--47'
p850
F2.874384416012994
sg615
F-0.23531183565224661
sS'diff-x-pos--45'
p851
F-0.9711560525166314
sg462
F0.47379418824187935
s(S'diff-x-pos--1'
p852
S'prev-action-3'
p853
tp854
F-0.5094599988082177
sg606
F-2.4725936223788176
sg765
F-0.07785157290984746
s(S'diff-x-pos-67'
p855
S'prev-action-1'
p856
tp857
F0.9575116400714493
sS'diff-x-pos-69'
p858
F-1.6071834060617902
s(g771
S'prev-action-1'
p859
tp860
F-2.1231008185548665
s(S'diff-x-pos--53'
p861
S'action-3'
p862
tp863
F-1.9521694028792487
s(S'diff-x-pos--57'
p864
S'prev-action-1'
p865
tp866
F-2.8361501457742997
s(S'diff-x-pos--111'
p867
S'action-1'
p868
tp869
F-1.098938994236088
s(S'diff-x-pos--108'
p870
S'action-3'
p871
tp872
F-11.931271344619685
s(S'diff-x-pos-53'
p873
S'action-4'
p874
tp875
F-8.643301718562414
s(g59
S'object-0-x-20.0'
p876
tp877
F3.728412626165577
s(S'diff-x-pos--36'
p878
S'prev-action-4'
p879
tp880
F1.7494886856756366
s(S'object-1-dx-1'
p881
S'prev-action-4'
p882
tp883
F1.7716516802420519
s(S'diff-x-pos-62'
p884
S'prev-action-3'
p885
tp886
F1.453843419071317
s(S'diff-x-pos-32'
p887
S'prev-action-3'
p888
tp889
F0.3366554135835176
s(S'diff-x-pos--16'
p890
S'prev-action-4'
p891
tp892
F1.4993615185889668
s(S'diff-x-pos-20'
p893
S'action-3'
p894
tp895
F8.226440369680436
s(S'diff-x-pos-51'
p896
S'action-4'
p897
tp898
F-10.715690386361986
s(g744
S'action-4'
p899
tp900
F5.855222201576959
s(S'diff-x-pos--106'
p901
S'prev-action-3'
p902
tp903
F0.09205559386338952
s(S'diff-x-pos--40'
p904
S'action-3'
p905
tp906
F-0.6052029239137506
s(S'diff-x-pos-58'
p907
S'prev-action-3'
p908
tp909
F3.158673077077404
s(S'diff-x-pos--28'
p910
S'prev-action-4'
p911
tp912
F-0.34964810015066505
s(S'diff-x-pos-49'
p913
S'action-1'
p914
tp915
F1.633884156723295
s(S'diff-x-pos--107'
p916
S'prev-action-4'
p917
tp918
F0.7045644749371998
sg884
F4.917002454856274
s(S'diff-x-pos--64'
p919
S'action-3'
p920
tp921
F-1.9060721423577993
s(S'diff-x-pos--83'
p922
S'action-3'
p923
tp924
F-9.345061524950182
s(S'diff-x-pos--111'
p925
S'prev-action-4'
p926
tp927
F-0.791296523491638
s(g422
S'prev-action-4'
p928
tp929
F-2.4233198622488565
s(S'diff-x-pos--113'
p930
S'action-3'
p931
tp932
F-6.878316734703794
s(g644
S'prev-action-1'
p933
tp934
F-1.603544715874095
s(S'diff-x-pos--110'
p935
S'prev-action-3'
p936
tp937
F-3.130422756402718
sS'diff-x-pos-66'
p938
F2.223413960894391
sg685
F0.9160441082945217
sg403
F-0.2546560679446327
sg228
F0.9063790146651015
sg690
F0.006589316511933459
sS'diff-x-pos--32'
p939
F1.0143442232511015
sS'diff-x-pos--33'
p940
F-0.11499622625676431
sS'diff-x-pos--30'
p941
F-0.9320387624645919
sS'diff-x-pos--31'
p942
F1.6330033282325604
s(S'diff-x-pos-22'
p943
S'prev-action-1'
p944
tp945
F0.7978343493531912
sg842
F0.12609498147051362
sS'diff-x-pos--39'
p946
F-0.6607361094843167
s(S'diff-x-pos--82'
p947
g206
tp948
F-7.6362305216633
sS'diff-x-pos-29'
p949
F0.8392223008558328
sg428
F2.2326088293180097
s(g609
S'prev-action-3'
p950
tp951
F-0.6077422102436081
sg150
F0.8944153465365867
sg603
F-0.26894682481416676
sS'diff-x-pos-24'
p952
F3.261175925006964
sS'diff-x-pos-23'
p953
F1.1616784882375468
sS'diff-x-pos-22'
p954
F1.411922233141765
s(S'diff-x-pos-62'
p955
S'prev-action-4'
p956
tp957
F1.4098948550765227
sS'diff-x-pos-20'
p958
F1.0389215679370247
s(g129
S'prev-action-4'
p959
tp960
F0.9883460042834377
s(S'diff-x-pos--73'
p961
S'prev-action-3'
p962
tp963
F-0.6592273705616889
s(S'diff-x-pos-46'
p964
S'action-3'
p965
tp966
F12.013848744919793
s(g331
S'action-3'
p967
tp968
F-3.4737397256629556
s(S'diff-x-pos--33'
p969
S'prev-action-4'
p970
tp971
F-1.7118856580072503
s(g586
S'prev-action-3'
p972
tp973
F0.18497988246735006
s(S'diff-x-pos--65'
p974
S'action-1'
p975
tp976
F2.1249818942462264
s(S'diff-x-pos--29'
p977
S'action-3'
p978
tp979
F2.6204689784643387
s(S'diff-x-pos-0'
p980
S'prev-action-3'
p981
tp982
F-0.17953283654886149
s(S'action-4'
p983
S'object-0-x-40.0'
p984
tp985
F0.30982632868158233
s(S'diff-x-pos-41'
p986
S'prev-action-1'
p987
tp988
F2.5832261897012825
s(S'diff-x-pos-59'
p989
S'prev-action-1'
p990
tp991
F4.306650783477296
s(S'diff-x-pos-64'
p992
S'action-4'
p993
tp994
F-1.8653826368511357
s(S'diff-x-pos--20'
p995
S'prev-action-1'
p996
tp997
F0.1655291616727983
s(g217
S'prev-action-1'
p998
tp999
F-1.122407646740433
s(g858
S'prev-action-1'
p1000
tp1001
F0.02509059291419935
s(S'diff-x-pos--44'
p1002
S'action-1'
p1003
tp1004
F-1.3440911696169855
s(S'diff-x-pos--52'
p1005
S'prev-action-4'
p1006
tp1007
F1.7116468483458318
s(S'diff-x-pos--100'
p1008
S'action-1'
p1009
tp1010
F-3.143389611889779
s(S'diff-x-pos--81'
p1011
S'prev-action-1'
p1012
tp1013
F-2.560643114312824
s(S'diff-x-pos-6'
p1014
S'action-3'
p1015
tp1016
F6.5598381345168315
s(S'diff-x-pos-60'
p1017
S'action-4'
p1018
tp1019
F-3.2932372134160213
s(S'diff-x-pos--58'
p1020
S'action-4'
p1021
tp1022
F3.2645444683634093
s(S'diff-x-pos--98'
p1023
S'prev-action-4'
p1024
tp1025
F0.5962073847219496
s(S'diff-x-pos-58'
p1026
S'prev-action-1'
p1027
tp1028
F0.05351105039443971
s(S'diff-x-pos--20'
p1029
S'action-3'
p1030
tp1031
F-1.8891367517208597
s(S'diff-x-pos--113'
p1032
S'action-1'
p1033
tp1034
F-0.911241870262407
s(S'diff-x-pos-50'
p1035
S'action-3'
p1036
tp1037
F8.111890030124128
s(S'diff-x-pos-14'
p1038
S'prev-action-3'
p1039
tp1040
F-1.479227008216537
s(g319
S'prev-action-3'
p1041
tp1042
F0.1202250675775654
s(S'diff-x-pos--73'
p1043
S'prev-action-4'
p1044
tp1045
F-2.190696721929609
s(S'action-1'
p1046
S'object-1-x-100.0'
p1047
tp1048
F-2.1627022239254354
s(S'diff-x-pos--89'
p1049
S'action-3'
p1050
tp1051
F-6.669973585986949
sS'object-1-x-80.0'
p1052
F2.289496885187784
s(S'diff-x-pos-44'
p1053
S'action-4'
p1054
tp1055
F-5.583006608388511
s(S'diff-x-pos--70'
p1056
S'action-4'
p1057
tp1058
F6.789122148010678
s(S'diff-x-pos--88'
p1059
S'prev-action-3'
p1060
tp1061
F-3.136126360906757
s(S'diff-x-pos-61'
p1062
S'action-3'
p1063
tp1064
F6.301734098611616
s(S'action-3'
p1065
S'object-0-x-0.0'
p1066
tp1067
F10.156918853521011
s(S'diff-x-pos--91'
p1068
S'prev-action-4'
p1069
tp1070
F0.3760148228493556
s(S'diff-x-pos-51'
p1071
S'prev-action-3'
p1072
tp1073
F0.9516939182711093
s(S'diff-x-pos--50'
p1074
S'action-1'
p1075
tp1076
F-0.26632058796621644
s(S'diff-x-pos--78'
p1077
S'prev-action-1'
p1078
tp1079
F0.420975946376109
s(S'action-3'
p1080
S'object-1-x-120.0'
p1081
tp1082
F-2.2898830532278267
s(g487
S'action-1'
p1083
tp1084
F-1.253480941070888
s(S'diff-x-pos-7'
p1085
S'prev-action-3'
p1086
tp1087
F-0.22772617051035285
s(S'diff-x-pos-60'
p1088
S'prev-action-3'
p1089
tp1090
F0.3778209141937495
s(S'diff-x-pos-60'
p1091
S'action-3'
p1092
tp1093
F6.884883724853209
s(g471
S'action-1'
p1094
tp1095
F0.40278065494018733
s(S'diff-x-pos-11'
p1096
S'prev-action-1'
p1097
tp1098
F2.0258956023215164
s(S'diff-x-pos--84'
p1099
S'prev-action-4'
p1100
tp1101
F-1.782858727275317
s(g1077
S'action-1'
p1102
tp1103
F-0.5573795843858864
s(g462
S'prev-action-4'
p1104
tp1105
F1.639368531893185
s(S'diff-x-pos--11'
p1106
S'action-3'
p1107
tp1108
F0.8009456114327573
s(S'diff-x-pos--92'
p1109
S'prev-action-4'
p1110
tp1111
F0.12414913100096692
s(S'diff-x-pos--101'
p1112
S'action-4'
p1113
tp1114
F5.156485297859185
s(S'diff-x-pos-48'
p1115
S'prev-action-4'
p1116
tp1117
F-2.119731551486363
s(S'diff-x-pos--42'
p1118
S'prev-action-3'
p1119
tp1120
F0.4857566483665894
s(S'diff-x-pos--118'
p1121
S'action-1'
p1122
tp1123
F2.0046714347110797
s(S'diff-x-pos-61'
p1124
S'action-4'
p1125
tp1126
F-6.038443823307627
s(S'diff-x-pos--117'
p1127
S'action-3'
p1128
tp1129
F-5.209385003773942
s(S'diff-x-pos--9'
p1130
S'prev-action-3'
p1131
tp1132
F0.5200571474740956
s(S'diff-x-pos--18'
p1133
S'action-3'
p1134
tp1135
F-0.0031314110006315232
s(S'action-1'
p1136
S'object-0-x-90.0'
p1137
tp1138
F5.279600590575788
s(S'diff-x-pos-11'
p1139
S'action-4'
p1140
tp1141
F-2.9070499765313533
s(g930
S'prev-action-1'
p1142
tp1143
F-0.7417648498673571
s(S'diff-x-pos-58'
p1144
S'action-1'
p1145
tp1146
F1.850327519830115
s(S'diff-x-pos--46'
p1147
S'action-1'
p1148
tp1149
F0.3051806047123312
s(S'diff-x-pos-69'
p1150
S'action-4'
p1151
tp1152
I-1
s(S'diff-x-pos-28'
p1153
S'prev-action-1'
p1154
tp1155
F0.5684673191214432
s(S'diff-x-pos-56'
p1156
S'prev-action-1'
p1157
tp1158
F0.013470767322094596
s(S'diff-x-pos-56'
p1159
S'action-3'
p1160
tp1161
F13.045256818949547
s(g615
S'prev-action-3'
p1162
tp1163
F-0.49178785694184635
s(S'diff-x-pos--81'
p1164
S'action-1'
p1165
tp1166
F-3.2133611101525226
s(S'diff-x-pos--72'
p1167
S'prev-action-4'
p1168
tp1169
F1.7973997565959239
s(S'diff-x-pos--52'
p1170
S'action-4'
p1171
tp1172
F1.4288748774782796
s(g334
S'prev-action-4'
p1173
tp1174
F-1.8556785525235042
s(S'diff-x-pos-68'
p1175
S'prev-action-4'
p1176
tp1177
I1
s(g858
S'action-1'
p1178
tp1179
F-0.6071834060617902
s(S'diff-x-pos-63'
p1180
S'prev-action-4'
p1181
tp1182
F1.9892544186354022
s(S'diff-x-pos-17'
p1183
S'prev-action-4'
p1184
tp1185
F0.7924788544558363
s(S'diff-x-pos-10'
p1186
S'action-3'
p1187
tp1188
F4.89132379545375
s(S'diff-x-pos-18'
p1189
S'prev-action-4'
p1190
tp1191
F-2.8895891595234975
s(S'diff-x-pos--67'
p1192
S'prev-action-3'
p1193
tp1194
F-0.8151527977965225
s(S'diff-x-pos--117'
p1195
S'prev-action-1'
p1196
tp1197
F-1.3932285700371891
s(g1121
S'prev-action-3'
p1198
tp1199
F-0.7653643646803379
s(g848
S'prev-action-4'
p1200
tp1201
F0.5048817132779033
s(g64
S'action-4'
p1202
tp1203
F-3.383640917811678
s(g916
S'action-3'
p1204
tp1205
F-8.381084163410321
s(S'diff-x-pos--71'
p1206
S'action-1'
p1207
tp1208
F1.394614250343083
s(S'diff-x-pos--54'
p1209
S'prev-action-3'
p1210
tp1211
F-1.1365292412322814
s(S'diff-x-pos-31'
p1212
S'action-3'
p1213
tp1214
F10.804038461221035
s(S'diff-x-pos-46'
p1215
S'prev-action-3'
p1216
tp1217
F2.731527008532445
s(S'diff-x-pos-11'
p1218
S'action-3'
p1219
tp1220
F5.338225441436717
s(S'action-3'
p1221
S'prev-action-4'
p1222
tp1223
F17.867285635233845
s(S'diff-x-pos--71'
p1224
S'action-4'
p1225
tp1226
F3.713596026142256
s(S'diff-x-pos--56'
p1227
S'action-1'
p1228
tp1229
F0.6522284573743631
s(S'diff-x-pos--66'
p1230
S'prev-action-3'
p1231
tp1232
F-0.4832723979557022
s(S'diff-x-pos-7'
p1233
S'action-1'
p1234
tp1235
F-0.7296730772882437
s(g954
S'action-1'
p1236
tp1237
F-0.26997709441026696
s(S'object-0-dx-1'
p1238
S'prev-action-4'
p1239
tp1240
F2.602088030680593
s(g352
S'prev-action-3'
p1241
tp1242
F-3.103521484301829
s(S'diff-x-pos--50'
p1243
S'prev-action-3'
p1244
tp1245
F0.6348559340312268
s(S'diff-x-pos-51'
p1246
S'action-1'
p1247
tp1248
F3.2876690853079404
sg583
F-1.158866988895118
sg916
F-1.545199988077514
sg901
F-1.7216009093694047
sS'diff-x-pos--101'
p1249
F-3.3096702188102696
sS'diff-x-pos--100'
p1250
F-3.822112719600057
s(g422
S'action-4'
p1251
tp1252
F-8.399993589673148
sg343
F-1.0273146336867534
s(S'diff-x-pos--102'
p1253
S'prev-action-4'
p1254
tp1255
F-0.38975780439007734
sS'diff-x-pos--109'
p1256
F-1.0546129075338337
sg693
F-4.463115392624845
s(g1124
S'prev-action-1'
p1257
tp1258
F-0.7641639210785162
s(g1059
S'action-1'
p1259
tp1260
F-1.5514615019226403
s(g520
g592
tp1261
F0.36033101196430606
s(S'diff-x-pos--107'
p1262
S'action-4'
p1263
tp1264
F5.7165538748861975
s(g910
S'action-4'
p1265
tp1266
F0.4978420746718244
s(g1049
S'prev-action-1'
p1267
tp1268
F-1.983477391684814
s(S'diff-x-pos-34'
p1269
S'action-1'
p1270
tp1271
F-0.3672851638023007
s(g890
S'action-4'
p1272
tp1273
F-1.8027149845548083
s(S'diff-x-pos--90'
p1274
S'prev-action-4'
p1275
tp1276
F1.4831125110136836
s(g812
S'prev-action-1'
p1277
tp1278
F-1.7128378931487132
s(S'diff-x-pos--21'
p1279
S'action-3'
p1280
tp1281
F0.7970594295182107
s(S'diff-x-pos-50'
p1282
S'prev-action-1'
p1283
tp1284
F2.8782965203733446
s(S'diff-x-pos--121'
p1285
S'prev-action-4'
p1286
tp1287
F0.0023123869734987257
s(g873
S'prev-action-4'
p1288
tp1289
F0.5062929018002765
s(g482
S'prev-action-4'
p1290
tp1291
F0.20224088319881323
s(g861
S'prev-action-3'
p1292
tp1293
F0.020277548310089932
s(S'diff-x-pos-6'
p1294
S'prev-action-1'
p1295
tp1296
F2.143086152015775
s(S'diff-x-pos--1'
p1297
S'action-3'
p1298
tp1299
F2.768995289144402
s(S'diff-x-pos--32'
p1300
S'action-4'
p1301
tp1302
F2.715451784460952
s(S'diff-x-pos--68'
p1303
S'prev-action-4'
p1304
tp1305
F0.19667169553581737
s(S'diff-x-pos--100'
p1306
S'prev-action-3'
p1307
tp1308
F-1.6050494700711382
s(g766
S'object-1-x-90.0'
p1309
tp1310
F0.4357832488366704
s(S'action-3'
p1311
S'object-1-x-90.0'
p1312
tp1313
F-0.27043290438039236
s(S'diff-x-pos--79'
p1314
S'action-3'
p1315
tp1316
F-7.780599789768764
s(S'diff-x-pos-38'
p1317
S'prev-action-4'
p1318
tp1319
F-2.2403060323613744
s(S'diff-x-pos-27'
p1320
S'prev-action-1'
p1321
tp1322
F-1.147180910818064
s(S'diff-x-pos--12'
p1323
S'action-1'
p1324
tp1325
F-1.0527904119438896
s(S'diff-x-pos-39'
p1326
S'action-1'
p1327
tp1328
F0.2116001367195206
s(S'diff-x-pos-0'
p1329
S'action-1'
p1330
tp1331
F0.4697403984460964
s(S'diff-x-pos--120'
p1332
S'prev-action-4'
p1333
tp1334
F-0.21177499127571542
s(S'action-1'
p1335
S'object-0-x-40.0'
p1336
tp1337
F4.425638036360297
s(S'diff-x-pos-49'
p1338
S'prev-action-4'
p1339
tp1340
F-1.644031349518801
s(S'diff-x-pos-64'
p1341
S'action-3'
p1342
tp1343
F2.887125007916846
s(S'diff-x-pos--119'
p1344
S'action-3'
p1345
tp1346
F-2.6066663275675714
s(S'diff-x-pos--60'
p1347
S'action-1'
p1348
tp1349
F-1.2052014625602636
s(S'diff-x-pos--114'
p1350
S'action-1'
p1351
tp1352
F-4.819135291277332
s(g263
g891
tp1353
F-1.0292926456111544
s(S'diff-x-pos--73'
p1354
S'action-1'
p1355
tp1356
F-3.6287766559305097
s(S'diff-x-pos-64'
p1357
S'prev-action-4'
p1358
tp1359
F2.6262124189157796
s(S'action-4'
p1360
S'object-0-x-10.0'
p1361
tp1362
F-0.0861922630586984
s(g1311
S'object-0-x-70.0'
p1363
tp1364
F4.009907345671403
s(S'diff-x-pos--82'
p1365
S'prev-action-1'
p1366
tp1367
F-1.906974183604691
s(g333
S'action-4'
p1368
tp1369
F2.9317612035334095
s(S'diff-x-pos--99'
p1370
S'action-4'
p1371
tp1372
F6.763186065879658
s(S'diff-x-pos-64'
p1373
S'prev-action-3'
p1374
tp1375
F-0.3930103047321083
s(S'diff-x-pos-29'
p1376
S'prev-action-3'
p1377
tp1378
F-2.178177302641214
s(g789
S'action-4'
p1379
tp1380
F-11.836578646573521
s(S'diff-x-pos-24'
p1381
S'prev-action-1'
p1382
tp1383
F0.19310900510741846
s(g239
S'prev-action-1'
p1384
tp1385
F0.9607543736601745
s(S'diff-x-pos--74'
p1386
S'prev-action-4'
p1387
tp1388
F-2.138573227095825
s(S'diff-x-pos--80'
p1389
S'action-3'
p1390
tp1391
F-9.687994287115092
s(S'diff-x-pos--2'
p1392
S'prev-action-3'
p1393
tp1394
F2.140616537706763
sS'object-1-x-110.0'
p1395
F-0.03471328014541253
s(g293
S'prev-action-1'
p1396
tp1397
F-0.21497989627244918
s(S'diff-x-pos--34'
p1398
S'action-3'
p1399
tp1400
F1.8258161661754948
s(S'diff-x-pos--94'
p1401
S'action-4'
p1402
tp1403
F7.931378138562156
s(S'diff-x-pos-53'
p1404
S'action-1'
p1405
tp1406
F-1.2002310135538576
s(g830
S'prev-action-4'
p1407
tp1408
F0.11514405294488006
s(g922
S'prev-action-1'
p1409
tp1410
F-0.853977923084882
s(g685
S'prev-action-1'
p1411
tp1412
F0.6803546962322788
s(S'diff-x-pos--6'
p1413
S'action-3'
p1414
tp1415
F3.9541093460635066
sS'object-0-x-80.0'
p1416
F5.606087088498616
s(S'diff-x-pos-32'
p1417
S'prev-action-4'
p1418
tp1419
F1.0211640972091798
s(g913
S'prev-action-3'
p1420
tp1421
F-1.5600227260777535
s(S'diff-x-pos--16'
p1422
S'prev-action-1'
p1423
tp1424
F-2.040826371424874
s(S'diff-x-pos--40'
p1425
S'prev-action-1'
p1426
tp1427
F-1.411696896876772
s(S'diff-x-pos--106'
p1428
S'action-1'
p1429
tp1430
F-1.9620976971772877
s(S'diff-x-pos--76'
p1431
S'action-3'
p1432
tp1433
F-5.715149010326857
s(g893
S'prev-action-1'
p1434
tp1435
F0.7269805238688241
s(S'diff-x-pos--95'
p1436
S'prev-action-1'
p1437
tp1438
F-1.9830887817900955
s(g1417
S'action-1'
p1439
tp1440
F3.219923522951593
s(g884
S'action-1'
p1441
tp1442
F4.899469433133916
sg543
F-1.7752258551889644
sg722
F-2.600187813710772
s(S'diff-x-pos-12'
p1443
S'prev-action-3'
p1444
tp1445
F0.9632230522507239
sg1332
F0.2191016866635649
s(g366
S'action-4'
p1446
tp1447
F0.962352476105788
sg1274
F-0.9281847326265922
sS'diff-x-pos--91'
p1448
F-1.4780328019873363
sg1109
F-1.3494119136879545
sS'diff-x-pos--93'
p1449
F-1.7584538718966307
sg8
F-0.6530213759164483
sg741
F-4.22601895948172
s(S'diff-x-pos--57'
p1450
S'action-3'
p1451
tp1452
F-3.3283781464617523
sg412
F-2.9202803980067458
s(g716
S'prev-action-4'
p1453
tp1454
F0.7385930983293029
s(S'diff-x-pos-8'
p1455
S'action-3'
p1456
tp1457
F2.4774527270522153
s(g342
S'prev-action-3'
p1458
tp1459
F0.11772721082459647
s(g954
S'prev-action-4'
p1460
tp1461
F-1.9394131840117916
s(S'diff-x-pos--34'
p1462
S'action-4'
p1463
tp1464
F-0.2942182884061363
s(S'diff-x-pos--105'
p1465
S'action-4'
p1466
tp1467
F8.79784632462675
s(g222
S'prev-action-4'
p1468
tp1469
F1.762982320165516
s(S'diff-x-pos-16'
p1470
S'prev-action-3'
p1471
tp1472
F1.2096549643564765
sg487
F-1.1253230361387867
sS'diff-x-pos--24'
p1473
F0.20170555802452353
sg20
F-0.6013854535197103
sg158
F-0.12681814311173456
sS'diff-x-pos--21'
p1474
F0.14351185322026605
sg995
F-0.5462658725393035
sg618
F-0.2649100374773955
sg409
F1.312483002258959
s(S'diff-x-pos--87'
p1475
S'action-3'
p1476
tp1477
F-9.465552076513525
sg977
F2.6261170262113387
sg910
F0.29194886686038335
s(S'object-1-dx--1'
p1478
g1311
tp1479
F-2.656375547736237
sS'diff-x-pos-39'
p1480
F4.484749732044518
s(S'diff-x-pos--37'
p1481
S'prev-action-4'
p1482
tp1483
F1.677752354085007
s(g664
S'prev-action-1'
p1484
tp1485
F-0.5231437419257536
s(S'action-1'
p1486
S'object-0-x-130.0'
p1487
tp1488
F1.385883294242547
sS'diff-x-pos-30'
p1489
F2.4714846211897497
sS'diff-x-pos-31'
p1490
F0.5288328475714567
sg887
F-0.488605245431739
sg67
F3.1133030643498456
sS'diff-x-pos-34'
p1491
F0.6189284560533725
sg789
F-1.6538878937963477
sS'diff-x-pos-36'
p1492
F0.632828677742805
sg76
F0.7156870530081754
s(S'diff-x-pos--2'
p1493
S'action-1'
p1494
tp1495
F-2.0614291965684384
s(S'diff-x-pos-42'
p1496
S'action-4'
p1497
tp1498
F-8.843722321104863
s(g123
S'prev-action-4'
p1499
tp1500
F2.237989102085212
s(S'diff-x-pos--20'
p1501
S'prev-action-4'
p1502
tp1503
F-1.811177657783585
s(g120
S'prev-action-4'
p1504
tp1505
F-0.45291032672728915
s(g336
S'prev-action-1'
p1506
tp1507
F-1.851320801920071
s(g302
S'action-4'
p1508
tp1509
F7.521100907003623
s(S'diff-x-pos-66'
p1510
S'action-3'
p1511
tp1512
F0.6915351854006944
s(S'diff-x-pos-15'
p1513
S'prev-action-3'
p1514
tp1515
F2.2898657320517297
s(S'diff-x-pos--67'
p1516
S'action-3'
p1517
tp1518
F-5.8424255806497065
s(S'diff-x-pos--69'
p1519
S'prev-action-4'
p1520
tp1521
F-3.0433913737338614
s(S'diff-x-pos--8'
p1522
S'prev-action-3'
p1523
tp1524
F0.7976007091264303
s(g341
S'action-3'
p1525
tp1526
F-3.1120180228085266
s(g543
S'prev-action-1'
p1527
tp1528
F-1.6063371379992404
s(g618
S'action-1'
p1529
tp1530
F-1.7677932370146494
s(S'diff-x-pos-9'
p1531
S'prev-action-3'
p1532
tp1533
F1.5385961724384387
s(g1285
S'action-1'
p1534
tp1535
F2.0413138418400916
s(S'diff-x-pos--18'
p1536
S'prev-action-1'
p1537
tp1538
F-0.2878637718693008
s(S'diff-x-pos--67'
p1539
S'prev-action-1'
p1540
tp1541
F0.46297781423173445
s(g421
S'action-1'
p1542
tp1543
F-1.6644753133003942
s(S'diff-x-pos--115'
p1544
S'action-3'
p1545
tp1546
F-8.845486343967513
s(g735
S'prev-action-3'
p1547
tp1548
F-0.41601699336314246
sg580
F0.6607576544318604
s(S'diff-x-pos--104'
p1549
S'action-1'
p1550
tp1551
F-1.33934377642133
sg482
F0.9452813287742337
sS'diff-x-pos-44'
p1552
F2.5974333272274297
sg735
F-0.179254675181841
s(g67
S'action-4'
p1553
tp1554
F-5.615085669049699
sg986
F1.1211990044311415
sg23
F-0.9437207120926099
s(g727
S'action-1'
p1555
tp1556
F-3.8099827644245927
sg1496
F1.128076039095629
s(S'diff-x-pos-52'
p1557
S'prev-action-3'
p1558
tp1559
F2.007760401916794
s(S'diff-x-pos-30'
p1560
S'prev-action-4'
p1561
tp1562
F-1.1436313609647983
s(S'diff-x-pos--65'
p1563
S'prev-action-1'
p1564
tp1565
F-2.838635885247329
s(S'diff-x-pos--72'
p1566
S'prev-action-3'
p1567
tp1568
F-2.173635103548836
s(S'diff-x-pos--7'
p1569
S'prev-action-3'
p1570
tp1571
F-0.054317740573723766
s(S'diff-x-pos-54'
p1572
S'action-3'
p1573
tp1574
F11.232259894323711
s(S'diff-x-pos--25'
p1575
S'action-4'
p1576
tp1577
F1.0046112439359112
s(g497
S'object-0-x-20.0'
p1578
tp1579
F2.7682827010046607
sS'diff-x-pos--81'
p1580
F-3.5990125611613824
sg254
F0.613845086983567
s(g690
S'action-1'
p1581
tp1582
F-0.46184510898982317
s(S'diff-x-pos--86'
p1583
S'action-1'
p1584
tp1585
F-0.8434899543249962
s(S'diff-x-pos-9'
p1586
S'prev-action-4'
p1587
tp1588
F0.3795305450293253
s(S'diff-x-pos--43'
p1589
S'action-4'
p1590
tp1591
F1.9540116532427556
s(g952
S'action-1'
p1592
tp1593
F-0.8045104686182482
s(S'diff-x-pos--84'
p1594
S'prev-action-3'
p1595
tp1596
F4.081488899967324
s(S'diff-x-pos-40'
p1597
S'prev-action-3'
p1598
tp1599
F1.3463270774189458
sS'object-0-y-20.0'
p1600
F39.2532020779765
s(S'object-0-dx--1'
p1601
g360
tp1602
F-1.6862078986295197
s(S'diff-x-pos--11'
p1603
S'action-4'
p1604
tp1605
F0.08132207756824375
s(g425
S'action-4'
p1606
tp1607
F-4.778145070503826
s(S'diff-x-pos--61'
p1608
g647
tp1609
F1.983248162777205
s(S'diff-x-pos--101'
p1610
S'action-3'
p1611
tp1612
F-6.985456410317214
s(S'diff-x-pos-21'
p1613
S'prev-action-3'
p1614
tp1615
F0.5056364646713966
s(S'diff-x-pos-33'
p1616
S'action-3'
p1617
tp1618
F6.689027335934606
s(S'diff-x-pos-30'
p1619
S'action-3'
p1620
tp1621
F11.711408416462442
s(S'diff-x-pos--99'
p1622
S'action-3'
p1623
tp1624
F-9.50207896742975
s(S'diff-x-pos--67'
p1625
S'action-4'
p1626
tp1627
F7.291887441369653
s(S'diff-x-pos-18'
p1628
S'action-1'
p1629
tp1630
F-2.012809427151177
s(g1183
S'action-3'
p1631
tp1632
F6.741975403384696
s(g55
S'prev-action-4'
p1633
tp1634
F0.36328310948537496
s(g946
S'action-4'
p1635
tp1636
F2.5053961177303634
s(S'diff-x-pos-40'
p1637
S'action-4'
p1638
tp1639
F-8.602073509128706
s(S'diff-x-pos-54'
p1640
S'action-4'
p1641
tp1642
F-7.3653206238752595
s(S'diff-x-pos-58'
p1643
S'action-4'
p1644
tp1645
F-2.6338491871306227
s(S'diff-x-pos-28'
p1646
S'prev-action-4'
p1647
tp1648
F0.2707021982988298
s(S'diff-x-pos-4'
p1649
S'action-4'
p1650
tp1651
F-2.9057028579538366
s(S'diff-x-pos-23'
p1652
S'prev-action-4'
p1653
tp1654
F1.095462312373821
s(S'diff-x-pos--75'
p1655
S'prev-action-3'
p1656
tp1657
F-1.4811531296730656
s(g1011
S'action-4'
p1658
tp1659
F6.265637643144997
s(S'diff-x-pos-70'
p1660
S'action-1'
p1661
tp1662
F-0.9358795349320843
s(S'diff-x-pos--26'
p1663
S'prev-action-4'
p1664
tp1665
F-1.4761547307610683
s(g1490
S'action-1'
p1666
tp1667
F-2.614701673081365
s(S'diff-x-pos--31'
p1668
S'prev-action-1'
p1669
tp1670
F-1.5521128734379406
s(S'diff-x-pos--27'
p1671
S'prev-action-3'
p1672
tp1673
F-0.4680994832065113
s(g597
S'prev-action-3'
p1674
tp1675
F0.9895979770146226
s(S'diff-x-pos--68'
p1676
S'action-4'
p1677
tp1678
F4.907555180444801
s(S'diff-x-pos-63'
p1679
S'prev-action-1'
p1680
tp1681
F2.594383537869728
s(g1127
S'prev-action-4'
p1682
tp1683
F2.266411366554082
s(S'diff-x-pos--118'
p1684
S'prev-action-4'
p1685
tp1686
F0.4793114845713844
s(g580
S'action-3'
p1687
tp1688
F10.295337555700414
s(S'diff-x-pos--60'
p1689
S'prev-action-3'
p1690
tp1691
F-0.463461277164445
s(g941
S'prev-action-3'
p1692
tp1693
F0.6594074564409785
s(g558
S'action-3'
p1694
tp1695
F5.085947628330141
s(g1109
S'action-1'
p1696
tp1697
F-1.8067772961662825
s(S'diff-x-pos--42'
p1698
S'action-4'
p1699
tp1700
F2.7123574179263703
s(g1357
S'action-1'
p1701
tp1702
F1.699665893925939
s(S'diff-x-pos--21'
p1703
S'prev-action-4'
p1704
tp1705
F0.8040924034488298
s(g109
S'action-1'
p1706
tp1707
F-2.4820308542845213
s(g733
S'prev-action-1'
p1708
tp1709
F18.91038418389091
s(S'diff-x-pos-37'
p1710
S'action-1'
p1711
tp1712
F1.1216237071575117
s(S'diff-x-pos-65'
p1713
S'action-1'
p1714
tp1715
F-2.6522415956110423
s(S'diff-x-pos--72'
p1716
S'prev-action-1'
p1717
tp1718
F-0.7334723769167678
s(g953
S'prev-action-3'
p1719
tp1720
F3.314409387941431
s(S'diff-x-pos--69'
p1721
S'action-3'
p1722
tp1723
F-4.614561477478626
s(S'diff-x-pos--49'
p1724
S'prev-action-1'
p1725
tp1726
F-1.4398227165701036
s(g1449
S'prev-action-3'
p1727
tp1728
F-1.8714225674140672
s(S'object-0-dx-1'
p1729
S'prev-action-1'
p1730
tp1731
F0.668213393251063
s(S'diff-x-pos--22'
p1732
S'action-3'
p1733
tp1734
F0.847069017654609
s(S'diff-x-pos--109'
p1735
S'action-1'
p1736
tp1737
F0.16113686847701397
s(g403
S'action-1'
p1738
tp1739
F-1.465263163236438
s(g946
S'prev-action-1'
p1740
tp1741
F0.7247466213385669
s(g1660
S'prev-action-4'
p1742
tp1743
F-0.9358795349320843
s(S'diff-x-pos--15'
p1744
S'prev-action-1'
p1745
tp1746
F-2.0176599008264273
sS'diff-x-pos--105'
p1747
F-1.4066069664915284
s(S'diff-x-pos--55'
p1748
S'action-1'
p1749
tp1750
F-2.438607885439108
s(S'diff-x-pos-4'
p1751
S'prev-action-1'
p1752
tp1753
F-1.1553363644761225
s(S'diff-x-pos-44'
p1754
S'prev-action-1'
p1755
tp1756
F1.3385865150984917
s(S'diff-x-pos--47'
p1757
S'prev-action-3'
p1758
tp1759
F-1.0027419471588082
sS'diff-x-pos--112'
p1760
F-0.9671913780175545
s(g147
S'prev-action-4'
p1761
tp1762
F2.4578163724035753
s(S'diff-x-pos--28'
p1763
S'action-1'
p1764
tp1765
F1.4907846276167336
sg925
F-3.467187192625131
sS'diff-x-pos--116'
p1766
F-4.035797091215986
sg1127
F-0.04306423592202302
sg818
F-3.8630133469215666
sS'diff-x-pos--115'
p1767
F-1.1899710225103588
sg1121
F-1.1813910773808507
s(g432
S'action-4'
p1768
tp1769
F-3.7334683230164383
s(g1563
S'action-4'
p1770
tp1771
F3.525317560040744
s(S'diff-x-pos--21'
p1772
S'prev-action-3'
p1773
tp1774
F1.9236514331114412
s(S'diff-x-pos--87'
p1775
S'prev-action-4'
p1776
tp1777
F-0.7590519605383612
s(g499
S'prev-action-1'
p1778
tp1779
F-1.5906064795449164
s(S'diff-x-pos--5'
p1780
S'action-4'
p1781
tp1782
F-4.610408846641915
s(S'diff-x-pos-43'
p1783
S'action-3'
p1784
tp1785
F8.11331596174113
s(S'diff-x-pos-55'
p1786
S'action-1'
p1787
tp1788
F-1.3050874162054378
s(S'diff-x-pos-45'
p1789
S'prev-action-1'
p1790
tp1791
F1.7262859856263222
s(S'diff-x-pos--12'
p1792
S'action-4'
p1793
tp1794
F-1.9824116389102517
sS'object-0-dx--1'
p1795
F1.2176359535258179
s(S'diff-x-pos--96'
p1796
S'action-3'
p1797
tp1798
F-8.502185327486512
s(g342
S'action-4'
p1799
tp1800
F1.5972989550124699
s(g1492
S'action-3'
p1801
tp1802
F8.172049283258975
s(g939
S'action-3'
p1803
tp1804
F-0.6930657351140868
s(S'diff-x-pos-8'
p1805
S'prev-action-4'
p1806
tp1807
F-1.312128658676982
sS'object-1-y-10.0'
p1808
F3.278705505427359
s(g1490
S'prev-action-4'
p1809
tp1810
F-2.5451916103528345
s(S'diff-x-pos-30'
p1811
S'action-1'
p1812
tp1813
F0.040141562445525636
s(S'diff-x-pos-38'
p1814
S'prev-action-1'
p1815
tp1816
F1.2452891227631238
s(S'diff-x-pos--4'
p1817
S'action-3'
p1818
tp1819
F2.19868466531622
s(S'diff-x-pos--112'
p1820
S'action-1'
p1821
tp1822
F-4.008084781397775
s(S'diff-x-pos-0'
p1823
S'action-4'
p1824
tp1825
F0.4178705367835802
s(S'diff-x-pos--120'
p1826
S'prev-action-3'
p1827
tp1828
F1.1310817206751298
s(S'diff-x-pos--93'
p1829
S'prev-action-1'
p1830
tp1831
F0.8121130352846062
sg1059
F-4.943478397949741
s(g940
S'action-3'
p1832
tp1833
F1.084115826099254
s(g818
g1360
tp1834
F9.768346122510048
s(S'diff-x-pos-19'
p1835
S'action-3'
p1836
tp1837
F3.1237924436895845
s(S'diff-x-pos--29'
p1838
S'prev-action-4'
p1839
tp1840
F-0.20021488175399538
s(S'diff-x-pos-14'
p1841
S'action-1'
p1842
tp1843
F0.2596038764267904
s(g1449
S'action-4'
p1844
tp1845
F7.521922707762472
sg257
F2.227565786639985
s(S'diff-x-pos-1'
p1846
S'prev-action-4'
p1847
tp1848
F-0.8173073549966394
s(S'diff-x-pos--6'
p1849
S'prev-action-4'
p1850
tp1851
F-0.5753386826466804
s(g433
S'action-3'
p1852
tp1853
F-4.619708567746901
s(S'diff-x-pos--66'
p1854
S'action-1'
p1855
tp1856
F0.5526572838575972
sS'object-0-dy-1'
p1857
F2.556427213917755
s(g947
S'prev-action-4'
p1858
tp1859
F3.00847325318973
s(S'diff-x-pos--24'
p1860
S'action-3'
p1861
tp1862
F1.484807853166403
s(S'diff-x-pos--85'
p1863
S'prev-action-1'
p1864
tp1865
F0.19653917065563137
s(S'diff-x-pos-35'
p1866
S'action-1'
p1867
tp1868
F-0.9527108570266694
s(S'diff-x-pos--97'
p1869
S'prev-action-1'
p1870
tp1871
F-0.5998188951715854
s(S'diff-x-pos--17'
p1872
S'prev-action-4'
p1873
tp1874
F3.038583619907866
s(g406
S'prev-action-1'
p1875
tp1876
F0.1537477478282166
s(S'diff-x-pos--2'
p1877
S'prev-action-4'
p1878
tp1879
F-1.3100831145692704
s(S'diff-x-pos-35'
p1880
S'prev-action-3'
p1881
tp1882
F-2.1322028010639116
s(S'diff-x-pos--77'
p1883
S'prev-action-4'
p1884
tp1885
F4.004071112213141
s(S'diff-x-pos-46'
p1886
S'action-4'
p1887
tp1888
F-11.641432942061614
s(g1473
S'prev-action-1'
p1889
tp1890
F-0.28853880041110525
s(S'diff-x-pos--4'
p1891
S'action-4'
p1892
tp1893
F-1.5017659686094555
s(S'diff-x-pos-42'
p1894
S'prev-action-1'
p1895
tp1896
F-1.5900799054466457
s(g436
S'prev-action-1'
p1897
tp1898
F1.1118333025390768
s(S'action-1'
p1899
S'object-0-x-10.0'
p1900
tp1901
F0.8525935733560644
sS'diff-y-pos--9'
p1902
F0.4203455329073093
sS'diff-y-pos--8'
p1903
F2.045818994230755
s(S'diff-x-pos--91'
p1904
S'action-1'
p1905
tp1906
F-0.7306965008443251
sS'diff-y-pos--4'
p1907
F0.5475933945942046
sS'diff-y-pos--7'
p1908
F3.3925539535937235
s(S'diff-x-pos-19'
p1909
S'prev-action-1'
p1910
tp1911
F-0.901474222292866
sS'diff-y-pos--1'
p1912
F-1.885841330357251
sS'diff-y-pos--3'
p1913
F-0.5369294670041375
sS'diff-y-pos--2'
p1914
F-4.115468485902637
s(g958
S'prev-action-4'
p1915
tp1916
F-0.5102220471109766
s(g264
S'prev-action-4'
p1917
tp1918
F1.2718289946452486
s(S'diff-x-pos--93'
p1919
S'action-3'
p1920
tp1921
F-10.584749851533735
s(g369
S'action-3'
p1922
tp1923
F-2.238139207010307
s(g1826
S'action-1'
p1924
tp1925
F0.23914515074150633
s(S'diff-x-pos--14'
p1926
g1311
tp1927
F-0.9639466272135473
s(S'diff-x-pos--112'
p1928
S'prev-action-3'
p1929
tp1930
F1.1494777322079184
s(S'diff-x-pos--4'
p1931
S'prev-action-1'
p1932
tp1933
F1.071080615245989
s(S'diff-x-pos--38'
p1934
S'action-3'
p1935
tp1936
F-0.14915338788024934
s(g1317
S'action-3'
p1937
tp1938
F7.728189511153616
s(S'diff-x-pos-57'
p1939
S'action-1'
p1940
tp1941
F3.7413945203631656
sg1475
F-1.688991134593881
sS'diff-x-pos--86'
p1942
F0.3329786781300018
sg1863
F0.233425189691632
sg1594
F-0.6911837659600855
sS'diff-x-pos--83'
p1943
F-1.3454114733952234
sg947
F1.6408706503972073
sg457
F13.250542539826187
sg777
F-1.3279658880827152
sg1049
F-2.804002284478238
s(g337
S'action-4'
p1944
tp1945
F4.819833641461997
s(S'diff-x-pos--38'
p1946
S'prev-action-3'
p1947
tp1948
F0.45030557622937895
s(g1474
S'action-1'
p1949
tp1950
F-0.8332380663858217
s(S'diff-x-pos-55'
p1951
S'prev-action-3'
p1952
tp1953
F3.452940199010041
s(S'diff-x-pos--2'
p1954
S'action-3'
p1955
tp1956
F1.5801172572096531
s(S'diff-x-pos--116'
p1957
S'prev-action-3'
p1958
tp1959
F-0.16915397147278366
s(S'diff-x-pos-3'
p1960
S'prev-action-3'
p1961
tp1962
F-1.6229320257308673
s(g1492
S'prev-action-4'
p1963
tp1964
F-3.9003165898141834
s(S'diff-x-pos--28'
p1965
S'prev-action-3'
p1966
tp1967
F1.325092282435608
sg812
F-0.162643277413435
sS'diff-x-pos--11'
p1968
F0.41694847900811005
sg1323
F-0.6127357008188581
sg109
F-1.0354389906234123
sg1926
F0.1518554363723622
sg1744
F0.4650722236712565
sg890
F0.8802764629972226
sg239
F3.462948438814278
sS'diff-x-pos--18'
p1969
F-2.2018834977397534
sg372
F-2.8235132887327037
s(S'diff-x-pos--55'
p1970
S'prev-action-3'
p1971
tp1972
F0.028016024362962022
s(S'diff-x-pos-42'
p1973
S'action-1'
p1974
tp1975
F0.5484369030870778
s(g112
S'prev-action-3'
p1976
tp1977
F-0.4219524721778515
s(S'diff-x-pos--22'
p1978
S'prev-action-1'
p1979
tp1980
F0.7947014810416779
s(g1869
S'action-1'
p1981
tp1982
F0.8144993201849744
s(g1721
S'prev-action-1'
p1983
tp1984
F-1.3059135255885574
s(g953
S'action-1'
p1985
tp1986
F2.908558707929262
s(g164
S'action-4'
p1987
tp1988
F3.9047185177950476
s(g273
S'prev-action-3'
p1989
tp1990
F3.1991209322898575
s(g603
S'action-1'
p1991
tp1992
F-0.17223559598770632
s(g940
S'prev-action-3'
p1993
tp1994
F-0.17300993304384604
s(S'diff-x-pos--30'
p1995
S'action-1'
p1996
tp1997
F1.4163426882665069
s(S'diff-x-pos--71'
p1998
S'prev-action-4'
p1999
tp2000
F-1.3566083699363363
s(S'diff-x-pos-47'
p2001
S'prev-action-4'
p2002
tp2003
F-0.6232011398329841
s(S'action-3'
p2004
S'object-1-x-100.0'
p2005
tp2006
F0.7554298918951003
s(g126
S'prev-action-4'
p2007
tp2008
F-0.0906900554848894
s(g1823
S'prev-action-4'
p2009
tp2010
F0.22470687851498172
s(g1489
S'prev-action-1'
p2011
tp2012
F0.3892903806057113
s(S'diff-x-pos--27'
p2013
S'action-1'
p2014
tp2015
F-0.5974129982725549
sg490
F6.112659412090203
sg123
F7.347526332758366
sg624
F3.251321545275909
sg296
F5.784765069262845
sg26
F3.2714121009006987
sg170
F4.288054900979442
sg1557
F0.7582171304350038
sg873
F1.7697605483248848
sg1282
F2.8769813489391636
sS'diff-x-pos-51'
p2016
F6.745208653460031
s(g1796
S'prev-action-3'
p2017
tp2018
F-0.17992880991872995
sg1215
F4.168354568451992
s(S'diff-x-pos-45'
p2019
S'action-1'
p2020
tp2021
F-0.470867061384007
s(S'diff-x-pos-43'
p2022
S'prev-action-3'
p2023
tp2024
F3.8923363936155924
s(S'diff-x-pos--5'
p2025
S'prev-action-4'
p2026
tp2027
F2.6425229650896744
s(S'diff-x-pos--60'
p2028
S'prev-action-4'
p2029
tp2030
F-0.4833615546234569
s(g1274
S'action-1'
p2031
tp2032
F4.111154816492422
s(S'action-4'
p2033
S'object-1-x-90.0'
p2034
tp2035
F0.5966962334397208
s(S'diff-x-pos--61'
p2036
S'action-4'
p2037
tp2038
F3.5606616785247107
s(g1557
S'action-1'
p2039
tp2040
F0.07461394305839564
s(g1616
S'prev-action-1'
p2041
tp2042
F-0.7048867080539682
s(g1021
g197
tp2043
F6.539330168350477
s(g496
S'prev-action-3'
p2044
tp2045
F-2.277230323416998
s(S'diff-x-pos-2'
p2046
S'prev-action-1'
p2047
tp2048
F-0.8344885760530127
s(S'diff-x-pos--39'
p2049
S'action-1'
p2050
tp2051
F0.41762604553992944
s(g502
g1486
tp2052
F-1.3035131591686593
s(S'object-0-dx-1'
p2053
g514
tp2054
F1.614503889387541
s(g1225
S'object-0-x-0.0'
p2055
tp2056
F1.23877189904101
sg156
F-1.974928586681719
s(g76
S'prev-action-1'
p2057
tp2058
F0.10559158206429653
s(g1747
S'action-1'
p2059
tp2060
F1.266236699338756
s(g158
S'prev-action-3'
p2061
tp2062
F1.4834627213676157
s(g153
S'prev-action-1'
p2063
tp2064
F1.2502321505829892
s(g1703
S'action-4'
p2065
tp2066
F0.1796904900878436
s(S'diff-x-pos--27'
p2067
S'prev-action-4'
p2068
tp2069
F-0.9492701947157238
s(g17
S'action-1'
p2070
tp2071
F-0.9421208477330378
s(g1256
S'prev-action-4'
p2072
tp2073
F1.577499035034971
s(S'action-1'
p2074
g601
tp2075
F10.668736874051158
sg361
F12.194635040106604
s(g850
S'action-4'
p2076
tp2077
F6.27214109639118
s(S'diff-x-pos--94'
p2078
S'prev-action-3'
p2079
tp2080
F1.7041891985065958
s(S'diff-x-pos-48'
p2081
S'prev-action-3'
p2082
tp2083
F2.338960329598478
s(S'diff-x-pos--104'
p2084
S'prev-action-3'
p2085
tp2086
F0.2437570557977304
s(g1544
S'prev-action-1'
p2087
tp2088
F-2.4104318051739293
s(S'diff-x-pos--15'
p2089
S'action-4'
p2090
tp2091
F-1.7419272870178049
s(S'action-4'
p2092
g1444
tp2093
F18.182571280526982
s(S'diff-x-pos--56'
p2094
S'prev-action-1'
p2095
tp2096
F-3.9438187961332245
s(g117
S'action-1'
p2097
tp2098
F4.058168705435396
s(g1344
S'prev-action-4'
p2099
tp2100
F-1.5065532643377126
s(g421
S'prev-action-3'
p2101
tp2102
F1.7582186529357675
sS'diff-x-pos-27'
p2103
F1.2602011277301262
sS'object-0-y-10.0'
p2104
F52.17102957669063
s(g1586
S'action-1'
p2105
tp2106
F-2.495522335342137
s(S'diff-x-pos--23'
p2107
S'prev-action-3'
p2108
tp2109
F0.38592703480614365
s(g1023
S'action-3'
p2110
tp2111
F-7.905146434104677
s(S'diff-x-pos-65'
p2112
S'action-4'
p2113
tp2114
F0.9705740171421824
sg107
F7.04983149868977
s(S'diff-x-pos--58'
p2115
S'prev-action-1'
p2116
tp2117
F-0.324473851392302
s(g335
S'prev-action-4'
p2118
tp2119
F0.20708023395338493
s(g1713
S'prev-action-4'
p2120
tp2121
F-1.268236976063517
s(g975
S'object-0-x-0.0'
p2122
tp2123
F0.20786370837742396
s(g427
g1046
tp2124
F0.05735889341915135
s(S'diff-x-pos-66'
p2125
S'prev-action-1'
p2126
tp2127
F-0.7030108101311101
s(S'diff-x-pos--52'
p2128
S'action-3'
p2129
tp2130
F-3.6848912206399413
s(S'diff-x-pos--39'
p2131
S'prev-action-4'
p2132
tp2133
F0.844952551476228
s(S'diff-x-pos--116'
p2134
S'action-1'
p2135
tp2136
F-0.8714810318608397
sg64
F1.4456308012272925
s(g1735
S'prev-action-3'
p2137
tp2138
F-1.219285745031678
s(S'diff-x-pos-17'
p2139
S'prev-action-3'
p2140
tp2141
F-0.44125467432603616
s(S'diff-x-pos--15'
p2142
S'prev-action-4'
p2143
tp2144
F1.2025830296825792
s(g986
S'action-4'
p2145
tp2146
F-7.276018224349452
sg283
F11.625201472355817
s(g1668
S'action-3'
p2147
tp2148
F1.0063374322175676
s(g1332
S'action-3'
p2149
tp2150
F0.1653692930948557
s(S'diff-x-pos--104'
p2151
S'prev-action-4'
p2152
tp2153
F-0.4258661162866918
s(S'diff-x-pos-1'
p2154
S'action-3'
p2155
tp2156
F1.7889108256897814
s(S'diff-x-pos-5'
p2157
S'action-4'
p2158
tp2159
F-6.412340992424541
s(g849
S'action-3'
p2160
tp2161
F-1.1466402911038194
s(g456
S'prev-action-4'
p2162
tp2163
F11.483375268242224
s(S'diff-x-pos--54'
p2164
S'prev-action-4'
p2165
tp2166
F0.029906076629554135
s(S'diff-x-pos--61'
p2167
S'prev-action-1'
p2168
tp2169
F2.332341731732026
sg984
F12.804555637596723
s(S'diff-x-pos--65'
p2170
S'action-3'
p2171
tp2172
F-7.362856709519322
s(S'diff-x-pos-13'
p2173
S'prev-action-4'
p2174
tp2175
F-0.12200558512273363
s(g1475
S'prev-action-1'
p2176
tp2177
F-0.7151647102017423
s(S'diff-x-pos--26'
p2178
S'action-3'
p2179
tp2180
F-1.8546610423649659
s(S'diff-x-pos--35'
p2181
S'prev-action-1'
p2182
tp2183
F0.029268224339644995
sS'object-0-x-70.0'
p2184
F11.037672308099474
s(S'diff-x-pos-54'
p2185
S'prev-action-3'
p2186
tp2187
F2.46292237060447
s(g1455
S'prev-action-1'
p2188
tp2189
F1.1107559278394
s(S'diff-x-pos-24'
p2190
S'action-4'
p2191
tp2192
F-4.792972194397401
s(S'diff-x-pos--62'
p2193
S'action-3'
p2194
tp2195
F-4.977490642511847
s(g2046
S'action-1'
p2196
tp2197
F1.436502331454945
s(g1489
S'action-4'
p2198
tp2199
F-9.280065357718213
s(g1760
S'action-4'
p2200
tp2201
F11.231339981743416
s(S'diff-x-pos-12'
p2202
S'action-1'
p2203
tp2204
F-1.62129790382177
s(S'diff-x-pos--26'
p2205
S'action-4'
p2206
tp2207
F1.566184665834188
s(S'diff-x-pos--41'
p2208
S'action-4'
p2209
tp2210
F0.04020498497359165
s(S'diff-x-pos--95'
p2211
S'action-3'
p2212
tp2213
F-9.55037187182699
s(S'diff-x-pos--76'
p2214
S'prev-action-1'
p2215
tp2216
F-0.9888576816612865
s(g1501
g1335
tp2217
F1.5541743886812132
s(S'diff-x-pos--16'
p2218
S'action-3'
p2219
tp2220
F1.9083550205850954
s(S'diff-x-pos-14'
p2221
S'action-4'
p2222
tp2223
F-4.653127951307176
s(g1046
S'object-0-x-120.0'
p2224
tp2225
F-0.5996096822212063
s(S'diff-x-pos--18'
p2226
S'action-1'
p2227
tp2228
F-0.8625626775752814
s(S'diff-x-pos--6'
p2229
S'prev-action-1'
p2230
tp2231
F-0.9101194847979938
s(S'diff-x-pos--36'
p2232
S'action-3'
p2233
tp2234
F-1.8268066453522431
s(S'diff-x-pos-53'
p2235
S'prev-action-3'
p2236
tp2237
F5.095033907593393
s(S'diff-x-pos--70'
p2238
S'action-3'
p2239
tp2240
F-5.645109382557162
s(g1473
S'action-4'
p2241
tp2242
F-1.067396326232934
s(S'diff-x-pos--34'
p2243
S'prev-action-1'
p2244
tp2245
F0.6930411183796727
s(S'diff-x-pos--8'
p2246
S'action-3'
p2247
tp2248
F1.0325386975512698
s(S'diff-x-pos--77'
p2249
S'action-3'
p2250
tp2251
F-6.653347842645933
sg1796
F-0.5954945483519716
s(S'diff-x-pos--80'
p2252
S'prev-action-1'
p2253
tp2254
F-3.6948666141365814
s(g412
S'prev-action-4'
p2255
tp2256
F-3.1897517274982756
s(S'diff-x-pos--17'
p2257
S'action-3'
p2258
tp2259
F2.5443155288197876
s(S'diff-x-pos-24'
p2260
S'action-3'
p2261
tp2262
F8.858658588022605
s(S'diff-x-pos-29'
p2263
S'action-1'
p2264
tp2265
F1.7900077197784086
s(g1496
S'prev-action-4'
p2266
tp2267
F-0.3393402509757881
s(S'diff-x-pos--2'
p2268
S'prev-action-1'
p2269
tp2270
F-1.510686470389905
s(S'diff-x-pos-47'
p2271
S'action-4'
p2272
tp2273
F-9.89123254682982
s(S'diff-x-pos--85'
p2274
S'prev-action-4'
p2275
tp2276
F-0.6767516678188258
s(S'object-1-dx--1'
p2277
S'prev-action-3'
p2278
tp2279
F-1.9672444814638836
s(S'diff-x-pos--114'
p2280
S'prev-action-3'
p2281
tp2282
F1.5990491907426814
s(g667
S'prev-action-3'
p2283
tp2284
F-0.9199545861119217
s(S'diff-x-pos-39'
p2285
S'prev-action-3'
p2286
tp2287
F1.2359957690567254
s(g1323
g2278
tp2288
F-1.9720971301155235
s(g1035
S'prev-action-3'
p2289
tp2290
F0.7152853100353491
s(S'diff-x-pos-27'
p2291
S'action-3'
p2292
tp2293
F8.474346538046207
s(g777
S'action-4'
p2294
tp2295
F8.255332948393683
s(S'diff-x-pos--91'
p2296
S'prev-action-3'
p2297
tp2298
F-0.9011759931910639
s(S'diff-x-pos--53'
p2299
S'action-1'
p2300
tp2301
F-0.42827720685247206
s(S'diff-x-pos--45'
p2302
S'prev-action-4'
p2303
tp2304
F1.3319063018275599
s(g765
S'prev-action-4'
p2305
tp2306
F1.1045628935351757
s(g1221
S'object-0-x-110.0'
p2307
tp2308
F0.6870765753269716
s(g1926
S'prev-action-4'
p2309
tp2310
F0.9308088566422432
s(S'diff-x-pos--10'
p2311
S'action-3'
p2312
tp2313
F-0.40660622172860816
s(g958
S'action-1'
p2314
tp2315
F0.5622161952197458
s(S'diff-x-pos--106'
p2316
S'prev-action-1'
p2317
tp2318
F-0.7399075703752607
s(S'diff-x-pos--40'
p2319
S'action-1'
p2320
tp2321
F-0.06589203107449301
s(g1491
S'prev-action-3'
p2322
tp2323
F-0.6914347051102463
s(S'diff-x-pos--116'
p2324
S'action-3'
p2325
tp2326
F-9.109598468462128
s(S'diff-x-pos-12'
p2327
S'prev-action-4'
p2328
tp2329
F-0.9045802568371282
s(g1943
g806
tp2330
F0.6764440854595243
s(g424
S'action-4'
p2331
tp2332
F-4.959632470079295
sg1192
F1.62080865963899
s(g1480
S'prev-action-4'
p2333
tp2334
F-1.1777358933402833
sS'object-1-dy-1'
p2335
F-0.6661838931055029
sS'diff-x-pos-49'
p2336
F-1.128051793683143
s(S'diff-x-pos--68'
p2337
S'action-1'
p2338
tp2339
F-2.1559021319676335
s(S'diff-x-pos--22'
p2340
S'prev-action-4'
p2341
tp2342
F-0.5225377777822146
s(S'diff-x-pos--94'
p2343
S'action-1'
p2344
tp2345
F2.408487078022723
s(S'diff-x-pos-57'
p2346
S'prev-action-1'
p2347
tp2348
F2.855143755481718
s(g702
S'prev-action-3'
p2349
tp2350
F2.553501067800366
s(g1014
S'prev-action-3'
p2351
tp2352
F0.4526357369530034
s(g333
S'prev-action-4'
p2353
tp2354
F1.9562498533938548
s(g693
S'action-4'
p2355
tp2356
F4.763749286307998
s(S'diff-x-pos--56'
p2357
S'prev-action-3'
p2358
tp2359
F-0.5807330872465041
s(S'diff-x-pos--14'
p2360
S'prev-action-3'
p2361
tp2362
F1.4297512120939966
s(S'object-1-dx-1'
p2363
g714
tp2364
F-1.7693434910985415
s(g1215
S'action-1'
p2365
tp2366
F3.7959387655938146
s(g1209
S'action-1'
p2367
tp2368
F-1.1502345616947125
s(g941
S'action-4'
p2369
tp2370
F-1.6566614344495927
s(g2336
S'action-4'
p2371
tp2372
F-10.016404428019442
s(S'diff-x-pos--71'
p2373
S'prev-action-3'
p2374
tp2375
F-1.444589713046399
s(g592
S'object-0-x-100.0'
p2376
tp2377
F9.421021437340391
s(S'diff-x-pos--64'
p2378
S'action-4'
p2379
tp2380
F4.145574564980024
s(S'diff-x-pos--29'
p2381
S'action-1'
p2382
tp2383
F-0.7356733521189025
s(S'diff-x-pos-0'
p2384
S'prev-action-1'
p2385
tp2386
F1.2241296573068259
s(S'diff-x-pos--80'
p2387
S'prev-action-4'
p2388
tp2389
F4.271260589055931
s(S'action-3'
p2390
S'object-0-x-130.0'
p2391
tp2392
F1.4758622826970327
s(S'diff-x-pos-10'
p2393
S'prev-action-1'
p2394
tp2395
F0.2588340575063416
s(S'diff-x-pos--20'
p2396
S'prev-action-3'
p2397
tp2398
F1.0993826235714734
s(S'diff-x-pos--62'
p2399
S'prev-action-4'
p2400
tp2401
F0.4971563052742932
s(g1250
S'action-3'
p2402
tp2403
F-9.130150324609437
s(S'diff-x-pos--74'
p2404
S'action-1'
p2405
tp2406
F1.0512191565212627
s(S'diff-x-pos--32'
p2407
S'prev-action-4'
p2408
tp2409
F-0.3262615356181151
s(g1580
S'prev-action-3'
p2410
tp2411
F-1.9034150696209826
s(S'diff-x-pos-45'
p2412
S'action-4'
p2413
tp2414
F-9.099096979576359
s(g1365
S'action-4'
p2415
tp2416
F7.68253736021422
s(S'diff-x-pos-28'
p2417
S'action-3'
p2418
tp2419
F9.765247813694522
sg597
F1.3331123015155697
sg117
F5.050264416541732
s(g237
S'prev-action-4'
p2420
tp2421
F-1.5640104980510796
sS'diff-x-pos-61'
p2422
F1.5468974357059078
sg1091
F6.150174150461015
sg855
F-1.399632975176985
s(S'diff-x-pos--63'
p2423
S'action-1'
p2424
tp2425
F1.6994211167041215
sg1713
F-1.2744738287541666
sg1357
F2.7214082649916493
s(S'diff-x-pos--90'
p2426
S'action-4'
p2427
tp2428
F3.591565490638671
s(g1766
S'action-4'
p2429
tp2430
F5.945282409106979
s(S'diff-x-pos-21'
p2431
S'action-3'
p2432
tp2433
F4.4836433907344215
s(g1767
S'action-4'
p2434
tp2435
F8.100526804291624
s(g1795
g1222
tp2436
F-0.004222708379382267
s(g848
S'action-1'
p2437
tp2438
F-1.3341936474562297
s(S'diff-x-pos--88'
p2439
S'prev-action-1'
p2440
tp2441
F0.41945155512400145
s(S'diff-x-pos--79'
p2442
S'action-1'
p2443
tp2444
F-2.1073124347971293
s(g2442
S'prev-action-4'
p2445
tp2446
F0.5660861591197069
s(g1968
S'prev-action-1'
p2447
tp2448
F0.205526877531514
s(S'diff-x-pos-51'
p2449
S'prev-action-1'
p2450
tp2451
F4.302623520605762
s(g1969
S'prev-action-4'
p2452
tp2453
F-1.3970166154792234
s(S'diff-x-pos--78'
p2454
S'prev-action-3'
p2455
tp2456
F-0.7925779377537521
s(g939
S'prev-action-3'
p2457
tp2458
F0.7193446293622043
s(g1238
S'action-4'
p2459
tp2460
F4.002915550464633
s(g1589
S'prev-action-3'
p2461
tp2462
F-0.1855733923006045
s(S'diff-x-pos-7'
p2463
S'prev-action-1'
p2464
tp2465
F-0.7233961654708441
s(g1091
S'prev-action-1'
p2466
tp2467
F2.686496200128913
s(S'diff-x-pos-60'
p2468
S'action-1'
p2469
tp2470
F2.558527639023827
s(S'diff-x-pos-37'
p2471
S'prev-action-4'
p2472
tp2473
F0.4101999894180214
s(S'diff-x-pos--3'
p2474
S'action-3'
p2475
tp2476
F1.3448358369271318
s(S'diff-x-pos--25'
p2477
S'prev-action-3'
p2478
tp2479
F0.7768517653095324
s(g1942
S'prev-action-3'
p2480
tp2481
F-0.8983213244346993
s(S'diff-x-pos--78'
p2482
S'action-3'
p2483
tp2484
F-8.394965110513787
s(g150
S'prev-action-1'
p2485
tp2486
F0.5146321681557099
s(g1689
S'action-4'
p2487
tp2488
F5.007924372774616
s(S'diff-x-pos-31'
p2489
S'prev-action-3'
p2490
tp2491
F2.380320189775406
s(S'diff-x-pos--47'
p2492
S'action-3'
p2493
tp2494
F-3.9312333355608846
s(S'object-0-dx--1'
p2495
g205
tp2496
F1.2285424171280166
s(S'diff-x-pos--118'
p2497
S'action-3'
p2498
tp2499
F-4.383098109035419
s(g653
g816
tp2500
F2.948448859341631
s(g1767
S'prev-action-4'
p2501
tp2502
F2.070447309020056
s(g1744
S'action-1'
p2503
tp2504
F1.2238836818680476
s(g1679
S'action-4'
p2505
tp2506
F-1.9103995719293225
s(S'diff-x-pos-68'
p2507
S'action-4'
p2508
tp2509
F-1.0990784935674598
s(g334
S'action-4'
p2510
tp2511
F1.2001189734283626
sg2034
F0.7620465778960137
s(g1032
S'prev-action-3'
p2512
tp2513
F-0.9292193262590271
s(S'diff-x-pos--49'
p2514
S'action-1'
p2515
tp2516
F1.987495302061964
s(g490
S'action-3'
p2517
tp2518
F6.8961810793907095
s(g94
S'action-3'
p2519
tp2520
F-3.356673272248743
s(S'diff-x-pos-56'
p2521
S'action-1'
p2522
tp2523
F-1.9924548310160275
s(S'diff-x-pos-26'
p2524
S'action-1'
p2525
tp2526
F4.060455123223381
s(S'diff-x-pos-65'
p2527
S'prev-action-1'
p2528
tp2529
F-0.0062368526906497745
sg252
F2.158479277764133
s(g1580
S'action-3'
p2530
tp2531
F-6.651289094153837
s(g938
S'prev-action-4'
p2532
tp2533
F3.096663498914437
sg1780
F-1.2981956398485386
s(g423
S'prev-action-4'
p2534
tp2535
F-0.5600218027077903
s(S'diff-x-pos-25'
p2536
S'prev-action-1'
p2537
tp2538
F2.4647412652111997
s(S'diff-x-pos--78'
p2539
S'action-4'
p2540
tp2541
F6.4208528266830385
s(S'diff-x-pos--44'
p2542
S'prev-action-3'
p2543
tp2544
F-0.021119818342823532
s(S'diff-x-pos--62'
p2545
S'action-4'
p2546
tp2547
F6.287181129941767
s(S'diff-x-pos--92'
p2548
S'prev-action-1'
p2549
tp2550
F-0.8522996194693958
sg194
F0.2257080736401593
s(S'diff-x-pos-59'
p2551
S'action-3'
p2552
tp2553
F9.317220478365636
s(S'diff-x-pos-41'
p2554
S'action-3'
p2555
tp2556
F9.181769188837782
s(S'diff-x-pos--117'
p2557
S'prev-action-3'
p2558
tp2559
F-0.9162470324389191
s(g1491
S'action-4'
p2560
tp2561
F-6.412030978317073
s(g806
g1395
tp2562
F-2.170252909819287
s(S'diff-x-pos--29'
p2563
S'prev-action-1'
p2564
tp2565
F1.9470908572588215
s(S'diff-x-pos--118'
p2566
S'action-4'
p2567
tp2568
F1.1970355969434916
s(g2557
S'action-4'
p2569
tp2570
F3.933507400354475
s(S'diff-x-pos-5'
p2571
S'action-1'
p2572
tp2573
F2.7271689414764144
s(g1249
S'prev-action-4'
p2574
tp2575
F-0.42808764611074174
s(g331
S'prev-action-1'
p2576
tp2577
F-0.46654616981146557
s(g964
S'prev-action-1'
p2578
tp2579
F0.11304282403113436
s(S'diff-x-pos-68'
p2580
S'action-3'
p2581
tp2582
I1
s(g1594
S'action-4'
p2583
tp2584
F7.2387500071639455
s(g423
S'action-1'
p2585
tp2586
F-0.7661805099719967
s(S'diff-x-pos--113'
p2587
S'prev-action-4'
p2588
tp2589
F0.47907612085154483
s(g2103
S'action-1'
p2590
tp2591
F-3.1146149505832397
s(g237
S'action-1'
p2592
tp2593
F-1.291935506551864
s(g1655
S'action-3'
p2594
tp2595
F-5.611885697714761
s(g332
g2004
tp2596
F-6.3733594999665435
s(g1747
S'prev-action-3'
p2597
tp2598
F-1.3205949561919108
sg771
F-0.22736639722404328
s(S'diff-x-pos-22'
p2599
S'action-3'
p2600
tp2601
F8.621530473677394
s(g1572
S'prev-action-4'
p2602
tp2603
F1.246882757776884
s(g409
g144
tp2604
F0.4468926415209783
s(S'diff-x-pos--50'
p2605
S'prev-action-1'
p2606
tp2607
F-0.2435940738783674
s(S'diff-x-pos--110'
p2608
S'action-1'
p2609
tp2610
F-3.4197750975485963
sS'object-1-y-0.0'
p2611
F2.7357401114847857
s(g431
S'prev-action-1'
p2612
tp2613
F-0.16840619270747492
s(g1625
S'prev-action-4'
p2614
tp2615
F1.972983643203781
s(g2422
S'prev-action-3'
p2616
tp2617
F1.353334664945538
s(g1443
g2092
tp2618
F-5.530293438218795
s(S'diff-x-pos--64'
p2619
S'prev-action-1'
p2620
tp2621
F-0.10244339865438679
s(S'diff-x-pos--101'
p2622
S'prev-action-3'
p2623
tp2624
F-0.18546759562161957
s(S'diff-x-pos--89'
p2625
S'prev-action-3'
p2626
tp2627
F-2.4953024999428077
s(S'diff-x-pos--59'
p2628
S'action-1'
p2629
tp2630
F0.16277795383359817
s(g1099
S'action-3'
p2631
tp2632
F-7.661692429647504
s(g1969
g2033
tp2633
F-1.3361894091638349
sg58
F1.0184607761034241
s(g2357
S'action-4'
p2634
tp2635
F4.099515226361335
sg1689
F-0.17575362281198276
s(g1863
S'action-1'
p2636
tp2637
F1.8495058361821566
s(S'diff-x-pos--108'
p2638
S'prev-action-1'
p2639
tp2640
F-1.5284222930779294
s(S'diff-x-pos--48'
p2641
S'action-4'
p2642
tp2643
F0.682995681425322
s(S'diff-x-pos--53'
p2644
S'prev-action-1'
p2645
tp2646
F1.9907094388131599
s(g1854
S'prev-action-4'
p2647
tp2648
F0.7283093780315684
s(g188
S'action-3'
p2649
tp2650
F3.008650259034885
s(g2170
S'prev-action-4'
p2651
tp2652
F0.1600835948855776
s(S'diff-x-pos-67'
p2653
S'action-3'
p2654
tp2655
I1
s(S'diff-x-pos--1'
p2656
S'action-1'
p2657
tp2658
F-0.5430456956565621
sg2170
F-1.7125572552323642
sg919
F-1.2291677302646227
s(g1716
S'action-3'
p2659
tp2660
F-6.000223686449681
s(g949
S'action-4'
p2661
tp2662
F-8.304959456206094
s(S'diff-x-pos--91'
p2663
S'action-3'
p2664
tp2665
F-6.767305304978129
s(S'diff-x-pos--99'
p2666
S'prev-action-1'
p2667
tp2668
F-3.6512576036412985
s(g839
S'prev-action-3'
p2669
tp2670
F0.8080251140756799
s(g836
S'action-3'
p2671
tp2672
F2.422466350035263
s(g2285
S'action-3'
p2673
tp2674
F11.457790550994362
s(g372
S'prev-action-1'
p2675
tp2676
F0.6009682519844348
s(g1942
S'action-4'
p2677
tp2678
F7.072331230686898
s(g2238
S'prev-action-3'
p2679
tp2680
F-2.457548604688944
s(S'diff-x-pos--119'
p2681
S'action-1'
p2682
tp2683
F-0.7418586100881939
s(S'diff-x-pos--114'
p2684
S'action-3'
p2685
tp2686
F-8.812224178154285
s(g91
S'prev-action-3'
p2687
tp2688
F3.4580231144697287
s(S'diff-x-pos--47'
p2689
S'prev-action-4'
p2690
tp2691
F0.4034309051012144
s(g961
S'action-3'
p2692
tp2693
F-4.941702565616829
s(S'diff-x-pos--121'
p2694
S'prev-action-1'
p2695
tp2696
F-0.5614455114649552
s(S'diff-x-pos--12'
p2697
S'prev-action-4'
p2698
tp2699
F1.650792893491892
s(g803
S'action-3'
p2700
tp2701
F-3.021251776603628
s(S'diff-x-pos--82'
p2702
S'prev-action-3'
p2703
tp2704
F0.5393715808121533
s(g851
S'action-1'
p2705
tp2706
F-0.06334362253517778
s(S'diff-x-pos--5'
p2707
S'prev-action-1'
p2708
tp2709
F-2.522256030230149
s(g2387
S'action-1'
p2710
tp2711
F0.10469545063870078
s(g708
S'prev-action-4'
p2712
tp2713
F-2.4392359542644653
s(g2249
S'prev-action-3'
p2714
tp2715
F-3.7495927262549316
s(g995
g983
tp2716
F-0.21130350949966292
sg36
F0.19027893554515685
s(g925
S'action-4'
p2717
tp2718
F7.585432182021637
s(S'diff-x-pos--48'
p2719
S'prev-action-3'
p2720
tp2721
F-0.46298570447950294
s(g1583
S'prev-action-4'
p2722
tp2723
F1.1749107685882052
s(S'diff-x-pos-53'
p2724
S'action-3'
p2725
tp2726
F11.613293280441136
s(S'diff-x-pos-31'
p2727
S'action-4'
p2728
tp2729
F-7.660503940568229
s(g2336
S'prev-action-1'
p2730
tp2731
F2.0760022819134085
s(S'diff-x-pos--16'
p2732
S'prev-action-3'
p2733
tp2734
F1.4217413158331134
s(g670
S'action-1'
p2735
tp2736
F0.3022451035222751
s(g741
S'prev-action-3'
p2737
tp2738
F-3.5147591723368627
s(g887
S'action-3'
p2739
tp2740
F7.555067282908833
s(S'diff-x-pos-62'
p2741
S'action-3'
p2742
tp2743
F4.566867093648182
s(S'object-1-dx-1'
p2744
g541
tp2745
F1.4902868631938397
s(g420
g1708
tp2746
F0.8273468352458215
s(S'diff-x-pos-23'
p2747
S'action-3'
p2748
tp2749
F5.52948967209534
s(S'diff-x-pos-16'
p2750
S'action-3'
p2751
tp2752
F5.325699626246491
s(g1760
S'prev-action-4'
p2753
tp2754
F-0.8424588049914661
s(S'diff-x-pos--1'
p2755
S'prev-action-4'
p2756
tp2757
F1.7110202678519897
s(g1253
S'action-3'
p2758
tp2759
F-7.948714206429061
s(S'diff-x-pos--111'
p2760
S'prev-action-1'
p2761
tp2762
F0.14852911183880013
s(S'diff-x-pos--57'
p2763
S'action-1'
p2764
tp2765
F0.29188907696277694
s(g722
S'action-1'
p2766
tp2767
F0.13870508783931623
sS'diff-y-pos--5'
p2768
F1.1216250108804187
s(S'diff-x-pos-29'
p2769
S'prev-action-4'
p2770
tp2771
F3.96451847399177
s(S'diff-x-pos-24'
p2772
S'prev-action-4'
p2773
tp2774
F1.8651571112703733
s(g514
S'object-0-x-110.0'
p2775
tp2776
F5.964096909203487
s(g713
S'action-1'
p2777
tp2778
F0.10917566227784126
sg1077
F-2.531491868216628
sg2442
F-1.7934561971362712
s(S'diff-x-pos-67'
p2779
S'prev-action-3'
p2780
tp2781
F0.08209133901603138
sg1716
F-1.1097077238696729
sg961
F-3.092818696754998
sg2238
F-2.943117912071545
sg2373
F-3.406178406188899
sg670
F0.4423182947723757
s(g2763
S'prev-action-3'
p2782
tp2783
F0.7751724264148931
s(S'diff-x-pos--111'
p2784
S'action-3'
p2785
tp2786
F-9.953680380410699
sg1655
F-1.0910556817885617
s(S'diff-x-pos--108'
p2787
S'action-1'
p2788
tp2789
F2.7044066656868444
s(S'diff-x-pos-47'
p2790
S'action-3'
p2791
tp2792
F11.56690509623368
s(g424
S'prev-action-1'
p2793
tp2794
F0.4046999213303546
s(g332
S'prev-action-4'
p2795
tp2796
F2.9029360671488877
s(S'action-1'
p2797
g1416
tp2798
F1.153714441457403
s(S'diff-x-pos-62'
p2799
S'prev-action-1'
p2800
tp2801
F2.053264180708438
s(S'diff-x-pos-32'
p2802
S'prev-action-1'
p2803
tp2804
F-1.846424756224431
s(g676
S'action-1'
p2805
tp2806
F0.2149095900862279
s(g821
S'prev-action-4'
p2807
tp2808
F0.1670346543585426
s(S'diff-x-pos--54'
p2809
S'action-4'
p2810
tp2811
F3.0508049529434587
s(g849
S'prev-action-3'
p2812
tp2813
F-1.4869072760885715
s(g851
S'prev-action-1'
p2814
tp2815
F-1.0054196925167924
s(S'diff-x-pos-32'
p2816
S'action-4'
p2817
tp2818
F-11.263596051292126
s(g655
S'action-1'
p2819
tp2820
F-3.468670152886788
s(g577
S'prev-action-4'
p2821
tp2822
F-1.215727252427091
s(S'diff-x-pos-20'
p2823
S'action-4'
p2824
tp2825
F-7.749734996963154
s(g795
S'action-4'
p2826
tp2827
F-4.099530459732858
s(g2193
S'prev-action-3'
p2828
tp2829
F1.9807599953838153
s(S'diff-x-pos--110'
p2830
S'prev-action-1'
p2831
tp2832
F-0.9030296546071743
s(g1170
S'prev-action-3'
p2833
tp2834
F-1.4027819405718729
s(S'diff-x-pos--29'
p2835
S'action-4'
p2836
tp2837
F0.7413213998659076
s(S'diff-x-pos--74'
p2838
S'action-4'
p2839
tp2840
F8.093190706115907
s(g427
S'prev-action-1'
p2841
tp2842
F-0.6867058636405039
sS'diff-y-pos--6'
p2843
F1.5702236546977701
s(g173
S'action-3'
p2844
tp2845
F-11.47068999045705
s(g2702
S'action-1'
p2846
tp2847
F1.5945638118462793
s(g621
S'action-1'
p2848
tp2849
F-2.253398664953594
s(S'diff-x-pos--23'
p2850
S'action-3'
p2851
tp2852
F-2.4018353182578047
s(S'diff-x-pos--103'
p2853
S'prev-action-1'
p2854
tp2855
F-1.2978966859044083
s(S'diff-x-pos--121'
p2856
S'action-3'
p2857
tp2858
F-1.8741413341977016
s(g2587
S'action-4'
p2859
tp2860
F6.59765054969136
s(g453
S'prev-action-3'
p2861
tp2862
F0.7136376868548211
s(S'diff-x-pos-13'
p2863
S'action-3'
p2864
tp2865
F6.080474401693212
s(S'diff-x-pos--73'
p2866
S'prev-action-1'
p2867
tp2868
F-0.24289460426370102
s(g1368
g245
tp2869
F2.734934464001993
s(g2727
S'prev-action-1'
p2870
tp2871
F0.6937042681488839
s(g263
g1272
tp2872
F0.4738653840140743
sg1660
F-0.9358795349320843
s(g589
S'action-1'
p2873
tp2874
F-0.4450114828344709
s(S'diff-x-pos-5'
p2875
S'prev-action-1'
p2876
tp2877
F1.1555745623301636
s(S'diff-x-pos--94'
p2878
S'prev-action-4'
p2879
tp2880
F0.05272037507902061
s(g1849
S'action-1'
p2881
tp2882
F-1.9345582853000416
s(S'diff-x-pos--104'
p2883
S'action-3'
p2884
tp2885
F-10.585099321491867
s(S'diff-x-pos--70'
p2886
S'action-1'
p2887
tp2888
F-4.087130677525094
s(S'diff-x-pos--88'
p2889
S'prev-action-4'
p2890
tp2891
F-2.2268035921669753
sS'object-0-dy--1'
p2892
F1.1639209994968494
s(g1877
S'action-4'
p2893
tp2894
F-0.19884110789365766
s(S'diff-x-pos-41'
p2895
S'prev-action-3'
p2896
tp2897
F-0.2462999328430574
s(S'diff-x-pos-59'
p2898
S'prev-action-3'
p2899
tp2900
F0.8028864471958584
s(S'diff-x-pos-52'
p2901
S'prev-action-1'
p2902
tp2903
F-0.7966329447545093
s(g1448
S'prev-action-1'
p2904
tp2905
F-0.9528716316456303
s(g2016
S'prev-action-4'
p2906
tp2907
F1.4908912145831585
s(g1167
S'action-4'
p2908
tp2909
F5.677677117429472
s(S'diff-x-pos--78'
p2910
S'prev-action-4'
p2911
tp2912
F-2.159889876838997
s(S'diff-x-pos-66'
p2913
S'action-4'
p2914
tp2915
F-0.7719000472580562
sg1285
F-0.3782329937384077
s(S'diff-x-pos-15'
p2916
S'action-4'
p2917
tp2918
F-3.322551059642497
s(g699
S'prev-action-4'
p2919
tp2920
F2.2445285450594805
s(g2246
S'prev-action-4'
p2921
tp2922
F1.0981337122043713
s(g1106
S'prev-action-3'
p2923
tp2924
F-1.1751978762293647
s(g842
S'prev-action-4'
p2925
tp2926
F-1.3795677386522287
s(g2694
S'action-4'
p2927
tp2928
F-0.5454055013807979
s(g1282
S'action-1'
p2929
tp2930
F2.0539474664047535
sg2122
F11.603554460939451
s(S'diff-x-pos--84'
p2931
S'prev-action-1'
p2932
tp2933
F-2.9898139386520945
s(g1324
S'object-0-x-70.0'
p2934
tp2935
F3.485299423036106
s(g1249
S'action-1'
p2936
tp2937
F-1.480699106352223
s(g522
S'action-1'
p2938
tp2939
F2.0393613974648988
s(g2422
S'action-1'
p2940
tp2941
F1.283607160401921
s(S'action-3'
p2942
S'object-0-x-60.0'
p2943
tp2944
F4.189832470138074
s(S'diff-x-pos--9'
p2945
S'prev-action-4'
p2946
tp2947
F-1.6879019113988734
s(g650
S'action-3'
p2948
tp2949
F3.8388179708166614
sg2162
F44.62027892506464
sg1846
F-0.46929741135867253
s(S'diff-x-pos--50'
p2950
S'action-3'
p2951
tp2952
F-2.398215077832795
s(S'action-4'
p2953
g374
tp2954
F6.415088814563834
s(g1192
S'action-1'
p2955
tp2956
F0.17134679891906476
s(S'diff-x-pos--25'
p2957
S'action-3'
p2958
tp2959
F-0.8764533390038338
s(S'diff-x-pos--66'
p2960
S'prev-action-1'
p2961
tp2962
F-1.098059545849172
sg2157
F1.8854248285331363
s(g624
S'action-4'
p2963
tp2964
F-7.801480442657608
s(S'diff-x-pos--75'
p2965
S'prev-action-1'
p2966
tp2967
F-0.06267058697938321
s(S'diff-x-pos--43'
p2968
S'action-3'
p2969
tp2970
F-3.8036573749057077
s(S'diff-x-pos-11'
p2971
S'prev-action-3'
p2972
tp2973
F0.19912115531962227
s(g2507
S'prev-action-1'
p2974
tp2975
F-0.6564856754990529
s(g1968
S'action-1'
p2976
tp2977
F-0.4653192099928647
s(g2033
g2184
tp2978
F3.5424655393916686
s(g855
S'action-4'
p2979
tp2980
F-0.9603970209125193
s(g658
S'prev-action-4'
p2981
tp2982
F-0.5960488546852982
s(S'diff-x-pos--42'
p2983
S'prev-action-1'
p2984
tp2985
F-1.1867072306127961
s(S'diff-x-pos--117'
p2986
S'action-1'
p2987
tp2988
F1.2328133674974473
s(g2755
S'action-4'
p2989
tp2990
F-2.060190141657222
s(g431
S'action-4'
p2991
tp2992
F-2.6789274089380712
s(S'diff-x-pos-36'
p2993
S'prev-action-3'
p2994
tp2995
F0.29767733585907996
s(S'diff-x-pos--92'
p2996
S'action-3'
p2997
tp2998
F-6.650233367810721
s(g1846
S'action-4'
p2999
tp3000
F-2.4593708627075466
s(S'action-3'
p3001
g205
tp3002
F9.534551774721713
s(S'diff-x-pos--103'
p3003
S'action-4'
p3004
tp3005
F8.888946265719849
s(g2527
g2390
tp3006
F0.40719374971469335
s(g428
S'prev-action-3'
p3007
tp3008
F1.3934393118977568
s(S'diff-x-pos-56'
p3009
S'prev-action-3'
p3010
tp3011
F1.206001446885225
s(g2747
S'prev-action-1'
p3012
tp3013
F-3.2481932120776964
s(S'diff-x-pos--69'
p3014
S'action-1'
p3015
tp3016
F-2.222017917525739
s(S'diff-x-pos--46'
p3017
S'prev-action-1'
p3018
tp3019
F-1.4894989388528155
s(g606
S'prev-action-3'
p3020
tp3021
F-0.37753999075257094
s(g1978
S'action-1'
p3022
tp3023
F0.018521343083390263
s(S'diff-x-pos--37'
p3024
S'action-3'
p3025
tp3026
F0.15493527469851315
s(g1795
g1221
tp3027
F2.543512840191056
s(g2585
S'object-1-x-60.0'
p3028
tp3029
F-3.408159769926071
s(g2393
S'action-1'
p3030
tp3031
F2.840717024667586
s(g2089
S'prev-action-3'
p3032
tp3033
F1.2801490948150862
s(g1130
S'action-3'
p3034
tp3035
F2.4295915829885244
s(S'diff-x-pos--55'
p3036
S'action-3'
p3037
tp3038
F-5.276774304817894
s(g1062
S'prev-action-4'
p3039
tp3040
F0.9577266918388871
s(S'diff-x-pos--118'
p3041
S'prev-action-1'
p3042
tp3043
F-0.8953381972718977
s(g942
S'action-4'
p3044
tp3045
F0.043994613629009915
s(S'diff-x-pos-48'
p3046
S'action-4'
p3047
tp3048
F-11.322455338352263
s(g919
S'prev-action-4'
p3049
tp3050
F0.762179301169557
s(g1552
S'prev-action-3'
p3051
tp3052
F2.567375025102094
s(g850
S'prev-action-1'
p3053
tp3054
F3.4736954580706025
s(S'diff-x-pos--107'
p3055
S'action-1'
p3056
tp3057
F1.119330300446597
s(g2373
S'action-3'
p3058
tp3059
F-8.514388682674216
sg2587
F-1.1919080552748413
s(S'diff-x-pos--28'
p3060
g279
tp3061
F-1.6966778354281786
s(g1995
S'prev-action-4'
p3062
tp3063
F-0.6246522208313554
sg1238
F2.5027122598891167
sg716
F-3.294859312680586
s(S'diff-x-pos--92'
p3064
S'action-4'
p3065
tp3066
F7.107598750289077
s(g1474
S'prev-action-1'
p3067
tp3068
F-2.584231983340025
s(S'diff-x-pos-1'
p3069
S'action-1'
p3070
tp3071
F0.20116262565909138
s(g1324
g1052
tp3072
F-2.999586386651217
s(S'action-3'
p3073
S'object-0-x-120.0'
p3074
tp3075
F-4.5921085950417
s(g2787
S'prev-action-4'
p3076
tp3077
F-1.9029866128651058
s(g1269
S'prev-action-4'
p3078
tp3079
F-0.06275445667825119
s(g337
S'prev-action-4'
p3080
tp3081
F0.4284000446070326
sg876
F11.702265382263308
s(S'diff-x-pos-7'
p3082
S'action-3'
p3083
tp3084
F4.390536105399882
s(g1341
S'prev-action-1'
p3085
tp3086
F0.4882061508079778
s(S'diff-x-pos--32'
p3087
S'action-1'
p3088
tp3089
F-1.008041826095767
s(S'diff-x-pos--68'
p3090
S'prev-action-1'
p3091
tp3092
F-0.8081181152141612
s(S'diff-x-pos--60'
p3093
S'action-3'
p3094
tp3095
F-3.978476533026328
s(g2016
S'action-3'
p3096
tp3097
F14.173229954514117
s(g1448
S'action-4'
p3098
tp3099
F6.019969003835111
sg2249
F0.03949848968575764
sg493
F-0.8206089064345666
s(S'diff-x-pos-36'
p3100
S'action-4'
p3101
tp3102
F-6.236104917175261
sg827
F-2.3635704876606187
s(g1480
S'action-4'
p3103
tp3104
F-7.184640955669366
s(g1780
S'prev-action-3'
p3105
tp3106
F-1.4184625747080681
sg551
F11.764448131666768
s(S'diff-x-pos-3'
p3107
S'action-1'
p3108
tp3109
F-1.1151606393329239
s(S'diff-x-pos--88'
p3110
S'action-3'
p3111
tp3112
F-10.56221853642877
s(S'diff-x-pos--120'
p3113
S'prev-action-1'
p3114
tp3115
F-0.7002050427358502
s(g2886
S'prev-action-4'
p3116
tp3117
F-1.198320792584736
s(S'diff-x-pos-44'
p3118
S'prev-action-4'
p3119
tp3120
F-1.3085282129731701
s(S'diff-x-pos--60'
p3121
S'prev-action-1'
p3122
tp3123
F0.7710692089759168
s(S'diff-x-pos-34'
p3124
S'action-3'
p3125
tp3126
F7.398244598172747
s(S'diff-x-pos-19'
p3127
S'action-1'
p3128
tp3129
F0.8415276979241741
s(S'diff-x-pos--73'
p3130
S'action-4'
p3131
tp3132
F5.477660524792325
sS'object-0-x-30.0'
p3133
F10.830097396797921
s(g426
S'action-3'
p3134
tp3135
F4.9062839816096515
s(g313
S'prev-action-3'
p3136
tp3137
F0.9828855706694677
s(S'diff-x-pos--5'
p3138
S'action-1'
p3139
tp3140
F-0.046382431628817056
s(S'diff-x-pos--45'
p3141
S'action-4'
p3142
tp3143
F1.6656702460765245
s(g3069
S'prev-action-3'
p3144
tp3145
F2.334218026576681
s(g1880
S'action-3'
p3146
tp3147
F11.135401609803854
sg456
F46.88498812242522
sg360
F42.932487069243926
sg1221
F46.312221593847184
s(g1872
S'action-4'
p3148
tp3149
F-0.4754991286228437
s(g2838
S'prev-action-3'
p3150
tp3151
F1.7421345701354638
s(g1250
S'prev-action-1'
p3152
tp3153
F-1.7304997622190994
sS'object-1-y-20.0'
p3154
F-0.7550103977981624
s(g2103
S'prev-action-3'
p3155
tp3156
F-0.422587905922979
s(g1860
S'prev-action-3'
p3157
tp3158
F0.20918074565325484
sS'diff-y-pos--11'
p3159
F3.577034205313043
sS'diff-y-pos--10'
p3160
F0.4289730947508651
sS'diff-y-pos--12'
p3161
F2.517945172301717
s(S'diff-x-pos-0'
p3162
S'action-3'
p3163
tp3164
F0.38169276404329733
s(g392
S'prev-action-4'
p3165
tp3166
F0.33866864897862303
sg2838
F-0.24269090913214209
s(S'action-3'
p3167
g3133
tp3168
F9.092700575749625
s(g2229
S'action-4'
p3169
tp3170
F-2.3025270354413863
s(g1552
S'action-3'
p3171
tp3172
F10.289972746376968
s(S'diff-x-pos--93'
p3173
S'prev-action-4'
p3174
tp3175
F-0.699144339767178
s(S'diff-x-pos--33'
p3176
S'action-4'
p3177
tp3178
F-0.23850049525971317
s(g2316
S'action-4'
p3179
tp3180
F10.719437118164914
s(g1754
S'action-1'
p3181
tp3182
F-2.109532810761073
s(g733
S'object-1-x-60.0'
p3183
tp3184
F0.3269537340508619
s(g1829
S'action-1'
p3185
tp3186
F1.3043732718746266
s(g2799
S'action-4'
p3187
tp3188
F-4.54933407192582
s(S'action-4'
p3189
S'object-0-x-80.0'
p3190
tp3191
F2.3924421622032854
s(g881
S'action-1'
p3192
tp3193
F-1.080339293398279
s(g335
S'action-4'
p3194
tp3195
F5.563921403019556
s(S'diff-x-pos--14'
p3196
S'action-1'
p3197
tp3198
F0.1534495874801015
s(S'diff-x-pos--112'
p3199
S'prev-action-1'
p3200
tp3201
F-1.2742103052340081
s(S'diff-x-pos--4'
p3202
S'prev-action-3'
p3203
tp3204
F2.475221919387038
s(g254
S'action-1'
p3205
tp3206
F-1.0779139153672297
s(g949
S'prev-action-1'
p3207
tp3208
F-0.9471188704947225
s(S'diff-x-pos--119'
p3209
S'prev-action-1'
p3210
tp3211
F-0.39365393547510075
s(S'diff-x-pos-57'
p3212
S'action-3'
p3213
tp3214
F10.073464032146173
s(g952
S'prev-action-3'
p3215
tp3216
F1.2029098086291645
s(g1805
g35
tp3217
F-1.7885343762155943
s(S'diff-x-pos--17'
p3218
S'prev-action-3'
p3219
tp3220
F-0.5363895547537635
sg1849
F-0.2829759746778905
sg55
F-0.05815102931337876
s(g528
S'object-0-x-100.0'
p3221
tp3222
F-2.4102884719250692
s(g2625
S'action-1'
p3223
tp3224
F-3.8127154063732935
sg1877
F-0.6801530472524282
s(g228
S'action-1'
p3225
tp3226
F-0.6252188631042496
s(g287
S'prev-action-4'
p3227
tp3228
F0.2810636127823668
sg2755
F0.16575945183062363
s(g170
S'prev-action-1'
p3229
tp3230
F-0.9278676181961145
s(g827
S'action-4'
p3231
tp3232
F0.9849544499951464
s(g1943
S'prev-action-3'
p3233
tp3234
F-0.8301021992890163
sg653
F1.7806040954168383
sg91
F-0.8912817848526837
sg352
F-3.714967903980158
s(S'diff-x-pos--36'
p3235
S'prev-action-3'
p3236
tp3237
F-1.5137992736134018
s(g1766
S'prev-action-1'
p3238
tp3239
F-3.144313884636095
s(S'diff-x-pos--87'
p3240
S'action-4'
p3241
tp3242
F7.561651351833426
s(g426
S'prev-action-4'
p3243
tp3244
F3.91205706455474
sg496
F-0.9056549025190166
sg2193
F0.8743715847840134
s(g432
S'prev-action-4'
p3245
tp3246
F-0.4618229163039347
s(S'diff-x-pos--40'
p3247
S'prev-action-3'
p3248
tp3249
F-0.08576037925913738
s(g901
S'action-3'
p3250
tp3251
F-10.478940330357032
sg2960
F-0.8530225657733216
s(g2823
S'prev-action-3'
p3252
tp3253
F0.8221630911791828
s(S'diff-x-pos--41'
p3254
S'prev-action-4'
p3255
tp3256
F0.48677407804709033
s(g135
S'action-1'
p3257
tp3258
F-0.21296506970034335
s(g2960
g1065
tp3259
F-4.759844396693174
s(g2945
S'action-1'
p3260
tp3261
F-0.5081500956463656
s(S'diff-x-pos--85'
p3262
S'action-4'
p3263
tp3264
F6.750396683798637
s(S'diff-x-pos--63'
p3265
S'prev-action-4'
p3266
tp3267
F0.2597421183588905
s(g2916
S'prev-action-4'
p3268
tp3269
F1.2300449077760833
s(S'diff-x-pos--59'
p3270
S'prev-action-1'
p3271
tp3272
F1.3970870038527143
sg1805
F0.7980940131144676
sg540
F0.4877322868837494
s(g977
S'prev-action-3'
p3273
tp3274
F0.8792410507065211
sg1823
F1.2693036992729443
s(g633
S'action-3'
p3275
tp3276
F-5.895862598231885
sg2046
F1.8969748590573332
sg147
F1.2725264777698582
sg188
F-0.11001766861926998
s(g2851
S'object-0-x-50.0'
p3277
tp3278
F3.670242474231009
sg1014
F0.7126912888356229
sg699
F1.2934062090782783
sg1900
F10.76765751670255
s(S'diff-x-pos-13'
p3279
S'action-4'
p3280
tp3281
F-3.4727700252721014
s(S'diff-x-pos--65'
p3282
S'prev-action-3'
p3283
tp3284
F0.9659950351293964
s(g2277
g1324
tp3285
F0.03542447883867894
s(g2784
S'prev-action-3'
p3286
tp3287
F-2.8244197809722964
s(S'diff-x-pos--30'
p3288
S'action-3'
p3289
tp3290
F-0.6917200162815452
s(g2157
S'prev-action-4'
p3291
tp3292
F0.5448703837356166
s(g583
S'action-4'
p3293
tp3294
F10.765576109018072
s(g942
S'prev-action-3'
p3295
tp3296
F2.196770197387077
s(S'diff-x-pos--19'
p3297
S'action-4'
p3298
tp3299
F-0.02089242510225703
s(S'diff-x-pos-49'
p3300
S'action-3'
p3301
tp3302
F7.254468477613011
s(S'diff-x-pos--107'
p3303
S'prev-action-1'
p3304
tp3305
F-0.4040740781684103
s(g1256
S'action-3'
p3306
tp3307
F-10.681969718002124
s(S'diff-x-pos--27'
p3308
S'action-3'
p3309
tp3310
F2.3077470109360863
s(S'diff-x-pos--18'
p3311
S'prev-action-3'
p3312
tp3313
F-0.5170031103912505
s(g2993
S'action-1'
p3314
tp3315
F-1.3031156883409079
s(g938
S'action-1'
p3316
tp3317
F2.3037788227517524
s(g1294
S'action-4'
p3318
tp3319
F-3.3247510651438246
s(S'diff-x-pos-23'
p3320
S'action-4'
p3321
tp3322
F-7.276369891787066
s(g1646
S'action-4'
p3323
tp3324
F-5.772855458496714
s(S'diff-x-pos--98'
p3325
S'prev-action-3'
p3326
tp3327
F-0.76509610191167
s(g2181
S'action-4'
p3328
tp3329
F1.1915590832726353
s(g540
S'prev-action-1'
p3330
tp3331
F-1.4303944305840366
s(S'diff-x-pos-50'
p3332
S'action-4'
p3333
tp3334
F-7.288856147589719
s(g2583
S'object-1-x-110.0'
p3335
tp3336
F4.950899880525978
s(S'diff-x-pos--66'
p3337
S'action-4'
p3338
tp3339
F3.3541645470622288
stp3340
Rp3341
.