ccollections
Counter
p0
((dp1
(S'diff-x-pos--89'
p2
S'action-4'
p3
tp4
cnumpy.core.multiarray
scalar
p5
(cnumpy
dtype
p6
(S'f8'
p7
I0
I1
tp8
Rp9
(I3
S'<'
p10
NNNI-1
I-1
I0
tp11
bS'b\x82\xb3\x9a\x18\x94\xf5?'
p12
tp13
Rp14
s(S'action-4'
p15
S'object-1-x-80.0'
p16
tp17
g5
(g9
S'\x8e\x93\xa0\xdb\xf9\xc2\xe0?'
p18
tp19
Rp20
s(S'diff-x-pos--94'
p21
S'action-3'
p22
tp23
g5
(g9
S'\xe1\xd9\x91\x14\x9d\xd7\x0b\xc0'
p24
tp25
Rp26
s(S'diff-x-pos--80'
p27
S'action-4'
p28
tp29
g5
(g9
S'\xd1]\x8f\xfb\xdf\x81\xf8?'
p30
tp31
Rp32
s(S'diff-x-pos-2'
p33
S'prev-action-3'
p34
tp35
g5
(g9
S'6Y\x93\xb6\xbd\xb0\xe0\xbf'
p36
tp37
Rp38
s(S'diff-x-pos--7'
p39
S'prev-action-1'
p40
tp41
g5
(g9
S'xj\xf4\x8a&\x94\xd1\xbf'
p42
tp43
Rp44
s(S'diff-x-pos--27'
p45
S'action-4'
p46
tp47
g5
(g9
S'I\xa6\xbaL\x7f*\xf0\xbf'
p48
tp49
Rp50
s(S'diff-x-pos-40'
p51
S'action-3'
p52
tp53
g5
(g9
S'Fk>\x82\xa8\xa8\xf9?'
p54
tp55
Rp56
s(S'diff-x-pos-54'
p57
S'action-1'
p58
tp59
g5
(g9
S'\x82t\x96\x94\xc4E\xc3\xbf'
p60
tp61
Rp62
s(S'diff-x-pos--43'
p63
S'prev-action-4'
p64
tp65
g5
(g9
S'+\xc2\xa8J\x9c\x1e\xf1?'
p66
tp67
Rp68
s(S'diff-x-pos--96'
p69
S'prev-action-4'
p70
tp71
g5
(g9
S'\xc0JI\xc4\xf9\xf7\xec?'
p72
tp73
Rp74
s(S'action-4'
p75
S'object-1-x-60.0'
p76
tp77
g5
(g9
S'0\x8e\x88l&\x9b\xf4?'
p78
tp79
Rp80
s(S'diff-x-pos--80'
p81
S'prev-action-1'
p82
tp83
g5
(g9
S'\xbe\xda\xda\x95,\x15\xe6?'
p84
tp85
Rp86
s(S'diff-x-pos--35'
p87
S'action-3'
p88
tp89
g5
(g9
S'\xa7\xdb\xa5\xdd\x15\xd1\x02\xc0'
p90
tp91
Rp92
s(S'diff-x-pos--25'
p93
S'prev-action-4'
p94
tp95
g5
(g9
S'\xb2\xb6\xae\xd8\xd8E\xfc?'
p96
tp97
Rp98
s(S'diff-x-pos--75'
p99
S'prev-action-4'
p100
tp101
g5
(g9
S'v\x14P\xb7\x91\x0e\xd8?'
p102
tp103
Rp104
s(S'diff-x-pos-43'
p105
S'prev-action-4'
p106
tp107
g5
(g9
S'g\xa3\xa4^st\xeb?'
p108
tp109
Rp110
s(S'diff-x-pos--26'
p111
S'prev-action-1'
p112
tp113
g5
(g9
S'\xce\xaew\x1f\xe9v\xf5?'
p114
tp115
Rp116
s(S'diff-x-pos--9'
p117
S'action-3'
p118
tp119
g5
(g9
S'@R/lF\n\xce\xbf'
p120
tp121
Rp122
s(S'diff-x-pos-40'
p123
S'prev-action-1'
p124
tp125
g5
(g9
S'\xe9\x14\xe9\xadg\x0c\xf2?'
p126
tp127
Rp128
s(S'diff-x-pos--7'
p129
S'action-3'
p130
tp131
g5
(g9
S'\xb4\xbde\x8f\x10;\xf0?'
p132
tp133
Rp134
s(S'diff-x-pos--61'
p135
S'action-3'
p136
tp137
g5
(g9
S'm\xf9\x18\xe7c\x9c\xf2\xbf'
p138
tp139
Rp140
s(S'diff-x-pos-47'
p141
S'prev-action-1'
p142
tp143
g5
(g9
S'\x1b;\xe6\x88\x07\xc9\xce?'
p144
tp145
Rp146
s(S'diff-x-pos-51'
p147
S'action-1'
p148
tp149
g5
(g9
S'<\n\x0bRT\x0c\x01@'
p150
tp151
Rp152
s(S'diff-x-pos-21'
p153
S'prev-action-1'
p154
tp155
g5
(g9
S'\xa2N3\x93a\x1a\xe2\xbf'
p156
tp157
Rp158
s(S'diff-x-pos-33'
p159
S'prev-action-4'
p160
tp161
g5
(g9
S'\x86$G\x8f\xdf\xa0\xf4\xbf'
p162
tp163
Rp164
s(S'diff-x-pos--79'
p165
S'action-3'
p166
tp167
g5
(g9
S'\xf9\x8a9\x0f\xe1\x96\xed\xbf'
p168
tp169
Rp170
s(S'diff-x-pos--62'
p171
S'prev-action-3'
p172
tp173
g5
(g9
S'6m\x7f\xd41\x9f\xd3?'
p174
tp175
Rp176
s(S'diff-x-pos-17'
p177
S'action-1'
p178
tp179
g5
(g9
S'"\xcf-\xf1\xdd\xf4\xdf\xbf'
p180
tp181
Rp182
s(S'diff-x-pos-37'
p183
S'action-4'
p184
tp185
g5
(g9
S'\xe2\xce\xf9=\xa0\x95\x0e\xc0'
p186
tp187
Rp188
s(S'diff-x-pos--13'
p189
S'action-4'
p190
tp191
g5
(g9
S'\xbe\xb8a\x08\xe5\xe7\xf0?'
p192
tp193
Rp194
s(S'diff-x-pos-9'
p195
S'action-3'
p196
tp197
g5
(g9
S'\\o\x17~\x00\xe9\xa8\xbf'
p198
tp199
Rp200
s(S'diff-x-pos--98'
p201
S'action-1'
p202
tp203
g5
(g9
S"\x9a\x06\xccO\x92'\xe0\xbf"
p204
tp205
Rp206
s(S'action-3'
p207
S'object-1-x-80.0'
p208
tp209
g5
(g9
S'E+,\x85\xf3\x04\xe5\xbf'
p210
tp211
Rp212
s(S'diff-x-pos--69'
p213
S'action-4'
p214
tp215
g5
(g9
S'\xb16\xf8\xcc-\xc3\x00@'
p216
tp217
Rp218
s(S'diff-x-pos--46'
p219
S'prev-action-4'
p220
tp221
g5
(g9
S'\xa1\x02\x9a\xde0X\xe5\xbf'
p222
tp223
Rp224
s(S'diff-x-pos--53'
p225
S'action-4'
p226
tp227
g5
(g9
S'F\xd4\x19\xde\xa9\x82\xde?'
p228
tp229
Rp230
s(S'diff-x-pos--49'
p231
S'prev-action-4'
p232
tp233
g5
(g9
S"\xe6\xc9\xdad'\x1b\xf5\xbf"
p234
tp235
Rp236
s(S'diff-x-pos-25'
p237
S'action-4'
p238
tp239
g5
(g9
S'\x9a\xdd\x11\xf7\xd4\xdd\x06\xc0'
p240
tp241
Rp242
s(S'action-4'
p243
S'object-0-x-120.0'
p244
tp245
g5
(g9
S'\xe0\xd1\x07s\x825\x01@'
p246
tp247
Rp248
s(S'diff-x-pos--13'
p249
S'prev-action-4'
p250
tp251
g5
(g9
S'l\x86oL\xf5\x8a\xed?'
p252
tp253
Rp254
s(S'diff-x-pos--37'
p255
S'action-4'
p256
tp257
g5
(g9
S'^\xe6\x80\xe6Q\xce\xef?'
p258
tp259
Rp260
s(g45
S'prev-action-1'
p261
tp262
g5
(g9
S'\xf8\xc1\x139\xcb\x0b\xd8\xbf'
p263
tp264
Rp265
s(S'diff-x-pos-52'
p266
S'action-4'
p267
tp268
g5
(g9
S'\x9cB\xd8\xcbl\x95\xf9\xbf'
p269
tp270
Rp271
s(S'diff-x-pos-59'
p272
S'action-4'
p273
tp274
g5
(g9
S'^*\xb2D7D\n\xc0'
p275
tp276
Rp277
s(S'diff-x-pos--8'
p278
S'action-1'
p279
tp280
g5
(g9
S'\x00\x95\xa1\x9d\x06\xff\xe2?'
p281
tp282
Rp283
s(S'diff-x-pos--55'
p284
S'action-4'
p285
tp286
g5
(g9
S' \xf0\xf0\x08G\xcf\x01@'
p287
tp288
Rp289
s(S'diff-x-pos--31'
p290
S'action-1'
p291
tp292
g5
(g9
S'\xc5rl\x19\xdc\xa3\xf4\xbf'
p293
tp294
Rp295
s(S'diff-x-pos-48'
p296
S'action-1'
p297
tp298
g5
(g9
S'$\x06\x90s\xe5\xfe\xd9\xbf'
p299
tp300
Rp301
s(S'diff-x-pos-4'
p302
S'prev-action-4'
p303
tp304
g5
(g9
S'\x9c\x1bT\xf1\\\x95\xde?'
p305
tp306
Rp307
s(S'diff-x-pos--30'
p308
S'prev-action-1'
p309
tp310
g5
(g9
S',\xa2\x96\xe6\x81\x13\xb4\xbf'
p311
tp312
Rp313
s(S'diff-x-pos--61'
p314
S'action-1'
p315
tp316
g5
(g9
S'}\xc7D+\xd14\xc8\xbf'
p317
tp318
Rp319
s(S'diff-x-pos--63'
p320
S'prev-action-1'
p321
tp322
g5
(g9
S'>\x01\xf6\xfecO\xef\xbf'
p323
tp324
Rp325
s(S'action-4'
p326
S'object-0-x-50.0'
p327
tp328
g5
(g9
S"\x90\xc2\xacC\x10'\xf3\xbf"
p329
tp330
Rp331
s(S'diff-x-pos--65'
p332
S'action-1'
p333
tp334
g5
(g9
S'r\xf6\xdb\xaf\xe0\xd2\xc7\xbf'
p335
tp336
Rp337
s(S'diff-x-pos-26'
p338
S'action-4'
p339
tp340
g5
(g9
S'0J\x9c\xa2\xaa`\xea\xbf'
p341
tp342
Rp343
s(g249
S'action-3'
p344
tp345
g5
(g9
S'`\x84y\x05C;\xec\xbf'
p346
tp347
Rp348
s(S'action-4'
p349
S'object-0-x-130.0'
p350
tp351
g5
(g9
S'q\x1e\xdbkC\x82\xe5?'
p352
tp353
Rp354
s(S'diff-x-pos--26'
p355
S'action-1'
p356
tp357
g5
(g9
S'\x0e\xddhjy\xc8\xe5?'
p358
tp359
Rp360
s(S'diff-x-pos--75'
p361
S'action-4'
p362
tp363
g5
(g9
S'\x92\x83f\xafJs\xfc?'
p364
tp365
Rp366
s(S'diff-x-pos--23'
p367
S'prev-action-4'
p368
tp369
g5
(g9
S'\x9b\xa2\x9b\xec\x11\x99\xf2?'
p370
tp371
Rp372
s(S'diff-x-pos-37'
p373
S'action-3'
p374
tp375
g5
(g9
S'\xce\xcc9\x91n\xa1\x01@'
p376
tp377
Rp378
s(S'diff-x-pos-55'
p379
S'action-4'
p380
tp381
g5
(g9
S'\xf7l\xf6*\x92l\x04\xc0'
p382
tp383
Rp384
s(S'diff-x-pos--105'
p385
S'prev-action-4'
p386
tp387
g5
(g9
S'E\xdc\xc3<?}\xf2?'
p388
tp389
Rp390
s(S'diff-x-pos--59'
p391
S'action-3'
p392
tp393
g5
(g9
S'\xf9\xf9:\xba\xa0\x89\xff\xbf'
p394
tp395
Rp396
s(S'object-0-dx-1'
p397
S'prev-action-3'
p398
tp399
g5
(g9
S'N\xfa\x89N\xef\x86\xf4?'
p400
tp401
Rp402
s(S'diff-x-pos--39'
p403
S'prev-action-3'
p404
tp405
g5
(g9
S'I\xbbJ \x94w\xe3\xbf'
p406
tp407
Rp408
s(S'diff-x-pos-2'
p409
S'action-3'
p410
tp411
g5
(g9
S'\xf0\xbeI\xd8\x04\xe5\xd4?'
p412
tp413
Rp414
s(S'diff-x-pos-4'
p415
S'prev-action-3'
p416
tp417
g5
(g9
S'^7v\x8fG\x00\xe6\xbf'
p418
tp419
Rp420
s(S'action-3'
p421
S'object-0-x-40.0'
p422
tp423
g5
(g9
S'm\xf9G\xde\xebc\xf8?'
p424
tp425
Rp426
s(S'diff-x-pos--63'
p427
S'action-1'
p428
tp429
g5
(g9
S'6\xdaH\x9e\x8a\xe7\xf5?'
p430
tp431
Rp432
s(S'diff-x-pos--3'
p433
S'action-4'
p434
tp435
g5
(g9
S'\x1cj\x01.zV\xa9\xbf'
p436
tp437
Rp438
sS'object-1-x-120.0'
p439
g5
(g9
S'\xd0\x97\xfc\xe9\xc1\x08\xbd?'
p440
tp441
Rp442
s(S'diff-x-pos-3'
p443
S'action-3'
p444
tp445
g5
(g9
S'\xccH\xbf\xedNp\xe5?'
p446
tp447
Rp448
sS'prev-action-0'
p449
g5
(g9
S'H\x9b\x13\x86D\x86&@'
p450
tp451
Rp452
sS'prev-action-1'
p453
g5
(g9
S'<p\x03T\x153$@'
p454
tp455
Rp456
s(S'diff-x-pos--90'
p457
S'prev-action-3'
p458
tp459
g5
(g9
S'mr\x84\xf1\xb23\xeb\xbf'
p460
tp461
Rp462
sS'diff-x-pos--120'
p463
g5
(g9
S'_\xc3\n5e\x12\xf4?'
p464
tp465
Rp466
sS'prev-action-4'
p467
g5
(g9
S'\xcc\xbb\xd7\x8f\xf2<$@'
p468
tp469
Rp470
s(S'diff-x-pos--63'
p471
S'prev-action-4'
p472
tp473
g5
(g9
S'O\xdc\x02\x87\xb5f\xc1?'
p474
tp475
Rp476
s(S'diff-x-pos--36'
p477
S'action-1'
p478
tp479
g5
(g9
S'\xbc\xa8Q\xbc\xf4\xa3\xd9?'
p480
tp481
Rp482
s(S'diff-x-pos-43'
p483
S'action-1'
p484
tp485
g5
(g9
S'\x80_\x83\\\xb4\xf2\xe7\xbf'
p486
tp487
Rp488
s(S'diff-x-pos--72'
p489
S'prev-action-1'
p490
tp491
g5
(g9
S'&\x08\xb5\xce\xe4i\xec?'
p492
tp493
Rp494
s(S'diff-x-pos--35'
p495
S'prev-action-4'
p496
tp497
g5
(g9
S'\xba\xc7?{\r\xd3\xe7?'
p498
tp499
Rp500
s(S'diff-x-pos-55'
p501
S'action-3'
p502
tp503
g5
(g9
S'\xa0PX\x08\x8eO\xd4?'
p504
tp505
Rp506
s(S'diff-x-pos-45'
p507
S'prev-action-3'
p508
tp509
g5
(g9
S'\x80\xc3\x9a\r\x07)\x07@'
p510
tp511
Rp512
s(S'diff-x-pos--34'
p513
S'prev-action-3'
p514
tp515
g5
(g9
S'27\xbe{\xc2\x03\xf9?'
p516
tp517
Rp518
s(S'diff-x-pos--96'
p519
S'action-1'
p520
tp521
g5
(g9
S'~\xb8\xf7h4\x95\xf1?'
p522
tp523
Rp524
sS'diff-x-pos--103'
p525
g5
(g9
S'\t\xaeP]\xc5u\xf5\xbf'
p526
tp527
Rp528
sS'diff-y-pos-0'
p529
g5
(g9
S'q(\x9abQ\x98\xea\xbf'
p530
tp531
Rp532
s(S'diff-x-pos--17'
p533
S'action-1'
p534
tp535
g5
(g9
S'\xbcH\x00\xff\x85\x97\xcb?'
p536
tp537
Rp538
s(S'diff-x-pos--100'
p539
S'prev-action-4'
p540
tp541
g5
(g9
S'\x0c\x1b5\x1d\x18\x9f\xe3?'
p542
tp543
Rp544
sS'object-1-x-100.0'
p545
g5
(g9
S'\x8ex\x1bf%\x12\xd2?'
p546
tp547
Rp548
s(S'diff-x-pos-2'
p549
S'action-4'
p550
tp551
g5
(g9
S'\x18\xe2\xedRd_\xf5\xbf'
p552
tp553
Rp554
s(S'diff-x-pos-29'
p555
S'action-3'
p556
tp557
g5
(g9
S'\xfepR\xf0(\xcc\xff?'
p558
tp559
Rp560
s(S'diff-x-pos-30'
p561
S'action-3'
p562
tp563
g5
(g9
S'\x93\x80\xe2\xad\x91\xe3\x04@'
p564
tp565
Rp566
s(S'diff-x-pos-38'
p567
S'prev-action-3'
p568
tp569
g5
(g9
S'\xed\xcf1\x05\x9bx\xf7?'
p570
tp571
Rp572
s(S'diff-x-pos--4'
p573
S'action-1'
p574
tp575
g5
(g9
S'5r\x98\xfb3h\xf4\xbf'
p576
tp577
Rp578
s(S'diff-x-pos--112'
p579
S'action-3'
p580
tp581
g5
(g9
S'VD}\x11\xd0\xde\t\xc0'
p582
tp583
Rp584
sS'object-1-dx--1'
p585
g5
(g9
S'`z\x90\xe43\x9b\x92?'
p586
tp587
Rp588
s(S'diff-x-pos-63'
p589
S'action-3'
p590
tp591
I1
s(S'diff-x-pos--95'
p592
S'action-4'
p593
tp594
g5
(g9
S'\xad?\xdc\x94<V\r@'
p595
tp596
Rp597
s(S'diff-x-pos--33'
p598
S'action-1'
p599
tp600
g5
(g9
S'\xf8\x96\xb5!\x85@\xe8\xbf'
p601
tp602
Rp603
s(S'action-3'
p604
S'object-0-x-90.0'
p605
tp606
g5
(g9
S'\xad\x1e"t")\xf6?'
p607
tp608
Rp609
sS'object-1-dy--1'
p610
g5
(g9
S'\xe0>R\x83)\x97\xf0?'
p611
tp612
Rp613
s(S'diff-x-pos--51'
p614
S'action-1'
p615
tp616
g5
(g9
S'$\xa6\xe4q<\xac\xef\xbf'
p617
tp618
Rp619
s(S'diff-x-pos--120'
p620
S'action-4'
p621
tp622
g5
(g9
S'\xaa\xda\xce\xae\xe2y\x12@'
p623
tp624
Rp625
s(S'action-3'
p626
S'object-1-x-70.0'
p627
tp628
g5
(g9
S'z\x11w\xe9\xc1\xfd\xeb?'
p629
tp630
Rp631
s(S'action-4'
p632
S'object-0-x-60.0'
p633
tp634
g5
(g9
S'5)r\xafZ\x19\xf9?'
p635
tp636
Rp637
s(S'diff-x-pos--4'
p638
S'prev-action-4'
p639
tp640
g5
(g9
S'\x9d\xe5\xfe\x83\x18O\xfd?'
p641
tp642
Rp643
s(S'diff-x-pos--24'
p644
S'action-1'
p645
tp646
g5
(g9
S'\xb2\xa2\xa3\xf5cF\xe2\xbf'
p647
tp648
Rp649
s(S'diff-x-pos-38'
p650
S'action-4'
p651
tp652
g5
(g9
S'cP\x1a\x0c\xdeb\xf3\xbf'
p653
tp654
Rp655
s(S'diff-x-pos--77'
p656
S'action-4'
p657
tp658
g5
(g9
S'\x8cJ\x15\xb9\xf5\x91\xeb?'
p659
tp660
Rp661
s(S'diff-x-pos-57'
p662
S'action-4'
p663
tp664
g5
(g9
S'x \xcce\x14\xbe\xeb\xbf'
p665
tp666
Rp667
s(S'diff-x-pos--97'
p668
S'prev-action-3'
p669
tp670
g5
(g9
S'\xf8&\x1d\xb6D\x13\xcb\xbf'
p671
tp672
Rp673
s(S'action-1'
p674
S'object-1-x-70.0'
p675
tp676
g5
(g9
S'\x8d\xd9\xdc\xae\xca\x86\xe5?'
p677
tp678
Rp679
s(S'diff-x-pos-35'
p680
S'prev-action-1'
p681
tp682
g5
(g9
S'\xfeB\x1e\x8b\x15\xdb\xed?'
p683
tp684
Rp685
s(S'diff-x-pos-42'
p686
S'prev-action-3'
p687
tp688
g5
(g9
S'\xa03\xf1\x82\x17T\xf3?'
p689
tp690
Rp691
sS'object-0-x-70.0'
p692
g5
(g9
S'\xfd\xacM\x00=\xac\x01@'
p693
tp694
Rp695
s(S'diff-x-pos--10'
p696
S'action-1'
p697
tp698
g5
(g9
S'\xf9\xea\x8b\xe3\xaaO\xe5?'
p699
tp700
Rp701
s(S'diff-x-pos-14'
p702
S'prev-action-1'
p703
tp704
g5
(g9
S'\xc0\xc1\xcb}o/\x87\xbf'
p705
tp706
Rp707
s(S'diff-x-pos-25'
p708
S'action-3'
p709
tp710
g5
(g9
S'/\x92\x86\x05\\\xa7\x0c@'
p711
tp712
Rp713
s(S'diff-x-pos-19'
p714
S'prev-action-3'
p715
tp716
g5
(g9
S'\x98l7\x7fl\x03\xd2\xbf'
p717
tp718
Rp719
s(S'diff-x-pos--114'
p720
S'prev-action-4'
p721
tp722
g5
(g9
S'\n \xda\xd3/\xfb\xe5?'
p723
tp724
Rp725
s(S'diff-x-pos-34'
p726
S'prev-action-1'
p727
tp728
g5
(g9
S'\x0ede\xc58u\xf9?'
p729
tp730
Rp731
sS'diff-x-pos--54'
p732
g5
(g9
S']"\xbd\x02j\xc9\xd8?'
p733
tp734
Rp735
s(S'action-1'
p736
S'object-0-x-0.0'
p737
tp738
g5
(g9
S't-\x8c\xf8\x16X\xf9?'
p739
tp740
Rp741
sS'diff-x-pos--56'
p742
g5
(g9
S'\xca\xaf%\x07N\xc4\xe5?'
p743
tp744
Rp745
sS'diff-x-pos--57'
p746
g5
(g9
S'\x86I\x7f\xc3\xf9b\xc9?'
p747
tp748
Rp749
sS'diff-x-pos--50'
p750
g5
(g9
S'\xb8_\xc2\xeb\xec\xee\xe8\xbf'
p751
tp752
Rp753
sS'diff-x-pos--51'
p754
g5
(g9
S'\x94\xf3=\xa2\xac\x98\xdc\xbf'
p755
tp756
Rp757
sS'diff-x-pos--52'
p758
g5
(g9
S'\xa2\xef\xc8\x1e\x1fe\xe2?'
p759
tp760
Rp761
sS'diff-x-pos--53'
p762
g5
(g9
S'\xe2\x1a\xa2_[\x9a\xdd\xbf'
p763
tp764
Rp765
s(g674
S'object-0-x-60.0'
p766
tp767
g5
(g9
S'4\xe6\x97\xd0\xbb\xa6\xfe?'
p768
tp769
Rp770
sS'diff-x-pos--58'
p771
g5
(g9
S'\xd0\xa4\x17\x1c\x1e\xaa\xbb\xbf'
p772
tp773
Rp774
sS'diff-x-pos--59'
p775
g5
(g9
S'\xa8\x96\x04\x89\x02\x17\xd7\xbf'
p776
tp777
Rp778
s(S'diff-x-pos--102'
p779
S'action-4'
p780
tp781
g5
(g9
S'\xe6\x0cf\xbcek\x0f@'
p782
tp783
Rp784
s(S'diff-x-pos--38'
p785
S'action-1'
p786
tp787
g5
(g9
S'\x15 \x1f\x19\x83\xc0\xdd?'
p788
tp789
Rp790
sS'object-0-y-0.0'
p791
g5
(g9
S'\x0e\xa8"\xec\xd5K-@'
p792
tp793
Rp794
s(S'diff-x-pos--68'
p795
S'action-3'
p796
tp797
g5
(g9
S'\x05P\x08H$\x8e\xe5\xbf'
p798
tp799
Rp800
s(S'diff-x-pos--59'
p801
S'prev-action-4'
p802
tp803
g5
(g9
S'\xeb%\xc4K\xa0\xc9\xe1\xbf'
p804
tp805
Rp806
s(S'diff-x-pos-57'
p807
S'prev-action-3'
p808
tp809
g5
(g9
S'\x00\xf4n_\xa2\x08\xb5?'
p810
tp811
Rp812
s(S'action-1'
p813
S'object-0-x-100.0'
p814
tp815
g5
(g9
S'\xdal\xa7\x90\xd4\xac\xf7?'
p816
tp817
Rp818
s(g785
S'prev-action-1'
p819
tp820
g5
(g9
S'\xd2ZH\x9a\xb8=\xf3\xbf'
p821
tp822
Rp823
s(S'diff-x-pos--14'
p824
S'prev-action-1'
p825
tp826
g5
(g9
S'X`\x10{\x82\x87\xd4?'
p827
tp828
Rp829
s(S'object-1-dx-1'
p830
S'prev-action-1'
p831
tp832
g5
(g9
S'\xd0\xf98\x11\x15\xb2\xab?'
p833
tp834
Rp835
s(S'diff-x-pos--2'
p836
S'action-4'
p837
tp838
g5
(g9
S'\xa8a8\xe9\xc9\xc4\xe7\xbf'
p839
tp840
Rp841
sS'object-0-x-90.0'
p842
g5
(g9
S'6]M;\x82\x0c\x05@'
p843
tp844
Rp845
s(S'diff-x-pos--106'
p846
S'prev-action-4'
p847
tp848
g5
(g9
S'\xa2#\x05\xa6\xbc:\xc9?'
p849
tp850
Rp851
s(g433
S'prev-action-1'
p852
tp853
g5
(g9
S'\xb6i0I\x0f\n\xc6\xbf'
p854
tp855
Rp856
s(S'diff-x-pos--28'
p857
S'prev-action-1'
p858
tp859
g5
(g9
S'\xb8\xe9V\xb7B"\xf3\xbf'
p860
tp861
Rp862
sS'diff-x-pos-70'
p863
g5
(g9
S'-[!\xc7]\xab\xe5\xbf'
p864
tp865
Rp866
s(S'diff-x-pos--71'
p867
S'prev-action-1'
p868
tp869
g5
(g9
S'6\xba\xea`\xf7\xed\xd3?'
p870
tp871
Rp872
s(S'diff-x-pos--107'
p873
S'prev-action-3'
p874
tp875
g5
(g9
S'\x88\x0e\xa8r\xd8l\xa6?'
p876
tp877
Rp878
sS'object-1-dx-1'
p879
g5
(g9
S'7^\x9bT\xeb\xb5\xed?'
p880
tp881
Rp882
s(S'action-1'
p883
S'object-0-x-10.0'
p884
tp885
g5
(g9
S'\xe9\xfcC\xc7\xd2J\x00@'
p886
tp887
Rp888
s(S'diff-x-pos--83'
p889
S'action-4'
p890
tp891
g5
(g9
S'xs\xa8`\x02\xc5\xf5?'
p892
tp893
Rp894
s(S'diff-x-pos--55'
p895
S'prev-action-1'
p896
tp897
g5
(g9
S'89\xe3T\xe1\x0b\xde\xbf'
p898
tp899
Rp900
s(S'diff-x-pos-42'
p901
S'action-3'
p902
tp903
g5
(g9
S'`5%\xf6\xed\xe4\x11@'
p904
tp905
Rp906
s(S'diff-x-pos-10'
p907
S'prev-action-3'
p908
tp909
g5
(g9
S'\xdc\xcf\xc8\xfa\xe7R\xa5\xbf'
p910
tp911
Rp912
s(S'diff-x-pos--37'
p913
S'prev-action-1'
p914
tp915
g5
(g9
S'\x83\x80\x0b<\x1dX\xda\xbf'
p916
tp917
Rp918
s(S'diff-x-pos--74'
p919
S'action-3'
p920
tp921
g5
(g9
S'D\x1c\xe9\xc86\xf8\xfe\xbf'
p922
tp923
Rp924
s(g266
S'prev-action-1'
p925
tp926
g5
(g9
S'\xc0j\xe0c(\x95\xcb\xbf'
p927
tp928
Rp929
s(g668
S'action-3'
p930
tp931
g5
(g9
S'\xaa\xbd\x8aI\xcc\xfc\xf0\xbf'
p932
tp933
Rp934
s(S'diff-x-pos-57'
p935
S'prev-action-4'
p936
tp937
g5
(g9
S'\xc1\xae\xa6\x8e\x9d\x9b\xfb?'
p938
tp939
Rp940
s(S'diff-x-pos--91'
p941
S'prev-action-1'
p942
tp943
g5
(g9
S'\x8aF\xfe\x92\xa2\xaa\xf7?'
p944
tp945
Rp946
sS'diff-x-pos-12'
p947
g5
(g9
S'\xc8\x11\x97\x1bK\x91\xd0?'
p948
tp949
Rp950
sS'diff-x-pos-13'
p951
g5
(g9
S"\xa0\x0fa\xd5\xae'\x8f?"
p952
tp953
Rp954
sg907
g5
(g9
S'3\xb6+.x\xbe\xe5?'
p955
tp956
Rp957
sS'diff-x-pos-11'
p958
g5
(g9
S'\xa0\x9d\xa7{\xea\x12\xb6\xbf'
p959
tp960
Rp961
sS'diff-x-pos-16'
p962
g5
(g9
S'B\x8ay\xde\xafU\xe0?'
p963
tp964
Rp965
sS'diff-x-pos-17'
p966
g5
(g9
S'\xf0\xdcz\x1d\x93\xd7\xcc\xbf'
p967
tp968
Rp969
sS'diff-x-pos-14'
p970
g5
(g9
S'\xae^Q\x04%V\xd4?'
p971
tp972
Rp973
sS'diff-x-pos-15'
p974
g5
(g9
S'\x9c\xae\xf4\x90\xf5\x14\xe8\xbf'
p975
tp976
Rp977
s(S'diff-x-pos-28'
p978
S'action-1'
p979
tp980
g5
(g9
S'\xd0\x95\x81\xb7\xcb\xaf\xc7?'
p981
tp982
Rp983
sS'diff-x-pos-18'
p984
g5
(g9
S')j\xa9\xad\xae%\xf3?'
p985
tp986
Rp987
sS'diff-x-pos-19'
p988
g5
(g9
S'\x1c\xb3\xc5\xc5\xd86\xda\xbf'
p989
tp990
Rp991
s(g130
S'object-0-x-100.0'
p992
tp993
g5
(g9
S'\x88\x04\x83\xa9\x99j\xee?'
p994
tp995
Rp996
s(S'diff-x-pos--51'
p997
S'prev-action-1'
p998
tp999
g5
(g9
S'f\xdd\xa3\rH(\xc0\xbf'
p1000
tp1001
Rp1002
s(g471
S'action-3'
p1003
tp1004
g5
(g9
S'\x81\xb8\x16\x86\x0e\xfd\n\xc0'
p1005
tp1006
Rp1007
s(S'diff-x-pos--94'
p1008
S'prev-action-1'
p1009
tp1010
g5
(g9
S'r@\x10@\xaa\xd3\xda?'
p1011
tp1012
Rp1013
s(S'diff-x-pos--44'
p1014
S'action-3'
p1015
tp1016
g5
(g9
S'\x98\xa7\x84X=\xb5\xf3\xbf'
p1017
tp1018
Rp1019
s(S'diff-x-pos--33'
p1020
S'prev-action-1'
p1021
tp1022
g5
(g9
S'R(x\xfb\xcf\x86\xca\xbf'
p1023
tp1024
Rp1025
s(S'diff-x-pos--42'
p1026
S'action-3'
p1027
tp1028
g5
(g9
S'\x0c\x98*j\xfa\x0b\xe7\xbf'
p1029
tp1030
Rp1031
s(g561
S'prev-action-3'
p1032
tp1033
g5
(g9
S'e`\xe6\x0eJ!\xc4?'
p1034
tp1035
Rp1036
s(S'diff-x-pos--85'
p1037
S'action-3'
p1038
tp1039
g5
(g9
S'\xf0<\xae\x8b=K\xfc\xbf'
p1040
tp1041
Rp1042
s(S'action-4'
p1043
S'object-0-x-110.0'
p1044
tp1045
g5
(g9
S'\x14\xca\x82\x0co)\x04@'
p1046
tp1047
Rp1048
s(S'diff-x-pos-2'
p1049
S'prev-action-4'
p1050
tp1051
g5
(g9
S'\x8cHTT\xb0\xd7\xb9?'
p1052
tp1053
Rp1054
s(S'diff-x-pos--44'
p1055
S'action-4'
p1056
tp1057
g5
(g9
S'\xa0+\xeeS\x81;\xf4?'
p1058
tp1059
Rp1060
s(S'diff-x-pos--100'
p1061
S'action-4'
p1062
tp1063
g5
(g9
S' \x97\x19\x04\xbaX\xf7?'
p1064
tp1065
Rp1066
s(S'diff-x-pos--32'
p1067
S'prev-action-1'
p1068
tp1069
g5
(g9
S'\x0bM\x04\xba\xcb\x15\xdb\xbf'
p1070
tp1071
Rp1072
s(S'diff-x-pos--43'
p1073
S'prev-action-1'
p1074
tp1075
g5
(g9
S'\xfc\xf8FF\xc1\xd8\xe4\xbf'
p1076
tp1077
Rp1078
s(S'diff-x-pos--81'
p1079
S'prev-action-4'
p1080
tp1081
g5
(g9
S'\xa0I\xf3\xd0ww\xb9\xbf'
p1082
tp1083
Rp1084
s(S'diff-x-pos--96'
p1085
S'prev-action-1'
p1086
tp1087
g5
(g9
S'\xd2\xe5\xd6\x1f\x8e\xee\xe1\xbf'
p1088
tp1089
Rp1090
s(S'diff-x-pos-6'
p1091
S'prev-action-1'
p1092
tp1093
g5
(g9
S'\x91\xdeN\xabc\xcb\xfa?'
p1094
tp1095
Rp1096
s(g507
S'action-3'
p1097
tp1098
g5
(g9
S':5\x17\xd1F-\x03@'
p1099
tp1100
Rp1101
s(S'action-1'
p1102
g439
tp1103
g5
(g9
S'`+qn\xe07\x06\xc0'
p1104
tp1105
Rp1106
s(S'diff-x-pos--25'
p1107
S'prev-action-1'
p1108
tp1109
g5
(g9
S'")\xcb\xbc\n?\xe0?'
p1110
tp1111
Rp1112
s(S'diff-x-pos-58'
p1113
S'prev-action-4'
p1114
tp1115
g5
(g9
S'\x02\xd6\xbc\xbe~C\xd0\xbf'
p1116
tp1117
Rp1118
s(S'diff-x-pos-43'
p1119
S'prev-action-1'
p1120
tp1121
g5
(g9
S'\xf9\xc4\xc3=\x9f\xde\xc6\xbf'
p1122
tp1123
Rp1124
s(S'diff-x-pos-6'
p1125
S'action-4'
p1126
tp1127
g5
(g9
S'\xcb"O<\xd0%\xd1?'
p1128
tp1129
Rp1130
s(S'diff-x-pos-1'
p1131
S'action-1'
p1132
tp1133
g5
(g9
S'k\x15Dvh\x0b\xe1?'
p1134
tp1135
Rp1136
s(g457
S'action-3'
p1137
tp1138
g5
(g9
S'E\xb8\xb7\xdc\x03\x9a\x00\xc0'
p1139
tp1140
Rp1141
s(S'diff-x-pos-40'
p1142
S'prev-action-4'
p1143
tp1144
g5
(g9
S'v>i(_\xaf\xfb\xbf'
p1145
tp1146
Rp1147
s(S'diff-x-pos--21'
p1148
S'action-1'
p1149
tp1150
g5
(g9
S'@\x10\xdc\xcf\xf8C\xbd\xbf'
p1151
tp1152
Rp1153
s(g39
S'action-4'
p1154
tp1155
g5
(g9
S'\x02\xc0\xfe\x02^u\xf5\xbf'
p1156
tp1157
Rp1158
s(S'diff-x-pos--3'
p1159
S'prev-action-4'
p1160
tp1161
g5
(g9
S'\xa8j\xdb-\xd8*\xb8?'
p1162
tp1163
Rp1164
s(g674
S'prev-action-4'
p1165
tp1166
g5
(g9
S'e7v\x1b\xd5s\x10@'
p1167
tp1168
Rp1169
s(S'diff-x-pos--47'
p1170
S'action-1'
p1171
tp1172
g5
(g9
S'F\xec\xb3(F\xbd\xf0?'
p1173
tp1174
Rp1175
s(S'object-0-dx--1'
p1176
S'prev-action-1'
p1177
tp1178
g5
(g9
S'\xc4\xc76\t\r\x11\xde\xbf'
p1179
tp1180
Rp1181
s(S'diff-x-pos-33'
p1182
S'prev-action-3'
p1183
tp1184
g5
(g9
S'\x92\xe6Nd\x17\xbf\xee?'
p1185
tp1186
Rp1187
s(S'diff-x-pos--8'
p1188
S'prev-action-4'
p1189
tp1190
g5
(g9
S'p\x92\x1c~h]\xe0?'
p1191
tp1192
Rp1193
s(S'diff-x-pos--15'
p1194
S'action-3'
p1195
tp1196
g5
(g9
S'\xd0\xb5o\xbaJ\x8a\xbd\xbf'
p1197
tp1198
Rp1199
s(S'diff-x-pos--85'
p1200
S'action-4'
p1201
tp1202
g5
(g9
S'Jo\xcep\x93\x8d\xd7\xbf'
p1203
tp1204
Rp1205
s(g403
S'action-3'
p1206
tp1207
g5
(g9
S'^\xd3\xf4\xed8\xdf\xf6\xbf'
p1208
tp1209
Rp1210
s(S'object-0-dx-1'
p1211
g207
tp1212
g5
(g9
S'\xfe\x1c\x9c\x0bp\xd7\xe6?'
p1213
tp1214
Rp1215
s(S'diff-x-pos--86'
p1216
S'action-3'
p1217
tp1218
g5
(g9
S'\xe0\x000\x9d\x16~\x01\xc0'
p1219
tp1220
Rp1221
s(S'diff-x-pos--49'
p1222
S'action-3'
p1223
tp1224
g5
(g9
S'\xa6&\x0f\x8d\x8bn\xda\xbf'
p1225
tp1226
Rp1227
s(S'diff-x-pos-9'
p1228
S'action-4'
p1229
tp1230
g5
(g9
S'\x94\x9dw\xf9\xd2+\xfa\xbf'
p1231
tp1232
Rp1233
s(S'diff-x-pos--98'
p1234
S'action-4'
p1235
tp1236
g5
(g9
S'pR7\xe6e\x92\xf8?'
p1237
tp1238
Rp1239
s(S'diff-x-pos--58'
p1240
S'prev-action-4'
p1241
tp1242
g5
(g9
S'G=\xe83\xe6\xef\xe4?'
p1243
tp1244
Rp1245
s(S'diff-x-pos-60'
p1246
S'prev-action-4'
p1247
tp1248
g5
(g9
S'\xa2\xf0o\x11]\x06\xd1\xbf'
p1249
tp1250
Rp1251
s(S'action-1'
p1252
S'object-0-x-50.0'
p1253
tp1254
g5
(g9
S'\xee\x83s\x99\x13\xdd\xe1?'
p1255
tp1256
Rp1257
s(g183
S'prev-action-3'
p1258
tp1259
g5
(g9
S'0\xc8\x8c6<\x82\xd0?'
p1260
tp1261
Rp1262
s(g189
S'prev-action-3'
p1263
tp1264
g5
(g9
S'(tbmu\xa1\xdf?'
p1265
tp1266
Rp1267
s(g338
S'prev-action-4'
p1268
tp1269
g5
(g9
S'\xdcXP\xc9NL\xab?'
p1270
tp1271
Rp1272
s(g1055
g453
tp1273
g5
(g9
S'y\x8b\xa0\xbd\xd3*\xe2\xbf'
p1274
tp1275
Rp1276
s(S'diff-x-pos--92'
p1277
S'prev-action-3'
p1278
tp1279
g5
(g9
S'\x80\xfcc\xb5\x81\x00\x8d?'
p1280
tp1281
Rp1282
s(S'diff-x-pos-52'
p1283
S'action-3'
p1284
tp1285
g5
(g9
S'\xaeK:\x05\xfc\xeb\x13@'
p1286
tp1287
Rp1288
s(S'action-1'
p1289
S'prev-action-3'
p1290
tp1291
g5
(g9
S'N\xb2\xa9\x07Og\x08@'
p1292
tp1293
Rp1294
s(S'diff-x-pos-59'
p1295
S'action-1'
p1296
tp1297
g5
(g9
S'Y\x8b\x82H\xce\x15\xe7\xbf'
p1298
tp1299
Rp1300
s(S'action-3'
p1301
S'object-0-x-10.0'
p1302
tp1303
g5
(g9
S' A\xe0j\xe3\xae\xfe?'
p1304
tp1305
Rp1306
s(S'diff-x-pos-41'
p1307
S'action-1'
p1308
tp1309
g5
(g9
S'\xe61\t\nrA\xfd\xbf'
p1310
tp1311
Rp1312
s(g296
S'prev-action-1'
p1313
tp1314
g5
(g9
S'\xf1\xa4\xfb\x96SH\xd5\xbf'
p1315
tp1316
Rp1317
s(S'diff-x-pos--104'
p1318
S'prev-action-1'
p1319
tp1320
g5
(g9
S'PG\x0e\xe8\xa9\xf1\xdd\xbf'
p1321
tp1322
Rp1323
s(S'diff-x-pos-5'
p1324
S'action-3'
p1325
tp1326
g5
(g9
S'\x1c\xd2hz2\xaa\xf2?'
p1327
tp1328
Rp1329
s(S'diff-x-pos--115'
p1330
S'prev-action-3'
p1331
tp1332
g5
(g9
S'\x12n/\x1fW0\xf4?'
p1333
tp1334
Rp1335
s(g1056
g453
tp1336
g5
(g9
S'S\x88Q\xc0\xeb\x08\r@'
p1337
tp1338
Rp1339
s(S'diff-x-pos--41'
p1340
S'action-1'
p1341
tp1342
g5
(g9
S'\x14)\xd7Q\xa5\xeb\xce?'
p1343
tp1344
Rp1345
s(S'diff-x-pos-27'
p1346
S'prev-action-1'
p1347
tp1348
g5
(g9
S'\x16\xdca\xe2k~\xcf\xbf'
p1349
tp1350
Rp1351
sS'diff-x-pos--14'
p1352
g5
(g9
S'\x01\xcc\xc4\xcb\x0c\xb3\xd9\xbf'
p1353
tp1354
Rp1355
s(S'diff-x-pos-13'
p1356
S'prev-action-1'
p1357
tp1358
g5
(g9
S'\xeb:\xcb\xf5\xb9r\xe2?'
p1359
tp1360
Rp1361
s(S'action-3'
p1362
S'prev-action-0'
p1363
tp1364
g5
(g9
S'lJ\x99\xd4=L\x13@'
p1365
tp1366
Rp1367
s(S'diff-x-pos--49'
p1368
S'action-4'
p1369
tp1370
g5
(g9
S'\xa3\xef$<\xfev\xf2?'
p1371
tp1372
Rp1373
s(g525
S'action-3'
p1374
tp1375
g5
(g9
S'\x1fh\xa04\x11\x80\x00\xc0'
p1376
tp1377
Rp1378
s(S'diff-x-pos--75'
p1379
S'action-1'
p1380
tp1381
g5
(g9
S'P2\xaaw\xb7\xbf\xdd\xbf'
p1382
tp1383
Rp1384
s(S'diff-x-pos--46'
p1385
S'action-4'
p1386
tp1387
g5
(g9
S'\xd6RJ\x81\x9cU\xb7\xbf'
p1388
tp1389
Rp1390
s(S'diff-x-pos--23'
p1391
S'prev-action-1'
p1392
tp1393
g5
(g9
S'B\xd2\xf7i\xa7\x0c\xbb\xbf'
p1394
tp1395
Rp1396
s(S'diff-x-pos--58'
p1397
S'prev-action-3'
p1398
tp1399
g5
(g9
S'\x06=\xfas\x03\xd6\xc7\xbf'
p1400
tp1401
Rp1402
s(S'diff-x-pos-56'
p1403
S'prev-action-4'
p1404
tp1405
g5
(g9
S'\xa2=\xa8\xa4\x9ai\xc0\xbf'
p1406
tp1407
Rp1408
s(S'diff-x-pos--105'
p1409
S'prev-action-1'
p1410
tp1411
g5
(g9
S'\x80\x9aEiq\xab\x98?'
p1412
tp1413
Rp1414
s(S'diff-x-pos--3'
p1415
S'action-1'
p1416
tp1417
g5
(g9
S'm\xaf\xbd\x00\xc4\xc3\xe3?'
p1418
tp1419
Rp1420
s(S'diff-x-pos--86'
p1421
S'prev-action-1'
p1422
tp1423
g5
(g9
S'\xfc\xa3\x8c\xe7\x9d\x1c\xce\xbf'
p1424
tp1425
Rp1426
sS'diff-x-pos--15'
p1427
g5
(g9
S'nE\xc6\xec\xfc;\xc7?'
p1428
tp1429
Rp1430
s(S'diff-x-pos-15'
p1431
S'action-3'
p1432
tp1433
g5
(g9
S"N\x820\t'\xf0\xe6?"
p1434
tp1435
Rp1436
s(S'diff-x-pos--52'
p1437
S'action-1'
p1438
tp1439
g5
(g9
S'\x0c(\xc1n\x9dO\xd8\xbf'
p1440
tp1441
Rp1442
s(S'diff-x-pos--110'
p1443
S'action-3'
p1444
tp1445
g5
(g9
S'\x06\xa1A\xe2\x955\n\xc0'
p1446
tp1447
Rp1448
s(S'diff-x-pos--62'
p1449
S'action-1'
p1450
tp1451
g5
(g9
S'\xa8\xaf\x87\x92^\xef\xcd\xbf'
p1452
tp1453
Rp1454
s(S'diff-x-pos-17'
p1455
S'prev-action-1'
p1456
tp1457
g5
(g9
S'z\xf1M\xa4\xe0\x84\xe9\xbf'
p1458
tp1459
Rp1460
s(S'diff-x-pos-18'
p1461
S'prev-action-3'
p1462
tp1463
g5
(g9
S'\xe4\xcf\x93 \x08\x8e\xf6?'
p1464
tp1465
Rp1466
s(S'diff-x-pos--9'
p1467
S'action-4'
p1468
tp1469
g5
(g9
S'D\x9a\x08\x01\x99\x89\xf9?'
p1470
tp1471
Rp1472
s(S'diff-x-pos--64'
p1473
S'prev-action-3'
p1474
tp1475
g5
(g9
S'R\x88d\x1b8\xdd\xd8\xbf'
p1476
tp1477
Rp1478
s(g153
S'action-1'
p1479
tp1480
g5
(g9
S'\x8cq\xa0\x83\xda|\xde?'
p1481
tp1482
Rp1483
s(S'diff-x-pos--101'
p1484
S'prev-action-1'
p1485
tp1486
g5
(g9
S'$\xd1o\xe3\x17\xe8\xce\xbf'
p1487
tp1488
Rp1489
sg1044
g5
(g9
S'\xc6\xe08*T\xbb\x01@'
p1490
tp1491
Rp1492
s(g135
S'prev-action-3'
p1493
tp1494
g5
(g9
S'\x16\xde)8\xdc\xe3\xff\xbf'
p1495
tp1496
Rp1497
s(S'diff-x-pos--76'
p1498
S'prev-action-4'
p1499
tp1500
g5
(g9
S'\xb1\xfdQ#F\xe3\xfd?'
p1501
tp1502
Rp1503
s(S'diff-x-pos-46'
p1504
S'prev-action-4'
p1505
tp1506
g5
(g9
S'\xa70W\xfd_{\xe1\xbf'
p1507
tp1508
Rp1509
s(g863
S'action-4'
p1510
tp1511
g5
(g9
S'-[!\xc7]\xab\xe5\xbf'
p1512
tp1513
Rp1514
s(S'diff-x-pos--87'
p1515
S'prev-action-3'
p1516
tp1517
g5
(g9
S'\x8f\xb1\xd1\x98\x97`\xd2\xbf'
p1518
tp1519
Rp1520
s(S'diff-x-pos--84'
p1521
S'action-1'
p1522
tp1523
g5
(g9
S'\x90\xc3Q\x90A\x13\xe8?'
p1524
tp1525
Rp1526
s(S'diff-x-pos--70'
p1527
S'prev-action-1'
p1528
tp1529
g5
(g9
S'\xd8T(\x96\xdd\xbf\xb2\xbf'
p1530
tp1531
Rp1532
s(S'diff-x-pos--36'
p1533
S'action-4'
p1534
tp1535
g5
(g9
S'\xfbTx\x1cz\x97\xfe?'
p1536
tp1537
Rp1538
s(S'diff-x-pos-43'
p1539
S'action-4'
p1540
tp1541
g5
(g9
S'\xa7O\x02k\x1c\x07\x00\xc0'
p1542
tp1543
Rp1544
s(g87
S'prev-action-3'
p1545
tp1546
g5
(g9
S'\x14:i]AB\xf1?'
p1547
tp1548
Rp1549
s(S'diff-x-pos--108'
p1550
S'prev-action-3'
p1551
tp1552
g5
(g9
S'l~ T\xb8^\xd5\xbf'
p1553
tp1554
Rp1555
s(S'action-1'
p1556
S'object-0-x-30.0'
p1557
tp1558
g5
(g9
S'\xd2>\xbcp\xe5\x12\x01@'
p1559
tp1560
Rp1561
s(S'diff-x-pos-7'
p1562
S'action-4'
p1563
tp1564
g5
(g9
S'\xf8\xec\x8a\xfa\xf2\x9f\xa3?'
p1565
tp1566
Rp1567
s(S'diff-x-pos-22'
p1568
S'action-4'
p1569
tp1570
g5
(g9
S'0\xea\xe9\xf9z|\x01\xc0'
p1571
tp1572
Rp1573
s(g1085
S'action-4'
p1574
tp1575
g5
(g9
S'e\xde\x1b8Ps\xf9?'
p1576
tp1577
Rp1578
s(S'diff-x-pos-27'
p1579
S'action-1'
p1580
tp1581
g5
(g9
S'\x85\x91\xa8\x8c\xae\xbe\xf1?'
p1582
tp1583
Rp1584
s(S'diff-x-pos-54'
p1585
S'prev-action-1'
p1586
tp1587
g5
(g9
S'\x98\xc9*:\xbbu\xde\xbf'
p1588
tp1589
Rp1590
s(S'diff-x-pos-8'
p1591
S'prev-action-3'
p1592
tp1593
g5
(g9
S'\xf4z\x91\xd1~G\xb7\xbf'
p1594
tp1595
Rp1596
s(S'diff-x-pos--101'
p1597
S'action-1'
p1598
tp1599
g5
(g9
S'`\x81\xe0\xcd\xcfs\x95\xbf'
p1600
tp1601
Rp1602
s(S'diff-x-pos--110'
p1603
S'action-4'
p1604
tp1605
g5
(g9
S'\xcc6\x94\xf1\xff#\x07@'
p1606
tp1607
Rp1608
s(S'diff-x-pos-51'
p1609
S'action-4'
p1610
tp1611
g5
(g9
S'qW\xe7@\xd4\xa5\n\xc0'
p1612
tp1613
Rp1614
s(S'diff-x-pos--99'
p1615
S'prev-action-3'
p1616
tp1617
g5
(g9
S'lH@\xb9\xd9\xba\xe8\xbf'
p1618
tp1619
Rp1620
s(S'diff-x-pos--102'
p1621
S'prev-action-1'
p1622
tp1623
g5
(g9
S'T\x92\xc3\xe3 \x0c\xe3\xbf'
p1624
tp1625
Rp1626
s(S'diff-x-pos--19'
p1627
S'prev-action-3'
p1628
tp1629
g5
(g9
S'\xea\xb3\xabQ(\xc3\xef?'
p1630
tp1631
Rp1632
s(S'diff-x-pos--88'
p1633
S'action-4'
p1634
tp1635
g5
(g9
S'.P\x9c#\x12+\x04@'
p1636
tp1637
Rp1638
s(S'diff-x-pos-12'
p1639
S'action-3'
p1640
tp1641
g5
(g9
S'\xd8\xf9&\xd7}H\xd1?'
p1642
tp1643
Rp1644
s(S'diff-x-pos-47'
p1645
S'action-1'
p1646
tp1647
g5
(g9
S'\x88.0\xf7Xu\xff?'
p1648
tp1649
Rp1650
s(S'diff-x-pos--89'
p1651
S'prev-action-4'
p1652
tp1653
g5
(g9
S'\xa4\xa9\xe5:\x1bG\xe3\xbf'
p1654
tp1655
Rp1656
s(S'diff-x-pos--95'
p1657
S'action-1'
p1658
tp1659
g5
(g9
S'\xc8\xa0\xeb\x87\xc7J\xb6?'
p1660
tp1661
Rp1662
s(S'diff-x-pos--76'
p1663
S'prev-action-3'
p1664
tp1665
g5
(g9
S'=\x19\xb2x\xd2p\xe1\xbf'
p1666
tp1667
Rp1668
s(S'diff-x-pos--11'
p1669
S'prev-action-1'
p1670
tp1671
g5
(g9
S'K\x92\x16Nw\x9b\xe0?'
p1672
tp1673
Rp1674
s(S'diff-x-pos--16'
p1675
S'action-1'
p1676
tp1677
g5
(g9
S'\xeb\x94\x9ew\xf4P\xe8\xbf'
p1678
tp1679
Rp1680
s(g696
S'prev-action-4'
p1681
tp1682
g5
(g9
S'\x0c\xd9n\x1f\x8eO\xb3?'
p1683
tp1684
Rp1685
s(S'diff-x-pos-50'
p1686
S'prev-action-4'
p1687
tp1688
g5
(g9
S'\x8c9B\xe7\xb8`\xf2\xbf'
p1689
tp1690
Rp1691
s(S'diff-x-pos--6'
p1692
S'prev-action-3'
p1693
tp1694
g5
(g9
S'\xac\x0e\xb7m{\xb8\xfd?'
p1695
tp1696
Rp1697
s(S'diff-x-pos--121'
p1698
S'prev-action-3'
p1699
tp1700
g5
(g9
S'pS1\x0fV\xa5\xf9?'
p1701
tp1702
Rp1703
s(S'diff-x-pos-53'
p1704
S'prev-action-1'
p1705
tp1706
g5
(g9
S'\x9ao\xaax\x99d\xcb?'
p1707
tp1708
Rp1709
s(S'diff-x-pos--48'
p1710
S'action-1'
p1711
tp1712
g5
(g9
S'6\x8bw\xc2\xc6r\xf9?'
p1713
tp1714
Rp1715
s(S'diff-x-pos--45'
p1716
S'action-3'
p1717
tp1718
g5
(g9
S'O\xcf\xab\x8e\x82\xf2\xe2\xbf'
p1719
tp1720
Rp1721
s(S'diff-x-pos-6'
p1722
S'prev-action-4'
p1723
tp1724
g5
(g9
S'F(\xcc\xce\x87\x82\xcf\xbf'
p1725
tp1726
Rp1727
s(S'diff-x-pos--77'
p1728
S'action-1'
p1729
tp1730
g5
(g9
S'\x0f\x0e\xab\xf3\x0bv\xdb?'
p1731
tp1732
Rp1733
s(g1645
S'prev-action-3'
p1734
tp1735
g5
(g9
S'\xe4K\xc9\x94\xf6}\xe8?'
p1736
tp1737
Rp1738
s(S'diff-x-pos--80'
p1739
S'prev-action-3'
p1740
tp1741
g5
(g9
S'\n\xbc\xf4y\xb5*\xd1\xbf'
p1742
tp1743
Rp1744
s(S'diff-x-pos-36'
p1745
S'prev-action-1'
p1746
tp1747
g5
(g9
S'R\x08\xcf\xd2\xf3\xfa\xf0?'
p1748
tp1749
Rp1750
s(S'diff-x-pos--34'
p1751
S'prev-action-4'
p1752
tp1753
g5
(g9
S'\xaa\xeb\x92\n\xb9\xc1\xd6\xbf'
p1754
tp1755
Rp1756
s(S'diff-x-pos-35'
p1757
S'prev-action-4'
p1758
tp1759
g5
(g9
S'\x1a8\x07O\xd4p\xf8\xbf'
p1760
tp1761
Rp1762
s(S'diff-x-pos--99'
p1763
S'prev-action-4'
p1764
tp1765
g5
(g9
S'L\xcc\xcd\x98j\xee\xec?'
p1766
tp1767
Rp1768
s(S'diff-x-pos-27'
p1769
S'prev-action-4'
p1770
tp1771
g5
(g9
S'\x99\x03\x04\xbfSk\xe1?'
p1772
tp1773
Rp1774
s(S'diff-x-pos--45'
p1775
S'prev-action-3'
p1776
tp1777
g5
(g9
S'\xb0\xeb\x15\xae\x9f\x80\xe6?'
p1778
tp1779
Rp1780
s(S'diff-x-pos--109'
p1781
S'prev-action-1'
p1782
tp1783
g5
(g9
S'i\xf8\x9b/i\x97\xf5?'
p1784
tp1785
Rp1786
s(S'diff-x-pos--48'
p1787
S'prev-action-1'
p1788
tp1789
g5
(g9
S'4\xcbv\x8e\xf8\xaa\xef\xbf'
p1790
tp1791
Rp1792
s(S'action-1'
p1793
S'object-0-x-20.0'
p1794
tp1795
g5
(g9
S'f\x9b\xefa\xa6\x04\xb3?'
p1796
tp1797
Rp1798
s(S'diff-x-pos--60'
p1799
S'action-1'
p1800
tp1801
g5
(g9
S'\x84\x88\x16\xa7\xf2\xa1\xda?'
p1802
tp1803
Rp1804
s(S'diff-x-pos--10'
p1805
S'action-4'
p1806
tp1807
g5
(g9
S'\xa4:4\xfa-0\xee\xbf'
p1808
tp1809
Rp1810
s(S'object-1-dx--1'
p1811
g453
tp1812
g5
(g9
S"\x01'g\xee\xb6\xed\xbc?"
p1813
tp1814
Rp1815
s(S'diff-x-pos--114'
p1816
S'prev-action-1'
p1817
tp1818
g5
(g9
S'\xf6\xd6\xc76\xbe\xa8\xf6?'
p1819
tp1820
Rp1821
s(S'diff-x-pos--40'
p1822
S'action-4'
p1823
tp1824
g5
(g9
S'\xde\xb9\xb4\x8c\xd1P\xf4?'
p1825
tp1826
Rp1827
s(S'action-4'
p1828
S'object-0-x-30.0'
p1829
tp1830
g5
(g9
S'\x1e\xf0(u\xf3K\xe6?'
p1831
tp1832
Rp1833
s(S'diff-x-pos--119'
p1834
S'prev-action-3'
p1835
tp1836
g5
(g9
S'\x07\xb8\x9a\xba\x96\xfd\xe5\xbf'
p1837
tp1838
Rp1839
s(S'diff-x-pos-16'
p1840
S'action-1'
p1841
tp1842
g5
(g9
S'4\xb6\xd1\x00%\xc5\xc0\xbf'
p1843
tp1844
Rp1845
s(S'diff-x-pos-39'
p1846
S'prev-action-1'
p1847
tp1848
g5
(g9
S'\x16=\xb9\x0e\x0e!\xe3?'
p1849
tp1850
Rp1851
s(S'diff-x-pos--12'
p1852
S'prev-action-1'
p1853
tp1854
g5
(g9
S'H\x0c\xd8}V\xfd\xe8\xbf'
p1855
tp1856
Rp1857
s(S'diff-x-pos--102'
p1858
S'action-1'
p1859
tp1860
g5
(g9
S'b\xc4\xe9\rV\x94\xf8\xbf'
p1861
tp1862
Rp1863
s(S'diff-x-pos--38'
p1864
S'action-4'
p1865
tp1866
g5
(g9
S'\xc4y\xb7!\x1bi\x01@'
p1867
tp1868
Rp1869
s(S'action-3'
p1870
S'object-0-x-80.0'
p1871
tp1872
g5
(g9
S'"\x00\x17<\xb9K\xea?'
p1873
tp1874
Rp1875
sg1073
g5
(g9
S's\xab\x0cx-1\xc3?'
p1876
tp1877
Rp1878
sg1026
g5
(g9
S'$\x9eA\xfa.A\xec\xbf'
p1879
tp1880
Rp1881
sS'diff-x-pos--41'
p1882
g5
(g9
S'\xe40\xc2\xa2\xdb\xe2\xf2?'
p1883
tp1884
Rp1885
sS'diff-x-pos--40'
p1886
g5
(g9
S'j+\xae3\xbd\xa5\xe1?'
p1887
tp1888
Rp1889
sS'diff-x-pos--47'
p1890
g5
(g9
S'\xd9\x9a!\x12\xae\xbb\xb0\xbf'
p1891
tp1892
Rp1893
sg1385
g5
(g9
S'l\xed\xc8\x00\x05\x0c\xd4\xbf'
p1894
tp1895
Rp1896
sg1716
g5
(g9
S'\x0cD\x87\xf5\xcd\x7f\xc9\xbf'
p1897
tp1898
Rp1899
sg1055
g5
(g9
S'\xf9\x0b\xbc\x06\x93K\xf0\xbf'
p1900
tp1901
Rp1902
s(S'diff-x-pos--1'
p1903
S'prev-action-3'
p1904
tp1905
g5
(g9
S'\x12\xd0E\xbd2\xd3\xd7\xbf'
p1906
tp1907
Rp1908
sg1368
g5
(g9
S'VWu\r\xb0U\xe8\xbf'
p1909
tp1910
Rp1911
sS'diff-x-pos--48'
p1912
g5
(g9
S' +\x8cs\x8b\x80\xc0\xbf'
p1913
tp1914
Rp1915
s(S'diff-x-pos-67'
p1916
S'prev-action-1'
p1917
tp1918
g5
(g9
S'\x9a\xb3\xa3\x15\xe3\x86\xc7\xbf'
p1919
tp1920
Rp1921
s(S'diff-x-pos--53'
p1922
S'action-3'
p1923
tp1924
g5
(g9
S'\xc8f\t\xf9\x06>\xf2\xbf'
p1925
tp1926
Rp1927
s(g746
S'prev-action-1'
p1928
tp1929
g5
(g9
S'N\x9c\x01`\x05\xc5\xf8\xbf'
p1930
tp1931
Rp1932
s(S'diff-x-pos--111'
p1933
S'action-1'
p1934
tp1935
g5
(g9
S'\x00\x01\x81i\xbc\xe5\xd6\xbf'
p1936
tp1937
Rp1938
s(S'diff-x-pos--108'
p1939
S'action-3'
p1940
tp1941
g5
(g9
S'\xc2\xdd \x01\x98x\xde?'
p1942
tp1943
Rp1944
s(S'diff-x-pos-53'
p1945
S'action-4'
p1946
tp1947
g5
(g9
S'\xe3\xb1\x83\xe5\x8b9\xe1\xbf'
p1948
tp1949
Rp1950
s(g1027
S'object-0-x-20.0'
p1951
tp1952
g5
(g9
S'\xc61\x9e$\xaa\xb5\x00@'
p1953
tp1954
Rp1955
s(g477
S'prev-action-4'
p1956
tp1957
g5
(g9
S"*\xa7\x06'\xbe\xa7\xe9\xbf"
p1958
tp1959
Rp1960
s(S'object-1-dx-1'
p1961
S'prev-action-4'
p1962
tp1963
g5
(g9
S'\xc0\xc8\xc7\x13\x11O\x8b?'
p1964
tp1965
Rp1966
s(S'diff-x-pos-62'
p1967
S'prev-action-3'
p1968
tp1969
g5
(g9
S'\xe7\xe8\xd13\xe30\xd5?'
p1970
tp1971
Rp1972
s(S'diff-x-pos-32'
p1973
S'prev-action-3'
p1974
tp1975
g5
(g9
S'\r^x\x1e\xee*\xdc\xbf'
p1976
tp1977
Rp1978
s(S'diff-x-pos--16'
p1979
S'prev-action-4'
p1980
tp1981
g5
(g9
S'\xcbS\x06\xf3\x18<\xd0?'
p1982
tp1983
Rp1984
s(S'diff-x-pos-20'
p1985
S'action-3'
p1986
tp1987
g5
(g9
S'\xae\xda\xe0\xa0j`\x02@'
p1988
tp1989
Rp1990
s(S'diff-x-pos--72'
p1991
S'action-1'
p1992
tp1993
g5
(g9
S'r\x95\xc9\xd9WQ\xef\xbf'
p1994
tp1995
Rp1996
s(S'diff-x-pos--76'
p1997
S'action-4'
p1998
tp1999
g5
(g9
S'\xd4+\x14\xaa\xbb{\xe0?'
p2000
tp2001
Rp2002
s(S'diff-x-pos--106'
p2003
S'prev-action-3'
p2004
tp2005
g5
(g9
S'm\x0b$\xaaY\x8f\xd5?'
p2006
tp2007
Rp2008
s(g1886
g1870
tp2009
g5
(g9
S'\x1ckH\xbb*\xd2\xf0\xbf'
p2010
tp2011
Rp2012
sg589
g5
(g9
S'Pm\x8a\x9f\n\xb5\xd7?'
p2013
tp2014
Rp2015
s(S'diff-x-pos--28'
p2016
S'prev-action-4'
p2017
tp2018
g5
(g9
S'l\xd5\x94]\x1c\xe5\xee?'
p2019
tp2020
Rp2021
s(S'diff-x-pos-49'
p2022
S'action-1'
p2023
tp2024
g5
(g9
S'\x8fMif\xfa9\xf5?'
p2025
tp2026
Rp2027
s(S'diff-x-pos--107'
p2028
S'prev-action-4'
p2029
tp2030
g5
(g9
S'Rd\x19hA\xc4\xe5?'
p2031
tp2032
Rp2033
s(S'diff-x-pos--103'
p2034
S'prev-action-4'
p2035
tp2036
g5
(g9
S'F\x19\x06\x8c\xc3\xb4\xe9\xbf'
p2037
tp2038
Rp2039
s(S'diff-x-pos--64'
p2040
S'action-3'
p2041
tp2042
g5
(g9
S'\x8e\x86\x1b3rA\xe9\xbf'
p2043
tp2044
Rp2045
s(S'diff-x-pos--83'
p2046
S'action-3'
p2047
tp2048
g5
(g9
S'Z\x1d&\xbf\x8eG\xef\xbf'
p2049
tp2050
Rp2051
s(S'diff-x-pos--111'
p2052
S'prev-action-4'
p2053
tp2054
g5
(g9
S']\x03\rw\x87\xc7\xdb?'
p2055
tp2056
Rp2057
s(S'diff-x-pos-10'
p2058
S'prev-action-4'
p2059
tp2060
g5
(g9
S'\x94\xb7\xc5\xc1\xb2\xdf\xee\xbf'
p2061
tp2062
Rp2063
sg1916
g5
(g9
S'\x9a\xb3\xa3\x15\xe3\x86\xc7\xbf'
p2064
tp2065
Rp2066
s(S'diff-x-pos--62'
p2067
S'prev-action-1'
p2068
tp2069
g5
(g9
S"M\\'\x97\x168\xe3?"
p2070
tp2071
Rp2072
s(S'diff-x-pos--110'
p2073
S'prev-action-3'
p2074
tp2075
g5
(g9
S'iD\xd5a\xdc\xa7\xd8?'
p2076
tp2077
Rp2078
sS'diff-x-pos-66'
p2079
g5
(g9
S'\xd4\x9e\x92d\xb2\xc6\xf1\xbf'
p2080
tp2081
Rp2082
sg477
g5
(g9
S'\x80\x1b\xc4gq\xb7\xa6?'
p2083
tp2084
Rp2085
sg255
g5
(g9
S'\xf3\x1d3\xe8`\x7f\xd5\xbf'
p2086
tp2087
Rp2088
sS'diff-x-pos--34'
p2089
g5
(g9
S'&\x87\xbaXN\xea\xdc\xbf'
p2090
tp2091
Rp2092
sg87
g5
(g9
S'\x1f;s\xb5\x06\xbd\xe1?'
p2093
tp2094
Rp2095
sS'diff-x-pos--32'
p2096
g5
(g9
S'\x18+\xd9\x92yn\xc5\xbf'
p2097
tp2098
Rp2099
sg1020
g5
(g9
S'\xb5\xe4=o\xf4\x81\xbb?'
p2100
tp2101
Rp2102
sg308
g5
(g9
S'\x95\xc0\xfc\xc0/W\xdc?'
p2103
tp2104
Rp2105
sS'diff-x-pos--31'
p2106
g5
(g9
S'W1l\x9f\tL\xf3?'
p2107
tp2108
Rp2109
s(S'diff-x-pos-22'
p2110
S'prev-action-1'
p2111
tp2112
g5
(g9
S'\xe8\x8b\xb9F\x85F\xeb?'
p2113
tp2114
Rp2115
sS'diff-x-pos--38'
p2116
g5
(g9
S'\xc02g\x99\xd3\x00\xae\xbf'
p2117
tp2118
Rp2119
s(S'diff-x-pos--105'
p2120
S'action-1'
p2121
tp2122
g5
(g9
S'\\\xfa\xbb2\x1f\xea\xd8\xbf'
p2123
tp2124
Rp2125
s(S'diff-x-pos--82'
p2126
S'action-3'
p2127
tp2128
g5
(g9
S'T\xc3\x15?\x9bp\xf0\xbf'
p2129
tp2130
Rp2131
sS'diff-x-pos-29'
p2132
g5
(g9
S'm\xa1z\x92\xfd\xd7\xd1?'
p2133
tp2134
Rp2135
sS'diff-x-pos-28'
p2136
g5
(g9
S'H\x1ah\xdb\xb6@\xc1\xbf'
p2137
tp2138
Rp2139
s(g525
S'prev-action-3'
p2140
tp2141
g5
(g9
S'\xe3S~S\x14H\xf3\xbf'
p2142
tp2143
Rp2144
sg338
g5
(g9
S'4<z\x1d\x93\xcf\xe5?'
p2145
tp2146
Rp2147
sg708
g5
(g9
S'\x18\xa9\xed\xc8\xbd\x0f\xc8?'
p2148
tp2149
Rp2150
sS'diff-x-pos-24'
p2151
g5
(g9
S'P[*`\x0e?\xe5\xbf'
p2152
tp2153
Rp2154
sS'diff-x-pos-23'
p2155
g5
(g9
S'\xd7?\x95?\xbbI\xf0?'
p2156
tp2157
Rp2158
sg1568
g5
(g9
S'\xfd"\x02\x85\x00\x0c\xd1\xbf'
p2159
tp2160
Rp2161
sg153
g5
(g9
S'\xfao2\xbeD\xca\xe0?'
p2162
tp2163
Rp2164
sg1985
g5
(g9
S'\xa0 \xa8K\t\x87\xb4\xbf'
p2165
tp2166
Rp2167
sS'diff-x-pos--18'
p2168
g5
(g9
S'\xf28\xb9\x1f9U\xf4\xbf'
p2169
tp2170
Rp2171
s(S'diff-x-pos--73'
p2172
S'prev-action-3'
p2173
tp2174
g5
(g9
S';.W2\xe0\x1d\xe2\xbf'
p2175
tp2176
Rp2177
s(S'diff-x-pos-46'
p2178
S'action-3'
p2179
tp2180
g5
(g9
S'\xea\xe8\xc1\xd2\x16\xc1\x04@'
p2181
tp2182
Rp2183
s(S'diff-x-pos--54'
p2184
S'action-3'
p2185
tp2186
g5
(g9
S'\xc8\xbb\xa1\xb62\xb5\xc5\xbf'
p2187
tp2188
Rp2189
s(g598
S'prev-action-4'
p2190
tp2191
g5
(g9
S'\x9f\x07m\xd5\xa7B\xc9?'
p2192
tp2193
Rp2194
s(S'diff-x-pos--17'
p2195
S'prev-action-1'
p2196
tp2197
g5
(g9
S'\xd4\x03^2`,\xfb?'
p2198
tp2199
Rp2200
s(S'diff-x-pos-5'
p2201
g398
tp2202
g5
(g9
S'\xe4`\xb7o{J\xda\xbf'
p2203
tp2204
Rp2205
s(S'diff-x-pos-3'
p2206
S'action-4'
p2207
tp2208
g5
(g9
S'\x8bmf\xd1\xc9=\xef\xbf'
p2209
tp2210
Rp2211
s(S'diff-x-pos--29'
p2212
S'action-3'
p2213
tp2214
g5
(g9
S'\x02\xbbG~\x15\x99\xc4\xbf'
p2215
tp2216
Rp2217
s(S'diff-x-pos-0'
p2218
S'prev-action-3'
p2219
tp2220
g5
(g9
S'\xe8\xa2\x19\x8f\xbd\x07\xe9?'
p2221
tp2222
Rp2223
s(S'action-4'
p2224
S'object-0-x-40.0'
p2225
tp2226
g5
(g9
S'@w\xf2>\xde<\x83?'
p2227
tp2228
Rp2229
s(S'diff-x-pos-41'
p2230
S'prev-action-1'
p2231
tp2232
g5
(g9
S'\xc4\x1a\xd6\xcd\x0cP\xf9\xbf'
p2233
tp2234
Rp2235
s(g272
S'prev-action-1'
p2236
tp2237
g5
(g9
S'\xd0h\xd8j\xab)\x03\xc0'
p2238
tp2239
Rp2240
s(S'diff-x-pos-64'
p2241
S'action-4'
p2242
tp2243
g5
(g9
S'hQ\x84,\xe1\x1f\xc3\xbf'
p2244
tp2245
Rp2246
s(S'diff-x-pos--20'
p2247
S'prev-action-1'
p2248
tp2249
g5
(g9
S'JM\x8d\xba@\xd9\xdd\xbf'
p2250
tp2251
Rp2252
s(S'diff-x-pos--79'
p2253
S'prev-action-1'
p2254
tp2255
g5
(g9
S'\xfc-\x01\xd4~B\xd0?'
p2256
tp2257
Rp2258
s(S'diff-x-pos--44'
p2259
S'action-1'
p2260
tp2261
g5
(g9
S'\t\x90%\x02\xd7\xd1\xf0\xbf'
p2262
tp2263
Rp2264
s(S'diff-x-pos--52'
p2265
S'prev-action-4'
p2266
tp2267
g5
(g9
S'\x1c\xf0\xb5\xb0\xbe\xd0\xea?'
p2268
tp2269
Rp2270
s(S'diff-x-pos--100'
p2271
S'action-1'
p2272
tp2273
g5
(g9
S'\xb6N&\xea\xda\xcf\xff\xbf'
p2274
tp2275
Rp2276
s(S'diff-x-pos--81'
p2277
S'prev-action-1'
p2278
tp2279
g5
(g9
S'\xdd\xd0\xa0q\x0e,\xf0\xbf'
p2280
tp2281
Rp2282
s(S'diff-x-pos--66'
p2283
S'action-4'
p2284
tp2285
g5
(g9
S"\xfc\xc9\xa5'\x8e\xdf\xd4?"
p2286
tp2287
Rp2288
s(S'diff-x-pos-60'
p2289
S'action-4'
p2290
tp2291
g5
(g9
S'\x0c\xf4$\x883^\x07\xc0'
p2292
tp2293
Rp2294
s(S'diff-x-pos--58'
p2295
S'action-4'
p2296
tp2297
g5
(g9
S'=\xbcd\x948\xfe\xea\xbf'
p2298
tp2299
Rp2300
s(S'diff-x-pos--98'
p2301
S'prev-action-4'
p2302
tp2303
g5
(g9
S'\xd2t\xe0\xed-\xca\xe5\xbf'
p2304
tp2305
Rp2306
s(S'diff-x-pos-58'
p2307
S'prev-action-1'
p2308
tp2309
g5
(g9
S'@\x91\xffU\x91\x1f\xf2?'
p2310
tp2311
Rp2312
s(S'diff-x-pos--113'
p2313
S'action-1'
p2314
tp2315
g5
(g9
S'd\xe2\xb7\x04\xfaU\xec\xbf'
p2316
tp2317
Rp2318
s(S'diff-x-pos-50'
p2319
S'action-3'
p2320
tp2321
g5
(g9
S'\xd3\xadv\x81\xec\x94\x14@'
p2322
tp2323
Rp2324
s(S'diff-x-pos-25'
p2325
S'prev-action-3'
p2326
tp2327
g5
(g9
S'\xf2\xa5\xf0\x80\xe4W\xf3?'
p2328
tp2329
Rp2330
s(S'diff-x-pos--73'
p2331
S'prev-action-4'
p2332
tp2333
g5
(g9
S'r:00H\x8c\xdb?'
p2334
tp2335
Rp2336
s(g513
S'action-3'
p2337
tp2338
g5
(g9
S'\x94e\xd4\xe7\x98\x8d\xf5\xbf'
p2339
tp2340
Rp2341
s(S'diff-x-pos--89'
p2342
S'action-3'
p2343
tp2344
g5
(g9
S'\x8eH\xa9\xbf\xeb\x91\xfc\xbf'
p2345
tp2346
Rp2347
sg208
g5
(g9
S'l\xa6i\xc9u\xb1\xa5?'
p2348
tp2349
Rp2350
s(S'diff-x-pos-44'
p2351
S'action-4'
p2352
tp2353
g5
(g9
S'\xe6|A\xc2\x0f/\xf0\xbf'
p2354
tp2355
Rp2356
s(S'diff-x-pos--70'
p2357
S'action-4'
p2358
tp2359
g5
(g9
S'\x7f\x8c\xeb\xa6S\xb7\x03@'
p2360
tp2361
Rp2362
s(S'diff-x-pos--88'
p2363
S'prev-action-3'
p2364
tp2365
g5
(g9
S'\xe4\xfe\xa6\xf1\xbbt\xed?'
p2366
tp2367
Rp2368
s(S'diff-x-pos-61'
p2369
S'action-3'
p2370
tp2371
g5
(g9
S'\x8a\xd8\xb8\x13c\xf1\xf3?'
p2372
tp2373
Rp2374
s(S'action-3'
p2375
S'object-0-x-0.0'
p2376
tp2377
g5
(g9
S'\xfa\x80\xa6\x85s<\x0b@'
p2378
tp2379
Rp2380
s(S'diff-x-pos--91'
p2381
S'prev-action-4'
p2382
tp2383
g5
(g9
S'\xfe\xf0\x81\xa6\\\xd9\xcf?'
p2384
tp2385
Rp2386
s(g1609
S'prev-action-3'
p2387
tp2388
g5
(g9
S'\x88\xc4\xe1\xcd\xe3\xbf\xf9?'
p2389
tp2390
Rp2391
s(S'diff-x-pos--50'
p2392
S'action-1'
p2393
tp2394
g5
(g9
S'\xf83\xa1\x1e.\x87\xe9?'
p2395
tp2396
Rp2397
s(S'diff-x-pos--78'
p2398
S'prev-action-1'
p2399
tp2400
g5
(g9
S'\x96\x9e"\x1f\xd9\x12\xee\xbf'
p2401
tp2402
Rp2403
s(g2047
S'object-1-x-120.0'
p2404
tp2405
g5
(g9
S'h\x11\x9aqN`\xab\xbf'
p2406
tp2407
Rp2408
s(S'diff-x-pos--25'
p2409
S'action-1'
p2410
tp2411
g5
(g9
S'\r\xe2\xd6\xae\xf7u\xe0\xbf'
p2412
tp2413
Rp2414
s(S'diff-x-pos-7'
p2415
S'prev-action-3'
p2416
tp2417
g5
(g9
S'\xfa\xd7\xcc%n\x0c\xe5\xbf'
p2418
tp2419
Rp2420
s(S'diff-x-pos-60'
p2421
S'action-3'
p2422
tp2423
g5
(g9
S'm\xa3\xf3H\xe6Q\x15@'
p2424
tp2425
Rp2426
s(S'diff-x-pos--57'
p2427
S'action-3'
p2428
tp2429
g5
(g9
S'8S#\xc1\xd8g\xca\xbf'
p2430
tp2431
Rp2432
s(g1073
S'action-1'
p2433
tp2434
g5
(g9
S'\xb44\xbe\x13\x12w\xed?'
p2435
tp2436
Rp2437
s(S'diff-x-pos-11'
p2438
S'prev-action-1'
p2439
tp2440
g5
(g9
S'B\xd5%\x00\xe86\xf8\xbf'
p2441
tp2442
Rp2443
s(g1521
S'prev-action-4'
p2444
tp2445
g5
(g9
S'\xe9"\xe5\xa0\xbd\xf8\xe9?'
p2446
tp2447
Rp2448
s(g2398
S'action-1'
p2449
tp2450
g5
(g9
S'@\xa9\xb3\xe0*\xde\x9a?'
p2451
tp2452
Rp2453
s(g1014
S'prev-action-4'
p2454
tp2455
g5
(g9
S'\xba/\x99\xcd\xb0\x7f\xf2\xbf'
p2456
tp2457
Rp2458
s(S'diff-x-pos--11'
p2459
S'action-3'
p2460
tp2461
g5
(g9
S'g\x80\xaa\xfb{\xde\xd0\xbf'
p2462
tp2463
Rp2464
s(S'diff-x-pos--92'
p2465
S'prev-action-4'
p2466
tp2467
g5
(g9
S'\x04o\xf6\xbb\xcd\xc9\xc4\xbf'
p2468
tp2469
Rp2470
s(S'action-1'
p2471
g449
tp2472
g5
(g9
S'\xe4\xda\x1e3\x8a\xf2\x14@'
p2473
tp2474
Rp2475
s(S'diff-x-pos--101'
p2476
S'action-4'
p2477
tp2478
g5
(g9
S'C[\xdf\xc2\xac\xfd\x01@'
p2479
tp2480
Rp2481
s(S'diff-x-pos-48'
p2482
S'prev-action-4'
p2483
tp2484
g5
(g9
S'\x88\t\x92\xd9)7\xd2\xbf'
p2485
tp2486
Rp2487
s(S'diff-x-pos--42'
p2488
S'prev-action-3'
p2489
tp2490
g5
(g9
S'\xdc\xd3\x0e\xf7\xc5S\xf8\xbf'
p2491
tp2492
Rp2493
s(S'diff-x-pos--118'
p2494
S'action-1'
p2495
tp2496
g5
(g9
S'X"\xe6u\xe4C\xd8?'
p2497
tp2498
Rp2499
s(S'diff-x-pos-61'
p2500
S'action-4'
p2501
tp2502
g5
(g9
S'\xdd\x9b\xe5#\xb9\x06\xf7\xbf'
p2503
tp2504
Rp2505
s(S'diff-x-pos--117'
p2506
S'action-3'
p2507
tp2508
g5
(g9
S'\x8b<i\xddX\xbe\xfb\xbf'
p2509
tp2510
Rp2511
s(S'diff-x-pos--9'
p2512
S'prev-action-3'
p2513
tp2514
g5
(g9
S'7\x99n\r~\xff\xd8?'
p2515
tp2516
Rp2517
s(S'diff-x-pos--18'
p2518
S'action-3'
p2519
tp2520
g5
(g9
S'\x81\xbe\xfe\x02\xb4<\xe8\xbf'
p2521
tp2522
Rp2523
s(S'action-1'
p2524
S'object-0-x-90.0'
p2525
tp2526
g5
(g9
S'\xa3kT\xf6\xafR\xe6?'
p2527
tp2528
Rp2529
s(S'diff-x-pos-11'
p2530
S'action-4'
p2531
tp2532
g5
(g9
S'\xb9\x82a\x064\xd6\x02\xc0'
p2533
tp2534
Rp2535
s(S'diff-x-pos--113'
p2536
S'prev-action-1'
p2537
tp2538
g5
(g9
S'B\xcbh\xfd\t\xe8\xf5?'
p2539
tp2540
Rp2541
s(g2307
S'action-1'
p2542
tp2543
g5
(g9
S'\xda\x9f-\xa3\xb0=\xf7?'
p2544
tp2545
Rp2546
s(S'diff-x-pos--46'
p2547
S'action-1'
p2548
tp2549
g5
(g9
S'M\xe7o\x0e\x86\x83\xea?'
p2550
tp2551
Rp2552
s(S'diff-x-pos-28'
p2553
S'prev-action-1'
p2554
tp2555
g5
(g9
S'\x88\x1d\x93r`\x8e\xa8?'
p2556
tp2557
Rp2558
s(S'diff-x-pos-56'
p2559
S'prev-action-1'
p2560
tp2561
g5
(g9
S'\x8c\x963t\xc6\x9f\xe4\xbf'
p2562
tp2563
Rp2564
s(S'diff-x-pos-56'
p2565
S'action-3'
p2566
tp2567
g5
(g9
S'\x04%6Sq\xfe\xf1?'
p2568
tp2569
Rp2570
s(g2547
S'prev-action-3'
p2571
tp2572
g5
(g9
S'B\xf4&8\x02\xf2\xe3?'
p2573
tp2574
Rp2575
s(S'diff-x-pos--81'
p2576
S'action-1'
p2577
tp2578
g5
(g9
S'M\x12\xedG_\xe1\xf8?'
p2579
tp2580
Rp2581
s(g147
S'prev-action-1'
p2582
tp2583
g5
(g9
S'\x08T\xa6YL3\xe7\xbf'
p2584
tp2585
Rp2586
s(S'diff-x-pos--52'
p2587
S'action-4'
p2588
tp2589
g5
(g9
S'\xb64\xec\xab1\x10\xed?'
p2590
tp2591
Rp2592
s(g750
S'prev-action-4'
p2593
tp2594
g5
(g9
S"3:\x88\x8d'\x84\xf4\xbf"
p2595
tp2596
Rp2597
s(S'diff-x-pos-68'
p2598
S'prev-action-4'
p2599
tp2600
g5
(g9
S'd\x98)K2\xe0\xc2?'
p2601
tp2602
Rp2603
s(g589
S'prev-action-4'
p2604
tp2605
g5
(g9
S'\xc0\x94\xc6\xef\xbc\x04\xe4\xbf'
p2606
tp2607
Rp2608
s(g966
S'prev-action-4'
p2609
tp2610
g5
(g9
S'\xe2\x19\xb5e\x14\xd6\xef?'
p2611
tp2612
Rp2613
s(S'diff-x-pos-10'
p2614
S'action-3'
p2615
tp2616
g5
(g9
S'\xe3\xf3}\x83\x0c\xda\x05@'
p2617
tp2618
Rp2619
s(S'diff-x-pos-18'
p2620
S'prev-action-4'
p2621
tp2622
g5
(g9
S'\xec\xef\t\xc7\xeb;\xaf\xbf'
p2623
tp2624
Rp2625
s(S'diff-x-pos--67'
p2626
S'prev-action-3'
p2627
tp2628
g5
(g9
S'Up \x9c\xd7\x9b\xd6?'
p2629
tp2630
Rp2631
s(S'diff-x-pos--117'
p2632
S'prev-action-1'
p2633
tp2634
g5
(g9
S'\xc4\x1cH,\xe2\xe7\xeb?'
p2635
tp2636
Rp2637
s(g2494
S'prev-action-3'
p2638
tp2639
g5
(g9
S'0W\xd5\xecW\xf9\xc4\xbf'
p2640
tp2641
Rp2642
s(g1026
S'prev-action-4'
p2643
tp2644
g5
(g9
S'\x1e\x9c\xc9\x9d\xb2[\xe8?'
p2645
tp2646
Rp2647
s(S'diff-x-pos-21'
p2648
S'action-4'
p2649
tp2650
g5
(g9
S'h!t\xb6\xb5\t\x03\xc0'
p2651
tp2652
Rp2653
s(S'diff-x-pos--107'
p2654
S'action-3'
p2655
tp2656
g5
(g9
S'bv\x9d\xa6\xa1\xab\x00\xc0'
p2657
tp2658
Rp2659
s(S'diff-x-pos--71'
p2660
S'action-1'
p2661
tp2662
g5
(g9
S'1\xe6\x08\x83\x95\xa1\xe5\xbf'
p2663
tp2664
Rp2665
s(g2184
S'prev-action-3'
p2666
tp2667
g5
(g9
S'\x02\xecC\x8fr\xe1\xed?'
p2668
tp2669
Rp2670
s(S'diff-x-pos-31'
p2671
S'action-3'
p2672
tp2673
g5
(g9
S'0\x88\x7f\xb2x\x80\xf0?'
p2674
tp2675
Rp2676
s(g2178
S'prev-action-3'
p2677
tp2678
g5
(g9
S'8\xb4q\xb2\x10\xbf\xca?'
p2679
tp2680
Rp2681
s(g958
S'action-3'
p2682
tp2683
g5
(g9
S'\rA\x860\xe1\xb6\x07@'
p2684
tp2685
Rp2686
s(g207
S'prev-action-4'
p2687
tp2688
g5
(g9
S'VI\x99a\xf0\t\x11@'
p2689
tp2690
Rp2691
s(S'diff-x-pos--56'
p2692
S'action-1'
p2693
tp2694
g5
(g9
S'\xb3\x845p\xb2\x8e\xe2\xbf'
p2695
tp2696
Rp2697
s(S'diff-x-pos--66'
p2698
S'prev-action-3'
p2699
tp2700
g5
(g9
S'\x10\xc1U\\\x91>\xf2\xbf'
p2701
tp2702
Rp2703
s(S'diff-x-pos--51'
p2704
S'prev-action-3'
p2705
tp2706
g5
(g9
S'\xc7Ham\xfd\x89\xe6\xbf'
p2707
tp2708
Rp2709
s(S'diff-x-pos-32'
p2710
S'action-1'
p2711
tp2712
g5
(g9
S'h\xa4\x9fa\x8dz\xf8\xbf'
p2713
tp2714
Rp2715
s(S'diff-x-pos-7'
p2716
S'action-1'
p2717
tp2718
g5
(g9
S'\xba\x05)\x98\xe3w\xff\xbf'
p2719
tp2720
Rp2721
s(g2110
S'action-1'
p2722
tp2723
g5
(g9
S'\xbe\x1cZ\xc6L\x1d\x02@'
p2724
tp2725
Rp2726
s(S'object-0-dx-1'
p2727
g467
tp2728
g5
(g9
S'\xe0\x95\xf4\xd7~\x90\xd3\xbf'
p2729
tp2730
Rp2731
s(S'diff-x-pos--68'
p2732
S'prev-action-3'
p2733
tp2734
g5
(g9
S'\xb1?}\xcf\xff\xdf\xd6?'
p2735
tp2736
Rp2737
s(S'diff-x-pos--50'
p2738
S'prev-action-3'
p2739
tp2740
g5
(g9
S'\xdb\x9a8r\xd1\xa2\xef?'
p2741
tp2742
Rp2743
sg1409
g5
(g9
S'@\xcb\xf4\xd1a\x91\xb9?'
p2744
tp2745
Rp2746
sS'diff-x-pos--104'
p2747
g5
(g9
S'\xf7\x17\xb4\xaak`\xeb\xbf'
p2748
tp2749
Rp2750
sg2654
g5
(g9
S'\x00\xf5#\xcf\xf5\xb8z?'
p2751
tp2752
Rp2753
s(S'diff-x-pos--79'
p2754
S'action-4'
p2755
tp2756
g5
(g9
S'\x17g\x91\\eg\xf4?'
p2757
tp2758
Rp2759
sg1597
g5
(g9
S'\x991O\xa6Q\xe5\xe9\xbf'
p2760
tp2761
Rp2762
sg2271
g5
(g9
S'\x80\xd2\xc0\xb4\xfe\x90\xc5?'
p2763
tp2764
Rp2765
s(g907
S'action-4'
p2766
tp2767
g5
(g9
S'\x9fTh\xd3\x86\x96\xe6\xbf'
p2768
tp2769
Rp2770
sg779
g5
(g9
S'\xc3V\x00\xeb\xf4\xee\xf0\xbf'
p2771
tp2772
Rp2773
s(S'diff-x-pos--102'
p2774
S'prev-action-4'
p2775
tp2776
g5
(g9
S';\xa6\xcd\xf3\xa5t\xe1\xbf'
p2777
tp2778
Rp2779
sg1781
g5
(g9
S'\x08\xea\xa4\xd1C\xee\x94\xbf'
p2780
tp2781
Rp2782
sS'diff-x-pos--108'
p2783
g5
(g9
S'2\xcc\xc9\x88!"\xe9?'
p2784
tp2785
Rp2786
s(g2369
S'prev-action-1'
p2787
tp2788
g5
(g9
S'l\xb6\x8as{D\xee\xbf'
p2789
tp2790
Rp2791
s(S'diff-x-pos--88'
p2792
S'action-1'
p2793
tp2794
g5
(g9
S'\x93\x12.\x8b\xa9\xda\xee?'
p2795
tp2796
Rp2797
s(S'object-0-dx--1'
p2798
S'action-4'
p2799
tp2800
g5
(g9
S'Ku;rP\x95\xfe?'
p2801
tp2802
Rp2803
s(g873
S'action-4'
p2804
tp2805
g5
(g9
S'\xb7\xe7a\xf8\xb7_\xfc?'
p2806
tp2807
Rp2808
s(g857
S'action-4'
p2809
tp2810
g5
(g9
S'\x9cwe\x14\x01\xa4\xfa?'
p2811
tp2812
Rp2813
s(g2342
S'prev-action-1'
p2814
tp2815
g5
(g9
S'\xff\x9dB\x03\xf3\x9d\xc6?'
p2816
tp2817
Rp2818
s(S'diff-x-pos-34'
p2819
S'action-1'
p2820
tp2821
g5
(g9
S'\x1e\x9bWb\x11;\xf5\xbf'
p2822
tp2823
Rp2824
s(S'diff-x-pos-33'
p2825
S'action-1'
p2826
tp2827
g5
(g9
S'<v\xbc\xe3:\x07\xfc\xbf'
p2828
tp2829
Rp2830
s(S'diff-x-pos--16'
p2831
S'action-4'
p2832
tp2833
g5
(g9
S'\x01\xd7<\xfdc\xc2\xfd\xbf'
p2834
tp2835
Rp2836
s(S'diff-x-pos--90'
p2837
S'prev-action-4'
p2838
tp2839
g5
(g9
S'"\xdb\x89\x98f\xda\xe0?'
p2840
tp2841
Rp2842
s(S'diff-x-pos--10'
p2843
S'prev-action-1'
p2844
tp2845
g5
(g9
S'\xba\xa9\xda\xcdG\xb2\xf3?'
p2846
tp2847
Rp2848
s(S'diff-x-pos-50'
p2849
S'prev-action-1'
p2850
tp2851
g5
(g9
S'\xd2\xccB\xd6p\xd2\xfc?'
p2852
tp2853
Rp2854
s(S'diff-x-pos--121'
p2855
S'prev-action-4'
p2856
tp2857
g5
(g9
S'p\xb2\xcd\xf3\xed\xd8\xdf?'
p2858
tp2859
Rp2860
s(g1945
S'prev-action-4'
p2861
tp2862
g5
(g9
S'\xad\r\xdd"\x95\xd1\x00@'
p2863
tp2864
Rp2865
s(S'diff-x-pos-45'
p2866
S'prev-action-4'
p2867
tp2868
g5
(g9
S'\x13<\x1e\x88\xa9\xd0\xe1\xbf'
p2869
tp2870
Rp2871
s(g1922
S'prev-action-3'
p2872
tp2873
g5
(g9
S'\xc2t\x07\xcd\x06\xb3\xc0\xbf'
p2874
tp2875
Rp2876
s(S'diff-x-pos--8'
p2877
S'action-4'
p2878
tp2879
g5
(g9
S'`\x14\xc1\x90\x06\x7f\xe8\xbf'
p2880
tp2881
Rp2882
s(S'diff-x-pos--1'
p2883
S'action-3'
p2884
tp2885
g5
(g9
S'\xb8\xe5s\xd5>\x9f\x99?'
p2886
tp2887
Rp2888
s(g2096
S'action-4'
p2889
tp2890
g5
(g9
S'g/\x1b\x03\x9a\xd5\xeb?'
p2891
tp2892
Rp2893
s(S'diff-x-pos--64'
p2894
g449
tp2895
g5
(g9
S'\x00\x00\x00\x00\x00\x00\x00\x00'
p2896
tp2897
Rp2898
s(g795
S'prev-action-4'
p2899
tp2900
g5
(g9
S'\xd4\xce\x91|\x98\xc5\xe4?'
p2901
tp2902
Rp2903
s(S'diff-x-pos--100'
p2904
S'prev-action-3'
p2905
tp2906
g5
(g9
S'\xec\xbd\x8d\xa4\x1a\x03\xcf?'
p2907
tp2908
Rp2909
s(S'action-1'
p2910
S'object-1-x-90.0'
p2911
tp2912
g5
(g9
S'\xa2\xb9\xa4\x84\x13\xcc\xea?'
p2913
tp2914
Rp2915
s(g421
S'object-1-x-90.0'
p2916
tp2917
g5
(g9
S'\xf2\x9dC\x8d\x84\xbd\xe2\xbf'
p2918
tp2919
Rp2920
s(S'diff-x-pos--91'
p2921
S'action-1'
p2922
tp2923
g5
(g9
S'\xfe\x1b\xad\x10\xff\x00\xe9?'
p2924
tp2925
Rp2926
s(S'diff-x-pos-38'
p2927
S'prev-action-4'
p2928
tp2929
g5
(g9
S'\xde\xfa\xe5\x8e\xe92\xf1\xbf'
p2930
tp2931
Rp2932
s(S'diff-x-pos--20'
p2933
S'action-3'
p2934
tp2935
g5
(g9
S'\xfc\x7f]\x10\xdf\x86\xf7?'
p2936
tp2937
Rp2938
s(g1852
S'action-1'
p2939
tp2940
g5
(g9
S'\xf6\x80b\x05n\xbe\xee\xbf'
p2941
tp2942
Rp2943
s(S'diff-x-pos-39'
p2944
S'action-1'
p2945
tp2946
g5
(g9
S'\t\xbb\xf7\x98\x92b\xf7?'
p2947
tp2948
Rp2949
s(S'diff-x-pos-0'
p2950
S'action-1'
p2951
tp2952
g5
(g9
S'\x0c\\\xb1/\xda\xe6\xfd?'
p2953
tp2954
Rp2955
s(g463
S'prev-action-4'
p2956
tp2957
g5
(g9
S'e\xb2G6e\x9b\xf0?'
p2958
tp2959
Rp2960
s(g2471
S'object-0-x-40.0'
p2961
tp2962
g5
(g9
S'\xb6n\x9d\xba\x8aw\xd2?'
p2963
tp2964
Rp2965
s(S'diff-x-pos-49'
p2966
S'prev-action-4'
p2967
tp2968
g5
(g9
S'\xd4\xff\x9cc]\x94\xf3?'
p2969
tp2970
Rp2971
s(g1834
S'action-3'
p2972
tp2973
g5
(g9
S't<J\xee2\x15\xed\xbf'
p2974
tp2975
Rp2976
s(S'diff-x-pos--114'
p2977
S'action-1'
p2978
tp2979
g5
(g9
S'\x85\xd8\xe4\xec\xcf\xf0\xb1\xbf'
p2980
tp2981
Rp2982
s(g585
g467
tp2983
g5
(g9
S"'\xeb\xf6(4\xbb\xe1?"
p2984
tp2985
Rp2986
s(S'diff-x-pos--73'
p2987
S'action-1'
p2988
tp2989
g5
(g9
S'HE\xd3\\\x99\x9f\xe9?'
p2990
tp2991
Rp2992
s(S'diff-x-pos-64'
p2993
S'prev-action-4'
p2994
tp2995
g5
(g9
S' \xa3D^\x8b\xd7\xf3\xbf'
p2996
tp2997
Rp2998
s(S'action-4'
p2999
S'object-0-x-10.0'
p3000
tp3001
g5
(g9
S'\x15\x00\x98\x1f\xa8Y\xee\xbf'
p3002
tp3003
Rp3004
s(g196
S'object-0-x-70.0'
p3005
tp3006
g5
(g9
S'MF\x80\xbcZv\xd1?'
p3007
tp3008
Rp3009
s(S'diff-x-pos--82'
p3010
S'prev-action-1'
p3011
tp3012
g5
(g9
S'\x85\x88\xed0J\xcc\xec?'
p3013
tp3014
Rp3015
s(S'diff-x-pos--57'
p3016
g2224
tp3017
g5
(g9
S'a\xa6\xe7|\xbc\x9f\xf3\xbf'
p3018
tp3019
Rp3020
s(g1763
S'action-4'
p3021
tp3022
g5
(g9
S'\xd4\xcb\xfa\xce\xaf~\x02@'
p3023
tp3024
Rp3025
s(S'diff-x-pos-29'
p3026
S'prev-action-3'
p3027
tp3028
g5
(g9
S'\xf1R\xd7\xdc\xe8\xab\xdc?'
p3029
tp3030
Rp3031
s(S'diff-x-pos-35'
p3032
S'action-4'
p3033
tp3034
g5
(g9
S'\xff\xd1\xc6\xe3>\xf3\x07\xc0'
p3035
tp3036
Rp3037
s(S'diff-x-pos-24'
p3038
S'prev-action-1'
p3039
tp3040
g5
(g9
S'\xb0\xd8\xeb\x18P\xc2\xe5\xbf'
p3041
tp3042
Rp3043
s(S'diff-x-pos--21'
p3044
S'action-3'
p3045
tp3046
g5
(g9
S',\xd4\xe9\xe7\xda\x80\xe2?'
p3047
tp3048
Rp3049
s(S'diff-x-pos--74'
p3050
S'prev-action-4'
p3051
tp3052
g5
(g9
S'\xc8\x99\xba\x12\xa6\xed\xd7?'
p3053
tp3054
Rp3055
s(S'diff-x-pos--80'
p3056
S'action-3'
p3057
tp3058
g5
(g9
S'\xbeO\x16\xb9\xf5\x9c\xf2\xbf'
p3059
tp3060
Rp3061
s(S'diff-x-pos--2'
p3062
S'prev-action-3'
p3063
tp3064
g5
(g9
S'C\x14\xae\x8b:;\xda\xbf'
p3065
tp3066
Rp3067
sg1330
g5
(g9
S'7\x9c+\x1b\x1a\xf9\xe8?'
p3068
tp3069
Rp3070
sS'object-1-x-110.0'
p3071
g5
(g9
S'\xc7\x90\xccX\xf3\xd6\xef\xbf'
p3072
tp3073
Rp3074
s(S'diff-x-pos--77'
p3075
S'prev-action-1'
p3076
tp3077
g5
(g9
S'*\xcc7\xbb\xf0s\xf3?'
p3078
tp3079
Rp3080
s(S'action-1'
p3081
S'object-1-x-100.0'
p3082
tp3083
g5
(g9
S'B\xe3\x16\xd3\x87F\xe0\xbf'
p3084
tp3085
Rp3086
s(g1704
S'action-1'
p3087
tp3088
g5
(g9
S'6a\xe7\xa1c\x18\xfb\xbf'
p3089
tp3090
Rp3091
s(S'diff-x-pos-16'
p3092
S'prev-action-4'
p3093
tp3094
g5
(g9
S'Fd(_\xe0\xc5\x02\xc0'
p3095
tp3096
Rp3097
s(g2046
S'prev-action-1'
p3098
tp3099
g5
(g9
S':|\xb9\xa8\xfaQ\xe7\xbf'
p3100
tp3101
Rp3102
s(g1533
S'prev-action-1'
p3103
tp3104
g5
(g9
S'\xba\xf4T\xef\xc5\xba\xd1?'
p3105
tp3106
Rp3107
s(S'diff-x-pos--6'
p3108
S'action-3'
p3109
tp3110
g5
(g9
S'rUZ\x84X\x81\xf6?'
p3111
tp3112
Rp3113
s(S'diff-x-pos-0'
p3114
S'prev-action-4'
p3115
tp3116
g5
(g9
S'\x98\xff/\x11\xd2\xa9\xc3?'
p3117
tp3118
Rp3119
s(S'diff-x-pos-32'
p3120
S'prev-action-4'
p3121
tp3122
g5
(g9
S'8\x0b\x8d2zX\xa8\xbf'
p3123
tp3124
Rp3125
s(S'diff-x-pos-49'
p3126
S'prev-action-3'
p3127
tp3128
g5
(g9
S'\xe0\xea\xb1@[\xca\xa0\xbf'
p3129
tp3130
Rp3131
s(S'diff-x-pos--16'
p3132
S'prev-action-1'
p3133
tp3134
g5
(g9
S'\xd8\x96\xe5\xf6D%\xc1?'
p3135
tp3136
Rp3137
s(S'diff-x-pos--40'
p3138
S'prev-action-1'
p3139
tp3140
g5
(g9
S'\x94\x01V{C\xb1\xea?'
p3141
tp3142
Rp3143
s(S'diff-x-pos--106'
p3144
S'action-1'
p3145
tp3146
g5
(g9
S'n\x9eaRmO\xeb?'
p3147
tp3148
Rp3149
s(S'diff-x-pos--76'
p3150
S'action-3'
p3151
tp3152
g5
(g9
S'.\xd0\x12\xe35"\xc2\xbf'
p3153
tp3154
Rp3155
s(S'diff-x-pos-20'
p3156
S'prev-action-1'
p3157
tp3158
g5
(g9
S'\xa8\x80\xdf>9\x8a\xe7?'
p3159
tp3160
Rp3161
s(S'diff-x-pos--95'
p3162
S'prev-action-1'
p3163
tp3164
g5
(g9
S'\xb4l\x87\xf2\x9c\xad\xf1?'
p3165
tp3166
Rp3167
sS'diff-x-pos--121'
p3168
g5
(g9
S'\xd3\x9e\x8a\xe9\xfe\x8a\xf2?'
p3169
tp3170
Rp3171
s(S'diff-x-pos-62'
p3172
S'action-1'
p3173
tp3174
g5
(g9
S'2\xe4\xba\xe1\xf2\xfd\xe9\xbf'
p3175
tp3176
Rp3177
sS'diff-x-pos--98'
p3178
g5
(g9
S"'\x8a\xea\xf5\xedo\xf6\xbf"
p3179
tp3180
Rp3181
sS'diff-x-pos--99'
p3182
g5
(g9
S'\xd29X\x9a\xac%\xc9?'
p3183
tp3184
Rp3185
s(g1639
S'prev-action-3'
p3186
tp3187
g5
(g9
S'\xbaN \xc26\xe1\xec\xbf'
p3188
tp3189
Rp3190
sg398
g5
(g9
S'\xdc\xcc\xb8\xf4\x00\x82#@'
p3191
tp3192
Rp3193
s(g1352
S'action-4'
p3194
tp3195
g5
(g9
S"\x0f'H\xf2[L\xe1?"
p3196
tp3197
Rp3198
sg457
g5
(g9
S'too\xde\x83\xb2\xc1\xbf'
p3199
tp3200
Rp3201
sg941
g5
(g9
S'%\xee\x10\x8a\xf12\xdc?'
p3202
tp3203
Rp3204
sS'diff-x-pos--92'
p3205
g5
(g9
S'&\r\x89Q\xe3\xc3\xd1?'
p3206
tp3207
Rp3208
sS'diff-x-pos--93'
p3209
g5
(g9
S'#+\xb0\x9d\xa79\xf9?'
p3210
tp3211
Rp3212
sg21
g5
(g9
S'@"E\x07\x03\xfd\xd5?'
p3213
tp3214
Rp3215
sS'diff-x-pos--95'
p3216
g5
(g9
S'1\xaf\xf6\xf3\x101\xea?'
p3217
tp3218
Rp3219
sS'diff-x-pos--96'
p3220
g5
(g9
S'-\xe9\xf9](\x1c\xc5\xbf'
p3221
tp3222
Rp3223
sS'diff-x-pos--97'
p3224
g5
(g9
S'.\xd2Vzrf\xcb?'
p3225
tp3226
Rp3227
s(S'diff-x-pos--110'
p3228
S'prev-action-4'
p3229
tp3230
g5
(g9
S'.\x92\xfdX\x06\xfd\xd5?'
p3231
tp3232
Rp3233
s(S'diff-x-pos-8'
p3234
S'action-3'
p3235
tp3236
g5
(g9
S'\xca\xc7\xa5\xbcb\x81\xf7?'
p3237
tp3238
Rp3239
s(g775
S'prev-action-3'
p3240
tp3241
g5
(g9
S'"a\xad\x0b\x1b\x96\xd3?'
p3242
tp3243
Rp3244
s(g1568
S'prev-action-4'
p3245
tp3246
g5
(g9
S'\xcd\xf61:\xd35\xe1\xbf'
p3247
tp3248
Rp3249
sS'diff-x-pos--29'
p3250
g5
(g9
S'\xd2\x14\xca `\xb9\xec\xbf'
p3251
tp3252
Rp3253
s(g2089
S'action-4'
p3254
tp3255
g5
(g9
S'ML\x03\xee\x0c\xba\xeb?'
p3256
tp3257
Rp3258
s(g1409
S'action-4'
p3259
tp3260
g5
(g9
S'rK:\xd5\x13\xc6\x03@'
p3261
tp3262
Rp3263
s(S'diff-x-pos-55'
p3264
S'prev-action-4'
p3265
tp3266
g5
(g9
S'm\xdf\x14i\xd7R\xeb?'
p3267
tp3268
Rp3269
s(g962
S'prev-action-3'
p3270
tp3271
g5
(g9
S'\x9d\x08\xe8\xd9M\xd2\xe4?'
p3272
tp3273
Rp3274
sg93
g5
(g9
S'n\x16\xaf\x04\x19\xa6\xda?'
p3275
tp3276
Rp3277
sS'diff-x-pos--24'
p3278
g5
(g9
S'\x91F\x9aQ\x8f\xbf\xee\xbf'
p3279
tp3280
Rp3281
sS'diff-x-pos--27'
p3282
g5
(g9
S'\\\xba\xecF\xcdI\xe9\xbf'
p3283
tp3284
Rp3285
sS'diff-x-pos--26'
p3286
g5
(g9
S'\xd3M\xac\xfc\x0e$\xc5\xbf'
p3287
tp3288
Rp3289
sS'diff-x-pos--21'
p3290
g5
(g9
S',v\x85\xae$\xa0\xd1?'
p3291
tp3292
Rp3293
sS'diff-x-pos--20'
p3294
g5
(g9
S'\xf2\x97\x07\xee\x9aY\xe0\xbf'
p3295
tp3296
Rp3297
sg367
g5
(g9
S'N\xd2\x13`\xcb\xe0\xd6?'
p3298
tp3299
Rp3300
sS'diff-x-pos--22'
p3301
g5
(g9
S'\x8d\xd9\x8a61\x9d\xca\xbf'
p3302
tp3303
Rp3304
s(g1515
S'action-3'
p3305
tp3306
g5
(g9
S'-\xbc\xaf\x9d\xc0;\xf4\xbf'
p3307
tp3308
Rp3309
s(S'diff-x-pos--65'
p3310
S'prev-action-1'
p3311
tp3312
g5
(g9
S'>\xd9\xbct\x92\xe8\xcb\xbf'
p3313
tp3314
Rp3315
sg857
g5
(g9
S'\xac\xd0\xf4\x15\xef\xb7\xe5\xbf'
p3316
tp3317
Rp3318
sg2927
g5
(g9
S' \xa3TX?;\xcc?'
p3319
tp3320
Rp3321
sg2944
g5
(g9
S'\xd6{\x16\xce/\x83\xef\xbf'
p3322
tp3323
Rp3324
s(g255
S'prev-action-4'
p3325
tp3326
g5
(g9
S'@\x9cH\x0e\xab\xbdr\xbf'
p3327
tp3328
Rp3329
s(S'diff-x-pos--41'
p3330
S'prev-action-1'
p3331
tp3332
g5
(g9
S'\xaa\xc7\x80\x96\x81\xe7\xfc?'
p3333
tp3334
Rp3335
s(S'action-1'
p3336
S'object-0-x-130.0'
p3337
tp3338
g5
(g9
S'\xf8\xc5\x866\xa8\xa6\xf3?'
p3339
tp3340
Rp3341
sS'diff-x-pos-30'
p3342
g5
(g9
S'\xda\x93e\x8aCT\xd1?'
p3343
tp3344
Rp3345
sS'diff-x-pos-31'
p3346
g5
(g9
S'@\xb9\xe0GX\xa4\xba?'
p3347
tp3348
Rp3349
sg3120
g5
(g9
S'\xf0\xf3\xb3\xc1\x82L\xf6?'
p3350
tp3351
Rp3352
sg159
g5
(g9
S'\xd4\xb6IQ\xe2\xef\xe2\xbf'
p3353
tp3354
Rp3355
sS'diff-x-pos-34'
p3356
g5
(g9
S'\xfc\x85\x8c\x9db3\xe0\xbf'
p3357
tp3358
Rp3359
sg3032
g5
(g9
S'\xd7\xa7\x92x[\x93\xd5\xbf'
p3360
tp3361
Rp3362
sS'diff-x-pos-36'
p3363
g5
(g9
S'X\xe4H\xec\xb8\xae\xc5\xbf'
p3364
tp3365
Rp3366
sg183
g5
(g9
S'Z5\xe0\xbdQB\xca?'
p3367
tp3368
Rp3369
s(S'diff-x-pos--2'
p3370
S'action-1'
p3371
tp3372
g5
(g9
S'\xc6\xa7\xdc_\x9ey\xc6\xbf'
p3373
tp3374
Rp3375
s(S'diff-x-pos-42'
p3376
g243
tp3377
g5
(g9
S'\xe1\xc5\xa0>\xf0E\t\xc0'
p3378
tp3379
Rp3380
sg2727
g5
(g9
S'\xfa\xfcn\xf6SC\xb1\xbf'
p3381
tp3382
Rp3383
s(g3294
S'prev-action-4'
p3384
tp3385
g5
(g9
S'\xef1t\xbb\xeb\x12\xf5?'
p3386
tp3387
Rp3388
s(S'diff-x-pos--109'
p3389
S'action-1'
p3390
tp3391
g5
(g9
S'\xea\x98mA`\xb8\xdc\xbf'
p3392
tp3393
Rp3394
s(S'diff-x-pos--52'
p3395
S'prev-action-1'
p3396
tp3397
g5
(g9
S'\x0c\xa0G\xdb+\x9a\xd3\xbf'
p3398
tp3399
Rp3400
s(g3224
S'action-4'
p3401
tp3402
g5
(g9
S'\x10\x9e<&\xb4\xf9\xf5?'
p3403
tp3404
Rp3405
s(S'diff-x-pos-15'
p3406
S'prev-action-3'
p3407
tp3408
g5
(g9
S'\xba\xe4\x11s\xfd\xa0\xc8\xbf'
p3409
tp3410
Rp3411
s(S'diff-x-pos--9'
p3412
S'prev-action-1'
p3413
tp3414
g5
(g9
S'\x82\xbf\x96\xbf\x8e\xd7\xc2?'
p3415
tp3416
Rp3417
s(S'diff-x-pos--69'
p3418
S'prev-action-4'
p3419
tp3420
g5
(g9
S'\xd9\xee\x06\xf3(\x8e\xe6?'
p3421
tp3422
Rp3423
s(g2877
S'prev-action-3'
p3424
tp3425
g5
(g9
S'\xcf\xfc1W\x95\x05\xd2\xbf'
p3426
tp3427
Rp3428
s(S'diff-x-pos--58'
p3429
S'action-3'
p3430
tp3431
g5
(g9
S'\x9a\xc7\xb5`8\x9a\xfa\xbf'
p3432
tp3433
Rp3434
s(g201
S'prev-action-1'
p3435
tp3436
g5
(g9
S'\xe4r\x1f\x18\xads\xbe?'
p3437
tp3438
Rp3439
s(g367
S'action-1'
p3440
tp3441
g5
(g9
S'5\x00\xd0\xa3\x02A\t\xc0'
p3442
tp3443
Rp3444
s(g1228
S'prev-action-3'
p3445
tp3446
g5
(g9
S'\xca\xee\x90\x03\xd7\xdf\xd3\xbf'
p3447
tp3448
Rp3449
s(g3168
S'action-1'
p3450
tp3451
g5
(g9
S"X{'~d\x04\xf4?"
p3452
tp3453
Rp3454
s(g2168
S'prev-action-1'
p3455
tp3456
g5
(g9
S'\x84\xd3\xa2+\x9c^\xea?'
p3457
tp3458
Rp3459
s(g951
S'action-1'
p3460
tp3461
g5
(g9
S'\xe3{\x12&\xae\xc4\xd7?'
p3462
tp3463
Rp3464
s(S'diff-x-pos--115'
p3465
S'action-3'
p3466
tp3467
g5
(g9
S'd\x14\xe8D\x9e\xd0\x06\xc0'
p3468
tp3469
Rp3470
sg3126
g5
(g9
S'\x00\xb0R{bs\xb9\xbf'
p3471
tp3472
Rp3473
sg2482
g5
(g9
S'\xf2x\x17\xa9^\x93\xe3\xbf'
p3474
tp3475
Rp3476
s(S'diff-x-pos--104'
p3477
S'action-1'
p3478
tp3479
g5
(g9
S'\xdc=\x1a\x9b\xff\x92\xf4\xbf'
p3480
tp3481
Rp3482
sg2866
g5
(g9
S'a\xd9_\xd3\xf0-\xea?'
p3483
tp3484
Rp3485
sg2351
g5
(g9
S'\xd3\x90\xc0S\x82\xaf\xda\xbf'
p3486
tp3487
Rp3488
sg1645
g5
(g9
S'\x00\xaf\xc46\xb1F\xea?'
p3489
tp3490
Rp3491
s(g159
S'action-4'
p3492
tp3493
g5
(g9
S'\xce#\x13\x81{\x16\xfa\xbf'
p3494
tp3495
Rp3496
sg2230
g5
(g9
S'\x98\xd7\xb9(\x97\xc9\xe3?'
p3497
tp3498
Rp3499
sg1142
g5
(g9
S'\x90\x15\xce\xe4\xa4\xcc\xec?'
p3500
tp3501
Rp3502
s(S'diff-x-pos--19'
p3503
S'action-1'
p3504
tp3505
g5
(g9
S'[G{I\xd8\xd4\xec?'
p3506
tp3507
Rp3508
sg3376
g5
(g9
S"~B_\xf8i'\xe1?"
p3509
tp3510
Rp3511
s(S'diff-x-pos-52'
p3512
S'prev-action-3'
p3513
tp3514
g5
(g9
S'X\x01\x12m\xa5\x10\xe2?'
p3515
tp3516
Rp3517
s(S'diff-x-pos-30'
p3518
S'prev-action-4'
p3519
tp3520
g5
(g9
S'R\xbc\xc8G\x81\x1b\xd0?'
p3521
tp3522
Rp3523
s(S'diff-x-pos-3'
p3524
S'prev-action-4'
p3525
tp3526
g5
(g9
S'\x06\x92D\xd9\xbd\xf7\xa2?'
p3527
tp3528
Rp3529
s(S'diff-x-pos--72'
p3530
S'prev-action-3'
p3531
tp3532
g5
(g9
S'\xaeI\x89\x18_\xb5\xe3\xbf'
p3533
tp3534
Rp3535
s(S'diff-x-pos--7'
p3536
S'prev-action-3'
p3537
tp3538
g5
(g9
S'\xec}\x087\nB\xb9?'
p3539
tp3540
Rp3541
s(g1585
S'action-3'
p3542
tp3543
g5
(g9
S'Z\x87\xb3F\xf1\xa9\x1a@'
p3544
tp3545
Rp3546
s(g1107
S'action-4'
p3547
tp3548
g5
(g9
S'\xdb\x05\xca\xe7[.\xe1?'
p3549
tp3550
Rp3551
s(g1823
S'object-0-x-20.0'
p3552
tp3553
g5
(g9
S')\xbf\x10V\x8f\x08\x05@'
p3554
tp3555
Rp3556
s(S'object-1-dx--1'
p3557
g207
tp3558
g5
(g9
S'\xaf\xabK[-\xf0\xf7\xbf'
p3559
tp3560
Rp3561
s(S'diff-x-pos--35'
p3562
S'action-1'
p3563
tp3564
g5
(g9
S'\xea\x00|;iO\x01@'
p3565
tp3566
Rp3567
s(g1421
S'action-1'
p3568
tp3569
g5
(g9
S'\xa0\xae\xee#\xc4\xaa\xe1\xbf'
p3570
tp3571
Rp3572
s(S'diff-x-pos-9'
p3573
S'prev-action-4'
p3574
tp3575
g5
(g9
S'\x96>+\x923\x9b\xc4?'
p3576
tp3577
Rp3578
s(S'diff-x-pos--43'
p3579
S'action-4'
p3580
tp3581
g5
(g9
S'\x93\x8d\xb6\x1b\xd7\x9e\xc5\xbf'
p3582
tp3583
Rp3584
s(g2151
S'action-1'
p3585
tp3586
g5
(g9
S'<\xaf\xd1\xf2\x07\xa7\xdb\xbf'
p3587
tp3588
Rp3589
s(S'diff-x-pos--84'
p3590
S'prev-action-3'
p3591
tp3592
g5
(g9
S'\xe3\xd2$\x1aK\xf3\xed\xbf'
p3593
tp3594
Rp3595
s(S'diff-x-pos-40'
p3596
S'prev-action-3'
p3597
tp3598
g5
(g9
S'Q4\xe7\xecI\t\xf8?'
p3599
tp3600
Rp3601
sS'object-0-y-20.0'
p3602
g5
(g9
S'\xbf\x87ol\x9eQ-@'
p3603
tp3604
Rp3605
s(S'diff-x-pos-44'
p3606
S'prev-action-3'
p3607
tp3608
g5
(g9
S'h0\xc7\xfcc\x9f\xe5\xbf'
p3609
tp3610
Rp3611
s(g1200
S'prev-action-4'
p3612
tp3613
g5
(g9
S'h\xe2\xfae\xe8\x1c\xc0?'
p3614
tp3615
Rp3616
s(S'diff-x-pos--3'
p3617
S'prev-action-3'
p3618
tp3619
g5
(g9
S'\xf4\x9b\xb7+5\xfa\xe1?'
p3620
tp3621
Rp3622
s(S'diff-x-pos--101'
p3623
S'action-3'
p3624
tp3625
g5
(g9
S'\xaef\xd7\x8c\x19L\x08\xc0'
p3626
tp3627
Rp3628
s(S'diff-x-pos-21'
p3629
S'prev-action-3'
p3630
tp3631
g5
(g9
S'\x94\x88\xeb\xbd\x9d\x90\xe7?'
p3632
tp3633
Rp3634
s(S'diff-x-pos-33'
p3635
S'action-3'
p3636
tp3637
g5
(g9
S'S_\x15\x9e\xe2R\x06@'
p3638
tp3639
Rp3640
s(S'action-4'
p3641
S'object-1-x-70.0'
p3642
tp3643
g5
(g9
S'\xce\xc2e\x17\xb6E\xf5\xbf'
p3644
tp3645
Rp3646
s(g3182
S'action-3'
p3647
tp3648
g5
(g9
S'a\xda\x90\xe9\x8fD\x01\xc0'
p3649
tp3650
Rp3651
s(S'diff-x-pos--67'
p3652
S'action-4'
p3653
tp3654
g5
(g9
S'\xeaf\x15a\xb6^\t@'
p3655
tp3656
Rp3657
s(S'diff-x-pos-18'
p3658
S'action-1'
p3659
tp3660
g5
(g9
S'\xb8\xff\xc5(\xc0\xa6\xb1\xbf'
p3661
tp3662
Rp3663
s(g966
S'action-3'
p3664
tp3665
g5
(g9
S'\x82&\x9a\xde\xc2\xb2\xf6?'
p3666
tp3667
Rp3668
s(g129
S'prev-action-4'
p3669
tp3670
g5
(g9
S'\xa1\xd4R\xe1p\xd8\xd2\xbf'
p3671
tp3672
Rp3673
s(S'diff-x-pos--39'
p3674
S'action-4'
p3675
tp3676
g5
(g9
S'\x84vp\xea\xc1S\xf1?'
p3677
tp3678
Rp3679
s(g1142
S'action-4'
p3680
tp3681
g5
(g9
S'K:5\xd0\xb7t\xf5\xbf'
p3682
tp3683
Rp3684
s(S'diff-x-pos-54'
p3685
S'action-4'
p3686
tp3687
g5
(g9
S'p\xf2\x12\xb2\xda\\\x1c\xc0'
p3688
tp3689
Rp3690
s(S'diff-x-pos--90'
p3691
S'action-1'
p3692
tp3693
g5
(g9
S'M\xf6[$\xa6?\xee\xbf'
p3694
tp3695
Rp3696
s(g1113
S'action-4'
p3697
tp3698
g5
(g9
S'\xa9\x1e\xfa\xa3\xaeQ\x05\xc0'
p3699
tp3700
Rp3701
s(g2136
S'prev-action-4'
p3702
tp3703
g5
(g9
S'\xb7\xa2YI\t\x93\xdd\xbf'
p3704
tp3705
Rp3706
s(g302
S'action-4'
p3707
tp3708
g5
(g9
S'\x1d\xccpJAD\x02\xc0'
p3709
tp3710
Rp3711
s(S'diff-x-pos-23'
p3712
S'prev-action-4'
p3713
tp3714
g5
(g9
S'\xac\x13\xc9}&\xd9\xdf?'
p3715
tp3716
Rp3717
s(S'diff-x-pos--75'
p3718
S'prev-action-3'
p3719
tp3720
g5
(g9
S'#z|\xb6/c\xf0\xbf'
p3721
tp3722
Rp3723
s(g1079
S'action-4'
p3724
tp3725
g5
(g9
S'9d\xae\xcbuC\t@'
p3726
tp3727
Rp3728
s(g3286
S'prev-action-4'
p3729
tp3730
g5
(g9
S'\x91:\xb8\xb9r\x13\xf5\xbf'
p3731
tp3732
Rp3733
s(g2465
S'action-4'
p3734
tp3735
g5
(g9
S'\x00nV\x8b\xea6\xeb?'
p3736
tp3737
Rp3738
s(S'diff-x-pos--31'
p3739
S'prev-action-1'
p3740
tp3741
g5
(g9
S'\x84 \x8am\t\xba\xd6?'
p3742
tp3743
Rp3744
s(S'diff-x-pos--27'
p3745
S'prev-action-3'
p3746
tp3747
g5
(g9
S'\xc0\x86\xe4\x96\xf4\x8e\x95\xbf'
p3748
tp3749
Rp3750
s(S'diff-x-pos--68'
p3751
S'action-4'
p3752
tp3753
g5
(g9
S'\x8a\xb9]\xbc{/\xf6?'
p3754
tp3755
Rp3756
s(S'diff-x-pos-63'
p3757
S'prev-action-1'
p3758
tp3759
g5
(g9
S'f\xcb\x8b?B\xdf\xef?'
p3760
tp3761
Rp3762
s(S'diff-x-pos--92'
p3763
S'prev-action-0'
p3764
tp3765
g5
(g9
S'G\xf6\xa6?f\x9a\xf3?'
p3766
tp3767
Rp3768
s(g2506
S'prev-action-4'
p3769
tp3770
g5
(g9
S'\x06\xbc#E\xdcw\xea\xbf'
p3771
tp3772
Rp3773
s(S'diff-x-pos--118'
p3774
S'prev-action-4'
p3775
tp3776
g5
(g9
S'\xe9\xb7gdaX\xec?'
p3777
tp3778
Rp3779
s(S'diff-x-pos-48'
p3780
S'action-3'
p3781
tp3782
g5
(g9
S'\x994Z\x8d\xb9\xb0\xd3?'
p3783
tp3784
Rp3785
s(S'diff-x-pos--60'
p3786
S'prev-action-3'
p3787
tp3788
g5
(g9
S'\xd0\x81Z\xa6\x9c\xaa\xe7?'
p3789
tp3790
Rp3791
s(S'diff-x-pos--30'
p3792
S'prev-action-3'
p3793
tp3794
g5
(g9
S'!\x8a\xab\x1drG\xc9?'
p3795
tp3796
Rp3797
s(S'diff-x-pos-26'
p3798
S'action-3'
p3799
tp3800
g5
(g9
S'|\xd0J\x88\x99\x15\xfa?'
p3801
tp3802
Rp3803
s(S'action-4'
p3804
S'prev-action-0'
p3805
tp3806
g5
(g9
S'@E\xbc\x11\x047\xf3?'
p3807
tp3808
Rp3809
s(g3205
S'action-1'
p3810
tp3811
g5
(g9
S'Y\x19DJ\xe1L\xdb?'
p3812
tp3813
Rp3814
s(S'diff-x-pos--42'
p3815
S'action-4'
p3816
tp3817
g5
(g9
S'\xe4A\x14\xefI-\xec\xbf'
p3818
tp3819
Rp3820
s(g2993
S'action-1'
p3821
tp3822
I-2
s(g3290
S'prev-action-4'
p3823
tp3824
g5
(g9
S'\xd8\x18\xf4\xa3\x1d\x06\xc6?'
p3825
tp3826
Rp3827
s(S'diff-x-pos--13'
p3828
S'action-1'
p3829
tp3830
g5
(g9
S'\xec\x87\xd0\xca\xe5f\xe1\xbf'
p3831
tp3832
Rp3833
s(S'diff-x-pos--19'
p3834
S'prev-action-4'
p3835
tp3836
g5
(g9
S' \xd4\xda\xe5e\xd5\xa4?'
p3837
tp3838
Rp3839
s(g196
S'prev-action-1'
p3840
tp3841
g5
(g9
S'\xb6ji}D|\x10@'
p3842
tp3843
Rp3844
s(S'diff-x-pos-37'
p3845
S'action-1'
p3846
tp3847
g5
(g9
S'\xc0\n<\x91\xad0\xfd?'
p3848
tp3849
Rp3850
s(S'diff-x-pos-65'
p3851
S'action-1'
p3852
tp3853
g5
(g9
S'\xb3I5y\x92\xab\xde\xbf'
p3854
tp3855
Rp3856
s(g2155
S'prev-action-3'
p3857
tp3858
g5
(g9
S'\x8a\xad\x96\xc4|7\xe7?'
p3859
tp3860
Rp3861
s(S'diff-x-pos--69'
p3862
S'action-3'
p3863
tp3864
g5
(g9
S'\xc0h\xa3\x0e\x1e\x11\xf9\xbf'
p3865
tp3866
Rp3867
s(S'diff-x-pos--49'
p3868
S'prev-action-1'
p3869
tp3870
g5
(g9
S'\xa3\x1a\xfb\xf4\xaa\xc6\xe8\xbf'
p3871
tp3872
Rp3873
s(S'diff-x-pos--93'
p3874
S'prev-action-3'
p3875
tp3876
g5
(g9
S'D\xda\xc0]\x1aO\xdf\xbf'
p3877
tp3878
Rp3879
s(S'object-0-dx-1'
p3880
g453
tp3881
g5
(g9
S'L\xc4\xf3\xd7\x04\xb7\xf0\xbf'
p3882
tp3883
Rp3884
s(g3301
g207
tp3885
g5
(g9
S'\xf4\xe3\x1e\xb6\x0b\xd8\xe1\xbf'
p3886
tp3887
Rp3888
s(g1283
S'prev-action-4'
p3889
tp3890
g5
(g9
S'8\x9c\xc0\xaf1\xf4\xdf?'
p3891
tp3892
Rp3893
s(S'diff-x-pos--37'
p3894
S'action-1'
p3895
tp3896
g5
(g9
S'\xb0\x99\xfe\x16X\xed\x9e?'
p3897
tp3898
Rp3899
s(S'diff-x-pos--39'
p3900
S'prev-action-1'
p3901
tp3902
g5
(g9
S'\xbb\xbe=`\xeam\xf4\xbf'
p3903
tp3904
Rp3905
s(g1427
S'prev-action-1'
p3906
tp3907
g5
(g9
S'O\xaaI}\xeb\xf7\xf6?'
p3908
tp3909
Rp3910
s(S'diff-x-pos--55'
p3911
S'action-1'
p3912
tp3913
g5
(g9
S'B\xa6\xe1\xbb\xac\x01\xe0?'
p3914
tp3915
Rp3916
s(S'diff-x-pos-4'
p3917
S'prev-action-1'
p3918
tp3919
g5
(g9
S'U;\xb3^\x0b;\xd8\xbf'
p3920
tp3921
Rp3922
s(S'diff-x-pos-44'
p3923
S'prev-action-1'
p3924
tp3925
g5
(g9
S']4L\xe0O)\xe6?'
p3926
tp3927
Rp3928
s(S'diff-x-pos--47'
p3929
S'prev-action-3'
p3930
tp3931
g5
(g9
S'\xc2n\xe7x\xd66\xc1\xbf'
p3932
tp3933
Rp3934
sg579
g5
(g9
S'0\x1c\x1c\xde:8\xdb\xbf'
p3935
tp3936
Rp3937
sg2536
g5
(g9
S'\x00\xf5\xc3\x03<1\xa8\xbf'
p3938
tp3939
Rp3940
s(S'diff-x-pos--28'
p3941
S'action-1'
p3942
tp3943
g5
(g9
S'\x9cQOb\xef\xa3\xdb?'
p3944
tp3945
Rp3946
sg2052
g5
(g9
S'\x84Q\xcf@\xa2\r\xee?'
p3947
tp3948
Rp3949
sS'diff-x-pos--116'
p3950
g5
(g9
S'\xc4\x9eEP\x95\x84\xee\xbf'
p3951
tp3952
Rp3953
sg2506
g5
(g9
S'P\xbbB^\xaf\xa8\xa6?'
p3954
tp3955
Rp3956
sS'diff-x-pos--114'
p3957
g5
(g9
S'PX\x87)c\xab\xd4?'
p3958
tp3959
Rp3960
s(S'diff-x-pos--61'
p3961
S'prev-action-4'
p3962
tp3963
g5
(g9
S'\xbdC\x1f\x162\xe9\xf7?'
p3964
tp3965
Rp3966
sg3774
g5
(g9
S'\x02\xce\x84p\xf4$\xf3?'
p3967
tp3968
Rp3969
s(g988
S'action-4'
p3970
tp3971
g5
(g9
S'\xb8\xbc\x1e\xa4\xfe\x8f\x0c\xc0'
p3972
tp3973
Rp3974
s(g3524
S'action-1'
p3975
tp3976
g5
(g9
S'\xb1\xddq\n!\xf0\xed\xbf'
p3977
tp3978
Rp3979
s(S'diff-x-pos--21'
p3980
S'prev-action-3'
p3981
tp3982
g5
(g9
S'-\x12P\x9bY\xc9\xe4\xbf'
p3983
tp3984
Rp3985
s(S'diff-x-pos--87'
p3986
S'prev-action-4'
p3987
tp3988
g5
(g9
S'\x002\x98\x00I\x05\x83?'
p3989
tp3990
Rp3991
s(g3691
S'prev-action-1'
p3992
tp3993
g5
(g9
S'"\xefz\x85\xad\xb2\xc7?'
p3994
tp3995
Rp3996
s(S'diff-x-pos--5'
p3997
S'action-4'
p3998
tp3999
g5
(g9
S'd\x12\xdex\x8a\x8f\xc2?'
p4000
tp4001
Rp4002
s(S'diff-x-pos-43'
p4003
S'action-3'
p4004
tp4005
g5
(g9
S'\xd3\xb58\xef\xb9/\x0f@'
p4006
tp4007
Rp4008
s(S'diff-x-pos-55'
p4009
S'action-1'
p4010
tp4011
g5
(g9
S'\xe8n@W\x8a\xc8\xf3?'
p4012
tp4013
Rp4014
s(S'diff-x-pos-45'
p4015
S'prev-action-1'
p4016
tp4017
g5
(g9
S'B|v\xed\xc0R\xf8\xbf'
p4018
tp4019
Rp4020
sg2798
g5
(g9
S'\xbc6\xcb\x8b\xcb\xcb\xe1\xbf'
p4021
tp4022
Rp4023
s(g3220
S'action-3'
p4024
tp4025
g5
(g9
S'\xf9ii\xd6\x04\xd6\x06\xc0'
p4026
tp4027
Rp4028
s(S'diff-x-pos--59'
p4029
S'action-4'
p4030
tp4031
g5
(g9
S"'c\x9c*\x80Q\x03@"
p4032
tp4033
Rp4034
s(S'diff-x-pos-36'
p4035
S'action-3'
p4036
tp4037
g5
(g9
S'\x1f\x9e\x08\x97~\x06\x06@'
p4038
tp4039
Rp4040
s(S'diff-x-pos--32'
p4041
S'action-3'
p4042
tp4043
g5
(g9
S'\x17\x85R\xba\xe0\xe5\xeb\xbf'
p4044
tp4045
Rp4046
s(S'diff-x-pos-8'
p4047
S'prev-action-4'
p4048
tp4049
g5
(g9
S'\\Br\x1a\xe7\x96\xf6\xbf'
p4050
tp4051
Rp4052
sS'object-1-y-10.0'
p4053
g5
(g9
S'\x8a\x07\x9b\x98\xd8\x19\xd6?'
p4054
tp4055
Rp4056
s(g3205
S'prev-action-1'
p4057
tp4058
g5
(g9
S'8Zani\x94\xe9\xbf'
p4059
tp4060
Rp4061
s(S'diff-x-pos-30'
p4062
S'action-1'
p4063
tp4064
g5
(g9
S'\xb0mZG\x1a\xff\x92\xbf'
p4065
tp4066
Rp4067
s(S'diff-x-pos-38'
p4068
S'prev-action-1'
p4069
tp4070
g5
(g9
S'\x18\x05\nZL\xf2\xc5\xbf'
p4071
tp4072
Rp4073
s(g638
S'action-3'
p4074
tp4075
g5
(g9
S'\xd4\x91\xe8\xbav\x16\xeb?'
p4076
tp4077
Rp4078
s(S'diff-x-pos--112'
p4079
S'action-1'
p4080
tp4081
g5
(g9
S'\xbeu\x14P\xe9e\xf7\xbf'
p4082
tp4083
Rp4084
s(g2218
S'action-4'
p4085
tp4086
g5
(g9
S'\x1cG\xa9U4\xa6\xff\xbf'
p4087
tp4088
Rp4089
s(g620
S'prev-action-3'
p4090
tp4091
g5
(g9
S'\x80\x9a\xd73\xdci\xb0?'
p4092
tp4093
Rp4094
s(S'diff-x-pos--93'
p4095
S'prev-action-1'
p4096
tp4097
g5
(g9
S'j\xbc\xdeU\xad\xcf\x00@'
p4098
tp4099
Rp4100
sg2003
g5
(g9
S'\x83\xd3<Y\xde\x08\xde\xbf'
p4101
tp4102
Rp4103
s(S'diff-x-pos--33'
p4104
S'action-3'
p4105
tp4106
g5
(g9
S'hU\xf9\xfcE\x98\xed?'
p4107
tp4108
Rp4109
s(S'diff-x-pos--114'
p4110
S'action-4'
p4111
tp4112
g5
(g9
S'\xfc\xbc\xec\x19\x87C\xea?'
p4113
tp4114
Rp4115
s(S'diff-x-pos-19'
p4116
S'action-3'
p4117
tp4118
g5
(g9
S'~<ZK\xd3@\r@'
p4119
tp4120
Rp4121
s(S'diff-x-pos-14'
p4122
S'action-1'
p4123
tp4124
g5
(g9
S'\x95\xaa\xe0y\xc9\xd6\x00@'
p4125
tp4126
Rp4127
s(g3874
S'action-4'
p4128
tp4129
g5
(g9
S'Q\xd9\xaa\x06[x\x07@'
p4130
tp4131
Rp4132
s(S'diff-x-pos--5'
p4133
S'action-3'
p4134
tp4135
g5
(g9
S'\x0c\x96\xd0\x80\x91\x13\xc7?'
p4136
tp4137
Rp4138
s(S'diff-x-pos--6'
p4139
g1165
tp4140
g5
(g9
S'\x1c\xff\xcf\xf0:Y\xf1\xbf'
p4141
tp4142
Rp4143
s(g2704
S'action-3'
p4144
tp4145
g5
(g9
S'\xeb\x88\xbe\x97\xf4 \xf4\xbf'
p4146
tp4147
Rp4148
s(g2698
S'action-1'
p4149
tp4150
g5
(g9
S'\xdc8Sv\xfd\xa9\xfa?'
p4151
tp4152
Rp4153
sS'object-0-dy-1'
p4154
g5
(g9
S'|\x01\x107\xca\xac\xa4?'
p4155
tp4156
Rp4157
s(S'diff-x-pos--82'
p4158
S'prev-action-4'
p4159
tp4160
g5
(g9
S'\x81\xb1\x98\xd0\xe2\xbf\xe3\xbf'
p4161
tp4162
Rp4163
s(S'diff-x-pos--24'
p4164
S'action-3'
p4165
tp4166
g5
(g9
S'\xd9\x9d\xa2\x9f\xe4\x0c\xd1\xbf'
p4167
tp4168
Rp4169
s(S'diff-x-pos--85'
p4170
S'prev-action-1'
p4171
tp4172
g5
(g9
S'\x16\xe8 \xd9Q\xcc\xd6?'
p4173
tp4174
Rp4175
s(S'diff-x-pos-35'
p4176
S'action-1'
p4177
tp4178
g5
(g9
S'\x1f>\xcd\xb0\xe1\xb6\xdb?'
p4179
tp4180
Rp4181
s(S'diff-x-pos--32'
p4182
g2910
tp4183
g5
(g9
S'\xac\xd4\xfb\xb5^-\xc5\xbf'
p4184
tp4185
Rp4186
s(S'diff-x-pos--97'
p4187
S'prev-action-1'
p4188
tp4189
g5
(g9
S'\x1cP\xe9[~\x8a\xdd\xbf'
p4190
tp4191
Rp4192
s(S'diff-x-pos--17'
p4193
S'prev-action-4'
p4194
tp4195
g5
(g9
S'\x04!%\xe2\x8b\xac\xde?'
p4196
tp4197
Rp4198
s(S'diff-x-pos--74'
p4199
S'prev-action-1'
p4200
tp4201
g5
(g9
S'\x81\xea+}YH\xf2?'
p4202
tp4203
Rp4204
s(S'diff-x-pos--2'
p4205
S'prev-action-4'
p4206
tp4207
g5
(g9
S'\xd03c\x0e\xf0u\xef\xbf'
p4208
tp4209
Rp4210
s(g3032
S'prev-action-3'
p4211
tp4212
g5
(g9
S'j\xb2M\xad\xcay\xd0?'
p4213
tp4214
Rp4215
s(S'diff-x-pos--77'
p4216
S'prev-action-4'
p4217
tp4218
g5
(g9
S'\x80\xd6^\xf8\xef\x0b\x8c?'
p4219
tp4220
Rp4221
s(S'diff-x-pos-46'
p4222
S'action-4'
p4223
tp4224
g5
(g9
S'IaW~\x80\xb1\x07\xc0'
p4225
tp4226
Rp4227
s(g644
S'prev-action-1'
p4228
tp4229
g5
(g9
S'R=\xc9\x0fO\x9b\xf6?'
p4230
tp4231
Rp4232
s(S'diff-x-pos--4'
p4233
S'action-4'
p4234
tp4235
g5
(g9
S'\xafL\x9f\x92\xb7:\xf3?'
p4236
tp4237
Rp4238
s(S'diff-x-pos-42'
p4239
S'prev-action-1'
p4240
tp4241
g5
(g9
S'\xb0\x19\x16\\\x9c\xed\xa5?'
p4242
tp4243
Rp4244
s(S'diff-x-pos--116'
p4245
S'prev-action-4'
p4246
tp4247
g5
(g9
S's!\xd5\xf6\x92\x13\xd6?'
p4248
tp4249
Rp4250
sS'diff-y-pos--9'
p4251
g5
(g9
S'\x90\x1ed\xc5,\xe4\xcc?'
p4252
tp4253
Rp4254
sS'diff-y-pos--8'
p4255
g5
(g9
S'z\x83\x13\xed\xffE\xea\xbf'
p4256
tp4257
Rp4258
s(g970
S'prev-action-3'
p4259
tp4260
g5
(g9
S'j\xc5\x01\xa5\xcf#\xf0?'
p4261
tp4262
Rp4263
sS'diff-y-pos--4'
p4264
g5
(g9
S'2\n\xb0\x18\xdc"\xf0?'
p4265
tp4266
Rp4267
sS'diff-y-pos--7'
p4268
g5
(g9
S'\x1c\x1e{\xde9!\xf0?'
p4269
tp4270
Rp4271
s(g988
S'prev-action-1'
p4272
tp4273
g5
(g9
S'\xcc\xfe\xf5l\xf4A\xf0\xbf'
p4274
tp4275
Rp4276
sS'diff-y-pos--1'
p4277
g5
(g9
S'\xd0\r\x94\xd9<.\xda?'
p4278
tp4279
Rp4280
sS'diff-y-pos--3'
p4281
g5
(g9
S'\xbc\x94\x18\x92\x9e@\xf7?'
p4282
tp4283
Rp4284
sS'diff-y-pos--2'
p4285
g5
(g9
S'\xf9\xeaV\x8b\xfb\xbd\xdb?'
p4286
tp4287
Rp4288
s(S'diff-x-pos-20'
p4289
S'prev-action-4'
p4290
tp4291
g5
(g9
S'\x04\xd2\xc3\xf3\x10\x84\xd6?'
p4292
tp4293
Rp4294
s(S'diff-x-pos--95'
p4295
S'prev-action-4'
p4296
tp4297
g5
(g9
S'\xe4\t\xfa-\x12\xac\xf8\xbf'
p4298
tp4299
Rp4300
s(S'diff-x-pos--93'
p4301
S'action-3'
p4302
tp4303
g5
(g9
S'\n\xd3\x18\x0e\xd6M\x06\xc0'
p4304
tp4305
Rp4306
s(S'object-1-dx-1'
p4307
g4144
tp4308
g5
(g9
S'$\xbd\xa1.b\xe3\xe1\xbf'
p4309
tp4310
Rp4311
s(g463
S'action-1'
p4312
tp4313
g5
(g9
S'\xe6\xbcB!\xc8\x0b\xfa\xbf'
p4314
tp4315
Rp4316
s(S'diff-x-pos--14'
p4317
S'action-3'
p4318
tp4319
g5
(g9
S'\x18\x18\xd3\xba\x93\x10\xf5?'
p4320
tp4321
Rp4322
s(S'diff-x-pos--112'
p4323
S'prev-action-3'
p4324
tp4325
g5
(g9
S'\xf7):z\x99S\xf5?'
p4326
tp4327
Rp4328
s(g4233
S'prev-action-1'
p4329
tp4330
g5
(g9
S'I\xe3\xf1;\x86d\xf5\xbf'
p4331
tp4332
Rp4333
s(g2116
S'action-3'
p4334
tp4335
g5
(g9
S'\x80\xfa@\xd3.\x99\x05\xc0'
p4336
tp4337
Rp4338
s(S'diff-x-pos-38'
p4339
S'action-3'
p4340
tp4341
g5
(g9
S'.\xe2m\x08\xb5\xe9\x03@'
p4342
tp4343
Rp4344
s(g935
S'action-1'
p4345
tp4346
g5
(g9
S'8\xa5\xaa\xd2<\xd0\xb6?'
p4347
tp4348
Rp4349
sg1515
g5
(g9
S'\x885j\xc1^\xd8\xec\xbf'
p4350
tp4351
Rp4352
sg1216
g5
(g9
S'\xaf\x81\x87\xe8Y\xcd\xd1\xbf'
p4353
tp4354
Rp4355
sg1037
g5
(g9
S'T\xbb\x13;\xe4r\xb5\xbf'
p4356
tp4357
Rp4358
sg1521
g5
(g9
S'\xad\xe0\\=\xb6z\xe1?'
p4359
tp4360
Rp4361
sS'diff-x-pos--83'
p4362
g5
(g9
S'\x94\x15\t\x88\xa1\xb8\xd7?'
p4363
tp4364
Rp4365
sg2126
g5
(g9
S'x\x85\xc9=\xdfo\xf0\xbf'
p4366
tp4367
Rp4368
sg2576
g5
(g9
S'4\x18\x86\xf8\xdb\xd7\xec\xbf'
p4369
tp4370
Rp4371
sg81
g5
(g9
S'$\x83\xef\xf6:\xe8\xe2?'
p4372
tp4373
Rp4374
sg2
g5
(g9
S'\xcd\x8e\xd2\xf1\xa9\x1f\xf3\xbf'
p4375
tp4376
Rp4377
sS'diff-x-pos--88'
p4378
g5
(g9
S'\x99\x0c\xe5\x82\xda\x19\xdd?'
p4379
tp4380
Rp4381
s(S'diff-x-pos--38'
p4382
S'prev-action-3'
p4383
tp4384
g5
(g9
S'\x9cV-\x8c4\xbf\xfe?'
p4385
tp4386
Rp4387
s(S'diff-x-pos-55'
p4388
S'prev-action-3'
p4389
tp4390
g5
(g9
S'\xe5B\xeeU\xc8q\xd7?'
p4391
tp4392
Rp4393
s(S'diff-x-pos--116'
p4394
S'prev-action-3'
p4395
tp4396
g5
(g9
S'\xf26\x1d\x03\xc7N\xdb\xbf'
p4397
tp4398
Rp4399
s(g2206
S'prev-action-3'
p4400
tp4401
g5
(g9
S'\xe1A\x16w\x87\x10\xd0\xbf'
p4402
tp4403
Rp4404
s(g3363
S'prev-action-4'
p4405
tp4406
g5
(g9
S':\xa1+S\xfby\xf2\xbf'
p4407
tp4408
Rp4409
s(S'diff-x-pos--28'
p4410
S'prev-action-3'
p4411
tp4412
g5
(g9
S'w\xa5\xb7\t\x0c\xb1\xdc\xbf'
p4413
tp4414
Rp4415
sg696
g5
(g9
S'p<\xc4\x7f\xa9\xf9\xda?'
p4416
tp4417
Rp4418
sS'diff-x-pos--11'
p4419
g5
(g9
S'\x85\x1c^\xbf\x0fa\xe0\xbf'
p4420
tp4421
Rp4422
sg1852
g5
(g9
S'\xbd3\xe5\x06\xe0y\xe6\xbf'
p4423
tp4424
Rp4425
sg3828
g5
(g9
S'\xca5\r\x7f\xbd\xa4\xd7\xbf'
p4426
tp4427
Rp4428
s(S'diff-x-pos--116'
p4429
S'action-4'
p4430
tp4431
g5
(g9
S'\x01\x91\x8d\x9as\xdf\xe7\xbf'
p4432
tp4433
Rp4434
s(S'diff-x-pos-4'
p4435
S'action-3'
p4436
tp4437
g5
(g9
S'8P\xa6\xf7m0\xe7?'
p4438
tp4439
Rp4440
sg1979
g5
(g9
S'\xee;\xf1\xa3d\xf6\xd0?'
p4441
tp4442
Rp4443
sg533
g5
(g9
S'\xd0\x03\x96\x8a\xb6]\xfb?'
p4444
tp4445
Rp4446
s(g290
S'prev-action-4'
p4447
tp4448
g5
(g9
S'\xa1\xb5}\xab\x030\xe9\xbf'
p4449
tp4450
Rp4451
sS'diff-x-pos--19'
p4452
g5
(g9
S'5E3N\x8f8\xfa?'
p4453
tp4454
Rp4455
s(g3911
S'prev-action-3'
p4456
tp4457
g5
(g9
S'|)\x19\xdb:q\xa0?'
p4458
tp4459
Rp4460
s(S'diff-x-pos-42'
p4461
S'action-1'
p4462
tp4463
g5
(g9
S'\xfcPG\xbeD\xe8\xe8\xbf'
p4464
tp4465
Rp4466
s(S'diff-x-pos--62'
p4467
S'prev-action-0'
p4468
tp4469
g5
(g9
S'\x86i>}~A\xe2?'
p4470
tp4471
Rp4472
s(S'diff-x-pos--37'
p4473
S'prev-action-3'
p4474
tp4475
g5
(g9
S'\x9a\x12F\x00\xcc\x8e\xb4?'
p4476
tp4477
Rp4478
s(S'diff-x-pos--22'
p4479
S'prev-action-1'
p4480
tp4481
g5
(g9
S'\x0c\x0b^\x17\x02\xea\xa9?'
p4482
tp4483
Rp4484
s(S'diff-x-pos--97'
p4485
S'action-1'
p4486
tp4487
g5
(g9
S'\x10bp\xd6\x98\x01\xb9\xbf'
p4488
tp4489
Rp4490
s(S'diff-x-pos--69'
p4491
S'prev-action-1'
p4492
tp4493
g5
(g9
S'0\xc8uyQ\xfa\x98\xbf'
p4494
tp4495
Rp4496
s(g2155
S'action-1'
p4497
tp4498
g5
(g9
S'z\x1a\x9b\x18t\x8b\xf7?'
p4499
tp4500
Rp4501
s(S'diff-x-pos--23'
p4502
S'action-4'
p4503
tp4504
g5
(g9
S'\xe0\xd7\x9b\xf7\xaf>\xf9?'
p4505
tp4506
Rp4507
s(g3680
S'object-0-x-100.0'
p4508
tp4509
g5
(g9
S'\x85.\xcd\xd3\xa9\xb7\xfb?'
p4510
tp4511
Rp4512
s(S'diff-x-pos-25'
p4513
S'action-1'
p4514
tp4515
g5
(g9
S'\x15h\x97\xc7,"\xe1\xbf'
p4516
tp4517
Rp4518
s(S'diff-x-pos--33'
p4519
S'prev-action-3'
p4520
tp4521
g5
(g9
S'\x8a&T\xbbD\n\xbe?'
p4522
tp4523
Rp4524
s(g3792
S'action-1'
p4525
tp4526
g5
(g9
S'\xa3\xf2!\xe8\xaa@\xd7\xbf'
p4527
tp4528
Rp4529
s(S'diff-x-pos--71'
p4530
S'prev-action-4'
p4531
tp4532
g5
(g9
S'\xbb$.\xd5~\xbb\xcd\xbf'
p4533
tp4534
Rp4535
s(S'diff-x-pos-47'
p4536
S'prev-action-4'
p4537
tp4538
g5
(g9
S'\xe0\xae\xf8\x00\x1d\xa6\xc7\xbf'
p4539
tp4540
Rp4541
s(S'action-3'
p4542
S'object-1-x-100.0'
p4543
tp4544
g5
(g9
S'P\xbc\x1b\x0f\x98\xde\xd1?'
p4545
tp4546
Rp4547
s(S'diff-x-pos--55'
p4548
S'prev-action-4'
p4549
tp4550
g5
(g9
S'(\x96\xeb%\xe8\xda\xd2?'
p4551
tp4552
Rp4553
sS'object-0-x-80.0'
p4554
g5
(g9
S'\xff\xa0\xbe\xf5\x8bZ\x0e@'
p4555
tp4556
Rp4557
s(S'diff-x-pos--60'
p4558
S'prev-action-1'
p4559
tp4560
g5
(g9
S'4\xc5jODD\xe0\xbf'
p4561
tp4562
Rp4563
s(g3342
S'prev-action-1'
p4564
tp4565
g5
(g9
S'\xe3\xb0\xac\x89\xc5\xaf\xc1\xbf'
p4566
tp4567
Rp4568
s(g3282
S'action-1'
p4569
tp4570
g5
(g9
S'+\xbd\x9dD(J\x04@'
p4571
tp4572
Rp4573
sg1113
g5
(g9
S'\xec\xab}\x0c\xf3\xbe\xe5?'
p4574
tp4575
Rp4576
sg1295
g5
(g9
S'7,b\xa78 \x04\xc0'
p4577
tp4578
Rp4579
sg1403
g5
(g9
S'V,\x9c\x94f\x86\xfb?'
p4580
tp4581
Rp4582
sg935
g5
(g9
S'B\xfa\x84.C\x1a\xc4\xbf'
p4583
tp4584
Rp4585
sg1585
g5
(g9
S'\xea\xf5 \x80\xbch\xe2\xbf'
p4586
tp4587
Rp4588
sg4009
g5
(g9
S'\xbd\xad,\xf9l\xf9\xef\xbf'
p4589
tp4590
Rp4591
sg1283
g5
(g9
S'\xe44\xfa+t%\xeb?'
p4592
tp4593
Rp4594
sg1945
g5
(g9
S'|\xec\xc9dC?\xf5?'
p4595
tp4596
Rp4597
sg1686
g5
(g9
S'Dd,\xd8=\xe4\xeb?'
p4598
tp4599
Rp4600
sg1609
g5
(g9
S'pw\x7f\xf8\xe9\xcf\x98\xbf'
p4601
tp4602
Rp4603
s(g3220
S'prev-action-3'
p4604
tp4605
g5
(g9
S'P\xdf\xf0\xbbuP\xe0\xbf'
p4606
tp4607
Rp4608
s(g1008
S'action-1'
p4609
tp4610
g5
(g9
S'\xafB\xd5\xac\x01\xdb\xe1?'
p4611
tp4612
Rp4613
s(g2866
S'action-1'
p4614
tp4615
g5
(g9
S'J\xd5\x80\x12\xff\x99\xf7?'
p4616
tp4617
Rp4618
s(g1539
S'prev-action-3'
p4619
tp4620
g5
(g9
S'\x17\x0eEJ\xec\xe5\xdd?'
p4621
tp4622
Rp4623
s(g4133
S'prev-action-4'
p4624
tp4625
g5
(g9
S'\xa2J\xd7V/\x96\xf6?'
p4626
tp4627
Rp4628
s(S'diff-x-pos--60'
p4629
S'prev-action-4'
p4630
tp4631
g5
(g9
S'\xb47\xdc\xba&\x0e\xe2?'
p4632
tp4633
Rp4634
sS'object-0-y-10.0'
p4635
g5
(g9
S"xe\x15\x06\xd9\xda'@"
p4636
tp4637
Rp4638
s(g1056
S'object-1-x-90.0'
p4639
tp4640
g5
(g9
S'\xc8\x82\xb7\x03\xf2f\xe5\xbf'
p4641
tp4642
Rp4643
s(S'diff-x-pos--61'
p4644
S'action-4'
p4645
tp4646
g5
(g9
S'\xce \x93\x9ec\x1e\xd9?'
p4647
tp4648
Rp4649
s(S'diff-x-pos-52'
p4650
S'action-1'
p4651
tp4652
g5
(g9
S'\xe4\xe8\x89\x99\xe4C\x04\xc0'
p4653
tp4654
Rp4655
s(g2825
S'prev-action-1'
p4656
tp4657
g5
(g9
S'\xa9\xa8\x14.u\xda\xd0\xbf'
p4658
tp4659
Rp4660
s(g890
S'object-1-x-120.0'
p4661
tp4662
g5
(g9
S'\xaax\x87\xb7\xa7\x8d\x07@'
p4663
tp4664
Rp4665
s(S'diff-x-pos--5'
p4666
S'action-1'
p4667
tp4668
g5
(g9
S'\x8d/\x88O\xa8A\xd9\xbf'
p4669
tp4670
Rp4671
s(g549
S'prev-action-1'
p4672
tp4673
g5
(g9
S'\xea\x8a\xf3Z\xc5\xed\xeb?'
p4674
tp4675
Rp4676
s(S'diff-x-pos--39'
p4677
g1556
tp4678
g5
(g9
S'\xf6\xd2\x81h\x17\x10\xe3\xbf'
p4679
tp4680
Rp4681
s(S'diff-x-pos-40'
p4682
S'action-1'
p4683
tp4684
g5
(g9
S'\xc5\xb3\xbb\x80\xc3d\xe4?'
p4685
tp4686
Rp4687
s(S'object-0-dx-1'
p4688
g674
tp4689
g5
(g9
S'{h_\xb8\xf8\x06\xf3?'
p4690
tp4691
Rp4692
s(S'action-4'
p4693
S'object-0-x-0.0'
p4694
tp4695
g5
(g9
S'\xe4\x8e\xc6Q\x1b\xc1\xf8\xbf'
p4696
tp4697
Rp4698
s(g3685
S'prev-action-4'
p4699
tp4700
g5
(g9
S'\x82\x16<\r\xb9/\xe1\xbf'
p4701
tp4702
Rp4703
sg350
g5
(g9
S'\xda\x9b\x19tO>\xf2?'
p4704
tp4705
Rp4706
s(g373
S'prev-action-1'
p4707
tp4708
g5
(g9
S'\xc6\x89\xd0\x19M;\xe3?'
p4709
tp4710
Rp4711
sg403
g5
(g9
S"\xb8\x8c\x8ao\x05'\xee\xbf"
p4712
tp4713
Rp4714
s(S'diff-x-pos--26'
p4715
S'prev-action-3'
p4716
tp4717
g5
(g9
S'\xa5\xef\xa7*\xc2?\xc8\xbf'
p4718
tp4719
Rp4720
s(g3828
S'prev-action-1'
p4721
tp4722
g5
(g9
S'\x97\xadSa\x07\x97\xfc\xbf'
p4723
tp4724
Rp4725
s(g3290
S'action-4'
p4726
tp4727
g5
(g9
S'\xc8[\xae\xda%!\xc8\xbf'
p4728
tp4729
Rp4730
s(g3282
S'prev-action-4'
p4731
tp4732
g5
(g9
S'\xfbjW\x0b\xe0.\xd9\xbf'
p4733
tp4734
Rp4735
s(S'diff-x-pos--7'
p4736
S'action-1'
p4737
tp4738
g5
(g9
S't-B \xbee\xc2\xbf'
p4739
tp4740
Rp4741
s(S'diff-x-pos--109'
p4742
S'prev-action-4'
p4743
tp4744
g5
(g9
S'\xaea\x03\xa9N\x96\xf5\xbf'
p4745
tp4746
Rp4747
s(g3081
g1928
tp4748
g5
(g9
S'\xeaj\xe9\x94\xe0\xca\x02@'
p4749
tp4750
Rp4751
sg4508
g5
(g9
S'`\x87M\xcer\xa6\x10@'
p4752
tp4753
Rp4754
s(g1890
S'action-4'
p4755
tp4756
g5
(g9
S'\xc4O\xee\xed)\x1e\xf1?'
p4757
tp4758
Rp4759
s(S'diff-x-pos--94'
p4760
S'prev-action-3'
p4761
tp4762
g5
(g9
S'<\x81\xbe5A\x04\xdf\xbf'
p4763
tp4764
Rp4765
s(S'diff-x-pos-48'
p4766
S'prev-action-3'
p4767
tp4768
g5
(g9
S'\x00(\xaf\x97\x070v?'
p4769
tp4770
Rp4771
s(S'diff-x-pos--50'
p4772
S'prev-action-1'
p4773
tp4774
g5
(g9
S'\x0f\x0c\xd5\x85\xde\x12\xdf\xbf'
p4775
tp4776
Rp4777
s(S'diff-x-pos--104'
p4778
S'prev-action-3'
p4779
tp4780
g5
(g9
S'f\x9d\x92K\xdc\t\xf6?'
p4781
tp4782
Rp4783
s(S'diff-x-pos--115'
p4784
S'prev-action-1'
p4785
tp4786
g5
(g9
S'\x84\x11\xb9\xab\x99\xb3\xe0\xbf'
p4787
tp4788
Rp4789
s(g1427
S'action-4'
p4790
tp4791
g5
(g9
S'\xe0\xe2\x90a\xb4\xcd\xd3?'
p4792
tp4793
Rp4794
s(g75
g398
tp4795
g5
(g9
S'%c8\xf2\xa2\x99\x14@'
p4796
tp4797
Rp4798
s(S'diff-x-pos--56'
p4799
S'prev-action-1'
p4800
tp4801
g5
(g9
S'\xa2\xb3\xd7L\x90\xcc\xe8\xbf'
p4802
tp4803
Rp4804
s(g3757
S'action-1'
p4805
tp4806
g5
(g9
S'M\xd0\xf9\xc4\x89Z\xe4\xbf'
p4807
tp4808
Rp4809
s(S'diff-x-pos--119'
p4810
S'prev-action-4'
p4811
tp4812
g5
(g9
S'\xf788*aM\xfe?'
p4813
tp4814
Rp4815
s(S'diff-x-pos-13'
p4816
S'prev-action-3'
p4817
tp4818
g5
(g9
S'\x1c/C\x10\x16C\xe4?'
p4819
tp4820
Rp4821
s(S'action-3'
p4822
S'object-0-x-30.0'
p4823
tp4824
g5
(g9
S'\xde\xc8e<i\x13\xf0?'
p4825
tp4826
Rp4827
sS'diff-x-pos-27'
p4828
g5
(g9
S'\xbb|a\x08}\xbb\xe3\xbf'
p4829
tp4830
Rp4831
s(S'diff-x-pos--26'
p4832
S'action-4'
p4833
tp4834
g5
(g9
S'\x87J\x06T\xa1j\xd8\xbf'
p4835
tp4836
Rp4837
s(S'diff-x-pos-9'
p4838
S'action-1'
p4839
tp4840
g5
(g9
S'|\xc9\xe1W\x9b\xca\xfc?'
p4841
tp4842
Rp4843
s(g4502
S'prev-action-3'
p4844
tp4845
g5
(g9
S'\xbaa\xee;)`\xe6\xbf'
p4846
tp4847
Rp4848
s(g3178
S'action-3'
p4849
tp4850
g5
(g9
S'\xb1\xec\x1dZEw\x03\xc0'
p4851
tp4852
Rp4853
s(S'diff-x-pos-65'
p4854
S'action-4'
p4855
tp4856
g5
(g9
S'\xe6Ti\xa2\xc2\x19\xce\xbf'
p4857
tp4858
Rp4859
sS'object-0-x-120.0'
p4860
g5
(g9
S'\x0eY\xd1\xf9\xe4L\xfe?'
p4861
tp4862
Rp4863
s(g771
S'prev-action-1'
p4864
tp4865
g5
(g9
S'\x86\xa2l\x1a\xa9o\xe2\xbf'
p4866
tp4867
Rp4868
s(g754
g467
tp4869
g5
(g9
S'(\x8cV?r\x8f\xd8?'
p4870
tp4871
Rp4872
s(g4854
S'prev-action-4'
p4873
tp4874
g5
(g9
S'\xe6Ti\xa2\xc2\x19\xce\xbf'
p4875
tp4876
Rp4877
sg3911
g5
(g9
S'\xb7\xfb(\xa7\xa3E\xc2\xbf'
p4878
tp4879
Rp4880
s(g974
S'action-1'
p4881
tp4882
g5
(g9
S'\x08N\x88\x8b\x96R\xb2\xbf'
p4883
tp4884
Rp4885
s(g2079
S'prev-action-1'
p4886
tp4887
g5
(g9
S'\xd4\x9e\x92d\xb2\xc6\xf1\xbf'
p4888
tp4889
Rp4890
s(g758
S'action-3'
p4891
tp4892
g5
(g9
S'\xd0\xec\xd4\xa3\xc2\xcb\xa7?'
p4893
tp4894
Rp4895
s(g4677
S'prev-action-4'
p4896
tp4897
g5
(g9
S'\x97\x1ai\xc0\xa6+\xeb?'
p4898
tp4899
Rp4900
s(g4245
S'action-1'
p4901
tp4902
g5
(g9
S'\x0f\xd9^\xdc-\xb6\xca?'
p4903
tp4904
Rp4905
s(S'diff-x-pos-62'
p4906
S'prev-action-4'
p4907
tp4908
g5
(g9
S'Wt\x023\xfb\\\xf6\xbf'
p4909
tp4910
Rp4911
s(S'diff-x-pos--109'
p4912
S'prev-action-3'
p4913
tp4914
g5
(g9
S'p\x97\xcaw\xe54\x95\xbf'
p4915
tp4916
Rp4917
s(g177
S'prev-action-3'
p4918
tp4919
g5
(g9
S';\xbf\x8b\x111\x0e\xdb\xbf'
p4920
tp4921
Rp4922
s(S'diff-x-pos--15'
p4923
S'prev-action-4'
p4924
tp4925
g5
(g9
S'p^[|\xb7\xaf\xd7\xbf'
p4926
tp4927
Rp4928
s(S'diff-x-pos-41'
p4929
S'action-4'
p4930
tp4931
g5
(g9
S'D~&<\xe4\r\t\xc0'
p4932
tp4933
Rp4934
s(S'diff-x-pos--67'
p4935
g1363
tp4936
g5
(g9
S'\xd6\x98\xa3Z\xcf\x99\xde?'
p4937
tp4938
Rp4939
s(S'diff-x-pos--31'
p4940
S'action-3'
p4941
tp4942
g5
(g9
S'\xf0O\x90\xef\x7f\xc4\x05@'
p4943
tp4944
Rp4945
s(S'diff-x-pos--120'
p4946
S'action-3'
p4947
tp4948
g5
(g9
S'f\xea\xedd]\xc9\xfb\xbf'
p4949
tp4950
Rp4951
s(g2747
S'prev-action-4'
p4952
tp4953
g5
(g9
S'\x92\x17\xe9\xa6\xa7=\xfc\xbf'
p4954
tp4955
Rp4956
s(S'diff-x-pos-1'
p4957
S'action-3'
p4958
tp4959
g5
(g9
S'\xacsx\xa3\xd0\xbf\xf6?'
p4960
tp4961
Rp4962
s(g2201
g75
tp4963
g5
(g9
S'r\x1er\xa0\x93\x1e\xf6\xbf'
p4964
tp4965
Rp4966
s(S'diff-x-pos--41'
p4967
S'action-3'
p4968
tp4969
g5
(g9
S'D\x8b\xfc\x95\xf4@\xf2\xbf'
p4970
tp4971
Rp4972
s(g326
g467
tp4973
g5
(g9
S'8\xdd\x7f\x8a~\xf0\xfb?'
p4974
tp4975
Rp4976
s(g732
S'prev-action-4'
p4977
tp4978
g5
(g9
S'\x0c0\x1a\x1d_\x95\xb5\xbf'
p4979
tp4980
Rp4981
s(g1159
S'action-3'
p4982
tp4983
g5
(g9
S'\xa0P\xb5\xf5\x7f\x8a\xb5\xbf'
p4984
tp4985
Rp4986
sg2961
g5
(g9
S'\xaf9mIH(\xfd?'
p4987
tp4988
Rp4989
s(g3310
S'action-3'
p4990
tp4991
g5
(g9
S'\xc8hXF\xaa<\xc2\xbf'
p4992
tp4993
Rp4994
s(g920
S'object-1-x-110.0'
p4995
tp4996
g5
(g9
S'0\xab\xcf\x9d\x03p\xfb\xbf'
p4997
tp4998
Rp4999
s(S'diff-x-pos--87'
p5000
S'prev-action-1'
p5001
tp5002
g5
(g9
S'g\xbd\x03\x19(\xf4\xe3\xbf'
p5003
tp5004
Rp5005
s(g3286
S'action-3'
p5006
tp5007
g5
(g9
S'`\x96!\xffX\xb8\xdd\xbf'
p5008
tp5009
Rp5010
s(S'diff-x-pos--35'
p5011
S'prev-action-1'
p5012
tp5013
g5
(g9
S'l\x80O\xc0DM\xf4\xbf'
p5014
tp5015
Rp5016
s(g775
S'action-1'
p5017
tp5018
g5
(g9
S'\xd3\xe3}z@\xbe\xe9\xbf'
p5019
tp5020
Rp5021
s(S'diff-x-pos-54'
p5022
S'prev-action-3'
p5023
tp5024
g5
(g9
S'\xcc\naT\xb4\x03\xdc?'
p5025
tp5026
Rp5027
s(g3234
S'prev-action-1'
p5028
tp5029
g5
(g9
S'\xfe\xea\x17\xdfsM\xcb?'
p5030
tp5031
Rp5032
s(S'diff-x-pos-24'
p5033
S'action-4'
p5034
tp5035
g5
(g9
S'oq\xef*\xd5s\x00\xc0'
p5036
tp5037
Rp5038
s(g171
S'action-3'
p5039
tp5040
g5
(g9
S'\xd4\xbd\x03\xf7\xc6I\x00\xc0'
p5041
tp5042
Rp5043
s(g33
S'action-1'
p5044
tp5045
g5
(g9
S'\xb7\xcfP\xf4!b\xf7?'
p5046
tp5047
Rp5048
s(g3342
S'action-4'
p5049
tp5050
g5
(g9
S'<\x19\x07\x08\x0b\x93\x02\xc0'
p5051
tp5052
Rp5053
s(S'diff-x-pos--112'
p5054
S'action-4'
p5055
tp5056
g5
(g9
S'\xda\xfd\xe1\xae^\x15\x11@'
p5057
tp5058
Rp5059
s(S'diff-x-pos-12'
p5060
S'action-1'
p5061
tp5062
g5
(g9
S'6r\xc6\xabU\x86\xe4?'
p5063
tp5064
Rp5065
s(g141
S'action-3'
p5066
tp5067
g5
(g9
S'\xdd\xd1\xf8\xdba\x1f\x04@'
p5068
tp5069
Rp5070
s(g1882
g15
tp5071
g5
(g9
S'|\xebA\xc7-\xa3\x00@'
p5072
tp5073
Rp5074
s(g3216
S'action-3'
p5075
tp5076
g5
(g9
S'\xe1\xf0\x1d\x94N|\x07\xc0'
p5077
tp5078
Rp5079
s(g2003
S'action-3'
p5080
tp5081
g5
(g9
S'\xc7M\x8d\xf9\x1c\x19\x0c\xc0'
p5082
tp5083
Rp5084
s(g1997
S'prev-action-1'
p5085
tp5086
g5
(g9
S'wra\x8c\xc0\x9e\xf6\xbf'
p5087
tp5088
Rp5089
s(g3294
g813
tp5090
g5
(g9
S'Z\xfa4r\x1f*\xe5\xbf'
p5091
tp5092
Rp5093
s(g1979
S'action-3'
p5094
tp5095
g5
(g9
S'A8\x04\xb1;\x14\x07@'
p5096
tp5097
Rp5098
s(g970
S'action-4'
p5099
tp5100
g5
(g9
S'j\xbdzWO/\x0c\xc0'
p5101
tp5102
Rp5103
s(S'action-1'
p5104
g4860
tp5105
g5
(g9
S'\xd1\x03\xd1\xe12$\xf6?'
p5106
tp5107
Rp5108
s(S'diff-x-pos--18'
p5109
S'action-1'
p5110
tp5111
g5
(g9
S'yw\xf4?\x9ac\xef\xbf'
p5112
tp5113
Rp5114
s(S'diff-x-pos--6'
p5115
S'prev-action-1'
p5116
tp5117
g5
(g9
S'\x15\x93\xab\xa5\xa0\xda\xe3\xbf'
p5118
tp5119
Rp5120
s(S'diff-x-pos--36'
p5121
S'action-3'
p5122
tp5123
g5
(g9
S"*O'\xe0]%\x02\xc0"
p5124
tp5125
Rp5126
s(S'diff-x-pos-53'
p5127
S'prev-action-3'
p5128
tp5129
g5
(g9
S'\xa2\xf9\n \xf4\xa0\xef\xbf'
p5130
tp5131
Rp5132
s(S'diff-x-pos--70'
p5133
S'action-3'
p5134
tp5135
g5
(g9
S"\xe2\xc2s'\x03\xb7\x04\xc0"
p5136
tp5137
Rp5138
s(g3278
S'action-4'
p5139
tp5140
g5
(g9
S'\xe9\xa7*a\xc8\x95\xbf\xbf'
p5141
tp5142
Rp5143
s(g2089
S'prev-action-1'
p5144
tp5145
g5
(g9
S'\x14\x1eH\xcf\xe7\x8d\xfa\xbf'
p5146
tp5147
Rp5148
s(g1188
S'action-3'
p5149
tp5150
g5
(g9
S'44\xff\xbb\xe9\x18\xf2\xbf'
p5151
tp5152
Rp5153
s(g4216
S'action-3'
p5154
tp5155
g5
(g9
S'\xfc\xa4\x85S\x80\xa5\xfa\xbf'
p5156
tp5157
Rp5158
sS'diff-y-pos--12'
p5159
g5
(g9
S'R;\xfa\xcc(]\xf9\xbf'
p5160
tp5161
Rp5162
s(S'diff-x-pos--1'
p5163
S'action-4'
p5164
tp5165
g5
(g9
S'U;\x04\xd0dU\xef\xbf'
p5166
tp5167
Rp5168
s(g3224
S'prev-action-4'
p5169
tp5170
g5
(g9
S'X\xa6\x11\xfa\xacc\xec?'
p5171
tp5172
Rp5173
s(S'diff-x-pos--17'
p5174
S'action-3'
p5175
tp5176
g5
(g9
S'^V=\xda\x07\xd4\xc1?'
p5177
tp5178
Rp5179
s(g3038
S'action-3'
p5180
tp5181
g5
(g9
S'\x1c!~"\xe51\xfd?'
p5182
tp5183
Rp5184
s(g2132
S'action-1'
p5185
tp5186
g5
(g9
S'Gz\xea9^\xa5\xfa?'
p5187
tp5188
Rp5189
s(g3376
S'prev-action-4'
p5190
tp5191
g5
(g9
S'|\x86D\xd3\x9e\xdf\xe6\xbf'
p5192
tp5193
Rp5194
s(S'diff-x-pos--2'
p5195
S'prev-action-1'
p5196
tp5197
g5
(g9
S'\xe9\x91\xfc3\xd3\xa8\xf0?'
p5198
tp5199
Rp5200
s(g4536
S'action-4'
p5201
tp5202
g5
(g9
S'f\xbd\xdf\tbH\r\xc0'
p5203
tp5204
Rp5205
s(g4419
S'action-4'
p5206
tp5207
g5
(g9
S'\x02Q\x11w\xaf\x1b\xe1?'
p5208
tp5209
Rp5210
s(S'object-1-dx--1'
p5211
g398
tp5212
g5
(g9
S'\x1cM\x9fg\x11\xc4\xe4\xbf'
p5213
tp5214
Rp5215
s(g3957
S'prev-action-3'
p5216
tp5217
g5
(g9
S'\xd8\x10SV}{\xfc\xbf'
p5218
tp5219
Rp5220
s(g3356
S'prev-action-4'
p5221
tp5222
g5
(g9
S'\xc2e\x18\xdf\x9d\x19\xf5\xbf'
p5223
tp5224
Rp5225
s(g2944
S'prev-action-3'
p5226
tp5227
g5
(g9
S'\xe6*\xf5&\xacT\xd0?'
p5228
tp5229
Rp5230
s(S'diff-x-pos--12'
p5231
S'prev-action-3'
p5232
tp5233
g5
(g9
S'\xa8\xd2\x0e\xc0Ch\xb1?'
p5234
tp5235
Rp5236
s(g2168
S'action-4'
p5237
tp5238
g5
(g9
S'\xd0\x87\x01\x07\xb8\xeb\xdd?'
p5239
tp5240
Rp5241
s(S'diff-x-pos-27'
p5242
S'action-3'
p5243
tp5244
g5
(g9
S'\xf91\xed,\xe5\x9c\xf7?'
p5245
tp5246
Rp5247
s(g2883
S'prev-action-1'
p5248
tp5249
g5
(g9
S'\xec\xfe\xe8\xf0\xa1\x98\xcf?'
p5250
tp5251
Rp5252
s(S'diff-x-pos--91'
p5253
S'prev-action-3'
p5254
tp5255
g5
(g9
S'/IJ\xc5\x11\x99\xf4\xbf'
p5256
tp5257
Rp5258
s(g762
S'action-1'
p5259
tp5260
g5
(g9
S'2W\xd3L-\xb6\xc9?'
p5261
tp5262
Rp5263
s(S'diff-x-pos--45'
p5264
S'prev-action-4'
p5265
tp5266
g5
(g9
S' \x99h\xbf\xb5\x13\xc6\xbf'
p5267
tp5268
Rp5269
s(g1912
S'prev-action-4'
p5270
tp5271
g5
(g9
S'8\x1e\x16\xe6I\xb7\xa5?'
p5272
tp5273
Rp5274
s(g1284
S'object-0-x-110.0'
p5275
tp5276
g5
(g9
S'\xc2B\xc4\xf57\x1d\xd6?'
p5277
tp5278
Rp5279
s(g1352
S'prev-action-4'
p5280
tp5281
g5
(g9
S'\r\xa4u\xe0r\xc0\xd6\xbf'
p5282
tp5283
Rp5284
s(S'diff-x-pos--10'
p5285
S'action-3'
p5286
tp5287
g5
(g9
S'\xd7m\x8a\xd6W]\xe6?'
p5288
tp5289
Rp5290
s(g4289
S'action-1'
p5291
tp5292
g5
(g9
S'@\xd9\x07\x98_N\xcb?'
p5293
tp5294
Rp5295
s(S'diff-x-pos--106'
p5296
S'prev-action-1'
p5297
tp5298
g5
(g9
S"'\xdc\x98\x95e\r\xf0\xbf"
p5299
tp5300
Rp5301
s(g3138
S'action-1'
p5302
tp5303
g5
(g9
S'\x88\x1b\xab!\xdfP\xd5?'
p5304
tp5305
Rp5306
s(S'diff-x-pos-34'
p5307
S'prev-action-3'
p5308
tp5309
g5
(g9
S'\x83\x82&j\x98\xea\xe8\xbf'
p5310
tp5311
Rp5312
s(g3950
S'action-3'
p5313
tp5314
g5
(g9
S'\t\x88\x9fYZ\xa5\xda\xbf'
p5315
tp5316
Rp5317
s(g5060
S'prev-action-4'
p5318
tp5319
g5
(g9
S'\xa8nv\xcc\xf5\x14\xa8\xbf'
p5320
tp5321
Rp5322
s(g4362
S'action-1'
p5323
tp5324
g5
(g9
S' \xc9\x8f\x89O\x89\x89\xbf'
p5325
tp5326
Rp5327
s(g962
S'action-4'
p5328
tp5329
g5
(g9
S'\xf8M\xc6J\xdd\xd7\xf5\xbf'
p5330
tp5331
Rp5332
s(S'diff-x-pos-39'
p5333
S'prev-action-4'
p5334
tp5335
g5
(g9
S")'%\xf8Ig\xfd\xbf"
p5336
tp5337
Rp5338
sS'object-1-dy-1'
p5339
g5
(g9
S'\xcc\xd5$\x97p\x1c\xb7\xbf'
p5340
tp5341
Rp5342
s(g2732
S'action-1'
p5343
tp5344
g5
(g9
S"\xa0@\xb8\x05'\xa4\xac?"
p5345
tp5346
Rp5347
s(g3301
g2687
tp5348
g5
(g9
S'h\x06[V\xfeg\xa8\xbf'
p5349
tp5350
Rp5351
s(S'diff-x-pos--53'
p5352
S'prev-action-1'
p5353
tp5354
g5
(g9
S'\x90\xe4I(_\x9a\xd6\xbf'
p5355
tp5356
Rp5357
s(g662
S'prev-action-1'
p5358
tp5359
g5
(g9
S'H=n\x1apo\xff\xbf'
p5360
tp5361
Rp5362
s(S'diff-x-pos-22'
p5363
S'prev-action-3'
p5364
tp5365
g5
(g9
S'\xa4\xa6\x08O\xb2\x96\xe2\xbf'
p5366
tp5367
Rp5368
s(S'diff-x-pos--66'
p5369
S'prev-action-4'
p5370
tp5371
g5
(g9
S'\x00r\x0cfZ\x8f\xc9?'
p5372
tp5373
Rp5374
s(S'diff-x-pos--57'
p5375
S'prev-action-4'
p5376
tp5377
g5
(g9
S'R\x05:\xf3\xb1G\xf5?'
p5378
tp5379
Rp5380
s(g2783
S'action-4'
p5381
tp5382
g5
(g9
S'\x035\xf2\xc0\x93H\xe4?'
p5383
tp5384
Rp5385
s(g742
S'prev-action-3'
p5386
tp5387
g5
(g9
S'\x00\x86\xc4\xe4\x01s\xf8?'
p5388
tp5389
Rp5390
s(S'diff-x-pos--14'
p5391
S'prev-action-3'
p5392
tp5393
g5
(g9
S'\xa5\x88_f\x1cz\xd7\xbf'
p5394
tp5395
Rp5396
s(g879
g4259
tp5397
g5
(g9
S'\xc2\xaf8\xbf\x8d\x8d\xeb?'
p5398
tp5399
Rp5400
sg171
g5
(g9
S'\t\xd3\x9b\x91\xbcJ\xe4?'
p5401
tp5402
Rp5403
s(S'diff-x-pos-46'
p5404
S'action-1'
p5405
tp5406
g5
(g9
S'@\x062;0\xbf\xe2?'
p5407
tp5408
Rp5409
s(S'diff-x-pos--54'
p5410
S'action-1'
p5411
tp5412
g5
(g9
S'\xfe+F\xaf\x8e\x84\xe3\xbf'
p5413
tp5414
Rp5415
s(g308
S'action-4'
p5416
tp5417
g5
(g9
S'\xca\xc6\xe3\x08\xf6h\xdd?'
p5418
tp5419
Rp5420
s(g3126
g2799
tp5421
g5
(g9
S'J\ny-\x7f/\x05\xc0'
p5422
tp5423
Rp5424
s(S'diff-x-pos--71'
p5425
S'prev-action-3'
p5426
tp5427
g5
(g9
S'\xf4\x93\x832\rm\xce?'
p5428
tp5429
Rp5430
s(g2654
S'prev-action-1'
p5431
tp5432
g5
(g9
S'l\x9d\xa5\x03\x9d\xf5\xe6\xbf'
p5433
tp5434
Rp5435
s(S'diff-x-pos--64'
p5436
S'action-4'
p5437
tp5438
g5
(g9
S'`Fr\xd1\t.\xf2?'
p5439
tp5440
Rp5441
s(g3250
S'action-1'
p5442
tp5443
g5
(g9
S'\xae\xe4*exf\xf1\xbf'
p5444
tp5445
Rp5446
sS'object-0-x-60.0'
p5447
g5
(g9
S'7\x14\x14\x9a\x86\x14\x0e@'
p5448
tp5449
Rp5450
s(S'diff-x-pos-0'
p5451
S'prev-action-1'
p5452
tp5453
g5
(g9
S'&\x85\xceV\xc6\x15\xcb?'
p5454
tp5455
Rp5456
s(g1903
S'action-1'
p5457
tp5458
g5
(g9
S'\xa9\xd5)\x10\xdc!\xec?'
p5459
tp5460
Rp5461
s(S'action-3'
p5462
S'object-0-x-130.0'
p5463
tp5464
g5
(g9
S'\xa8r\xb5\xf0\xf4R\xe8\xbf'
p5465
tp5466
Rp5467
s(S'diff-x-pos-10'
p5468
S'prev-action-1'
p5469
tp5470
g5
(g9
S'b\xfd\xce\xb7\xac\xf9\xfa?'
p5471
tp5472
Rp5473
s(S'diff-x-pos--20'
p5474
S'prev-action-3'
p5475
tp5476
g5
(g9
S'\x9f\xaa\xd4\x03i\xc9\xf5\xbf'
p5477
tp5478
Rp5479
s(S'diff-x-pos--62'
p5480
S'prev-action-4'
p5481
tp5482
g5
(g9
S'=\xa9\tmq\xfe\xea\xbf'
p5483
tp5484
Rp5485
s(S'diff-x-pos--100'
p5486
S'action-3'
p5487
tp5488
g5
(g9
S'\xb8\xa3Iy\x81R\xe6?'
p5489
tp5490
Rp5491
s(g4199
S'action-1'
p5492
tp5493
g5
(g9
S'p\x80\xb0#\xc9\x0e\xfd?'
p5494
tp5495
Rp5496
s(g4041
S'prev-action-4'
p5497
tp5498
g5
(g9
S'\x0bg\xe3\xd1\xf9\xe1\xe8\xbf'
p5499
tp5500
Rp5501
s(g2576
S'prev-action-3'
p5502
tp5503
g5
(g9
S'b\xcbg\x93\xbf\xbc\xca?'
p5504
tp5505
Rp5506
s(S'diff-x-pos-45'
p5507
S'action-4'
p5508
tp5509
g5
(g9
S'\x8a\xa9\x7f%\xcan\x08\xc0'
p5510
tp5511
Rp5512
s(S'diff-x-pos--82'
p5513
S'action-4'
p5514
tp5515
g5
(g9
S'\x82\x1f\xb5\xea\xf7\xaf\xfe?'
p5516
tp5517
Rp5518
s(S'diff-x-pos-28'
p5519
S'action-3'
p5520
tp5521
g5
(g9
S'\x97DL\xf7=t\xf3?'
p5522
tp5523
Rp5524
sS'diff-x-pos-68'
p5525
g5
(g9
S'`\x98)K2\xe0\xc2?'
p5526
tp5527
Rp5528
s(S'diff-x-pos-58'
p5529
S'prev-action-3'
p5530
tp5531
g5
(g9
S'p.\x8c\x00\xc1y\xc9\xbf'
p5532
tp5533
Rp5534
sg4906
g5
(g9
S'\xb8\xbfis\xc3\x1a\xf6\xbf'
p5535
tp5536
Rp5537
sS'diff-x-pos-61'
p5538
g5
(g9
S'B\xf4\x87\xd7q\xf5\xe8\xbf'
p5539
tp5540
Rp5541
sg1246
g5
(g9
S'DA\xb4\x86w\x11\xf1?'
p5542
tp5543
Rp5544
s(g2536
S'action-3'
p5545
tp5546
g5
(g9
S'&\xf8!\x9dU\x9c\xf4\xbf'
p5547
tp5548
Rp5549
s(S'diff-x-pos-1'
p5550
S'action-4'
p5551
tp5552
g5
(g9
S'\xacx\xaf\x9e:#\xe8\xbf'
p5553
tp5554
Rp5555
sg3851
g5
(g9
S':\x86t\xb4\x979\xe1\xbf'
p5556
tp5557
Rp5558
sg2241
g5
(g9
S'\x17E\xc8\x12\xfe1\x01\xc0'
p5559
tp5560
Rp5561
s(g2837
S'action-4'
p5562
tp5563
g5
(g9
S"\xfe\xbe\xe7'\xc5\x0e\x07@"
p5564
tp5565
Rp5566
s(g3629
S'action-3'
p5567
tp5568
g5
(g9
S'&\xaf\x8c\x95\xabl\x03@'
p5569
tp5570
Rp5571
s(S'diff-x-pos--115'
p5572
S'action-4'
p5573
tp5574
g5
(g9
S'\xcfli\xcc\xe9\xc5\x0f@'
p5575
tp5576
Rp5577
s(S'object-0-dx--1'
p5578
g1962
tp5579
g5
(g9
S'\xb7\x8aG\xdf\xc4\x04\xe6\xbf'
p5580
tp5581
Rp5582
s(g2488
S'action-1'
p5583
tp5584
g5
(g9
S'x;\xfd^\x15\xf8\xe6?'
p5585
tp5586
Rp5587
s(g2792
S'prev-action-1'
p5588
tp5589
g5
(g9
S'Nv\xcaF\xb2\xe6\xcf\xbf'
p5590
tp5591
Rp5592
s(g941
S'action-3'
p5593
tp5594
g5
(g9
S'\x18+\x06]\x9b\xd1\x05\xc0'
p5595
tp5596
Rp5597
s(g2754
S'prev-action-4'
p5598
tp5599
g5
(g9
S'vHE!\xbb\x7f\xb8\xbf'
p5600
tp5601
Rp5602
s(S'diff-x-pos--85'
p5603
S'action-1'
p5604
tp5605
g5
(g9
S'\x89N\x18\x12\xbak\x00@'
p5606
tp5607
Rp5608
s(S'diff-x-pos--72'
p5609
S'prev-action-4'
p5610
tp5611
g5
(g9
S'\xcc\xf2*I\xbf\x9b\xc0?'
p5612
tp5613
Rp5614
s(S'diff-x-pos--18'
p5615
S'prev-action-4'
p5616
tp5617
g5
(g9
S' Ij\xef\x15!\xfe\xbf'
p5618
tp5619
Rp5620
s(S'diff-x-pos--78'
p5621
S'prev-action-3'
p5622
tp5623
g5
(g9
S'\xa9\x9a\xa7\xe1\xe8\x82\xf6?'
p5624
tp5625
Rp5626
s(g2096
S'prev-action-3'
p5627
tp5628
g5
(g9
S'Z\xa1\x17\xa5\xa0\x88\xf0?'
p5629
tp5630
Rp5631
s(g2727
g326
tp5632
g5
(g9
S'ze\x94\xfd\xe5\x86\xff\xbf'
p5633
tp5634
Rp5635
s(S'diff-x-pos--43'
p5636
S'prev-action-3'
p5637
tp5638
g5
(g9
S'\xfa\xc0\x0e\xe2W0\xd1\xbf'
p5639
tp5640
Rp5641
s(S'diff-x-pos-7'
p5642
S'prev-action-1'
p5643
tp5644
g5
(g9
S'M\x1d#\x0ev\xa0\xc8?'
p5645
tp5646
Rp5647
s(S'diff-x-pos-60'
p5648
S'prev-action-1'
p5649
tp5650
g5
(g9
S'p=\x10\xcb\x0eS\xf5?'
p5651
tp5652
Rp5653
s(g1246
S'action-1'
p5654
tp5655
g5
(g9
S'Vd\xd0\x8c\xbay\xf5\xbf'
p5656
tp5657
Rp5658
s(S'diff-x-pos-37'
p5659
S'prev-action-4'
p5660
tp5661
g5
(g9
S'\xa7\xe0\x9e\xc5\xd6\xeb\xe4\xbf'
p5662
tp5663
Rp5664
s(g314
S'prev-action-1'
p5665
tp5666
g5
(g9
S'p\xbfH\x0b\xec\x82\xdd\xbf'
p5667
tp5668
Rp5669
s(S'diff-x-pos--25'
p5670
S'prev-action-3'
p5671
tp5672
g5
(g9
S'\xc6\x85\xe8\xf5\xd7\xbb\xfd\xbf'
p5673
tp5674
Rp5675
s(g1216
S'prev-action-3'
p5676
tp5677
g5
(g9
S'F\xe6\xb8\xca\x8e\xba\xcb?'
p5678
tp5679
Rp5680
s(g5621
S'action-3'
p5681
tp5682
g5
(g9
S'8\x0f\xc3%\xd15\xff\xbf'
p5683
tp5684
Rp5685
s(g3798
S'prev-action-1'
p5686
tp5687
g5
(g9
S'8\xa5(\xb1\x9eK\xc9?'
p5688
tp5689
Rp5690
s(S'diff-x-pos--60'
p5691
S'action-4'
p5692
tp5693
g5
(g9
S'*dyr\x00\x18\xfd?'
p5694
tp5695
Rp5696
s(S'diff-x-pos-31'
p5697
S'prev-action-3'
p5698
tp5699
g5
(g9
S'F\xf6\xc7;\xbfL\xd0\xbf'
p5700
tp5701
Rp5702
s(g3929
g4822
tp5703
g5
(g9
S'\xd8*\xe2{\x95s\x01\xc0'
p5704
tp5705
Rp5706
s(g2798
g3127
tp5707
g5
(g9
S'\xad\xb9\x17\xd8\x7fA\xe3?'
p5708
tp5709
Rp5710
s(g3774
S'action-3'
p5711
tp5712
g5
(g9
S'k\x14\x13-\xd8\xb7\xd9\xbf'
p5713
tp5714
Rp5715
s(g951
S'prev-action-4'
p5716
tp5717
g5
(g9
S'\xe5r\\\xa5\x98\x1c\xf3\xbf'
p5718
tp5719
Rp5720
s(S'diff-x-pos--67'
p5721
S'action-3'
p5722
tp5723
g5
(g9
S'\xf2(\x02\x19tZ\xf5\xbf'
p5724
tp5725
Rp5726
s(S'diff-x-pos--115'
p5727
S'prev-action-4'
p5728
tp5729
g5
(g9
S'\xf0\x19]\x88X\xc0\xa4?'
p5730
tp5731
Rp5732
s(S'diff-x-pos--15'
p5733
S'action-1'
p5734
tp5735
g5
(g9
S'@]:\x92g\xa4\x89\xbf'
p5736
tp5737
Rp5738
s(S'diff-x-pos-63'
p5739
S'action-4'
p5740
tp5741
g5
(g9
S'\x00z\x83_\x8a\x87z?'
p5742
tp5743
Rp5744
s(g2598
S'action-4'
p5745
tp5746
g5
(g9
S'\xe7\x995m\xf3G\xeb\xbf'
p5747
tp5748
Rp5749
s(g750
g2999
tp5750
g5
(g9
S'P\xe81\xff\x8d\xef\xdf?'
p5751
tp5752
Rp5753
sg4639
g5
(g9
S'\xa8\xce\xac\x18\xc6\xb0\xda\xbf'
p5754
tp5755
Rp5756
s(g2313
S'prev-action-3'
p5757
tp5758
g5
(g9
S'\x1c\n\x8b\xf99\xa3\xf6\xbf'
p5759
tp5760
Rp5761
s(g3868
g883
tp5762
g5
(g9
S'\xaa\xd1\x9b_3\x06\xf8\xbf'
p5763
tp5764
Rp5765
s(g5529
S'action-3'
p5766
tp5767
g5
(g9
S'js\x05+&E\xfe?'
p5768
tp5769
Rp5770
s(g219
S'action-3'
p5771
tp5772
g5
(g9
S'\xc1\x89U\x7fj\xcf\xf0\xbf'
p5773
tp5774
Rp5775
s(g1403
S'action-1'
p5776
tp5777
g5
(g9
S'2\xe1\xb6E\x0fI\xe4?'
p5778
tp5779
Rp5780
s(S'diff-x-pos-26'
p5781
S'action-1'
p5782
tp5783
g5
(g9
S'$\xd4\xf8\x83\xaa\xd7\xbf\xbf'
p5784
tp5785
Rp5786
s(g3851
S'prev-action-1'
p5787
tp5788
g5
(g9
S'\xffa\xb4\x17Nf\xd3\xbf'
p5789
tp5790
Rp5791
sg675
g5
(g9
S'\xdc\x94!\xa6\x81\xe4\xcb?'
p5792
tp5793
Rp5794
s(S'diff-x-pos--81'
p5795
S'action-3'
p5796
tp5797
g5
(g9
S'\xb09\xe36\x0eu\x16\xc0'
p5798
tp5799
Rp5800
s(g958
S'prev-action-4'
p5801
tp5802
g5
(g9
S'@\xd8k\x90G3\x96?'
p5803
tp5804
Rp5805
s(S'diff-x-pos-25'
p5806
S'prev-action-1'
p5807
tp5808
g5
(g9
S'\x12\xae\x11\xfe\xb2\xda\xc2\xbf'
p5809
tp5810
Rp5811
s(S'diff-x-pos--78'
p5812
S'action-4'
p5813
tp5814
g5
(g9
S'\xcf\x80\x96IE[\x00@'
p5815
tp5816
Rp5817
s(S'diff-x-pos--44'
p5818
S'prev-action-3'
p5819
tp5820
g5
(g9
S'\xda\xd2ZK\x0f\x93\xe6?'
p5821
tp5822
Rp5823
s(S'diff-x-pos--62'
p5824
S'action-4'
p5825
tp5826
g5
(g9
S'\x84-\x93\x04l;\x07@'
p5827
tp5828
Rp5829
s(g3346
S'prev-action-4'
p5830
tp5831
g5
(g9
S'\xaa\xd2\xe9\x8a\xebN\xdc\xbf'
p5832
tp5833
Rp5834
s(S'diff-x-pos--34'
p5835
S'action-1'
p5836
tp5837
g5
(g9
S'\x88`\x07\xa9\xb6\x7f\x9d?'
p5838
tp5839
Rp5840
s(S'diff-x-pos-59'
p5841
S'action-3'
p5842
tp5843
g5
(g9
S'\xfaA\xe1^\xe4\xd2\xf7?'
p5844
tp5845
Rp5846
s(g2230
S'action-3'
p5847
tp5848
g5
(g9
S'\x8a\xc6\xac\x85\x81P\x16@'
p5849
tp5850
Rp5851
s(S'diff-x-pos--117'
p5852
S'prev-action-3'
p5853
tp5854
g5
(g9
S'\x004\xd4\x00\xc5\xebE\xbf'
p5855
tp5856
Rp5857
s(g3356
S'action-4'
p5858
tp5859
g5
(g9
S'\x0ck\xb5[E\x0b\xed\xbf'
p5860
tp5861
Rp5862
s(g2471
g3071
tp5863
g5
(g9
S'~v\xd9\xc8\xb0\x18\xc3?'
p5864
tp5865
Rp5866
s(S'diff-x-pos--29'
p5867
S'prev-action-1'
p5868
tp5869
g5
(g9
S'~\xa8b\xb7\xf5\x94\xf9\xbf'
p5870
tp5871
Rp5872
s(S'diff-x-pos--118'
p5873
S'action-4'
p5874
tp5875
g5
(g9
S'\x88\nP^\xf1\x81\xf3?'
p5876
tp5877
Rp5878
s(S'diff-x-pos--117'
p5879
S'action-4'
p5880
tp5881
g5
(g9
S'"\x8d\xba\x89\xa6\x8b\x00@'
p5882
tp5883
Rp5884
s(S'diff-x-pos-5'
p5885
S'action-1'
p5886
tp5887
g5
(g9
S'|\xe7\n\x00\x81\x00\xb9?'
p5888
tp5889
Rp5890
s(S'diff-x-pos--101'
p5891
S'prev-action-4'
p5892
tp5893
g5
(g9
S'\x18}Q\xb4\x84\xcf\xb6?'
p5894
tp5895
Rp5896
s(S'diff-x-pos--30'
p5897
S'prev-action-0'
p5898
tp5899
g5
(g9
S'+2\x0c6oO\xf1\xbf'
p5900
tp5901
Rp5902
s(S'diff-x-pos--54'
p5903
S'prev-action-1'
p5904
tp5905
g5
(g9
S'%*\x84T#\x94\xdd\xbf'
p5906
tp5907
Rp5908
s(g5404
S'prev-action-1'
p5909
tp5910
g5
(g9
S'n\xe8\x96]%\xc9\xe1?'
p5911
tp5912
Rp5913
s(g5525
S'action-3'
p5914
tp5915
I1
s(S'diff-x-pos--84'
p5916
S'action-4'
p5917
tp5918
g5
(g9
S'\xf2\x06\xea9\xa1\x8f\xe8?'
p5919
tp5920
Rp5921
s(g2438
S'action-1'
p5922
tp5923
g5
(g9
S'\x11\xed\x07\xf8\x11E\xe6\xbf'
p5924
tp5925
Rp5926
s(S'diff-x-pos--113'
p5927
S'prev-action-4'
p5928
tp5929
g5
(g9
S'\xe07\x83\xef\x8fgY\xbf'
p5930
tp5931
Rp5932
s(S'diff-x-pos--103'
p5933
S'action-1'
p5934
tp5935
g5
(g9
S'j\x00\x96\xbc\x15\x9c\xe9\xbf'
p5936
tp5937
Rp5938
s(S'diff-x-pos--75'
p5939
S'action-3'
p5940
tp5941
g5
(g9
S'r*\xc2)R\xdc\xfd\xbf'
p5942
tp5943
Rp5944
s(g4799
S'action-3'
p5945
tp5946
g5
(g9
S'\x87\xeb\x96\xbf\xc3\x11\xcc?'
p5947
tp5948
Rp5949
s(g2120
S'prev-action-3'
p5950
tp5951
g5
(g9
S'\xfb\xa5I\xe5\xd6F\xf1\xbf'
p5952
tp5953
Rp5954
s(g4362
S'prev-action-3'
p5955
tp5956
g5
(g9
S'\xcd\x10\x1cZ\xf4K\xf4?'
p5957
tp5958
Rp5959
s(S'diff-x-pos--22'
p5960
S'prev-action-3'
p5961
tp5962
g5
(g9
S'\x00\x9b\xcb&\xb2\xfd\xca\xbf'
p5963
tp5964
Rp5965
s(g5363
S'action-3'
p5966
tp5967
g5
(g9
S'\xc0\xb7\x83\xe8\x8e\x12\xd6\xbf'
p5968
tp5969
Rp5970
s(g3363
S'action-4'
p5971
tp5972
g5
(g9
S'\xc8\x98\xa9\xb7\xa0\x12\x05\xc0'
p5973
tp5974
Rp5975
s(S'diff-x-pos--22'
p5976
S'action-4'
p5977
tp5978
g5
(g9
S'\xf5\xc2\xf1\xbf\x9e=\xfd?'
p5979
tp5980
Rp5981
s(S'diff-x-pos--39'
p5982
S'prev-action-0'
p5983
tp5984
g5
(g9
S'\xe8\x89\x94\x86\xe5\x05\xb8?'
p5985
tp5986
Rp5987
s(S'diff-x-pos--110'
p5988
S'action-1'
p5989
tp5990
g5
(g9
S'\xb4\xdbE\xda\x1aK\xd2?'
p5991
tp5992
Rp5993
sS'object-1-y-0.0'
p5994
g5
(g9
S'\x8fP&T\xb5\xf2\xf6\xbf'
p5995
tp5996
Rp5997
s(g984
S'prev-action-1'
p5998
tp5999
g5
(g9
S'\xfc\xb1\x90\xa5\xd0s\xc3\xbf'
p6000
tp6001
Rp6002
s(g5721
S'prev-action-4'
p6003
tp6004
g5
(g9
S"n\xe0'L\xe0J\xf7?"
p6005
tp6006
Rp6007
s(g947
g3641
tp6008
g5
(g9
S'Rf\x8e\t\xef\xe1\xe4\xbf'
p6009
tp6010
Rp6011
s(S'diff-x-pos--64'
p6012
S'prev-action-1'
p6013
tp6014
g5
(g9
S'*\xce\x0f\x99\xc1U\xea?'
p6015
tp6016
Rp6017
s(g1597
S'prev-action-3'
p6018
tp6019
g5
(g9
S'\x0bm\xfdC<\x05\xe5\xbf'
p6020
tp6021
Rp6022
s(g2
S'prev-action-3'
p6023
tp6024
g5
(g9
S'\x85\x1b\x90i\xb5\x9f\xe8\xbf'
p6025
tp6026
Rp6027
s(g3862
S'prev-action-3'
p6028
tp6029
g5
(g9
S'x\x818f}\x18\xef\xbf'
p6030
tp6031
Rp6032
s(S'diff-x-pos--84'
p6033
S'action-3'
p6034
tp6035
g5
(g9
S'\xdd\xe9\xde\x8c,(\xef\xbf'
p6036
tp6037
Rp6038
s(S'diff-x-pos-50'
p6039
S'prev-action-3'
p6040
tp6041
g5
(g9
S'\x7f\xf6\xac\xe87\x03\xcc?'
p6042
tp6043
Rp6044
s(g3986
S'action-4'
p6045
tp6046
g5
(g9
S'\xbdO4KH\x10\xed?'
p6047
tp6048
Rp6049
s(g742
S'action-4'
p6050
tp6051
g5
(g9
S'\xc1\xbc\xba\xc3G\xa7\xf0?'
p6052
tp6053
Rp6054
s(S'diff-x-pos-14'
p6055
S'prev-action-4'
p6056
tp6057
g5
(g9
S'\x82\xac\xe3\t\xcf\xbf\xe5\xbf'
p6058
tp6059
Rp6060
s(S'diff-x-pos--108'
p6061
S'prev-action-1'
p6062
tp6063
g5
(g9
S'\xc0\xc5\x97\x0e\xb3\x93\x8e?'
p6064
tp6065
Rp6066
s(S'diff-x-pos--48'
p6067
S'action-4'
p6068
tp6069
g5
(g9
S'\x0c\x84\xe5\x93{4\xdf\xbf'
p6070
tp6071
Rp6072
s(S'diff-x-pos-23'
p6073
S'action-3'
p6074
tp6075
g5
(g9
S'\xa6\xa5v[#D\x01@'
p6076
tp6077
Rp6078
s(S'diff-x-pos-6'
p6079
S'prev-action-3'
p6080
tp6081
g5
(g9
S'9\xdd\xdfMu\xcf\xe8\xbf'
p6082
tp6083
Rp6084
s(S'diff-x-pos--65'
p6085
S'prev-action-4'
p6086
tp6087
g5
(g9
S'eGs\x0c\xc8v\xef?'
p6088
tp6089
Rp6090
s(g1916
S'action-3'
p6091
tp6092
g5
(g9
S'\x9a\xb3\xa3\x15\xe3\x86\xc7\xbf'
p6093
tp6094
Rp6095
s(S'diff-x-pos--80'
p6096
S'prev-action-4'
p6097
tp6098
g5
(g9
S'6\x19<x\xa4\xa1\xc5?'
p6099
tp6100
Rp6101
s(S'diff-x-pos-19'
p6102
S'prev-action-4'
p6103
tp6104
g5
(g9
S'm\xda\xa4\xb62j\xec?'
p6105
tp6106
Rp6107
sg2894
g5
(g9
S'6\xbd\x01\x06\x8b\xb4\xbb\xbf'
p6108
tp6109
Rp6110
s(g5609
S'action-3'
p6111
tp6112
g5
(g9
S'\x12\xcf\xbd;rd\xd0\xbf'
p6113
tp6114
Rp6115
s(S'diff-x-pos-29'
p6116
S'action-4'
p6117
tp6118
g5
(g9
S'l!\xcf\xe2\xc3\xfd\n\xc0'
p6119
tp6120
Rp6121
s(S'diff-x-pos--79'
p6122
S'action-1'
p6123
tp6124
g5
(g9
S'\xef\xf9\x9c\x92.<\xf1?'
p6125
tp6126
Rp6127
s(g3182
S'prev-action-1'
p6128
tp6129
g5
(g9
S'`TD8\xd2\xae\xb0?'
p6130
tp6131
Rp6132
s(g779
S'prev-action-3'
p6133
tp6134
g5
(g9
S'tW\x84\x0c\xe8\x16\xb5?'
p6135
tp6136
Rp6137
s(S'diff-x-pos--12'
p6138
S'action-3'
p6139
tp6140
g5
(g9
S'\xf4@"\x04|:\xea\xbf'
p6141
tp6142
Rp6143
s(S'diff-x-pos-39'
p6144
S'action-3'
p6145
tp6146
g5
(g9
S'\x10$\xec\xe2}\xdd\x00@'
p6147
tp6148
Rp6149
s(g4452
S'prev-action-1'
p6150
tp6151
g5
(g9
S',)]\xec\x9f`\xe3?'
p6152
tp6153
Rp6154
s(g6138
S'prev-action-4'
p6155
tp6156
g5
(g9
S'\x80\x96?\xbc\x7f\x9b\x85?'
p6157
tp6158
Rp6159
s(g5133
S'prev-action-3'
p6160
tp6161
g5
(g9
S'd\x81o(e\xdd\xd4\xbf'
p6162
tp6163
Rp6164
s(S'diff-x-pos--119'
p6165
S'action-1'
p6166
tp6167
g5
(g9
S'\x902\xe0I\xc9\xfa\xf3?'
p6168
tp6169
Rp6170
s(g3957
S'action-3'
p6171
tp6172
g5
(g9
S'J\xeb\x18\x0fw_\xdb\xbf'
p6173
tp6174
Rp6175
s(S'diff-x-pos--47'
p6176
S'prev-action-4'
p6177
tp6178
g5
(g9
S'\xf0\x89n\xc3\x88\x13t?'
p6179
tp6180
Rp6181
s(g2172
S'action-3'
p6182
tp6183
g5
(g9
S'\x840\x19kP\x07\x01\xc0'
p6184
tp6185
Rp6186
s(g3168
S'prev-action-1'
p6187
tp6188
g5
(g9
S'tB4E%!\xee\xbf'
p6189
tp6190
Rp6191
s(S'diff-x-pos--86'
p6192
S'action-4'
p6193
tp6194
g5
(g9
S'X\xbc\x1ai\x1c\xaf\x03@'
p6195
tp6196
Rp6197
s(g1912
g421
tp6198
g5
(g9
S'\xb0\xaf\xefK\xb9\xb5\xf3\xbf'
p6199
tp6200
Rp6201
s(g2126
S'prev-action-3'
p6202
tp6203
g5
(g9
S'\x0c\xf1\xf3\xed\x12\xf6\xf4\xbf'
p6204
tp6205
Rp6206
s(S'diff-x-pos--45'
p6207
S'action-1'
p6208
tp6209
g5
(g9
S'\x80e\x1d\xf4l_\xa2\xbf'
p6210
tp6211
Rp6212
s(S'diff-x-pos--5'
p6213
S'prev-action-1'
p6214
tp6215
g5
(g9
S'\xe7\xba\xb0\xe1\\d\x04\xc0'
p6216
tp6217
Rp6218
s(g81
g1102
tp6219
g5
(g9
S'\xd8\x9b\xf5\xc7\x99y\xcc?'
p6220
tp6221
Rp6222
s(g1728
S'prev-action-3'
p6223
tp6224
g5
(g9
S'\x0e\xc68\x15\x0b\xab\xf9\xbf'
p6225
tp6226
Rp6227
s(S'diff-x-pos--20'
p6228
S'action-4'
p6229
tp6230
g5
(g9
S'\xbe\xceF\xce\x9c\x1e\xf5\xbf'
p6231
tp6232
Rp6233
s(g1716
S'prev-action-1'
p6234
tp6235
g5
(g9
S'\x85\x96\x9d\xbb\xa5[\xe7\xbf'
p6236
tp6237
Rp6238
s(g2052
S'action-4'
p6239
tp6240
g5
(g9
S'%\x96\x8e\x81\x95\xa2\x01@'
p6241
tp6242
Rp6243
s(g6067
S'prev-action-3'
p6244
tp6245
g5
(g9
S't^2\x13a/\xea?'
p6246
tp6247
Rp6248
s(S'diff-x-pos--12'
p6249
S'action-4'
p6250
tp6251
g5
(g9
S'2\xc7O\x01\x85?\xf1?'
p6252
tp6253
Rp6254
s(S'diff-x-pos-53'
p6255
S'action-3'
p6256
tp6257
g5
(g9
S'M\x93\xb9|6z\x0c@'
p6258
tp6259
Rp6260
s(g3346
S'action-4'
p6261
tp6262
g5
(g9
S'\xf0W\x1a^Y\xf0\xfd\xbf'
p6263
tp6264
Rp6265
s(S'diff-x-pos-49'
p6266
S'prev-action-1'
p6267
tp6268
g5
(g9
S'~\x9bL\xb1@\xa5\xf4\xbf'
p6269
tp6270
Rp6271
s(S'diff-x-pos--16'
p6272
S'prev-action-3'
p6273
tp6274
g5
(g9
S'd\x8c\x1f*[a\xbf\xbf'
p6275
tp6276
Rp6277
s(g1663
g1252
tp6278
g5
(g9
S'\x98\xf4@\xf8\xea\xb5\xdd\xbf'
p6279
tp6280
Rp6281
s(g3216
S'prev-action-3'
p6282
tp6283
g5
(g9
S'\xcf\xf4m\xb5\xfd\x16\xf4?'
p6284
tp6285
Rp6286
s(S'diff-x-pos-32'
p6287
S'action-3'
p6288
tp6289
g5
(g9
S'3 !\xb1?\xe6\x13@'
p6290
tp6291
Rp6292
s(S'diff-x-pos-62'
p6293
S'action-3'
p6294
tp6295
g5
(g9
S'\x80~\xce\xc3\xd5\xb5\xea?'
p6296
tp6297
Rp6298
s(g879
g5099
tp6299
g5
(g9
S'"\xa5\x00Jf\x81\xe6\xbf'
p6300
tp6301
Rp6302
s(g947
g831
tp6303
g5
(g9
S'L\x9fY\xd6\x95U\xf3?'
p6304
tp6305
Rp6306
s(g1131
S'prev-action-4'
p6307
tp6308
g5
(g9
S'\x16\xe6\x8f\x12\xbd\xd2\xf7?'
p6309
tp6310
Rp6311
s(S'diff-x-pos-16'
p6312
S'action-3'
p6313
tp6314
g5
(g9
S'\xf1\xa4\x0e\xed\xac\r\x00@'
p6315
tp6316
Rp6317
s(g579
S'prev-action-4'
p6318
tp6319
g5
(g9
S'23.\xa5N\xa1\xf4\xbf'
p6320
tp6321
Rp6322
s(g5163
S'prev-action-4'
p6323
tp6324
g5
(g9
S' \x1d\x9e\x93!\xce\xa9?'
p6325
tp6326
Rp6327
s(S'diff-x-pos--102'
p6328
S'action-3'
p6329
tp6330
g5
(g9
S'\x15V\xf1*\xb5\x98\x0b\xc0'
p6331
tp6332
Rp6333
s(S'diff-x-pos--111'
p6334
S'prev-action-1'
p6335
tp6336
g5
(g9
S'\xac\x17e\x1b\x1eM\x94\xbf'
p6337
tp6338
Rp6339
s(g746
g3081
tp6340
g5
(g9
S'/\xfa{\xcd\x16\x19\xfa?'
p6341
tp6342
Rp6343
s(S'diff-x-pos--99'
p6344
S'action-1'
p6345
tp6346
g5
(g9
S'\xc0\x8a\xe4\x0e\xb9\x0e\xa6?'
p6347
tp6348
Rp6349
sS'diff-y-pos--5'
p6350
g5
(g9
S'\xf9\xc7\xdcV\x9bY\xf7\xbf'
p6351
tp6352
Rp6353
s(g4035
S'prev-action-3'
p6354
tp6355
g5
(g9
S'E9\xc8\xd2\xf9l\xb3\xbf'
p6356
tp6357
Rp6358
s(g2151
S'prev-action-4'
p6359
tp6360
g5
(g9
S'\xd6>\x81K-\xcc\xf2\xbf'
p6361
tp6362
Rp6363
s(g3975
S'object-0-x-110.0'
p6364
tp6365
g5
(g9
S'\xfa\xc4\t\x84\x07\xc7\xe4\xbf'
p6366
tp6367
Rp6368
s(S'diff-x-pos-8'
p6369
S'action-1'
p6370
tp6371
g5
(g9
S's\x1d\xa8\x04u\xa0\xd5?'
p6372
tp6373
Rp6374
sg5621
g5
(g9
S'3\x0e\xcc\x8e!\xc3\xbe?'
p6375
tp6376
Rp6377
sg165
g5
(g9
S'\xaa\x9b\x91g#\xd8\xf6?'
p6378
tp6379
Rp6380
sg489
g5
(g9
S'>\xf6\xec\x10\xeb\xb6\xd9?'
p6381
tp6382
Rp6383
sg2172
g5
(g9
S'\x9e\x93aA\xe8\xeb\xe9?'
p6384
tp6385
Rp6386
sg5133
g5
(g9
S"L\x7f&?\t'\xf8\xbf"
p6387
tp6388
Rp6389
sg5425
g5
(g9
S'\x8eq\x95\x8f\xbeF\xd4?'
p6390
tp6391
Rp6392
sg1663
g5
(g9
S'2\x16\x88V:>\xb7\xbf'
p6393
tp6394
Rp6395
s(S'diff-x-pos--57'
p6396
S'prev-action-3'
p6397
tp6398
g5
(g9
S'\xe8\x00\xde\x94\xca\xa6\xda?'
p6399
tp6400
Rp6401
s(S'diff-x-pos--111'
p6402
S'action-3'
p6403
tp6404
g5
(g9
S'\x86\x86\xaa\x90\xd5\t\xed\xbf'
p6405
tp6406
Rp6407
sg361
g5
(g9
S'\xdcf\x8c\xb0\xea\xb1\xe1\xbf'
p6408
tp6409
Rp6410
s(S'diff-x-pos--108'
p6411
S'action-1'
p6412
tp6413
g5
(g9
S'F\xafqq|\xc5\xd4\xbf'
p6414
tp6415
Rp6416
s(g6312
S'prev-action-1'
p6417
tp6418
g5
(g9
S'\xb0\xc4L\xe0\xb8\xa6\x01@'
p6419
tp6420
Rp6421
s(g2692
S'prev-action-4'
p6422
tp6423
g5
(g9
S'@E]\xac+\xa9\xb2\xbf'
p6424
tp6425
Rp6426
s(g1289
S'object-0-x-80.0'
p6427
tp6428
g5
(g9
S'\x1f\xa7\xa7e\x9d\xe7\xf5?'
p6429
tp6430
Rp6431
s(g3172
S'prev-action-1'
p6432
tp6433
g5
(g9
S'h\x16o5\x04(\xd4\xbf'
p6434
tp6435
Rp6436
s(g2710
S'prev-action-1'
p6437
tp6438
g5
(g9
S'\xc6s\xe6\x1a\x02\x1a\xfe?'
p6439
tp6440
Rp6441
s(S'diff-x-pos--87'
p6442
S'action-1'
p6443
tp6444
g5
(g9
S'\xec\x0c?\xd1%q\xe1\xbf'
p6445
tp6446
Rp6447
s(S'diff-x-pos--40'
p6448
S'prev-action-4'
p6449
tp6450
g5
(g9
S'\xd4\xd2|\xef\xcd\xf3\xb2\xbf'
p6451
tp6452
Rp6453
s(g732
g4693
tp6454
g5
(g9
S'"\x96&/H\xab\xf2?'
p6455
tp6456
Rp6457
s(g1882
S'prev-action-3'
p6458
tp6459
g5
(g9
S'{\xd2\xd6\x93\xc6\x13\xe1\xbf'
p6460
tp6461
Rp6462
sg76
g5
(g9
S'\x0f\t\xed\x83\xdd\xa2\xeb?'
p6463
tp6464
Rp6465
s(g3120
S'action-4'
p6466
tp6467
g5
(g9
S'5t\x98P\xf7h\x00\xc0'
p6468
tp6469
Rp6470
s(g2894
g2471
tp6471
g5
(g9
S'"{\x12\xa1e"\xdd\xbf'
p6472
tp6473
Rp6474
s(g1307
S'prev-action-4'
p6475
tp6476
g5
(g9
S'\xc5\xfd\xde\xe9\x16y\xd9?'
p6477
tp6478
Rp6479
s(S'diff-x-pos-20'
p6480
S'action-4'
p6481
tp6482
g5
(g9
S'F\x99\xbe\xe4\x88\xb9\x04\xc0'
p6483
tp6484
Rp6485
s(g4828
S'action-4'
p6486
tp6487
g5
(g9
S'\xfd@\xe3\x1e\xa9\x9c\t\xc0'
p6488
tp6489
Rp6490
s(g6192
S'prev-action-4'
p6491
tp6492
g5
(g9
S'd\xa3\x1dZR\x9c\xd0\xbf'
p6493
tp6494
Rp6495
s(g1443
S'prev-action-1'
p6496
tp6497
g5
(g9
S'R&\xfc\xb2;s\xea\xbf'
p6498
tp6499
Rp6500
s(g758
S'prev-action-3'
p6501
tp6502
g5
(g9
S'p\xf6l\xbbe\x17\xa6?'
p6503
tp6504
Rp6505
s(S'diff-x-pos--29'
p6506
S'action-4'
p6507
tp6508
g5
(g9
S'\x17F;\x12\xacs\xd6?'
p6509
tp6510
Rp6511
s(S'diff-x-pos--74'
p6512
S'action-4'
p6513
tp6514
g5
(g9
S'\x1e\x94\xa4x\xe7\xda\xf0?'
p6515
tp6516
Rp6517
s(g1431
S'prev-action-1'
p6518
tp6519
g5
(g9
S'\xb2\xdb\xde\xe6j\xd2\xf1?'
p6520
tp6521
Rp6522
sS'diff-y-pos--6'
p6523
g5
(g9
S'z\x83x{\xe2\x8b\xff?'
p6524
tp6525
Rp6526
s(S'diff-x-pos--105'
p6527
S'action-3'
p6528
tp6529
g5
(g9
S'\x95K\xa6\xc0\x89\xb8\xff\xbf'
p6530
tp6531
Rp6532
s(g3010
S'action-1'
p6533
tp6534
g5
(g9
S'\x82\xe1h\xe9;\xaf\xfe\xbf'
p6535
tp6536
Rp6537
s(g771
S'action-1'
p6538
tp6539
g5
(g9
S'\xa5U\x93dY/\x03@'
p6540
tp6541
Rp6542
s(g1391
S'action-3'
p6543
tp6544
g5
(g9
S'B\x1d\t(\x88\xfb\xfe?'
p6545
tp6546
Rp6547
s(S'diff-x-pos--103'
p6548
S'prev-action-1'
p6549
tp6550
g5
(g9
S'\x02eaxaY\xe5?'
p6551
tp6552
Rp6553
s(S'diff-x-pos--121'
p6554
S'action-3'
p6555
tp6556
g5
(g9
S'\x8c\xb8\xcc`\x02\xac\xeb\xbf'
p6557
tp6558
Rp6559
s(S'diff-x-pos--113'
p6560
S'action-4'
p6561
tp6562
g5
(g9
S'\xdb\xe4\xaf_\xe4\x02\x01@'
p6563
tp6564
Rp6565
s(g1037
S'prev-action-3'
p6566
tp6567
g5
(g9
S'\r\xa4q\x8d\xbf\x1b\xe2\xbf'
p6568
tp6569
Rp6570
s(S'diff-x-pos-13'
p6571
S'action-3'
p6572
tp6573
g5
(g9
S'\xb0B~\x1c\x12\x19\xd4?'
p6574
tp6575
Rp6576
s(g2987
S'prev-action-1'
p6577
tp6578
g5
(g9
S'\x8a\xa4\xa0[\xa4C\xee?'
p6579
tp6580
Rp6581
s(g326
g545
tp6582
g5
(g9
S'E\xc0\x96~N`\xe0?'
p6583
tp6584
Rp6585
s(S'diff-x-pos-31'
p6586
S'prev-action-1'
p6587
tp6588
g5
(g9
S'\x9d\xfbTl`\xa2\xe9?'
p6589
tp6590
Rp6591
s(g585
g326
tp6592
g5
(g9
S'\xd5\x9ac\x85{\xf0\x06@'
p6593
tp6594
Rp6595
s(g5550
S'prev-action-1'
p6596
tp6597
g5
(g9
S'(\xd5\x93\xce"9\xf1?'
p6598
tp6599
Rp6600
s(g1330
S'action-1'
p6601
tp6602
g5
(g9
S'\xc8\x8a\xb3\x05(\xb8\xd5\xbf'
p6603
tp6604
Rp6605
s(g5885
S'prev-action-1'
p6606
tp6607
g5
(g9
S'\x87\xd8\x9a\xe5\xab\x9c\xd3?'
p6608
tp6609
Rp6610
s(g21
S'prev-action-4'
p6611
tp6612
g5
(g9
S'\x14c\xf3\xfc\x99-\xda?'
p6613
tp6614
Rp6615
s(g4139
g674
tp6616
g5
(g9
S'E\xc7\x13\x94\x1a\xc3\xc7\xbf'
p6617
tp6618
Rp6619
s(g2747
S'action-3'
p6620
tp6621
g5
(g9
S'\x1e~x\x9aQg\xdd\xbf'
p6622
tp6623
Rp6624
s(g1527
S'action-1'
p6625
tp6626
g5
(g9
S"g\x12\x16>\xaa'\xf6\xbf"
p6627
tp6628
Rp6629
s(g4378
S'prev-action-4'
p6630
tp6631
g5
(g9
S'\x06l\x07z\x88\xb8\xcb\xbf'
p6632
tp6633
Rp6634
sS'object-0-dy--1'
p6635
g5
(g9
S'4\x13\n\xae\x02?\xe5\xbf'
p6636
tp6637
Rp6638
s(S'diff-x-pos--19'
p6639
S'action-3'
p6640
tp6641
g5
(g9
S'\x10\xbc\x8e\xddg\x9f\xa9?'
p6642
tp6643
Rp6644
s(S'diff-x-pos-41'
p6645
S'prev-action-3'
p6646
tp6647
g5
(g9
S'%G\xbb\xa7\x92\xd6\xfc?'
p6648
tp6649
Rp6650
s(g1781
S'action-4'
p6651
tp6652
g5
(g9
S'\xb4\xb9,\xd9\x90\x17\xf8?'
p6653
tp6654
Rp6655
s(g165
S'prev-action-3'
p6656
tp6657
g5
(g9
S'\xa2\xa4\xa5d\x7fO\xf4?'
p6658
tp6659
Rp6660
s(S'diff-x-pos-51'
p6661
S'prev-action-4'
p6662
tp6663
g5
(g9
S'\xd40\xe1\x91\xfa\x12\xed\xbf'
p6664
tp6665
Rp6666
s(g489
S'action-4'
p6667
tp6668
g5
(g9
S'(|\x0f@\x83/\xfa?'
p6669
tp6670
Rp6671
s(g5812
S'prev-action-4'
p6672
tp6673
g5
(g9
S'\xa0)\xa6\xe4(5\xd6\xbf'
p6674
tp6675
Rp6676
s(g2079
S'action-4'
p6677
tp6678
g5
(g9
S'\xd4\x9e\x92d\xb2\xc6\xf1\xbf'
p6679
tp6680
Rp6681
s(S'diff-x-pos-15'
p6682
S'action-4'
p6683
tp6684
g5
(g9
S'\xa2\x13Z\xe4d]\xf6\xbf'
p6685
tp6686
Rp6687
s(g2716
S'prev-action-4'
p6688
tp6689
g5
(g9
S'\xb6\xdd\x8f\xea\xef\xb4\xc8\xbf'
p6690
tp6691
Rp6692
s(g1722
S'action-1'
p6693
tp6694
g5
(g9
S':\x8a\x9c\x10\x1b]\xf0\xbf'
p6695
tp6696
Rp6697
s(S'diff-x-pos--11'
p6698
S'prev-action-3'
p6699
tp6700
g5
(g9
S'\x15\x10\xfb\x0f(\xba\xe9\xbf'
p6701
tp6702
Rp6703
s(g2116
S'prev-action-4'
p6704
tp6705
g5
(g9
S'\xb8j`\x1d\x05\xe3\xe8\xbf'
p6706
tp6707
Rp6708
s(S'diff-x-pos--121'
p6709
S'action-4'
p6710
tp6711
g5
(g9
S'\x87\xff\x9277\xb9\xe8?'
p6712
tp6713
Rp6714
s(g1686
S'action-1'
p6715
tp6716
g5
(g9
S'@y\xa4\xb2<\xee\xce\xbf'
p6717
tp6718
Rp6719
sg4694
g5
(g9
S'fP\tY\xf1\x87\x0b@'
p6720
tp6721
Rp6722
s(S'diff-x-pos--84'
p6723
S'prev-action-1'
p6724
tp6725
g5
(g9
S'\x98\x90\x9c\xb6Cu\xe5?'
p6726
tp6727
Rp6728
s(g4881
S'object-0-x-70.0'
p6729
tp6730
g5
(g9
S'\xa4Y\x13"\x82\xc3\xe4?'
p6731
tp6732
Rp6733
s(S'diff-x-pos--29'
p6734
S'prev-action-4'
p6735
tp6736
g5
(g9
S'0\t\x0cG\x10\xd8\xbf\xbf'
p6737
tp6738
Rp6739
s(S'diff-x-pos--94'
p6740
S'action-4'
p6741
tp6742
g5
(g9
S'|-E\n} \n@'
p6743
tp6744
Rp6745
s(g5538
S'action-1'
p6746
tp6747
g5
(g9
S'\x9bm.\xb7\xc5\xca\xe2\xbf'
p6748
tp6749
Rp6750
s(g207
g5447
tp6751
g5
(g9
S'%Xx\xd0\xda\xa3\xd1?'
p6752
tp6753
Rp6754
s(g1467
S'prev-action-4'
p6755
tp6756
g5
(g9
S'03\xd4\x06\x19\x9b\xe3?'
p6757
tp6758
Rp6759
s(g2620
S'action-3'
p6760
tp6761
g5
(g9
S'o\xed\x7f\xc5+\x13\xf4?'
p6762
tp6763
Rp6764
s(S'diff-x-pos-6'
p6765
S'action-3'
p6766
tp6767
g5
(g9
S'z,\x0e\x0c\xff\x86\xf6?'
p6768
tp6769
Rp6770
s(S'diff-x-pos--50'
p6771
S'action-3'
p6772
tp6773
g5
(g9
S'\xfa!\x7f\x82x\x9b\x00\xc0'
p6774
tp6775
Rp6776
s(g1569
g842
tp6777
g5
(g9
S'n\xc9\x9c\x0e\x14\x8d\xe1?'
p6778
tp6779
Rp6780
s(S'diff-x-pos--67'
p6781
S'action-1'
p6782
tp6783
g5
(g9
S'\xd0S\xb5\\\x1f\x94\xf6\xbf'
p6784
tp6785
Rp6786
s(g93
S'action-3'
p6787
tp6788
g5
(g9
S'p\xce\xc8\x92P5\xd9?'
p6789
tp6790
Rp6791
s(S'diff-x-pos--66'
p6792
S'prev-action-1'
p6793
tp6794
g5
(g9
S'~sKY\xc9\xe8\xf1?'
p6795
tp6796
Rp6797
s(g4542
S'object-0-x-50.0'
p6798
tp6799
g5
(g9
S'\x04\xd9Z`\xedY\t@'
p6800
tp6801
Rp6802
s(S'diff-x-pos-56'
p6803
S'action-4'
p6804
tp6805
g5
(g9
S'\x98)\xad.L\x92\xa3\xbf'
p6806
tp6807
Rp6808
s(g361
S'prev-action-1'
p6809
tp6810
g5
(g9
S'\x80\x19$\x06_i\xb8?'
p6811
tp6812
Rp6813
s(S'diff-x-pos--43'
p6814
S'action-3'
p6815
tp6816
g5
(g9
S'\x16f\xcd\xee\x10C\xe3\xbf'
p6817
tp6818
Rp6819
s(S'diff-x-pos-11'
p6820
S'prev-action-3'
p6821
tp6822
g5
(g9
S'\xf8\xab):\xec|\xf6?'
p6823
tp6824
Rp6825
s(g5525
S'prev-action-1'
p6826
tp6827
I0
s(S'diff-x-pos--11'
p6828
S'action-1'
p6829
tp6830
g5
(g9
S'V-\x9a8\x81\r\xe9\xbf'
p6831
tp6832
Rp6833
s(g75
g692
tp6834
g5
(g9
S'\xc9\x99q@"\x99\xf4?'
p6835
tp6836
Rp6837
s(g2648
S'prev-action-4'
p6838
tp6839
g5
(g9
S'\xf4k\xf4&\x11\xa8\xd6?'
p6840
tp6841
Rp6842
s(S'diff-x-pos--42'
p6843
S'prev-action-1'
p6844
tp6845
g5
(g9
S'\xd0\x91lO\xad\xaa\xbf\xbf'
p6846
tp6847
Rp6848
s(g2632
S'action-1'
p6849
tp6850
g5
(g9
S'|\x1fg\xec\xba\x8e\xd2\xbf'
p6851
tp6852
Rp6853
s(g5425
S'action-4'
p6854
tp6855
g5
(g9
S'\x11Z\xb3&\xe42\x02@'
p6856
tp6857
Rp6858
s(g984
S'action-4'
p6859
tp6860
g5
(g9
S'\xa0W\xeeZuw\x86?'
p6861
tp6862
Rp6863
s(g1455
S'action-4'
p6864
tp6865
g5
(g9
S'L\x0e\xfe\xc5}P\xf2\xbf'
p6866
tp6867
Rp6868
s(S'diff-x-pos--92'
p6869
S'action-3'
p6870
tp6871
g5
(g9
S'\x1d\xf4\xb3\x87i\xfb\xef\xbf'
p6872
tp6873
Rp6874
s(S'action-3'
p6875
S'prev-action-3'
p6876
tp6877
g5
(g9
S'\x02x\x91\xcd\xdd\xda\xf8?'
p6878
tp6879
Rp6880
s(g6548
S'action-4'
p6881
tp6882
g5
(g9
S'j";\xeagX\xf8?'
p6883
tp6884
Rp6885
s(S'diff-x-pos-65'
p6886
S'action-3'
p6887
tp6888
g5
(g9
S'g\xcf\x01\xc3\x88\x8a\xc6?'
p6889
tp6890
Rp6891
s(S'diff-x-pos-28'
p6892
S'prev-action-3'
p6893
tp6894
g5
(g9
S'@2S\xcd\xe1\xe0\xd1?'
p6895
tp6896
Rp6897
s(S'diff-x-pos-56'
p6898
S'prev-action-3'
p6899
tp6900
g5
(g9
S'\xa6\x7f\xa5\x91\xbe\xf1\x03@'
p6901
tp6902
Rp6903
s(g6073
S'prev-action-1'
p6904
tp6905
g5
(g9
S'\xf8\xdeB\x11fB\xca\xbf'
p6906
tp6907
Rp6908
s(S'diff-x-pos--69'
p6909
S'action-1'
p6910
tp6911
g5
(g9
S'\xe3I\x97\x15\xa2<\xea\xbf'
p6912
tp6913
Rp6914
s(g1385
S'prev-action-1'
p6915
tp6916
g5
(g9
S'6\xd1\xe2\xb3\xa7?\xd1\xbf'
p6917
tp6918
Rp6919
s(g1368
S'prev-action-3'
p6920
tp6921
g5
(g9
S'\x84\xab\x9d\xd8\xa4S\xf5?'
p6922
tp6923
Rp6924
sg5404
g5
(g9
S'6\x93p3&\xf6\xcb?'
p6925
tp6926
Rp6927
s(g4479
S'action-1'
p6928
tp6929
g5
(g9
S'X\xac\xb3\x0b?\xa5\xf7\xbf'
p6930
tp6931
Rp6932
s(g4473
S'action-3'
p6933
tp6934
g5
(g9
S'\x0e5\xa9\x8d\xb6\xc2\xf5\xbf'
p6935
tp6936
Rp6937
s(S'object-0-dx--1'
p6938
S'action-3'
p6939
tp6940
g5
(g9
S'\xc8\x11\xce\x83\x83\x0b\x07\xc0'
p6941
tp6942
Rp6943
s(g4881
S'object-1-x-60.0'
p6944
tp6945
g5
(g9
S'p>M\x11t\xbb\xcb?'
p6946
tp6947
Rp6948
s(g5468
S'action-1'
p6949
tp6950
g5
(g9
S'h\xe21\x86\x99\x89\xf5\xbf'
p6951
tp6952
Rp6953
s(S'diff-x-pos--15'
p6954
S'prev-action-3'
p6955
tp6956
g5
(g9
S'\xf1\x134\x01\xfcH\xec\xbf'
p6957
tp6958
Rp6959
s(g6781
S'prev-action-1'
p6960
tp6961
g5
(g9
S'\xfa\x91e\xbdp\xc9\xfd\xbf'
p6962
tp6963
Rp6964
s(S'diff-x-pos--55'
p6965
S'action-3'
p6966
tp6967
g5
(g9
S'W\xe9[r\x0c\xf4\x06\xc0'
p6968
tp6969
Rp6970
s(g5538
S'prev-action-4'
p6971
tp6972
g5
(g9
S'\xb8\x08\x0bp&<\xc5?'
p6973
tp6974
Rp6975
s(S'diff-x-pos--118'
p6976
S'prev-action-1'
p6977
tp6978
g5
(g9
S'\xcbs\xae\xef\xba_\xde?'
p6979
tp6980
Rp6981
s(g2106
S'action-4'
p6982
tp6983
g5
(g9
S'D\xdd?2\xd1\xc8\xcc\xbf'
p6984
tp6985
Rp6986
s(g2482
g1043
tp6987
g5
(g9
S'\x10\x90\xfc\xb5Hl\xe0\xbf'
p6988
tp6989
Rp6990
s(g2040
S'prev-action-4'
p6991
tp6992
g5
(g9
S'n\xc1\x1d\xec\xb6]\xe1\xbf'
p6993
tp6994
Rp6995
s(S'object-0-dx--1'
p6996
S'action-1'
p6997
tp6998
g5
(g9
S'RN\xec=Co\xda?'
p6999
tp7000
Rp7001
s(g1890
S'prev-action-1'
p7002
tp7003
g5
(g9
S'\xd0ZvS\xc6p\xb0?'
p7004
tp7005
Rp7006
s(S'diff-x-pos--107'
p7007
S'action-1'
p7008
tp7009
g5
(g9
S'\xfe\xa3\xa0*\x11I\xd4?'
p7010
tp7011
Rp7012
s(g4530
S'action-3'
p7013
tp7014
g5
(g9
S'\x9e\xe4\xfc\xe7M\x83\xf4\xbf'
p7015
tp7016
Rp7017
s(g4410
S'action-3'
p7018
tp7019
g5
(g9
S',\xda\xf9;z4\x06\xc0'
p7020
tp7021
Rp7022
s(S'diff-x-pos--30'
p7023
S'prev-action-4'
p7024
tp7025
g5
(g9
S'.[\xff\x00\x85}\xf6?'
p7026
tp7027
Rp7028
sg1443
g5
(g9
S'\xcd\xd7\x95\xacR\x06\xb9\xbf'
p7029
tp7030
Rp7031
s(S'diff-x-pos-31'
p7032
S'action-1'
p7033
tp7034
g5
(g9
S'\xc3\xb61`L4\xee?'
p7035
tp7036
Rp7037
s(g3044
S'prev-action-1'
p7038
tp7039
g5
(g9
S'\xee\xc6\x95\x89\xe4\x17\xe8?'
p7040
tp7041
Rp7042
s(S'diff-x-pos--63'
p7043
S'action-4'
p7044
tp7045
g5
(g9
S']\xe8o\xc3\x88V\xf7?'
p7046
tp7047
Rp7048
s(g2132
S'prev-action-4'
p7049
tp7050
g5
(g9
S'@\x16\xee\x11N\xba\xa0?'
p7051
tp7052
Rp7053
s(g697
S'object-1-x-80.0'
p7054
tp7055
g5
(g9
S'H\xc8\x88\x18Dt\xc6?'
p7056
tp7057
Rp7058
s(S'action-3'
p7059
S'object-0-x-120.0'
p7060
tp7061
g5
(g9
S'@O\x0f\xceRB\xfa\xbf'
p7062
tp7063
Rp7064
s(g2783
S'prev-action-4'
p7065
tp7066
g5
(g9
S'2\xd6Os\x97\xab\xf1?'
p7067
tp7068
Rp7069
s(g762
S'prev-action-4'
p7070
tp7071
g5
(g9
S'\x00<\xb8\xf2r\x98\x95?'
p7072
tp7073
Rp7074
sg1951
g5
(g9
S':7\xdfV/+\x13@'
p7075
tp7076
Rp7077
s(g5642
S'action-3'
p7078
tp7079
g5
(g9
S'X\xaa\xe0\xb1\x1dR\xf4?'
p7080
tp7081
Rp7082
s(g2241
S'prev-action-1'
p7083
tp7084
g5
(g9
S'\x1a\xce\x97\x8e\xe1\x18\xed\xbf'
p7085
tp7086
Rp7087
s(S'diff-x-pos-26'
p7088
S'prev-action-3'
p7089
tp7090
g5
(g9
S'\xc1\x1a6\t\xcd\x8f\xdb?'
p7091
tp7092
Rp7093
s(g3751
S'prev-action-1'
p7094
tp7095
g5
(g9
S'\xb6\x1e\x07\r\x0bj\xce\xbf'
p7096
tp7097
Rp7098
s(g4629
S'action-3'
p7099
tp7100
g5
(g9
S'\x0e\x0cY\x93=\x06\xf7\xbf'
p7101
tp7102
Rp7103
s(S'diff-x-pos-51'
p7104
S'action-3'
p7105
tp7106
g5
(g9
S'\x87\x9c\xd65\xc0\xcf\xf2?'
p7107
tp7108
Rp7109
s(S'diff-x-pos--91'
p7110
S'action-4'
p7111
tp7112
g5
(g9
S'\xd5\x01\x1d\xca\xb9\x17\x03@'
p7113
tp7114
Rp7115
sg1539
g5
(g9
S'\x9e\x1c+\xda\xe0W\xf2?'
p7116
tp7117
Rp7118
sg1834
g5
(g9
S'\x82\xc5\xc2\x9d\xe1\xed\xdf\xbf'
p7119
tp7120
Rp7121
s(S'diff-x-pos-39'
p7122
S'action-4'
p7123
tp7124
g5
(g9
S'G\xd0v\x91\xc97\x12\xc0'
p7125
tp7126
Rp7127
s(g4666
S'prev-action-3'
p7128
tp7129
g5
(g9
S'9\xf4\xdd\xd7\x83\x16\xf1?'
p7130
tp7131
Rp7132
sg327
g5
(g9
S'\x1dX\xe1$\xaa=\x04@'
p7133
tp7134
Rp7135
s(g6085
S'action-4'
p7136
tp7137
g5
(g9
S"\x00\x8a\x0e\x1b'g\x90?"
p7138
tp7139
Rp7140
s(g4378
S'action-3'
p7141
tp7142
g5
(g9
S'83\x0b6\x81>\x08\xc0'
p7143
tp7144
Rp7145
s(S'diff-x-pos--120'
p7146
S'prev-action-1'
p7147
tp7148
g5
(g9
S'\x9a\xba,\xdc\x11\x83\xc3?'
p7149
tp7150
Rp7151
s(S'diff-x-pos--70'
p7152
S'prev-action-4'
p7153
tp7154
g5
(g9
S'\xa0\x19\xa8\x1b\xb2\xc3\xf1\xbf'
p7155
tp7156
Rp7157
s(g2351
S'prev-action-4'
p7158
tp7159
g5
(g9
S'\xe5\x98\xca\x1aZ\xc3\xdb\xbf'
p7160
tp7161
Rp7162
s(g4452
S'action-4'
p7163
tp7164
g5
(g9
S'\x8bW\x12\xd5O\x02\xe6?'
p7165
tp7166
Rp7167
s(S'diff-x-pos-34'
p7168
S'action-3'
p7169
tp7170
g5
(g9
S'\xb4\rl\xc1\x02\xa7\xfb?'
p7171
tp7172
Rp7173
s(g6102
S'action-1'
p7174
tp7175
g5
(g9
S'\xcc\xb0\xa1\xff}\xbd\xdf\xbf'
p7176
tp7177
Rp7178
s(S'diff-x-pos--73'
p7179
S'action-4'
p7180
tp7181
g5
(g9
S'\x1c\xc4<$d\x1a\x01@'
p7182
tp7183
Rp7184
sg4823
g5
(g9
S'\x15_9\xec\x96\xaf\x0e@'
p7185
tp7186
Rp7187
s(S'diff-x-pos-14'
p7188
S'action-3'
p7189
tp7190
g5
(g9
S'<}H\xfc\x94\xc6\xfb?'
p7191
tp7192
Rp7193
s(g1805
S'prev-action-3'
p7194
tp7195
g5
(g9
S'\x1f\x10\xc1\x9f\xacQ\xec\xbf'
p7196
tp7197
Rp7198
s(g427
S'prev-action-3'
p7199
tp7200
g5
(g9
S'\x1e\xdb\x97\x90F\xfb\xd2?'
p7201
tp7202
Rp7203
s(g1775
S'action-4'
p7204
tp7205
g5
(g9
S'\x90\xa9\x17\xc1\x0bq\xdb?'
p7206
tp7207
Rp7208
s(g4957
S'prev-action-3'
p7209
tp7210
g5
(g9
S'6\xf9\xe0Q\xf8\xd7\xf5\xbf'
p7211
tp7212
Rp7213
s(g1757
S'action-3'
p7214
tp7215
g5
(g9
S'G\xd5\x9a>\xf7\xc9\x01@'
p7216
tp7217
Rp7218
sg326
g5
(g9
S"2\x19\xb8\xbc\xfcs'@"
p7219
tp7220
Rp7221
sg2471
g5
(g9
S'$Po\x8e\xbb\x7f-@'
p7222
tp7223
Rp7224
sg207
g5
(g9
S'\xb0+\x80\x13\x95\x84-@'
p7225
tp7226
Rp7227
s(g2195
S'action-4'
p7228
tp7229
g5
(g9
S'\xd0On\xcfD\xb0\xf5?'
p7230
tp7231
Rp7232
s(g919
S'prev-action-3'
p7233
tp7234
g5
(g9
S'\x1e1\xdd\\\x92\xa4\xe2\xbf'
p7235
tp7236
Rp7237
s(g2271
S'prev-action-1'
p7238
tp7239
g5
(g9
S'\xedU(\x19\x9f\xfb\xe5\xbf'
p7240
tp7241
Rp7242
sS'object-1-y-20.0'
p7243
g5
(g9
S'\xbc\xbd\x9a\x184%\xf3?'
p7244
tp7245
Rp7246
s(g4828
S'prev-action-3'
p7247
tp7248
g5
(g9
S'i\t\xcd\xce5G\xed\xbf'
p7249
tp7250
Rp7251
s(S'diff-x-pos--24'
p7252
S'prev-action-3'
p7253
tp7254
g5
(g9
S'<\xcd\x07X]b\xe6\xbf'
p7255
tp7256
Rp7257
sS'diff-y-pos--11'
p7258
g5
(g9
S'\xd4\xb9\x92I\x99\xdc\xe6\xbf'
p7259
tp7260
Rp7261
sS'diff-y-pos--10'
p7262
g5
(g9
S'p5"\xb7\xf8\xb5\xef\xbf'
p7263
tp7264
Rp7265
sg4216
g5
(g9
S'\xa8\xf0@\xe8\t\xfc\xd7\xbf'
p7266
tp7267
Rp7268
s(g5451
S'action-3'
p7269
tp7270
g5
(g9
S'\x17\x8d\x84\xfa+\x1b\xf4?'
p7271
tp7272
Rp7273
s(S'diff-x-pos--83'
p7274
S'prev-action-4'
p7275
tp7276
g5
(g9
S'@j\xe8\x1du\xa6\xc5\xbf'
p7277
tp7278
Rp7279
sg919
g5
(g9
S'\xb7\xf0\xd7\xa6\xf3\xe2\xed?'
p7280
tp7281
Rp7282
s(g1651
S'action-1'
p7283
tp7284
g5
(g9
S'\\\x91\xb9\x99\xadC\xe8\xbf'
p7285
tp7286
Rp7287
s(S'diff-x-pos--6'
p7288
S'action-4'
p7289
tp7290
g5
(g9
S'\x83\x96\xc6\x07\x05\x17\xf1\xbf'
p7291
tp7292
Rp7293
s(g3606
S'action-3'
p7294
tp7295
g5
(g9
S'\xe7\x88Ro\x8ab\xe0?'
p7296
tp7297
Rp7298
s(g3209
S'prev-action-4'
p7299
tp7300
g5
(g9
S'\x00\xe6\xa2\xd3\x8e=\xa2\xbf'
p7301
tp7302
Rp7303
s(g1020
S'action-4'
p7304
tp7305
g5
(g9
S'\xbc\x19\xc0\xd5$x\xae\xbf'
p7306
tp7307
Rp7308
s(S'diff-x-pos--106'
p7309
S'action-4'
p7310
tp7311
g5
(g9
S'\xb8K\xcd\xd9%\x84\x01@'
p7312
tp7313
Rp7314
s(g3923
S'action-1'
p7315
tp7316
g5
(g9
S'\x08C\x81Z\x9f\x1e\xb5?'
p7317
tp7318
Rp7319
s(g196
S'object-1-x-60.0'
p7320
tp7321
g5
(g9
S'\x12bwYL\x82\xe4\xbf'
p7322
tp7323
Rp7324
s(g3209
S'action-1'
p7325
tp7326
g5
(g9
S'\x9b\x1e\x8c\xac\x9d\xe4\xf6?'
p7327
tp7328
Rp7329
s(g4906
S'action-4'
p7330
tp7331
g5
(g9
S'\xde\x8cs\xe4\xb4v\xf6\xbf'
p7332
tp7333
Rp7334
s(g5099
g4554
tp7335
g5
(g9
S'\xa2\x1a\xca\xe7\x9d\xa7\xf9?'
p7336
tp7337
Rp7338
s(S'object-1-dx-1'
p7339
g428
tp7340
g5
(g9
S'KpO\xf3\xac\x86\x01@'
p7341
tp7342
Rp7343
s(g754
g326
tp7344
g5
(g9
S'\xe2^!\xa8\xe7\xd0\xfc?'
p7345
tp7346
Rp7347
s(S'diff-x-pos--14'
p7348
S'action-1'
p7349
tp7350
g5
(g9
S'^/ts\xc2\x11\x02\xc0'
p7351
tp7352
Rp7353
s(S'diff-x-pos--112'
p7354
S'prev-action-1'
p7355
tp7356
g5
(g9
S'5\xf7K2f\x01\xde\xbf'
p7357
tp7358
Rp7359
s(g573
S'prev-action-3'
p7360
tp7361
g5
(g9
S'+\x84\xb8\xb1\xb2\xcc\xd1?'
p7362
tp7363
Rp7364
s(g2927
S'action-1'
p7365
tp7366
g5
(g9
S'\xa2\xdf\xb6\x19$\xe9\xf0\xbf'
p7367
tp7368
Rp7369
s(S'diff-x-pos-29'
p7370
S'prev-action-1'
p7371
tp7372
g5
(g9
S'\xce\xe84\x19j\xd6\xc9\xbf'
p7373
tp7374
Rp7375
s(S'diff-x-pos--119'
p7376
S'prev-action-1'
p7377
tp7378
g5
(g9
S'X\x8e[4\x0eJ\xfb\xbf'
p7379
tp7380
Rp7381
s(S'diff-x-pos-57'
p7382
S'action-3'
p7383
tp7384
g5
(g9
S':\x8d\xd5\xff{\xdd\xe3?'
p7385
tp7386
Rp7387
s(g5033
S'prev-action-3'
p7388
tp7389
g5
(g9
S"y\xfd\xe1'\xce\r\xf3?"
p7390
tp7391
Rp7392
s(S'diff-x-pos-8'
p7393
S'action-4'
p7394
tp7395
g5
(g9
S'\xe4\x15\xbcD\x98\xc5\x08\xc0'
p7396
tp7397
Rp7398
s(g533
S'prev-action-3'
p7399
tp7400
g5
(g9
S'r!E\x812\xe7\xdd\xbf'
p7401
tp7402
Rp7403
sg4139
g5
(g9
S'\x9c/\x8aP\x81\x8f\xc3?'
p7404
tp7405
Rp7406
sg39
g5
(g9
S'T\x1f\x85\xde\x14\x1c\xde\xbf'
p7407
tp7408
Rp7409
sg638
g5
(g9
S'\xf4F\xf6\xe8}\xbb\xe8?'
p7410
tp7411
Rp7412
sg4666
g5
(g9
S' n\xc3Ji\xc0\xb1\xbf'
p7413
tp7414
Rp7415
sg5195
g5
(g9
S'`4\x82\xd8\xcd\x83\xd6\xbf'
p7416
tp7417
Rp7418
sg433
g5
(g9
S'\xa4\xddM\xbe\x18\xfa\xde?'
p7419
tp7420
Rp7421
s(g3278
S'prev-action-4'
p7422
tp7423
g5
(g9
S'\rz\x92\x0c\xe8\xc9\xfa\xbf'
p7424
tp7425
Rp7426
sg5163
g5
(g9
S'|2vIv4\xb3\xbf'
p7427
tp7428
Rp7429
s(g4009
S'prev-action-1'
p7430
tp7431
g5
(g9
S'\xa6+N#J\xc1\x01\xc0'
p7432
tp7433
Rp7434
s(g7376
S'action-4'
p7435
tp7436
g5
(g9
S't\x8bWtP\xd7\xea\xbf'
p7437
tp7438
Rp7439
sg2877
g5
(g9
S'\xf8\xf3\x8e\xb5\xe9\xd8\xf4\xbf'
p7440
tp7441
Rp7442
sg1467
g5
(g9
S'\xd8\x97\xb8\xde]h\xf2?'
p7443
tp7444
Rp7445
sg3862
g5
(g9
S'\x9c\x81\xfa\xfdM\xa4\xd2\xbf'
p7446
tp7447
Rp7448
sg3751
g5
(g9
S'$\xa7\x0e\xa1\x15\x9b\xe8?'
p7449
tp7450
Rp7451
s(S'diff-x-pos--36'
p7452
S'prev-action-3'
p7453
tp7454
g5
(g9
S'\xa0n\xd8E\xd25\xe2?'
p7455
tp7456
Rp7457
s(g708
S'prev-action-4'
p7458
tp7459
g5
(g9
S'\x19v!\xd0,\xf5\xeb\xbf'
p7460
tp7461
Rp7462
s(g3950
S'prev-action-1'
p7463
tp7464
g5
(g9
S'\x05\x94!J\xfb\xe6\xeb\xbf'
p7465
tp7466
Rp7467
sg135
g5
(g9
S'G\x94\xb9I\xca\xb6\xee\xbf'
p7468
tp7469
Rp7470
sg4629
g5
(g9
S'<\xf4\xcb\x11\x7ft\xe9?'
p7471
tp7472
Rp7473
sg427
g5
(g9
S'\xc9\\\xe9T\x13x\xe1\xbf'
p7474
tp7475
Rp7476
s(g443
S'prev-action-1'
p7477
tp7478
g5
(g9
S']\x15\x11\x08jr\xf0\xbf'
p7479
tp7480
Rp7481
sg6085
g5
(g9
S'pGi\tS\x01\xd4\xbf'
p7482
tp7483
Rp7484
s(g1886
S'prev-action-3'
p7485
tp7486
g5
(g9
S'\xdd\xee\xe0&2\xb4\xca\xbf'
p7487
tp7488
Rp7489
sg5721
g5
(g9
S'\x8aD\xcd1e;\xdb?'
p7490
tp7491
Rp7492
sg5369
g5
(g9
S'\x9c\x05\xbaM\x1a\xe1\xc6?'
p7493
tp7494
Rp7495
s(g1985
S'prev-action-3'
p7496
tp7497
g5
(g9
S'\xd66\x1bq\x91\xae\xf2\xbf'
p7498
tp7499
Rp7500
s(S'diff-x-pos--41'
p7501
S'prev-action-4'
p7502
tp7503
g5
(g9
S' \xd82\x9d*\xac\xb7\xbf'
p7504
tp7505
Rp7506
s(g3917
S'action-1'
p7507
tp7508
g5
(g9
S'\xe8\x18\xf7kx\r\xef?'
p7509
tp7510
Rp7511
s(g5369
S'action-3'
p7512
tp7513
g5
(g9
S'\xa5j\x85\xb6\xbd\x05\xfd\xbf'
p7514
tp7515
Rp7516
s(S'diff-x-pos--9'
p7517
S'action-1'
p7518
tp7519
g5
(g9
S'l\xc0P\xa6\x92\xff\xca\xbf'
p7520
tp7521
Rp7522
s(g4419
S'prev-action-4'
p7523
tp7524
g5
(g9
S'\xaez\xe6\xf5{\t\xcd\xbf'
p7525
tp7526
Rp7527
s(g1295
S'prev-action-4'
p7528
tp7529
g5
(g9
S'\xb0l8\x91\xa7\xd1\xbe\xbf'
p7530
tp7531
Rp7532
s(g974
S'prev-action-4'
p7533
tp7534
g5
(g9
S'\x84\xf6\xf6\x00\xc6\xc8\xfa\xbf'
p7535
tp7536
Rp7537
s(S'diff-x-pos--59'
p7538
S'prev-action-1'
p7539
tp7540
g5
(g9
S'\xda\xb0\xa6\xf4sg\xbc\xbf'
p7541
tp7542
Rp7543
sg3234
g5
(g9
S'\xa8\\\xa8\x8b\xb0\xa1\xf4\xbf'
p7544
tp7545
Rp7546
sg195
g5
(g9
S'\xf8\x04\x97\xa7\x05x\xbd?'
p7547
tp7548
Rp7549
s(g3250
S'prev-action-3'
p7550
tp7551
g5
(g9
S'b\xbd\xdcV\x8dk\xea?'
p7552
tp7553
Rp7554
sg2218
g5
(g9
S'\xfc\xa1\x8c\xd4\xd1[\xf2?'
p7555
tp7556
Rp7557
sg1131
g5
(g9
S'\x01\xc2B\x8f\xe73\xf3?'
p7558
tp7559
Rp7560
sg549
g5
(g9
S'\x87u\xd5]\xfb\xef\xdc?'
p7561
tp7562
Rp7563
sg3524
g5
(g9
S'A\x81\x0c\xf7\xcd\xde\xf3\xbf'
p7564
tp7565
Rp7566
sg302
g5
(g9
S'4\xc7%\xc6\x1e\xd3\xe2\xbf'
p7567
tp7568
Rp7569
sg2201
g5
(g9
S'\xc0\xdd\x89`\x91E\xbe\xbf'
p7570
tp7571
Rp7572
sg1722
g5
(g9
S'\xee\xd5\n\x15\xb0\xe6\xe4?'
p7573
tp7574
Rp7575
sg5642
g5
(g9
S'\x0c\x08\xe8\x9c\x8c\x11\xe5\xbf'
p7576
tp7577
Rp7578
sg3000
g5
(g9
S'?\x1d\xcet\xda\x0b\x08@'
p7579
tp7580
Rp7581
s(g4816
S'action-4'
p7582
tp7583
g5
(g9
S'$\xdb\xf2eAr\xe5\xbf'
p7584
tp7585
Rp7586
s(g332
S'prev-action-3'
p7587
tp7588
g5
(g9
S'lZ\xfcy\xa6>\xf1\xbf'
p7589
tp7590
Rp7591
s(S'object-1-dx--1'
p7592
g674
tp7593
g5
(g9
S'\xb7F\xe9\xdf\\\xa6\xf5\xbf'
p7594
tp7595
Rp7596
s(g1933
S'prev-action-3'
p7597
tp7598
g5
(g9
S'\x92\xf8#vG\xcc\xe0?'
p7599
tp7600
Rp7601
s(S'diff-x-pos--30'
p7602
S'action-3'
p7603
tp7604
g5
(g9
S'4\xec:\xa0\xe4.\xd6?'
p7605
tp7606
Rp7607
s(S'diff-x-pos-5'
p7608
S'prev-action-4'
p7609
tp7610
g5
(g9
S'\x80\xe7\xbd\xc0\x99r\x8c\xbf'
p7611
tp7612
Rp7613
s(g1318
S'action-4'
p7614
tp7615
g5
(g9
S'\xc8\xa2\xbcX<y\xec?'
p7616
tp7617
Rp7618
s(g2106
S'prev-action-3'
p7619
tp7620
g5
(g9
S'\xf0\x83\xc8\x19\x895\xfa?'
p7621
tp7622
Rp7623
s(g5195
S'action-3'
p7624
tp7625
g5
(g9
S'{q\xee\x94J!\xe2?'
p7626
tp7627
Rp7628
s(S'diff-x-pos-49'
p7629
S'action-3'
p7630
tp7631
g5
(g9
S'\xf7\x9b\xd3\xcc\xcd\x8d\xf3?'
p7632
tp7633
Rp7634
s(g863
S'prev-action-4'
p7635
tp7636
g5
(g9
S'-[!\xc7]\xab\xe5\xbf'
p7637
tp7638
Rp7639
s(S'diff-x-pos--109'
p7640
S'action-3'
p7641
tp7642
g5
(g9
S'\x1c\xe7\x17\xd81=\xf1\xbf'
p7643
tp7644
Rp7645
s(g3745
S'action-3'
p7646
tp7647
g5
(g9
S'\x98\x98\xfb\xef[\x87\x02\xc0'
p7648
tp7649
Rp7650
s(g2849
S'action-4'
p7651
tp7652
g5
(g9
S'\x80\xfd\xdb\xe0\xf2 \x10\xc0'
p7653
tp7654
Rp7655
s(S'diff-x-pos-36'
p7656
S'action-1'
p7657
tp7658
g5
(g9
S'\x99\x9c\x1cqKv\xd2\xbf'
p7659
tp7660
Rp7661
s(S'diff-x-pos--8'
p7662
S'prev-action-1'
p7663
tp7664
g5
(g9
S'\xe8\xbd\xd0\x9e8\x86\xf8\xbf'
p7665
tp7666
Rp7667
s(S'diff-x-pos-23'
p7668
S'action-4'
p7669
tp7670
g5
(g9
S'\xf8\x92\xf9\xc7\xff\xe4\x04\xc0'
p7671
tp7672
Rp7673
s(g2136
S'action-4'
p7674
tp7675
g5
(g9
S'\x97z\xa9IN\x92\xf8\xbf'
p7676
tp7677
Rp7678
s(g3178
S'prev-action-3'
p7679
tp7680
g5
(g9
S'\xed\x8d\xf8\xa0#\xe4\xea\xbf'
p7681
tp7682
Rp7683
s(g5011
S'action-4'
p7684
tp7685
g5
(g9
S'\xf8\xa5\x1a>\xb9\xc3\xe7?'
p7686
tp7687
Rp7688
s(g195
g3840
tp7689
g5
(g9
S'\xf2\x10a\xa4>\xf0\xd0?'
p7690
tp7691
Rp7692
s(g2518
S'prev-action-3'
p7693
tp7694
g5
(g9
S'\xd4\xcc\x021\x8a\x1b\xcb\xbf'
p7695
tp7696
Rp7697
s(S'action-4'
p7698
S'object-1-x-110.0'
p7699
tp7700
g5
(g9
S'jh\x9c\xb0\xe7B\xe2?'
p7701
tp7702
Rp7703
stp7704
Rp7705
.