ccollections
Counter
p0
((dp1
(S'diff-x-pos--89'
p2
S'action-4'
p3
tp4
cnumpy.core.multiarray
scalar
p5
(cnumpy
dtype
p6
(S'f8'
p7
I0
I1
tp8
Rp9
(I3
S'<'
p10
NNNI-1
I-1
I0
tp11
bS'\x9cJd\xdc\x05<\xc4?'
p12
tp13
Rp14
s(S'action-4'
p15
S'object-1-x-80.0'
p16
tp17
g5
(g9
S"\xc8a\x84r'\x0b\xc8?"
p18
tp19
Rp20
s(S'diff-x-pos--94'
p21
S'action-3'
p22
tp23
g5
(g9
S'\x02o\x14\xf09#\xe1?'
p24
tp25
Rp26
s(S'diff-x-pos--80'
p27
S'action-4'
p28
tp29
g5
(g9
S'\x82\xe2i\x0f\xebH\xe4\xbf'
p30
tp31
Rp32
s(S'diff-x-pos-2'
p33
S'prev-action-3'
p34
tp35
g5
(g9
S'c\xa7([\x10\x8a\xff\xbf'
p36
tp37
Rp38
s(S'diff-x-pos--7'
p39
S'prev-action-1'
p40
tp41
g5
(g9
S'l6lQk\xa3\xd3\xbf'
p42
tp43
Rp44
s(S'diff-x-pos--27'
p45
S'action-4'
p46
tp47
g5
(g9
S'\x00\x93\t[\\^|\xbf'
p48
tp49
Rp50
s(S'diff-x-pos-40'
p51
S'action-3'
p52
tp53
g5
(g9
S'\xee\xdbL\x0e\x9e\xfd\xdd?'
p54
tp55
Rp56
s(S'diff-x-pos-54'
p57
S'action-1'
p58
tp59
g5
(g9
S'(\xde\xaf\x03\xeb\xd7\xf7?'
p60
tp61
Rp62
s(S'diff-x-pos--43'
p63
S'prev-action-4'
p64
tp65
g5
(g9
S'O\x95M+\xf6\xb4\xf7\xbf'
p66
tp67
Rp68
s(S'diff-x-pos--96'
p69
S'prev-action-4'
p70
tp71
g5
(g9
S'E@2\xf7_\x9d\xc7\xbf'
p72
tp73
Rp74
s(S'action-4'
p75
S'object-1-x-60.0'
p76
tp77
g5
(g9
S'M(\xf7`\xb3x\xff\xbf'
p78
tp79
Rp80
s(S'diff-x-pos--80'
p81
S'prev-action-1'
p82
tp83
g5
(g9
S'\x14\xd0\xcc\xd3\xfa\xee\xe5\xbf'
p84
tp85
Rp86
s(S'diff-x-pos--35'
p87
S'action-3'
p88
tp89
g5
(g9
S'\x9dK^\xa2\xf8\xa6\xef?'
p90
tp91
Rp92
s(S'diff-x-pos--25'
p93
S'prev-action-4'
p94
tp95
g5
(g9
S'\x8e\xe8+\x90\x98\x1b\xe0?'
p96
tp97
Rp98
s(S'diff-x-pos--75'
p99
S'prev-action-4'
p100
tp101
g5
(g9
S'\xe9\x9b!l\x98\xfd\xd5\xbf'
p102
tp103
Rp104
s(S'diff-x-pos-43'
p105
S'prev-action-4'
p106
tp107
g5
(g9
S'\xfd\xcb\t\xa3\nt\xf3?'
p108
tp109
Rp110
s(S'diff-x-pos--26'
p111
S'prev-action-1'
p112
tp113
g5
(g9
S';ee\x0b\x01J\x00@'
p114
tp115
Rp116
s(S'diff-x-pos--9'
p117
S'action-3'
p118
tp119
g5
(g9
S'\x80\xf3ZaI\xac\x9f\xbf'
p120
tp121
Rp122
s(S'diff-x-pos-40'
p123
S'prev-action-1'
p124
tp125
g5
(g9
S'4\xb0\x1d\x12,\xcc\xde?'
p126
tp127
Rp128
s(S'diff-x-pos--7'
p129
S'action-3'
p130
tp131
g5
(g9
S'\x88m(j\xb6\xcc\xd7?'
p132
tp133
Rp134
s(S'diff-x-pos--61'
p135
S'action-3'
p136
tp137
g5
(g9
S'Z\x9a\x83\xb0D\xef\x02@'
p138
tp139
Rp140
s(S'diff-x-pos-47'
p141
S'prev-action-1'
p142
tp143
g5
(g9
S'\x91\x7f\xb9\x88c\x1d\x06\xc0'
p144
tp145
Rp146
s(S'diff-x-pos-51'
p147
S'action-1'
p148
tp149
g5
(g9
S'\xe8,\x0f\x8d\x08.\xde\xbf'
p150
tp151
Rp152
s(S'diff-x-pos-21'
p153
S'prev-action-1'
p154
tp155
g5
(g9
S'sM\xc2!\x8d\x9b\xc8?'
p156
tp157
Rp158
s(S'diff-x-pos-33'
p159
S'prev-action-4'
p160
tp161
g5
(g9
S'\x82\xe7\xe9\xa9\x1f\xa6\xec?'
p162
tp163
Rp164
s(S'diff-x-pos--79'
p165
S'action-3'
p166
tp167
g5
(g9
S'\x13[\xbb\xbb\x8f\xf6\xb4\xbf'
p168
tp169
Rp170
s(S'diff-x-pos--62'
p171
S'prev-action-3'
p172
tp173
g5
(g9
S'\n$\xa4\xef\xb1\x94\xc5\xbf'
p174
tp175
Rp176
s(S'diff-x-pos-17'
p177
S'action-1'
p178
tp179
g5
(g9
S'rN\xa4*\xa4\x96\xea?'
p180
tp181
Rp182
s(S'diff-x-pos-37'
p183
S'action-4'
p184
tp185
g5
(g9
S'\x08b\\l\xed\x94\xfc\xbf'
p186
tp187
Rp188
s(S'diff-x-pos--13'
p189
S'action-4'
p190
tp191
g5
(g9
S'\xa46K\x9c\x8d9\xd5\xbf'
p192
tp193
Rp194
s(S'diff-x-pos-9'
p195
S'action-3'
p196
tp197
g5
(g9
S'\x01\xa6\xdf\xb3\x05m\xef?'
p198
tp199
Rp200
s(S'diff-x-pos--98'
p201
S'action-1'
p202
tp203
g5
(g9
S'\x90zh"\x91p\xa2?'
p204
tp205
Rp206
s(S'action-3'
p207
S'object-1-x-80.0'
p208
tp209
g5
(g9
S'\x9dc\xdf \n$\xcd?'
p210
tp211
Rp212
s(S'diff-x-pos--69'
p213
S'action-4'
p214
tp215
g5
(g9
S'\xf4\x8ar\x0b\xa4t\xec?'
p216
tp217
Rp218
s(S'diff-x-pos--46'
p219
S'prev-action-4'
p220
tp221
g5
(g9
S'<9\x0b\xab\xbcz\xc1\xbf'
p222
tp223
Rp224
s(S'diff-x-pos--53'
p225
S'action-4'
p226
tp227
g5
(g9
S'\xdc\xf1\x8d\x00#\x95\xdd?'
p228
tp229
Rp230
s(S'diff-x-pos--49'
p231
S'prev-action-4'
p232
tp233
g5
(g9
S'\xa6\xd4Mz\xf5#\xc4?'
p234
tp235
Rp236
s(S'diff-x-pos-25'
p237
S'action-4'
p238
tp239
g5
(g9
S'\x00\xec\xa7f+\x0b\xf1\xbf'
p240
tp241
Rp242
s(S'action-4'
p243
S'object-0-x-120.0'
p244
tp245
g5
(g9
S's\xc7\xa0\xb5}E\n@'
p246
tp247
Rp248
s(S'diff-x-pos--13'
p249
S'prev-action-4'
p250
tp251
g5
(g9
S'JC\xc4\x17l]\xd9\xbf'
p252
tp253
Rp254
s(S'diff-x-pos--37'
p255
S'action-4'
p256
tp257
g5
(g9
S'\x1c\xe8I\xcb:O\xee?'
p258
tp259
Rp260
s(g45
S'prev-action-1'
p261
tp262
g5
(g9
S'D/\x93`*\xea\xde?'
p263
tp264
Rp265
s(S'diff-x-pos-52'
p266
S'action-4'
p267
tp268
g5
(g9
S'\xba\xf1r\xdc\xe8\x16\xf3\xbf'
p269
tp270
Rp271
s(S'diff-x-pos-59'
p272
S'action-4'
p273
tp274
g5
(g9
S'\xe0\xe0/\xdd\xc5\x84\xf1\xbf'
p275
tp276
Rp277
s(S'diff-x-pos--8'
p278
S'action-1'
p279
tp280
g5
(g9
S'\x96\xb7\xe0\xd2\xfa4\xef?'
p281
tp282
Rp283
s(S'diff-x-pos--55'
p284
S'action-4'
p285
tp286
g5
(g9
S'\xcc\x1c\xd5\xe1`\xe4\xb0?'
p287
tp288
Rp289
s(S'diff-x-pos--31'
p290
S'action-1'
p291
tp292
g5
(g9
S'\x9aS\xa1\xbc\xa9\x8f\xc1?'
p293
tp294
Rp295
s(S'diff-x-pos-48'
p296
S'action-1'
p297
tp298
g5
(g9
S'\xbdyb\x1ce\x1e\xe8\xbf'
p299
tp300
Rp301
s(S'diff-x-pos-4'
p302
S'prev-action-4'
p303
tp304
g5
(g9
S'\xe6p)\x8d\xb2\x99\xd4\xbf'
p305
tp306
Rp307
s(S'diff-x-pos--30'
p308
S'prev-action-1'
p309
tp310
g5
(g9
S'\xa4`\x97x\xe0\xc9\xd8?'
p311
tp312
Rp313
s(S'diff-x-pos--61'
p314
S'action-1'
p315
tp316
g5
(g9
S'7\x1f\x92\xf3\xa5\xcc\xee\xbf'
p317
tp318
Rp319
s(S'diff-x-pos--63'
p320
S'prev-action-1'
p321
tp322
g5
(g9
S'\xfcx\x82\xab\x1a`\xc8\xbf'
p323
tp324
Rp325
s(S'action-4'
p326
S'object-0-x-50.0'
p327
tp328
g5
(g9
S'\n\x97\xf5\x1cz\xd2\xf2?'
p329
tp330
Rp331
s(S'diff-x-pos--65'
p332
S'action-1'
p333
tp334
g5
(g9
S'{\xfdps\xcd\xcd\xe5?'
p335
tp336
Rp337
s(S'diff-x-pos-26'
p338
S'action-4'
p339
tp340
g5
(g9
S'\xea\xf8C\x93\xb4\xe3\x01\xc0'
p341
tp342
Rp343
s(g249
S'action-3'
p344
tp345
g5
(g9
S'\x01\x16&\xea|o\x03@'
p346
tp347
Rp348
s(S'action-4'
p349
S'object-0-x-130.0'
p350
tp351
I1
s(S'diff-x-pos--26'
p352
S'action-1'
p353
tp354
g5
(g9
S'H\x92\xbd\x020\x91\xd6?'
p355
tp356
Rp357
s(S'diff-x-pos--75'
p358
S'action-4'
p359
tp360
g5
(g9
S'\x81\xba\xcd\xa5uz\xdf?'
p361
tp362
Rp363
s(S'diff-x-pos--23'
p364
S'prev-action-4'
p365
tp366
g5
(g9
S'\xbc\t5\xde]{\xf9?'
p367
tp368
Rp369
s(S'diff-x-pos-37'
p370
S'action-3'
p371
tp372
g5
(g9
S'&e\xf6z\xd3\x8a\xf0?'
p373
tp374
Rp375
s(S'diff-x-pos-55'
p376
S'action-4'
p377
tp378
g5
(g9
S'\x80\xcb6\xa4\x0e\xda\xd4\xbf'
p379
tp380
Rp381
s(S'diff-x-pos--105'
p382
S'prev-action-4'
p383
tp384
g5
(g9
S'\x95R\x8a\x8e\xa2\xcb\xdd\xbf'
p385
tp386
Rp387
s(S'diff-x-pos--59'
p388
S'action-3'
p389
tp390
g5
(g9
S'\x04\xf0\xcaO\xfd\xd1\xe1?'
p391
tp392
Rp393
s(S'object-0-dx-1'
p394
S'prev-action-3'
p395
tp396
g5
(g9
S'"\xd4-7a/\xda?'
p397
tp398
Rp399
s(S'diff-x-pos--39'
p400
S'prev-action-3'
p401
tp402
g5
(g9
S'\x9fT\x02Yi\xd9\xe0\xbf'
p403
tp404
Rp405
s(S'diff-x-pos-2'
p406
S'action-3'
p407
tp408
g5
(g9
S'\x9f\x16M\xc3\xb1\x83\xdf?'
p409
tp410
Rp411
s(S'diff-x-pos-4'
p412
S'prev-action-3'
p413
tp414
g5
(g9
S'x\xc5\xebA\x1f\xc2\xc5?'
p415
tp416
Rp417
s(S'action-3'
p418
S'object-0-x-40.0'
p419
tp420
g5
(g9
S'\xa1\x81\xc4\xb3\xd0\x10\x04@'
p421
tp422
Rp423
s(S'diff-x-pos--3'
p424
S'action-4'
p425
tp426
g5
(g9
S'\x99\xb5\xb9`\x80\xdc\xe9\xbf'
p427
tp428
Rp429
sS'object-1-x-120.0'
p430
g5
(g9
S'\x06\x85\xd7\xf8^]\xd7\xbf'
p431
tp432
Rp433
s(S'diff-x-pos-3'
p434
S'action-3'
p435
tp436
g5
(g9
S'\x88\x8f:\x92m\xd0\xe3?'
p437
tp438
Rp439
sS'prev-action-0'
p440
g5
(g9
S'\xeaA\xa0\x12Q"2@'
p441
tp442
Rp443
sS'prev-action-1'
p444
g5
(g9
S'C\xd2iT\xa4W4@'
p445
tp446
Rp447
s(S'diff-x-pos--90'
p448
S'prev-action-3'
p449
tp450
g5
(g9
S'\\\xa65\x1a\x10&\xf1\xbf'
p451
tp452
Rp453
sS'diff-x-pos--120'
p454
g5
(g9
S'\xdaL,\x9d\xb9\xd3\xed?'
p455
tp456
Rp457
sS'prev-action-4'
p458
g5
(g9
S'\xac\x82slB\x115@'
p459
tp460
Rp461
s(S'diff-x-pos--63'
p462
S'prev-action-4'
p463
tp464
g5
(g9
S'e\xb3f\xd3\xad\x05\xf5\xbf'
p465
tp466
Rp467
s(S'diff-x-pos--36'
p468
S'action-1'
p469
tp470
g5
(g9
S'{\xc1Gy\xde\xb9\xd0\xbf'
p471
tp472
Rp473
s(S'diff-x-pos-43'
p474
S'action-1'
p475
tp476
g5
(g9
S'\x01i1\x95"1\xfb?'
p477
tp478
Rp479
s(S'diff-x-pos--72'
p480
S'prev-action-1'
p481
tp482
g5
(g9
S'\\g\n\x05_\x1b\xf9?'
p483
tp484
Rp485
s(S'diff-x-pos--35'
p486
S'prev-action-4'
p487
tp488
g5
(g9
S'\x1d\x8d\x04qM\x0f\xc5?'
p489
tp490
Rp491
s(S'diff-x-pos-45'
p492
S'prev-action-3'
p493
tp494
g5
(g9
S'\xf4\x97*"\x92\xa5\xe5\xbf'
p495
tp496
Rp497
s(S'diff-x-pos--34'
p498
S'prev-action-3'
p499
tp500
g5
(g9
S'x>\xe3\xe1,\xf1\xd6?'
p501
tp502
Rp503
s(S'diff-x-pos--96'
p504
S'action-1'
p505
tp506
g5
(g9
S'\x19\x18\xd6_<6\xf7?'
p507
tp508
Rp509
sS'diff-x-pos--103'
p510
g5
(g9
S'b~\xee\xa1b\x14\xf2?'
p511
tp512
Rp513
sS'diff-y-pos-0'
p514
g5
(g9
S'\x9ap e\xd4\x1c\xd2?'
p515
tp516
Rp517
s(S'diff-x-pos--17'
p518
S'action-1'
p519
tp520
g5
(g9
S'\\\xfe\x9fA\x97&\xe7\xbf'
p521
tp522
Rp523
s(S'diff-x-pos--100'
p524
S'prev-action-4'
p525
tp526
g5
(g9
S'n\xcd\xa6!&\x82\xe5\xbf'
p527
tp528
Rp529
sS'object-1-x-100.0'
p530
g5
(g9
S'j\r:5\xeb\x80\xe4\xbf'
p531
tp532
Rp533
s(S'diff-x-pos-2'
p534
S'action-4'
p535
tp536
g5
(g9
S'Z\x11\x1a\xc6F\xea\xe1?'
p537
tp538
Rp539
s(S'diff-x-pos-29'
p540
S'action-3'
p541
tp542
g5
(g9
S'\xa3\xd3\x92\xd7\xdd\xb6\xdb?'
p543
tp544
Rp545
s(S'diff-x-pos-30'
p546
S'action-3'
p547
tp548
g5
(g9
S'\xa0\xac<C\xfa{\xa4\xbf'
p549
tp550
Rp551
s(S'diff-x-pos-38'
p552
S'prev-action-3'
p553
tp554
g5
(g9
S'\x1c\xfe\xf5t>\x95\xe2?'
p555
tp556
Rp557
s(S'diff-x-pos--4'
p558
S'action-1'
p559
tp560
g5
(g9
S'\xf0\xc7\xdd\x8e\x14\xa8\xfc\xbf'
p561
tp562
Rp563
s(S'diff-x-pos--112'
p564
S'action-3'
p565
tp566
g5
(g9
S'\x82\x01\x14n\x1e\x19\xf4?'
p567
tp568
Rp569
sS'object-1-dx--1'
p570
g5
(g9
S'\x941\xfbj\xf0H\x05@'
p571
tp572
Rp573
s(S'diff-x-pos-63'
p574
S'action-3'
p575
tp576
I1
s(S'diff-x-pos--95'
p577
S'action-4'
p578
tp579
g5
(g9
S'\xf8\xe9\xfba~9\xde?'
p580
tp581
Rp582
s(S'diff-x-pos--33'
p583
S'action-1'
p584
tp585
g5
(g9
S'{\xc9\xea\xff\x8a\xe4\xf2?'
p586
tp587
Rp588
s(S'action-3'
p589
S'object-0-x-90.0'
p590
tp591
g5
(g9
S'fx1\x08\xc8/\x07@'
p592
tp593
Rp594
sS'object-1-dy--1'
p595
g5
(g9
S'\x92\xbe\xc8\xed\x19?\xe4?'
p596
tp597
Rp598
s(S'diff-x-pos--51'
p599
S'action-1'
p600
tp601
g5
(g9
S'\xacu\x1a\x9d`\xb8\xe6?'
p602
tp603
Rp604
s(S'diff-x-pos--120'
p605
S'action-4'
p606
tp607
g5
(g9
S'4\xe7S!\x90\xae\xef?'
p608
tp609
Rp610
s(S'action-3'
p611
S'object-1-x-70.0'
p612
tp613
g5
(g9
S's|M\x16Z\xde\xef\xbf'
p614
tp615
Rp616
s(S'action-4'
p617
S'object-0-x-60.0'
p618
tp619
g5
(g9
S'O\x05H\x1d\xc6\xd5\x05@'
p620
tp621
Rp622
s(S'diff-x-pos--4'
p623
S'prev-action-4'
p624
tp625
g5
(g9
S'\xd4Z\x01\xde\xee\xa8\xe3\xbf'
p626
tp627
Rp628
s(S'diff-x-pos--24'
p629
S'action-1'
p630
tp631
g5
(g9
S'\x06\x84l\x14)\x0b\xf7\xbf'
p632
tp633
Rp634
s(S'diff-x-pos-38'
p635
S'action-4'
p636
tp637
g5
(g9
S'\xb0\xa4\x00\x16\x063\xd9\xbf'
p638
tp639
Rp640
s(S'diff-x-pos--77'
p641
S'action-4'
p642
tp643
g5
(g9
S'1s.9\xd5\xd1\xd3?'
p644
tp645
Rp646
s(S'diff-x-pos-57'
p647
S'action-4'
p648
tp649
g5
(g9
S'\xcdV\x02n}\x87\xc6?'
p650
tp651
Rp652
s(S'diff-x-pos--97'
p653
S'prev-action-3'
p654
tp655
g5
(g9
S"Oa'.\xd1\x9c\xe0\xbf"
p656
tp657
Rp658
s(S'action-1'
p659
S'object-1-x-70.0'
p660
tp661
g5
(g9
S'\xf8\x12\x97\xa1\xe0\xa1\xb2?'
p662
tp663
Rp664
s(S'diff-x-pos-35'
p665
S'prev-action-1'
p666
tp667
g5
(g9
S"\xb4'2\xfc\xf5-\xef\xbf"
p668
tp669
Rp670
s(S'diff-x-pos-42'
p671
S'prev-action-3'
p672
tp673
g5
(g9
S'\xd9[\xdb\x19j\x81\xe5?'
p674
tp675
Rp676
sS'object-0-x-70.0'
p677
g5
(g9
S'0\xb4s\x84E\xf6\x15@'
p678
tp679
Rp680
s(S'diff-x-pos--10'
p681
S'action-1'
p682
tp683
g5
(g9
S'\xd7G\xf2\x0c\x1an\x02\xc0'
p684
tp685
Rp686
s(S'diff-x-pos-14'
p687
S'prev-action-1'
p688
tp689
g5
(g9
S'\xff\x0b\xfc\xce|.\xe9\xbf'
p690
tp691
Rp692
s(S'diff-x-pos-25'
p693
S'action-3'
p694
tp695
g5
(g9
S'\xf8\xf2\x13\xadR\x8c\xe8?'
p696
tp697
Rp698
s(S'diff-x-pos-19'
p699
S'prev-action-3'
p700
tp701
g5
(g9
S'\xc1zt\x14\x97j\xea?'
p702
tp703
Rp704
s(S'diff-x-pos--114'
p705
S'prev-action-4'
p706
tp707
g5
(g9
S'\x92\xcd\x8b\xdf\r\x95\xf8?'
p708
tp709
Rp710
s(S'diff-x-pos-34'
p711
S'prev-action-1'
p712
tp713
g5
(g9
S'\x98F=\xd7\x05\x03\xf8\xbf'
p714
tp715
Rp716
sS'diff-x-pos--54'
p717
g5
(g9
S'H<S\x88\x9d{\xb6\xbf'
p718
tp719
Rp720
s(S'action-1'
p721
S'object-0-x-0.0'
p722
tp723
g5
(g9
S'k(\x08\xf4\xfa\xa6\xd1\xbf'
p724
tp725
Rp726
sS'diff-x-pos--56'
p727
g5
(g9
S'\x93\xc6\xf9\x8a\xd4\xb9\xdc?'
p728
tp729
Rp730
sS'diff-x-pos--57'
p731
g5
(g9
S'Z\xca\xe6D\xc3\x9a\xfe?'
p732
tp733
Rp734
sS'diff-x-pos--50'
p735
g5
(g9
S'\x9c\xaf\xc6\xaa\xbaS\xc8?'
p736
tp737
Rp738
sS'diff-x-pos--51'
p739
g5
(g9
S'H\x81\xb3l4\xde\xb3?'
p740
tp741
Rp742
sS'diff-x-pos--52'
p743
g5
(g9
S'@\xce\xfaI\x84j\xd0\xbf'
p744
tp745
Rp746
sS'diff-x-pos--53'
p747
g5
(g9
S'\x80\xee5\x99\x80\xd0\x93\xbf'
p748
tp749
Rp750
s(g659
S'object-0-x-60.0'
p751
tp752
g5
(g9
S'\xaa\xb8\xdd\xd4\xd9\xcf\xe4?'
p753
tp754
Rp755
sS'diff-x-pos--58'
p756
g5
(g9
S'\xccj\xdb\t\x7f+\xf8\xbf'
p757
tp758
Rp759
sS'diff-x-pos--59'
p760
g5
(g9
S'\xab\x92A4\xd3T\xd0\xbf'
p761
tp762
Rp763
s(S'diff-x-pos--102'
p764
S'action-4'
p765
tp766
g5
(g9
S'N\xdbm\x08\x1f\xeb\xb9?'
p767
tp768
Rp769
s(S'diff-x-pos--38'
p770
S'action-1'
p771
tp772
g5
(g9
S'\x84\x84\xf4\xcc\xcd!\xe2?'
p773
tp774
Rp775
sS'object-0-y-0.0'
p776
g5
(g9
S'3j\xdb\x0f\xc4::@'
p777
tp778
Rp779
s(S'diff-x-pos--68'
p780
S'action-3'
p781
tp782
g5
(g9
S'@\x96\x98\xc4\xe2,\x9b\xbf'
p783
tp784
Rp785
s(S'diff-x-pos--59'
p786
S'prev-action-4'
p787
tp788
g5
(g9
S'\xf0\x1f\xb6\xfb\xc3\\\xa9\xbf'
p789
tp790
Rp791
s(S'diff-x-pos-57'
p792
S'prev-action-3'
p793
tp794
g5
(g9
S'Z\x9d\xa9\x04;0\xeb\xbf'
p795
tp796
Rp797
s(S'action-1'
p798
S'object-0-x-100.0'
p799
tp800
g5
(g9
S'(\x04\\\xf6bU\x04@'
p801
tp802
Rp803
s(g770
S'prev-action-1'
p804
tp805
g5
(g9
S'\xb7\x7f\xca\x99\x00\x8b\xe4?'
p806
tp807
Rp808
s(S'diff-x-pos--14'
p809
S'prev-action-1'
p810
tp811
g5
(g9
S'\x9f*\xc9QL\xab\xd2?'
p812
tp813
Rp814
s(S'object-1-dx-1'
p815
S'prev-action-1'
p816
tp817
g5
(g9
S'p\xc3O\xe7\xde6\xd4?'
p818
tp819
Rp820
s(S'diff-x-pos--2'
p821
S'action-4'
p822
tp823
g5
(g9
S'\xef\xe2\xa5}s%\xf6\xbf'
p824
tp825
Rp826
sS'object-0-x-90.0'
p827
g5
(g9
S'\x06kB@0\t\x19@'
p828
tp829
Rp830
s(S'diff-x-pos--106'
p831
S'prev-action-4'
p832
tp833
g5
(g9
S'\x08\xb9Q\x0e\x1f]\xd4\xbf'
p834
tp835
Rp836
s(g424
S'prev-action-1'
p837
tp838
g5
(g9
S'\x1e\x05!\xc3qL\xec?'
p839
tp840
Rp841
s(S'diff-x-pos--28'
p842
S'prev-action-1'
p843
tp844
g5
(g9
S'r\xd5\xfa\xf6G\xd9\xda\xbf'
p845
tp846
Rp847
s(S'diff-x-pos--71'
p848
S'prev-action-1'
p849
tp850
g5
(g9
S'\xa0\x97\x0c\xa5\x87+\xe3\xbf'
p851
tp852
Rp853
s(S'diff-x-pos--107'
p854
S'prev-action-3'
p855
tp856
g5
(g9
S'\xfcBC\xf2\xbc\xac\xeb?'
p857
tp858
Rp859
sS'object-1-dx-1'
p860
g5
(g9
S'\x00:\xd6\xc53\xb5\x97?'
p861
tp862
Rp863
s(S'diff-x-pos--83'
p864
S'action-4'
p865
tp866
g5
(g9
S'\x10)B\xa0\xb1\x9e\xc8?'
p867
tp868
Rp869
s(S'diff-x-pos--55'
p870
S'prev-action-1'
p871
tp872
g5
(g9
S'\x804r~\xbfj\xd7?'
p873
tp874
Rp875
s(S'diff-x-pos-42'
p876
S'action-3'
p877
tp878
g5
(g9
S'\x9b\xcc\xc9\x15\xe1\xc7\xe3?'
p879
tp880
Rp881
s(S'diff-x-pos-10'
p882
S'prev-action-3'
p883
tp884
g5
(g9
S',$`d(G\xdc?'
p885
tp886
Rp887
s(S'diff-x-pos--37'
p888
S'prev-action-1'
p889
tp890
g5
(g9
S'?Oy\x11\x0f>\xd9\xbf'
p891
tp892
Rp893
s(S'diff-x-pos--74'
p894
S'action-3'
p895
tp896
g5
(g9
S'\xac@H\xdc[\xd9\xe7\xbf'
p897
tp898
Rp899
s(g266
S'prev-action-1'
p900
tp901
g5
(g9
S"'\x11\x9aA\xc4\x10\xf2?"
p902
tp903
Rp904
s(g653
S'action-3'
p905
tp906
g5
(g9
S'\xbe\xe9S\xb9$\xbf\xef?'
p907
tp908
Rp909
s(S'diff-x-pos-57'
p910
S'prev-action-4'
p911
tp912
g5
(g9
S'\x9c\x80\x19\x14\xc6\xac\xd2?'
p913
tp914
Rp915
s(S'diff-x-pos--91'
p916
S'prev-action-1'
p917
tp918
g5
(g9
S'\x9e\x92\x85(u>\xcf\xbf'
p919
tp920
Rp921
sS'diff-x-pos-12'
p922
g5
(g9
S'v\x88\xed\\(\xc8\xc0\xbf'
p923
tp924
Rp925
sS'diff-x-pos-13'
p926
g5
(g9
S'\x800\xadT4\xaa\xc0\xbf'
p927
tp928
Rp929
sg882
g5
(g9
S'N\x9a\x9f\xc8\x9b\x04\xf4\xbf'
p930
tp931
Rp932
sS'diff-x-pos-11'
p933
g5
(g9
S'\xc8\xa83\xf3\x9dj\xa0?'
p934
tp935
Rp936
sS'diff-x-pos-16'
p937
g5
(g9
S'[\x97\x98v\xde1\xf0\xbf'
p938
tp939
Rp940
sS'diff-x-pos-17'
p941
g5
(g9
S'so\x079\xa3\xb8\xf2\xbf'
p942
tp943
Rp944
sS'diff-x-pos-14'
p945
g5
(g9
S'\x94\x83\x93\xfey\xe5\xdc\xbf'
p946
tp947
Rp948
sS'diff-x-pos-15'
p949
g5
(g9
S'\xf1\x91LEJk\xf3\xbf'
p950
tp951
Rp952
s(S'diff-x-pos-28'
p953
S'action-1'
p954
tp955
g5
(g9
S'\xdfQ5\x84\xa6\x83\xe6\xbf'
p956
tp957
Rp958
sS'diff-x-pos-18'
p959
g5
(g9
S'\x00\xb8\x00\xdd \x19J?'
p960
tp961
Rp962
sS'diff-x-pos-19'
p963
g5
(g9
S'9\xe5B\x8fW\xc7\xd5?'
p964
tp965
Rp966
s(g130
S'object-0-x-100.0'
p967
tp968
g5
(g9
S'\xdd\x10N\xcd};\xf8?'
p969
tp970
Rp971
s(S'diff-x-pos--51'
p972
S'prev-action-1'
p973
tp974
g5
(g9
S'\xab<Q(\xa3\xec\xd7\xbf'
p975
tp976
Rp977
s(g462
S'action-3'
p978
tp979
g5
(g9
S'\xf0q\xafs\x99\x9a\xc0\xbf'
p980
tp981
Rp982
s(S'diff-x-pos--94'
p983
S'prev-action-1'
p984
tp985
g5
(g9
S'\xf9@-2\xab(\xe2\xbf'
p986
tp987
Rp988
s(S'diff-x-pos--44'
p989
S'action-3'
p990
tp991
g5
(g9
S'8\x9a\t\x0c\x0f\x1d\xdb?'
p992
tp993
Rp994
s(S'diff-x-pos--33'
p995
S'prev-action-1'
p996
tp997
g5
(g9
S' \xb0t\x9d\xa8\xf5\xf0\xbf'
p998
tp999
Rp1000
s(S'diff-x-pos--42'
p1001
S'action-3'
p1002
tp1003
g5
(g9
S'7\x96]{r\x0c\x02@'
p1004
tp1005
Rp1006
s(g546
S'prev-action-3'
p1007
tp1008
g5
(g9
S'\xc4\xc7|\xa6\xb5\xa5\xe2?'
p1009
tp1010
Rp1011
s(S'diff-x-pos--85'
p1012
S'action-3'
p1013
tp1014
g5
(g9
S'\x15\xc8{y\xaf\x8d\xe5\xbf'
p1015
tp1016
Rp1017
s(S'action-4'
p1018
S'object-0-x-110.0'
p1019
tp1020
g5
(g9
S'G\x03\xdb\xa1\x83S\x11@'
p1021
tp1022
Rp1023
s(S'diff-x-pos-2'
p1024
S'prev-action-4'
p1025
tp1026
g5
(g9
S'\x16?\xdf\xb4\x84\xd6\x00@'
p1027
tp1028
Rp1029
s(S'diff-x-pos--44'
p1030
S'action-4'
p1031
tp1032
g5
(g9
S'\xf63]\x96X\x10\xfa?'
p1033
tp1034
Rp1035
s(S'diff-x-pos--100'
p1036
S'action-4'
p1037
tp1038
g5
(g9
S't\tfH\xcf\xa5\xf0\xbf'
p1039
tp1040
Rp1041
s(S'diff-x-pos--32'
p1042
S'prev-action-1'
p1043
tp1044
g5
(g9
S'\xb8T/\xa5?1\xc7\xbf'
p1045
tp1046
Rp1047
s(S'diff-x-pos--43'
p1048
S'prev-action-1'
p1049
tp1050
g5
(g9
S'x\xf3<\xbc\xaa\xbb\xe2?'
p1051
tp1052
Rp1053
s(S'diff-x-pos--81'
p1054
S'prev-action-4'
p1055
tp1056
g5
(g9
S'pNa(\xe6\x15\xb6?'
p1057
tp1058
Rp1059
s(S'diff-x-pos--96'
p1060
S'prev-action-1'
p1061
tp1062
g5
(g9
S'\x1a\xf9\xe1\x9e\xd5\xff\xdb\xbf'
p1063
tp1064
Rp1065
s(S'diff-x-pos-6'
p1066
S'prev-action-1'
p1067
tp1068
g5
(g9
S'&\xce\x83\x85@\xe5\xf2?'
p1069
tp1070
Rp1071
s(g492
S'action-3'
p1072
tp1073
g5
(g9
S'ZO\xd7\xf2t\xc9\xe0\xbf'
p1074
tp1075
Rp1076
s(S'action-1'
p1077
g430
tp1078
g5
(g9
S'\r\x8eq\x82_b\xf0\xbf'
p1079
tp1080
Rp1081
s(S'diff-x-pos--25'
p1082
S'prev-action-1'
p1083
tp1084
g5
(g9
S'\x17\xa9\n\xdd\x88D\x01\xc0'
p1085
tp1086
Rp1087
s(S'diff-x-pos-58'
p1088
S'prev-action-4'
p1089
tp1090
g5
(g9
S'\x00R\x87\xd9\x1b<\xe4?'
p1091
tp1092
Rp1093
s(S'diff-x-pos-43'
p1094
S'prev-action-1'
p1095
tp1096
g5
(g9
S'\xa0E\xe1<B\xb9\xa1\xbf'
p1097
tp1098
Rp1099
s(S'diff-x-pos-1'
p1100
S'action-1'
p1101
tp1102
g5
(g9
S'\xcd\x9d\xef\x86\xa9v\xeb?'
p1103
tp1104
Rp1105
s(g448
S'action-3'
p1106
tp1107
g5
(g9
S'\x10\x87\x19\x11\x03\xb6\xf0?'
p1108
tp1109
Rp1110
s(S'diff-x-pos-40'
p1111
S'prev-action-4'
p1112
tp1113
g5
(g9
S'\x9c P\xf5\x1f\x10\x00\xc0'
p1114
tp1115
Rp1116
s(S'diff-x-pos--21'
p1117
S'action-1'
p1118
tp1119
g5
(g9
S"\x1e\xc6H'\x9d2\xdd?"
p1120
tp1121
Rp1122
s(g39
S'action-4'
p1123
tp1124
g5
(g9
S'\x04\xe9\xf6\x91\xdd\x91\x02\xc0'
p1125
tp1126
Rp1127
s(S'diff-x-pos--3'
p1128
S'prev-action-4'
p1129
tp1130
g5
(g9
S'\x86|\xc0k\\\x05\xf2\xbf'
p1131
tp1132
Rp1133
s(g659
S'prev-action-4'
p1134
tp1135
g5
(g9
S'\x1e>\x9c\x88\xe3\xa4#@'
p1136
tp1137
Rp1138
s(S'diff-x-pos--47'
p1139
S'action-1'
p1140
tp1141
g5
(g9
S'4S}\xf1qJ\xf3?'
p1142
tp1143
Rp1144
s(S'object-0-dx--1'
p1145
S'prev-action-1'
p1146
tp1147
g5
(g9
S'Z\xd2\xc3\xb0z\xe6\xe2?'
p1148
tp1149
Rp1150
s(S'diff-x-pos-33'
p1151
S'prev-action-3'
p1152
tp1153
g5
(g9
S'0\xca\xc8\x82\x0b\xae\x02\xc0'
p1154
tp1155
Rp1156
s(S'diff-x-pos--8'
p1157
S'prev-action-4'
p1158
tp1159
g5
(g9
S'UE\x98\xe3\xb1g\xe6\xbf'
p1160
tp1161
Rp1162
s(S'diff-x-pos--15'
p1163
S'action-3'
p1164
tp1165
g5
(g9
S'\xaa\xde\xd30\xba\x99\xe2?'
p1166
tp1167
Rp1168
s(S'diff-x-pos--85'
p1169
S'action-4'
p1170
tp1171
g5
(g9
S'\xe7\xfa\x8c\x0cs\xcb\xd4?'
p1172
tp1173
Rp1174
s(g400
S'action-3'
p1175
tp1176
g5
(g9
S'\xb5\xbe\xdc\x16\xed\x1b\xf2?'
p1177
tp1178
Rp1179
s(S'object-0-dx-1'
p1180
g207
tp1181
g5
(g9
S'\xe2 \xb4\x0e[\xd6\xfd\xbf'
p1182
tp1183
Rp1184
s(S'diff-x-pos--86'
p1185
S'action-3'
p1186
tp1187
g5
(g9
S'\x9dX}\xe0\x9e\xf6\xe8?'
p1188
tp1189
Rp1190
s(S'diff-x-pos--49'
p1191
S'action-3'
p1192
tp1193
g5
(g9
S'\xe4\xa2\xc7\xa5\xfe\x88\xf5\xbf'
p1194
tp1195
Rp1196
s(S'diff-x-pos-9'
p1197
S'action-4'
p1198
tp1199
g5
(g9
S'>\xb75c_\xb6\xf2\xbf'
p1200
tp1201
Rp1202
s(S'diff-x-pos--98'
p1203
S'action-4'
p1204
tp1205
g5
(g9
S'\xfe0\x88?\\\xe6\xee?'
p1206
tp1207
Rp1208
s(S'diff-x-pos--58'
p1209
S'prev-action-4'
p1210
tp1211
g5
(g9
S'\xae\xd7\xdf\xfb\xd9\x00\xdf?'
p1212
tp1213
Rp1214
s(S'diff-x-pos-60'
p1215
S'prev-action-4'
p1216
tp1217
g5
(g9
S'4\xd2>\xaf\x8c\xed\xc8?'
p1218
tp1219
Rp1220
s(S'action-1'
p1221
S'object-0-x-50.0'
p1222
tp1223
g5
(g9
S'Go\x16:\xa5\xd8\x0b@'
p1224
tp1225
Rp1226
s(g183
S'prev-action-3'
p1227
tp1228
g5
(g9
S'\xc0d\xaf\xbbm\x15\xa6?'
p1229
tp1230
Rp1231
s(g189
S'prev-action-3'
p1232
tp1233
g5
(g9
S'\x06\x08\t\xf8\x04\xb9\xe6?'
p1234
tp1235
Rp1236
s(g338
S'prev-action-4'
p1237
tp1238
g5
(g9
S'\xbe\xf9}(\x01\x99\xf2\xbf'
p1239
tp1240
Rp1241
s(g1030
g444
tp1242
g5
(g9
S'&\xbeQ\xd63\x19\xc2?'
p1243
tp1244
Rp1245
s(S'diff-x-pos--92'
p1246
S'prev-action-3'
p1247
tp1248
g5
(g9
S'N\xd1\xc8\xd4\x1fg\xdf\xbf'
p1249
tp1250
Rp1251
s(S'diff-x-pos-52'
p1252
S'action-3'
p1253
tp1254
g5
(g9
S'3\xc7\xaf\xcc]\x9b\xcb\xbf'
p1255
tp1256
Rp1257
s(S'action-1'
p1258
S'prev-action-3'
p1259
tp1260
g5
(g9
S'9o\x8c.H\xe9\x11@'
p1261
tp1262
Rp1263
s(S'diff-x-pos-59'
p1264
S'action-1'
p1265
tp1266
g5
(g9
S'4\xa6\xc3\x1e\xee:\xdf?'
p1267
tp1268
Rp1269
s(S'action-3'
p1270
S'object-0-x-10.0'
p1271
tp1272
g5
(g9
S'\xa7\xfbX\xa0\xe47\xf7?'
p1273
tp1274
Rp1275
s(S'diff-x-pos-41'
p1276
S'action-1'
p1277
tp1278
g5
(g9
S'j\x93\xea\x8f\xe4\x99\xf6\xbf'
p1279
tp1280
Rp1281
s(g296
S'prev-action-1'
p1282
tp1283
g5
(g9
S'\xb5\xd5\xceR\xb9b\xda?'
p1284
tp1285
Rp1286
s(S'diff-x-pos--104'
p1287
S'prev-action-1'
p1288
tp1289
g5
(g9
S'djP\x99\x88\x87\xf2?'
p1290
tp1291
Rp1292
s(S'diff-x-pos-5'
p1293
S'action-3'
p1294
tp1295
g5
(g9
S'\xadE\xbd\xb8E\x9e\xfe?'
p1296
tp1297
Rp1298
s(S'diff-x-pos--115'
p1299
S'prev-action-3'
p1300
tp1301
g5
(g9
S'\x10\xe0W\xf2m\xb5\xef?'
p1302
tp1303
Rp1304
s(g1031
g444
tp1305
g5
(g9
S';\xf6\xc7+\xe6e\x1a@'
p1306
tp1307
Rp1308
s(S'diff-x-pos--41'
p1309
S'action-1'
p1310
tp1311
g5
(g9
S'\xe4\xd9\x93\xa6\x1d\x88\xd4?'
p1312
tp1313
Rp1314
s(S'diff-x-pos-27'
p1315
S'prev-action-1'
p1316
tp1317
g5
(g9
S'\x1d\xa0&i\xdd\x03\x03\xc0'
p1318
tp1319
Rp1320
sS'diff-x-pos--14'
p1321
g5
(g9
S'\x80\xef\xcf\xb6\x02s\x88?'
p1322
tp1323
Rp1324
s(S'diff-x-pos-13'
p1325
S'prev-action-1'
p1326
tp1327
g5
(g9
S'#\xbe\x0b>{4\xe5\xbf'
p1328
tp1329
Rp1330
s(S'action-3'
p1331
S'prev-action-0'
p1332
tp1333
g5
(g9
S'\x05g@c\xcd+\x18@'
p1334
tp1335
Rp1336
s(S'diff-x-pos--49'
p1337
S'action-4'
p1338
tp1339
g5
(g9
S'=\xb1x\xc6\xa1\xdb\xe4?'
p1340
tp1341
Rp1342
s(g510
S'action-3'
p1343
tp1344
g5
(g9
S'\x9c\xa5\xbe\xf9\xce\x92\xb4?'
p1345
tp1346
Rp1347
s(S'diff-x-pos--75'
p1348
S'action-1'
p1349
tp1350
g5
(g9
S'\xcc\xb0\xa8\xa5\xb8\x1c\xe3?'
p1351
tp1352
Rp1353
s(S'diff-x-pos--46'
p1354
S'action-4'
p1355
tp1356
g5
(g9
S'\xa6}\xd9S|\xd0\x06@'
p1357
tp1358
Rp1359
s(S'diff-x-pos--23'
p1360
S'prev-action-1'
p1361
tp1362
g5
(g9
S'\x80\x15\x89\xa7\x91\xbc\xc3\xbf'
p1363
tp1364
Rp1365
s(S'diff-x-pos--58'
p1366
S'prev-action-3'
p1367
tp1368
g5
(g9
S'I\x07\xb4D1\xf0\xe4\xbf'
p1369
tp1370
Rp1371
s(S'diff-x-pos-56'
p1372
S'prev-action-4'
p1373
tp1374
g5
(g9
S'd\xca)\x0f\x1fh\xa8?'
p1375
tp1376
Rp1377
s(S'diff-x-pos--105'
p1378
S'prev-action-1'
p1379
tp1380
g5
(g9
S'P\xb0_#f\x80\xa4?'
p1381
tp1382
Rp1383
s(S'diff-x-pos--3'
p1384
S'action-1'
p1385
tp1386
g5
(g9
S'A\xc3\xa8\xf8\xfe\x14\xec\xbf'
p1387
tp1388
Rp1389
s(S'diff-x-pos--86'
p1390
S'prev-action-1'
p1391
tp1392
g5
(g9
S'\xb0\xcc\xfd\t\x12\xb8\xe1\xbf'
p1393
tp1394
Rp1395
sS'diff-x-pos--15'
p1396
g5
(g9
S'@\x1f\x89\x93a\x91\xcd\xbf'
p1397
tp1398
Rp1399
s(S'diff-x-pos-15'
p1400
S'action-3'
p1401
tp1402
g5
(g9
S'^R@\xec_\r\xd3\xbf'
p1403
tp1404
Rp1405
s(S'diff-x-pos--52'
p1406
S'action-1'
p1407
tp1408
g5
(g9
S'(\xf7#\xe6\xfc-\xe4?'
p1409
tp1410
Rp1411
s(S'diff-x-pos--110'
p1412
S'action-3'
p1413
tp1414
g5
(g9
S'\xa9\xeb\x19\x8d\x91\x01\xe9\xbf'
p1415
tp1416
Rp1417
s(S'diff-x-pos--62'
p1418
S'action-1'
p1419
tp1420
g5
(g9
S'\x9f\x9d\x16,\xd3,\xe0?'
p1421
tp1422
Rp1423
s(S'diff-x-pos-17'
p1424
S'prev-action-1'
p1425
tp1426
g5
(g9
S'\x91\xd8\x87\xd7\xcc\xf7\xf2\xbf'
p1427
tp1428
Rp1429
s(S'diff-x-pos-18'
p1430
S'prev-action-3'
p1431
tp1432
g5
(g9
S'>\x0bVv\x9b\xae\xeb\xbf'
p1433
tp1434
Rp1435
s(S'diff-x-pos--9'
p1436
S'action-4'
p1437
tp1438
g5
(g9
S'\xbc\x1e\x8c6K\x07\xe0?'
p1439
tp1440
Rp1441
s(S'diff-x-pos--64'
p1442
S'prev-action-3'
p1443
tp1444
g5
(g9
S'\xacg\x8b\x8eVX\xe3?'
p1445
tp1446
Rp1447
s(g153
S'action-1'
p1448
tp1449
g5
(g9
S'\xecv\n\x87H\xb6\x00@'
p1450
tp1451
Rp1452
s(S'diff-x-pos--101'
p1453
S'prev-action-1'
p1454
tp1455
g5
(g9
S'\xa7\xa7\xa5\xde\xb9\xd9\x90?'
p1456
tp1457
Rp1458
sg1019
g5
(g9
S'\x83,\xfd\x94c\xb9\x1a@'
p1459
tp1460
Rp1461
s(g135
S'prev-action-3'
p1462
tp1463
g5
(g9
S'\x90\n\x1f\x06[\x1b\xb1\xbf'
p1464
tp1465
Rp1466
s(S'diff-x-pos--76'
p1467
S'prev-action-4'
p1468
tp1469
g5
(g9
S'\xcc\\\x80B\x1a\xcc\xed?'
p1470
tp1471
Rp1472
s(S'diff-x-pos-46'
p1473
S'prev-action-4'
p1474
tp1475
g5
(g9
S'\xa0\xce\x11\x0b\x9a\xc7\xcf\xbf'
p1476
tp1477
Rp1478
s(S'diff-x-pos--87'
p1479
S'prev-action-3'
p1480
tp1481
g5
(g9
S'\xb2\x92 \xee\xf7\x1e\xe2?'
p1482
tp1483
Rp1484
s(S'diff-x-pos--84'
p1485
S'action-1'
p1486
tp1487
g5
(g9
S'5S\x97\xb8\xe9\xae\xd0?'
p1488
tp1489
Rp1490
s(S'diff-x-pos--70'
p1491
S'prev-action-1'
p1492
tp1493
g5
(g9
S'\x1fK\xb1L]I\xd3\xbf'
p1494
tp1495
Rp1496
s(S'diff-x-pos--36'
p1497
S'action-4'
p1498
tp1499
g5
(g9
S'\x98i\xb8%i]\xf6?'
p1500
tp1501
Rp1502
s(S'diff-x-pos-43'
p1503
S'action-4'
p1504
tp1505
g5
(g9
S'\xf2i\xd4\xf8\xf1\xd5\xf5\xbf'
p1506
tp1507
Rp1508
s(g87
S'prev-action-3'
p1509
tp1510
g5
(g9
S'\xdd\r\x0b\xf7:E\xf8?'
p1511
tp1512
Rp1513
s(S'diff-x-pos--108'
p1514
S'prev-action-3'
p1515
tp1516
g5
(g9
S'\x86[\xf2:\x89!\xb8\xbf'
p1517
tp1518
Rp1519
s(S'action-1'
p1520
S'object-0-x-30.0'
p1521
tp1522
g5
(g9
S'iG\xc72\xc1n\x00@'
p1523
tp1524
Rp1525
s(S'diff-x-pos-7'
p1526
S'action-4'
p1527
tp1528
g5
(g9
S'\xf4\x0b\x0f\xfaZ\xc7\xcd?'
p1529
tp1530
Rp1531
s(S'diff-x-pos-22'
p1532
S'action-4'
p1533
tp1534
g5
(g9
S'Sa\x96T\xd7\xa2\xef\xbf'
p1535
tp1536
Rp1537
s(g1060
S'action-4'
p1538
tp1539
g5
(g9
S'\xa6\x8a\xf2\xf6;\xd4\xe4?'
p1540
tp1541
Rp1542
s(S'diff-x-pos-27'
p1543
S'action-1'
p1544
tp1545
g5
(g9
S'0\xa2!o6-}\xbf'
p1546
tp1547
Rp1548
s(S'diff-x-pos-54'
p1549
S'prev-action-1'
p1550
tp1551
g5
(g9
S'b4\xee\x98\xf4\x9c\x00@'
p1552
tp1553
Rp1554
s(S'diff-x-pos-8'
p1555
S'prev-action-3'
p1556
tp1557
g5
(g9
S'a(\xf4\xd1\xd2\x17\xf0?'
p1558
tp1559
Rp1560
s(S'diff-x-pos--101'
p1561
S'action-1'
p1562
tp1563
g5
(g9
S'\xcd\x9cEo\xe7y\xc4?'
p1564
tp1565
Rp1566
s(S'diff-x-pos--110'
p1567
S'action-4'
p1568
tp1569
g5
(g9
S'^\xe2\xc7\x9d\x9b\xed\xca\xbf'
p1570
tp1571
Rp1572
s(S'diff-x-pos-51'
p1573
S'action-4'
p1574
tp1575
g5
(g9
S'\xb4\xe7\x13\x87\x01\xa3\xfb?'
p1576
tp1577
Rp1578
s(S'diff-x-pos--99'
p1579
S'prev-action-3'
p1580
tp1581
g5
(g9
S'\xd4{\xb93A\x19\xb5\xbf'
p1582
tp1583
Rp1584
s(S'diff-x-pos--102'
p1585
S'prev-action-1'
p1586
tp1587
g5
(g9
S'\x91U\x92\xed\x9bK\xd6?'
p1588
tp1589
Rp1590
s(S'diff-x-pos--19'
p1591
S'prev-action-3'
p1592
tp1593
g5
(g9
S'\xc3M\x05\xcd\x10\xc6\x04@'
p1594
tp1595
Rp1596
s(S'diff-x-pos--88'
p1597
S'action-4'
p1598
tp1599
g5
(g9
S'\xf8%\xc8\xf0\xf9e\xc7?'
p1600
tp1601
Rp1602
s(S'diff-x-pos-12'
p1603
S'action-3'
p1604
tp1605
g5
(g9
S'\xfc\xe6\x1f\xa0b\xa6\xd7\xbf'
p1606
tp1607
Rp1608
s(S'diff-x-pos-47'
p1609
S'action-1'
p1610
tp1611
g5
(g9
S'\xa4\tE\xa5\x9f\xdf\xe9\xbf'
p1612
tp1613
Rp1614
s(S'diff-x-pos--89'
p1615
S'prev-action-4'
p1616
tp1617
g5
(g9
S'\x12\x1a\x86E\x96@\x10@'
p1618
tp1619
Rp1620
s(S'diff-x-pos--95'
p1621
S'action-1'
p1622
tp1623
g5
(g9
S'F\x07#\x9b\x05\xbf\xec\xbf'
p1624
tp1625
Rp1626
s(S'diff-x-pos--76'
p1627
S'prev-action-3'
p1628
tp1629
g5
(g9
S'\xfe\xd0\r>\xa6\xa2\xf7\xbf'
p1630
tp1631
Rp1632
s(S'diff-x-pos--11'
p1633
S'prev-action-1'
p1634
tp1635
g5
(g9
S'\x14\xeb\xde\xc5\x0f\xd1\xd2?'
p1636
tp1637
Rp1638
s(S'diff-x-pos--16'
p1639
S'action-1'
p1640
tp1641
g5
(g9
S'\x94\xdf\x0c\n\xab\x8d\xd5?'
p1642
tp1643
Rp1644
s(g681
S'prev-action-4'
p1645
tp1646
g5
(g9
S'Jm*0\xc5\x8b\xf0\xbf'
p1647
tp1648
Rp1649
s(S'diff-x-pos-50'
p1650
S'prev-action-4'
p1651
tp1652
g5
(g9
S'\xd9\x1ef\x99G\xeb\xde?'
p1653
tp1654
Rp1655
s(S'diff-x-pos--6'
p1656
S'prev-action-3'
p1657
tp1658
g5
(g9
S'\xcb\xcc4\x00F[\xdb\xbf'
p1659
tp1660
Rp1661
s(S'diff-x-pos-53'
p1662
S'prev-action-1'
p1663
tp1664
g5
(g9
S'\x1amz\x11!\x1c\xc1\xbf'
p1665
tp1666
Rp1667
s(S'diff-x-pos--48'
p1668
S'action-1'
p1669
tp1670
g5
(g9
S'"\xe6O\x0b\xf9\xa6\xe8?'
p1671
tp1672
Rp1673
s(S'diff-x-pos--45'
p1674
S'action-3'
p1675
tp1676
g5
(g9
S'\xa0\xee\x91\x0c5\xb8\xd3\xbf'
p1677
tp1678
Rp1679
s(S'diff-x-pos-6'
p1680
S'prev-action-4'
p1681
tp1682
g5
(g9
S'\\\x9a\x9e0&\xd1\xfb\xbf'
p1683
tp1684
Rp1685
s(S'diff-x-pos--77'
p1686
S'action-1'
p1687
tp1688
g5
(g9
S'\x1b\xf0\x8aXn\x16\xe7\xbf'
p1689
tp1690
Rp1691
s(g1609
S'prev-action-3'
p1692
tp1693
g5
(g9
S'\xc6\x1b\xcb\xa2\xcd\x15\x03@'
p1694
tp1695
Rp1696
s(S'diff-x-pos--80'
p1697
S'prev-action-3'
p1698
tp1699
g5
(g9
S'\x01U\x88\x0ff\xcb\xe1?'
p1700
tp1701
Rp1702
s(S'diff-x-pos-36'
p1703
S'prev-action-1'
p1704
tp1705
g5
(g9
S'j\xefi\xfb\xb8\xe6\xe2\xbf'
p1706
tp1707
Rp1708
s(S'diff-x-pos--34'
p1709
S'prev-action-4'
p1710
tp1711
g5
(g9
S'"\x8bq2\x11t\xf8\xbf'
p1712
tp1713
Rp1714
s(S'diff-x-pos-35'
p1715
S'prev-action-4'
p1716
tp1717
g5
(g9
S')\x9f\xbe\xe57\xd9\xdf\xbf'
p1718
tp1719
Rp1720
s(S'diff-x-pos--99'
p1721
S'prev-action-4'
p1722
tp1723
g5
(g9
S'\x08\xd4dSV\n\xab\xbf'
p1724
tp1725
Rp1726
s(S'diff-x-pos-27'
p1727
S'prev-action-4'
p1728
tp1729
g5
(g9
S'\x8c!\x96o\xa0.\xc3?'
p1730
tp1731
Rp1732
s(S'diff-x-pos--45'
p1733
S'prev-action-3'
p1734
tp1735
g5
(g9
S'\x85\x10iU\x13\x8f\xd7\xbf'
p1736
tp1737
Rp1738
s(S'diff-x-pos--109'
p1739
S'prev-action-1'
p1740
tp1741
g5
(g9
S'\x89\x83\x95\xbf\x17,\xdd?'
p1742
tp1743
Rp1744
s(S'diff-x-pos--48'
p1745
S'prev-action-1'
p1746
tp1747
g5
(g9
S';C\xa7\xbd\xc1\x00\xc3?'
p1748
tp1749
Rp1750
s(S'action-1'
p1751
S'object-0-x-20.0'
p1752
tp1753
g5
(g9
S'6#\x92sr\xaa\xfa?'
p1754
tp1755
Rp1756
s(S'diff-x-pos--60'
p1757
S'action-1'
p1758
tp1759
g5
(g9
S'!s=rF(\xf1?'
p1760
tp1761
Rp1762
s(S'diff-x-pos--10'
p1763
S'action-4'
p1764
tp1765
g5
(g9
S"R\x03'\x19\xdc\xb7\xc9?"
p1766
tp1767
Rp1768
s(S'object-1-dx--1'
p1769
g444
tp1770
g5
(g9
S'\xeb\x03\xc8I\x05\x99\xf6\xbf'
p1771
tp1772
Rp1773
s(S'diff-x-pos--114'
p1774
S'prev-action-1'
p1775
tp1776
g5
(g9
S'\x0c\xcb\xb5M~K\xe6\xbf'
p1777
tp1778
Rp1779
s(S'diff-x-pos--40'
p1780
S'action-4'
p1781
tp1782
g5
(g9
S'\xe0c\xdc\xb7\xa0Y\xdb\xbf'
p1783
tp1784
Rp1785
s(S'action-4'
p1786
S'object-0-x-30.0'
p1787
tp1788
g5
(g9
S':C\xd4/\x8f\x17\xf3?'
p1789
tp1790
Rp1791
s(S'diff-x-pos--119'
p1792
S'prev-action-3'
p1793
tp1794
g5
(g9
S'\xc0\x08/\xc7\x1eJ\xe9?'
p1795
tp1796
Rp1797
s(S'diff-x-pos-16'
p1798
S'action-1'
p1799
tp1800
g5
(g9
S'\xf2\x9a9\r\xf5\xe0\xe9\xbf'
p1801
tp1802
Rp1803
s(S'diff-x-pos-39'
p1804
S'prev-action-1'
p1805
tp1806
g5
(g9
S'\x00\xb4\xd3\x944\xe8\xf9?'
p1807
tp1808
Rp1809
s(S'diff-x-pos--12'
p1810
S'prev-action-1'
p1811
tp1812
g5
(g9
S'\xc8\xd3\xeb\xc4\x81.\x84?'
p1813
tp1814
Rp1815
s(S'diff-x-pos--102'
p1816
S'action-1'
p1817
tp1818
g5
(g9
S'\xa3\x92[\xa8\x0b\xd1\xd0?'
p1819
tp1820
Rp1821
s(S'diff-x-pos--38'
p1822
S'action-4'
p1823
tp1824
g5
(g9
S'\x08\xbe\x1e\xee\x1e\xce\xc5?'
p1825
tp1826
Rp1827
s(S'action-3'
p1828
S'object-0-x-80.0'
p1829
tp1830
g5
(g9
S'\xbe\xc4\xcd\xa9\xfe\xd3\x04@'
p1831
tp1832
Rp1833
sg1048
g5
(g9
S't\xd1\x0f\xec\x8c#\xea\xbf'
p1834
tp1835
Rp1836
sg1001
g5
(g9
S'\x97%\x9b-k2\xf6?'
p1837
tp1838
Rp1839
sS'diff-x-pos--41'
p1840
g5
(g9
S'\xbc\xcf\x15\xd1\x8c\xc0\xd7\xbf'
p1841
tp1842
Rp1843
sS'diff-x-pos--40'
p1844
g5
(g9
S'\n#\xb9r\x82\x89\xe3\xbf'
p1845
tp1846
Rp1847
sS'diff-x-pos--47'
p1848
g5
(g9
S'\xa7\xf1\xe7\xe2+!\xe0?'
p1849
tp1850
Rp1851
sg1354
g5
(g9
S')\x14Sl\xe3\x90\xf4?'
p1852
tp1853
Rp1854
sg1674
g5
(g9
S'w\xef\x98\xe8u\xef\xe5?'
p1855
tp1856
Rp1857
sg1030
g5
(g9
S'\x9dH\xa2N\x92\x10\xf1?'
p1858
tp1859
Rp1860
s(S'diff-x-pos--1'
p1861
S'prev-action-3'
p1862
tp1863
g5
(g9
S'Q\r\xce\xbe\xd3\r\x01\xc0'
p1864
tp1865
Rp1866
sg1337
g5
(g9
S'\x04\x98\xa5\t\x82\xaf\xe6\xbf'
p1867
tp1868
Rp1869
sS'diff-x-pos--48'
p1870
g5
(g9
S'\xb0 \xa0Fh[\xb4\xbf'
p1871
tp1872
Rp1873
s(S'diff-x-pos--53'
p1874
S'action-3'
p1875
tp1876
g5
(g9
S'B\xa0z{\x9f\xa4\xef?'
p1877
tp1878
Rp1879
s(g731
S'prev-action-1'
p1880
tp1881
g5
(g9
S'\xc0\x07\xe6\x7f\x08\xa7\x03@'
p1882
tp1883
Rp1884
s(S'diff-x-pos--111'
p1885
S'action-1'
p1886
tp1887
g5
(g9
S',\xd4\xf1c\x0c\xd9\xfb\xbf'
p1888
tp1889
Rp1890
s(S'diff-x-pos--108'
p1891
S'action-3'
p1892
tp1893
g5
(g9
S'C\xc6|t\xa04\xe7\xbf'
p1894
tp1895
Rp1896
s(S'diff-x-pos-53'
p1897
S'action-4'
p1898
tp1899
g5
(g9
S'\x9f\xf9@\xc9(+\xe0?'
p1900
tp1901
Rp1902
s(g1002
S'object-0-x-20.0'
p1903
tp1904
g5
(g9
S'\xce\x1bz\xa5\x02\xe9\xf7?'
p1905
tp1906
Rp1907
s(g468
S'prev-action-4'
p1908
tp1909
g5
(g9
S'Vmqi\x8c\xf6\xed\xbf'
p1910
tp1911
Rp1912
s(S'object-1-dx-1'
p1913
S'prev-action-4'
p1914
tp1915
g5
(g9
S'M\xd7g\xc6\x01f\xd0?'
p1916
tp1917
Rp1918
s(S'diff-x-pos-32'
p1919
S'prev-action-3'
p1920
tp1921
g5
(g9
S'` \xcc\xae\xe2\xc9\xff\xbf'
p1922
tp1923
Rp1924
s(S'diff-x-pos--16'
p1925
S'prev-action-4'
p1926
tp1927
g5
(g9
S'm\xcb\xc3\xefS\xd5\xe5?'
p1928
tp1929
Rp1930
s(S'diff-x-pos-20'
p1931
S'action-3'
p1932
tp1933
g5
(g9
S'"\x9f\xc6q\xe8*\xf6\xbf'
p1934
tp1935
Rp1936
s(S'diff-x-pos--72'
p1937
S'action-1'
p1938
tp1939
g5
(g9
S'\xb4\x96u\xc3u\x1c\xec?'
p1940
tp1941
Rp1942
s(S'diff-x-pos--76'
p1943
S'action-4'
p1944
tp1945
g5
(g9
S'!\xe6a:J\x81\xec?'
p1946
tp1947
Rp1948
s(S'diff-x-pos--106'
p1949
S'prev-action-3'
p1950
tp1951
g5
(g9
S'\xf4\x1a\xaf\xbc~;\xe0\xbf'
p1952
tp1953
Rp1954
s(g1844
g1828
tp1955
g5
(g9
S'M\xae\x18~f\xcc\xe1?'
p1956
tp1957
Rp1958
sg574
I1
s(S'diff-x-pos--28'
p1959
S'prev-action-4'
p1960
tp1961
g5
(g9
S'\xecj\\\xd4B\x1c\xb1\xbf'
p1962
tp1963
Rp1964
s(S'diff-x-pos-49'
p1965
S'action-1'
p1966
tp1967
g5
(g9
S'\xea\xe3D\x05\xf0\xf2\xd9\xbf'
p1968
tp1969
Rp1970
s(S'diff-x-pos--107'
p1971
S'prev-action-4'
p1972
tp1973
g5
(g9
S'\x80\xe8\xb4\xa6\x0e*\xf0?'
p1974
tp1975
Rp1976
s(S'diff-x-pos--103'
p1977
S'prev-action-4'
p1978
tp1979
g5
(g9
S'-):\xab\xb6a\xf9?'
p1980
tp1981
Rp1982
s(S'diff-x-pos--64'
p1983
S'action-3'
p1984
tp1985
g5
(g9
S'\x7f\xed\x13`o\x15\xe2\xbf'
p1986
tp1987
Rp1988
s(S'diff-x-pos--83'
p1989
S'action-3'
p1990
tp1991
g5
(g9
S'\xef\xc7\xaf\x93\x16U\x02\xc0'
p1992
tp1993
Rp1994
s(S'diff-x-pos--111'
p1995
S'prev-action-4'
p1996
tp1997
g5
(g9
S'P\x82\x17vj\x8f\xfa\xbf'
p1998
tp1999
Rp2000
s(S'diff-x-pos-10'
p2001
S'prev-action-4'
p2002
tp2003
g5
(g9
S'RQ\xec\xa3\xad\x87\xfc\xbf'
p2004
tp2005
Rp2006
s(S'diff-x-pos--62'
p2007
S'prev-action-1'
p2008
tp2009
g5
(g9
S'\x84:\xe9nf\x19\x01\xc0'
p2010
tp2011
Rp2012
s(S'diff-x-pos--110'
p2013
S'prev-action-3'
p2014
tp2015
g5
(g9
S'0\xb9M\xcd\xc4\xe2\xc6\xbf'
p2016
tp2017
Rp2018
s(S'diff-x-pos--63'
p2019
S'action-1'
p2020
tp2021
g5
(g9
S'\xb4G\x1d\xea\x8dn\xdb?'
p2022
tp2023
Rp2024
sg468
g5
(g9
S'\xa6\xf0-\xd9P\x90\xcd?'
p2025
tp2026
Rp2027
sg255
g5
(g9
S'\xf0\xacH*G\x9c\xec?'
p2028
tp2029
Rp2030
sS'diff-x-pos--34'
p2031
g5
(g9
S'\xbbqX0\x9aV\xf6\xbf'
p2032
tp2033
Rp2034
sg87
g5
(g9
S'\x8c\x81\xf4\xf9\xa7\x05\x01@'
p2035
tp2036
Rp2037
sS'diff-x-pos--32'
p2038
g5
(g9
S'\x8a\xeczU=3\xee?'
p2039
tp2040
Rp2041
sg995
g5
(g9
S'\x95)\xe0\xe7Z\x1f\xf0?'
p2042
tp2043
Rp2044
sg308
g5
(g9
S'\x0c\xbai\xc5\x0e\x05\xe6?'
p2045
tp2046
Rp2047
sS'diff-x-pos--31'
p2048
g5
(g9
S'Nt\nj0-\xec?'
p2049
tp2050
Rp2051
s(S'diff-x-pos-22'
p2052
S'prev-action-1'
p2053
tp2054
g5
(g9
S' q\xd9Hs\xd3\xd8\xbf'
p2055
tp2056
Rp2057
sS'diff-x-pos--38'
p2058
g5
(g9
S'S9z\x11\x82\xfb\xe2?'
p2059
tp2060
Rp2061
s(S'diff-x-pos--105'
p2062
S'action-1'
p2063
tp2064
g5
(g9
S'\x90\x16\xcfG&\x0b\xdb?'
p2065
tp2066
Rp2067
s(S'diff-x-pos--82'
p2068
S'action-3'
p2069
tp2070
g5
(g9
S'\xfbE\xcd]\xf6\xae\xe1\xbf'
p2071
tp2072
Rp2073
sS'diff-x-pos-29'
p2074
g5
(g9
S'\xab\x99\x1c\xd4\xaeV\xd4\xbf'
p2075
tp2076
Rp2077
sS'diff-x-pos-28'
p2078
g5
(g9
S'Z\xafa<\xfa\xa2\xd1\xbf'
p2079
tp2080
Rp2081
s(g510
S'prev-action-3'
p2082
tp2083
g5
(g9
S'n\x87\xc5\xd2.\x05\xe1\xbf'
p2084
tp2085
Rp2086
sg338
g5
(g9
S'v>\x92\x17\xbe\x05\xf1\xbf'
p2087
tp2088
Rp2089
sg693
g5
(g9
S'd\xf3\xa3\xf5\xdb\xd6\xd6?'
p2090
tp2091
Rp2092
sS'diff-x-pos-24'
p2093
g5
(g9
S'\xe5\x1c([\x14\x1d\xf5\xbf'
p2094
tp2095
Rp2096
sS'diff-x-pos-23'
p2097
g5
(g9
S'"\x8cbP\xe7\xb3\xf3?'
p2098
tp2099
Rp2100
sg1532
g5
(g9
S'\xb4\xd4vy\x00\xf0\xeb\xbf'
p2101
tp2102
Rp2103
sg153
g5
(g9
S'u\r\x8f\x08\xe4g\xf5?'
p2104
tp2105
Rp2106
sg1931
g5
(g9
S'RW\t\xdb\x01!\xed\xbf'
p2107
tp2108
Rp2109
sS'diff-x-pos--18'
p2110
g5
(g9
S'c\x9f\x1a"\x85\xbd\xc9\xbf'
p2111
tp2112
Rp2113
s(S'diff-x-pos--73'
p2114
S'prev-action-3'
p2115
tp2116
g5
(g9
S'\xc8\xb3\x84\x83\xbc\x19\xe6\xbf'
p2117
tp2118
Rp2119
s(S'diff-x-pos-46'
p2120
S'action-3'
p2121
tp2122
g5
(g9
S'\xf3\xabb|#\x03\xd7?'
p2123
tp2124
Rp2125
s(S'diff-x-pos--54'
p2126
S'action-3'
p2127
tp2128
g5
(g9
S'\x00\xad\x81\x07\xeb\xf2\xb8\xbf'
p2129
tp2130
Rp2131
s(g583
S'prev-action-4'
p2132
tp2133
g5
(g9
S'\xe3a\x03\xd2\xad\x98\xe3?'
p2134
tp2135
Rp2136
s(S'diff-x-pos--17'
p2137
S'prev-action-1'
p2138
tp2139
g5
(g9
S'\xf6%\xa1\x9f&K\xec\xbf'
p2140
tp2141
Rp2142
s(S'diff-x-pos-5'
p2143
g395
tp2144
g5
(g9
S'j\xaa\x94yx\xfa\xeb\xbf'
p2145
tp2146
Rp2147
s(S'diff-x-pos-3'
p2148
S'action-4'
p2149
tp2150
g5
(g9
S'>\x0c\xce2\xf8\xe1\xdf\xbf'
p2151
tp2152
Rp2153
s(S'diff-x-pos--29'
p2154
S'action-3'
p2155
tp2156
g5
(g9
S'<\x10\x82$-\x11\xc2\xbf'
p2157
tp2158
Rp2159
s(S'diff-x-pos-0'
p2160
S'prev-action-3'
p2161
tp2162
g5
(g9
S'\xe2o\xcf@\x99K\xdd\xbf'
p2163
tp2164
Rp2165
s(S'action-4'
p2166
S'object-0-x-40.0'
p2167
tp2168
g5
(g9
S'Pu\xed\x1e\xf7\xc5\x04@'
p2169
tp2170
Rp2171
s(S'diff-x-pos-41'
p2172
S'prev-action-1'
p2173
tp2174
g5
(g9
S'\x0c\x8a\xd5\x08\xc7?\xef\xbf'
p2175
tp2176
Rp2177
s(g272
S'prev-action-1'
p2178
tp2179
g5
(g9
S'g\xaa/\xcb\x07\x9a\xba\xbf'
p2180
tp2181
Rp2182
s(S'diff-x-pos--20'
p2183
S'prev-action-1'
p2184
tp2185
g5
(g9
S'\x90\xb5G 6\x9c\xfc?'
p2186
tp2187
Rp2188
s(S'diff-x-pos--79'
p2189
S'prev-action-1'
p2190
tp2191
g5
(g9
S'<XM\x88\x13*\xe2\xbf'
p2192
tp2193
Rp2194
s(S'diff-x-pos--44'
p2195
S'action-1'
p2196
tp2197
g5
(g9
S'\xb2\xa3z\x15\x14\x8e\xef\xbf'
p2198
tp2199
Rp2200
s(S'diff-x-pos--52'
p2201
S'prev-action-4'
p2202
tp2203
g5
(g9
S'\xc8\xffD\xdb\xeb{\xf0\xbf'
p2204
tp2205
Rp2206
s(S'diff-x-pos--100'
p2207
S'action-1'
p2208
tp2209
g5
(g9
S'\xa9$\x00B\x9f(\xed?'
p2210
tp2211
Rp2212
s(S'diff-x-pos--81'
p2213
S'prev-action-1'
p2214
tp2215
g5
(g9
S'2\xf9`\x13?8\xda\xbf'
p2216
tp2217
Rp2218
s(S'diff-x-pos--66'
p2219
S'action-4'
p2220
tp2221
g5
(g9
S"\xef'\x9f\xc2\xc5\x81\xdc?"
p2222
tp2223
Rp2224
s(S'diff-x-pos-60'
p2225
S'action-4'
p2226
tp2227
g5
(g9
S'g\\\xcc\xff\x17\x06\xd3?'
p2228
tp2229
Rp2230
s(S'diff-x-pos--58'
p2231
S'action-4'
p2232
tp2233
g5
(g9
S'\x9f\xb1\x80\x82\x9dB\xec?'
p2234
tp2235
Rp2236
s(S'diff-x-pos--98'
p2237
S'prev-action-4'
p2238
tp2239
g5
(g9
S'\n+S\xf6[(\xfa\xbf'
p2240
tp2241
Rp2242
s(S'diff-x-pos--113'
p2243
S'action-1'
p2244
tp2245
g5
(g9
S'tV\xe5,\x92\n\xfc?'
p2246
tp2247
Rp2248
s(S'diff-x-pos-50'
p2249
S'action-3'
p2250
tp2251
g5
(g9
S'(\x94,\xa7Dy\xed?'
p2252
tp2253
Rp2254
s(S'diff-x-pos-25'
p2255
S'prev-action-3'
p2256
tp2257
g5
(g9
S'6\xa5\x8e^iB\xc4\xbf'
p2258
tp2259
Rp2260
s(S'diff-x-pos--73'
p2261
S'prev-action-4'
p2262
tp2263
g5
(g9
S'fB4\x0eeM\xe2?'
p2264
tp2265
Rp2266
s(g498
S'action-3'
p2267
tp2268
g5
(g9
S'T\xbfZ\xe5\x19t\xde?'
p2269
tp2270
Rp2271
s(S'diff-x-pos--89'
p2272
S'action-3'
p2273
tp2274
g5
(g9
S'&Jsm\xdf\xb9\x00@'
p2275
tp2276
Rp2277
sg208
g5
(g9
S'0\x98K\x03\x82\xef\x80\xbf'
p2278
tp2279
Rp2280
s(S'diff-x-pos-44'
p2281
S'action-4'
p2282
tp2283
g5
(g9
S'\xc8\xe4\xc4H-l\xbb?'
p2284
tp2285
Rp2286
s(S'diff-x-pos--70'
p2287
S'action-4'
p2288
tp2289
g5
(g9
S'\x93\xe4\xca^.\xea\x01@'
p2290
tp2291
Rp2292
s(S'diff-x-pos--88'
p2293
S'prev-action-3'
p2294
tp2295
g5
(g9
S'\xd2\xa3!b\xa0\x1e\xe4?'
p2296
tp2297
Rp2298
s(S'diff-x-pos-61'
p2299
S'action-3'
p2300
tp2301
g5
(g9
S'4\x16\x1a{\xb5\x8d\xdf?'
p2302
tp2303
Rp2304
s(S'action-3'
p2305
S'object-0-x-0.0'
p2306
tp2307
g5
(g9
S'n\x18k\x87S\xb3\x00@'
p2308
tp2309
Rp2310
s(S'diff-x-pos--91'
p2311
S'prev-action-4'
p2312
tp2313
g5
(g9
S'\xda\x91\x84\x9em\xe0\xe7?'
p2314
tp2315
Rp2316
s(g1573
S'prev-action-3'
p2317
tp2318
g5
(g9
S'z\xba\xc4FZ\xdb\xf6\xbf'
p2319
tp2320
Rp2321
s(S'diff-x-pos--50'
p2322
S'action-1'
p2323
tp2324
g5
(g9
S'\x83\xb6\xe6\xb5\xd30\xe1?'
p2325
tp2326
Rp2327
s(S'diff-x-pos--78'
p2328
S'prev-action-1'
p2329
tp2330
g5
(g9
S'X\xe0\xf1X)\xa1\xd6\xbf'
p2331
tp2332
Rp2333
s(g1990
S'object-1-x-120.0'
p2334
tp2335
g5
(g9
S'\x08+\xfa\x06\xa2\x8b\xff\xbf'
p2336
tp2337
Rp2338
s(S'diff-x-pos--25'
p2339
S'action-1'
p2340
tp2341
g5
(g9
S'\xba\xd9#\xb9@\x93\xe6?'
p2342
tp2343
Rp2344
s(S'diff-x-pos-7'
p2345
S'prev-action-3'
p2346
tp2347
g5
(g9
S'06]\x1b\xb0\x9b\x88\xbf'
p2348
tp2349
Rp2350
s(S'diff-x-pos-60'
p2351
S'action-3'
p2352
tp2353
g5
(g9
S'\x9a\x89\x80\xc6:\xe3\xde?'
p2354
tp2355
Rp2356
s(S'diff-x-pos--57'
p2357
S'action-3'
p2358
tp2359
g5
(g9
S'\x8a.e\x84\x9d\xb4\xe4?'
p2360
tp2361
Rp2362
s(g1048
S'action-1'
p2363
tp2364
g5
(g9
S'D\xc1\xb5\xc2\x90N\xe4?'
p2365
tp2366
Rp2367
s(S'diff-x-pos-11'
p2368
S'prev-action-1'
p2369
tp2370
g5
(g9
S'j4pM\xd7\xf8\xe9?'
p2371
tp2372
Rp2373
s(g1485
S'prev-action-4'
p2374
tp2375
g5
(g9
S'\xcf:\xf9\x06\x0bU\xf2\xbf'
p2376
tp2377
Rp2378
s(g2328
S'action-1'
p2379
tp2380
g5
(g9
S'\x16\xb0\xef\r\xa6\x99\xd5\xbf'
p2381
tp2382
Rp2383
s(g989
S'prev-action-4'
p2384
tp2385
g5
(g9
S'\x82@/\xa3\xcd\xf4\xe8?'
p2386
tp2387
Rp2388
s(S'diff-x-pos--11'
p2389
S'action-3'
p2390
tp2391
g5
(g9
S'\xf0L\xcb\x8f\x99"\xf5?'
p2392
tp2393
Rp2394
s(S'diff-x-pos--92'
p2395
S'prev-action-4'
p2396
tp2397
g5
(g9
S'\xa9r\xc7\xff\x06\x99\xd7\xbf'
p2398
tp2399
Rp2400
s(S'action-1'
p2401
g440
tp2402
g5
(g9
S'\xa0\x1b\x12\x86=\xe9\x13@'
p2403
tp2404
Rp2405
s(S'diff-x-pos--101'
p2406
S'action-4'
p2407
tp2408
g5
(g9
S'\x8c*!\xeb\xefd\xd5?'
p2409
tp2410
Rp2411
s(S'diff-x-pos-48'
p2412
S'prev-action-4'
p2413
tp2414
g5
(g9
S'\x0e\x1f\x8d7aW\xe4\xbf'
p2415
tp2416
Rp2417
s(S'diff-x-pos--42'
p2418
S'prev-action-3'
p2419
tp2420
g5
(g9
S"v'^\xcb\xb5\x81\xe4?"
p2421
tp2422
Rp2423
s(S'diff-x-pos--118'
p2424
S'action-1'
p2425
tp2426
g5
(g9
S'\xce\x1c&\xc7q0\xac?'
p2427
tp2428
Rp2429
s(S'diff-x-pos-61'
p2430
S'action-4'
p2431
tp2432
I-1
s(S'diff-x-pos--117'
p2433
S'action-3'
p2434
tp2435
g5
(g9
S'\xc0\x12\x88\xde\x7f\xff\xec?'
p2436
tp2437
Rp2438
s(S'diff-x-pos--9'
p2439
S'prev-action-3'
p2440
tp2441
g5
(g9
S'Wmx\x99\xd2\x1b\xe9?'
p2442
tp2443
Rp2444
s(S'diff-x-pos--18'
p2445
S'action-3'
p2446
tp2447
g5
(g9
S'@\x18\x8b\x80\xbd\xf7\xee?'
p2448
tp2449
Rp2450
s(S'action-1'
p2451
S'object-0-x-90.0'
p2452
tp2453
g5
(g9
S'Tj\xf4\xa8>b\xfb?'
p2454
tp2455
Rp2456
s(S'diff-x-pos-11'
p2457
S'action-4'
p2458
tp2459
g5
(g9
S'\x9e`\\\x98~\xff\xdf?'
p2460
tp2461
Rp2462
s(S'diff-x-pos--113'
p2463
S'prev-action-1'
p2464
tp2465
g5
(g9
S'\x90\xe7\x84qP@\xb2?'
p2466
tp2467
Rp2468
s(S'diff-x-pos--46'
p2469
S'action-1'
p2470
tp2471
g5
(g9
S',l\x8a\xd4gz\xf0\xbf'
p2472
tp2473
Rp2474
s(S'diff-x-pos-28'
p2475
S'prev-action-1'
p2476
tp2477
g5
(g9
S'\xb1\xb4\r?\xc1Z\xf0?'
p2478
tp2479
Rp2480
s(S'diff-x-pos-56'
p2481
S'prev-action-1'
p2482
tp2483
g5
(g9
S'\x90\xe6\\\xba\xd5\xcd\xde\xbf'
p2484
tp2485
Rp2486
s(S'diff-x-pos-56'
p2487
S'action-3'
p2488
tp2489
g5
(g9
S'\r\xd8\xd9h\x84\x88\xcc\xbf'
p2490
tp2491
Rp2492
s(g2469
S'prev-action-3'
p2493
tp2494
g5
(g9
S'$qY\x80\xb6\xcb\xcb?'
p2495
tp2496
Rp2497
s(S'diff-x-pos--81'
p2498
S'action-1'
p2499
tp2500
g5
(g9
S'`\x80K4\t\xac\xf7?'
p2501
tp2502
Rp2503
s(g147
S'prev-action-1'
p2504
tp2505
g5
(g9
S'~P\xd6\x98\x9a\xe8\xe3\xbf'
p2506
tp2507
Rp2508
s(S'diff-x-pos--52'
p2509
S'action-4'
p2510
tp2511
g5
(g9
S'4\x1e\xa7~\xad\xc3\xf5?'
p2512
tp2513
Rp2514
s(g735
S'prev-action-4'
p2515
tp2516
g5
(g9
S'\x10\x03?c\x11*\xed?'
p2517
tp2518
Rp2519
s(g574
S'prev-action-4'
p2520
tp2521
I1
s(g941
S'prev-action-4'
p2522
tp2523
g5
(g9
S'\xd8\xf90\xe8Gb\xf3?'
p2524
tp2525
Rp2526
s(S'diff-x-pos-10'
p2527
S'action-3'
p2528
tp2529
g5
(g9
S'\xb6z!w\xe0T\xe2\xbf'
p2530
tp2531
Rp2532
s(S'diff-x-pos-18'
p2533
S'prev-action-4'
p2534
tp2535
g5
(g9
S'\xc7\t\xe6\x1a\xb0\x9f\xf3?'
p2536
tp2537
Rp2538
s(S'diff-x-pos--67'
p2539
S'prev-action-3'
p2540
tp2541
g5
(g9
S'\xd4\x11\x00 \x16+\xdd\xbf'
p2542
tp2543
Rp2544
s(S'diff-x-pos--117'
p2545
S'prev-action-1'
p2546
tp2547
g5
(g9
S'g\x19N\x12\xf8\xed\xd1?'
p2548
tp2549
Rp2550
s(g2424
S'prev-action-3'
p2551
tp2552
g5
(g9
S'\xce\xc2\x9b\x05\xdd\x12\xcb\xbf'
p2553
tp2554
Rp2555
s(g1001
S'prev-action-4'
p2556
tp2557
g5
(g9
S'\x051\x15\x92g\xd5\xd1?'
p2558
tp2559
Rp2560
s(S'diff-x-pos-21'
p2561
S'action-4'
p2562
tp2563
g5
(g9
S'oW\xb8\x14Yo\xe8\xbf'
p2564
tp2565
Rp2566
s(S'diff-x-pos--107'
p2567
S'action-3'
p2568
tp2569
g5
(g9
S'b\x05z\xe4\x0f\xfd\xee\xbf'
p2570
tp2571
Rp2572
s(S'diff-x-pos--71'
p2573
S'action-1'
p2574
tp2575
g5
(g9
S'\x00)\xe0\x03\xe9\x1e\xca\xbf'
p2576
tp2577
Rp2578
s(g2126
S'prev-action-3'
p2579
tp2580
g5
(g9
S'\xb8j\x8d\xd7\xc1\xb1\xe6\xbf'
p2581
tp2582
Rp2583
s(S'diff-x-pos-31'
p2584
S'action-3'
p2585
tp2586
g5
(g9
S'\xff\x93MD\xbc\xfd\xb7?'
p2587
tp2588
Rp2589
s(g2120
S'prev-action-3'
p2590
tp2591
g5
(g9
S'\xdc\x13\xf0\xf3\xd8(\xc4\xbf'
p2592
tp2593
Rp2594
s(g933
S'action-3'
p2595
tp2596
g5
(g9
S'\xcf\x90\xe8N\x145\xf6\xbf'
p2597
tp2598
Rp2599
s(g207
S'prev-action-4'
p2600
tp2601
g5
(g9
S'\x9e\x0e\x96\xeay\xe2\x19@'
p2602
tp2603
Rp2604
s(S'diff-x-pos--56'
p2605
S'action-1'
p2606
tp2607
g5
(g9
S'\x1b\x83[\x95`\xd3\xf5\xbf'
p2608
tp2609
Rp2610
s(S'diff-x-pos--66'
p2611
S'prev-action-3'
p2612
tp2613
g5
(g9
S'\xb6"\xb9a\xbe\x8e\xe8?'
p2614
tp2615
Rp2616
s(S'diff-x-pos--51'
p2617
S'prev-action-3'
p2618
tp2619
g5
(g9
S'0gl\x9b\xfe\x1f\xbd\xbf'
p2620
tp2621
Rp2622
s(S'diff-x-pos-32'
p2623
S'action-1'
p2624
tp2625
g5
(g9
S'\xe6\xcay\xcb\xdc\xd5\xff\xbf'
p2626
tp2627
Rp2628
s(S'diff-x-pos-7'
p2629
S'action-1'
p2630
tp2631
g5
(g9
S'\xa8U\xe2Y\xb2i\xd4?'
p2632
tp2633
Rp2634
s(g2052
S'action-1'
p2635
tp2636
g5
(g9
S'X\x8a\x97\x96\x1b\xf7\xe4\xbf'
p2637
tp2638
Rp2639
s(S'object-0-dx-1'
p2640
g458
tp2641
g5
(g9
S'\xa0\xd7\x1ch\xa6\xce\xe0?'
p2642
tp2643
Rp2644
s(S'diff-x-pos--68'
p2645
S'prev-action-3'
p2646
tp2647
g5
(g9
S'~\xf9\x03,\x02B\xf3\xbf'
p2648
tp2649
Rp2650
s(S'diff-x-pos--50'
p2651
S'prev-action-3'
p2652
tp2653
g5
(g9
S'\xe0\x08\x83\xbb\xc9C\xea\xbf'
p2654
tp2655
Rp2656
sg1378
g5
(g9
S'<\xd9\x15\xba\x80Y\xd2?'
p2657
tp2658
Rp2659
sS'diff-x-pos--104'
p2660
g5
(g9
S'\x90<\x7f\xf74\xd0\xf6?'
p2661
tp2662
Rp2663
sg2567
g5
(g9
S'\x98\xce\xfbk\xe9b\xaf?'
p2664
tp2665
Rp2666
s(S'diff-x-pos--79'
p2667
S'action-4'
p2668
tp2669
g5
(g9
S'-4\xcb:\x04\x9e\xe1\xbf'
p2670
tp2671
Rp2672
sg1561
g5
(g9
S'\x14\xde1x\xea,\xd2?'
p2673
tp2674
Rp2675
sg2207
g5
(g9
S'\x93\xe9\x13\xae\x0e\x0e\xec\xbf'
p2676
tp2677
Rp2678
s(g882
S'action-4'
p2679
tp2680
g5
(g9
S'F\xc9(\x8dqN\xdd\xbf'
p2681
tp2682
Rp2683
sg764
g5
(g9
S'\x01\xc17Tya\xdb?'
p2684
tp2685
Rp2686
s(S'diff-x-pos--102'
p2687
S'prev-action-4'
p2688
tp2689
g5
(g9
S'%\x04\x0f:\xfa\xea\xe9?'
p2690
tp2691
Rp2692
sg1739
g5
(g9
S'\x10-x\xde6B\xd5\xbf'
p2693
tp2694
Rp2695
sS'diff-x-pos--108'
p2696
g5
(g9
S'\x04U{\x8d\xf9e\xef?'
p2697
tp2698
Rp2699
s(g2299
S'prev-action-1'
p2700
tp2701
g5
(g9
S'f\xd8\xc1\xfa\xbb%\xb5?'
p2702
tp2703
Rp2704
s(S'diff-x-pos--88'
p2705
S'action-1'
p2706
tp2707
g5
(g9
S'\xb3\xa4\xddv\xa2\x91\xdc?'
p2708
tp2709
Rp2710
s(S'object-0-dx--1'
p2711
S'action-4'
p2712
tp2713
g5
(g9
S'5\xbb\x8f\x8b\xca\x00\x00\xc0'
p2714
tp2715
Rp2716
s(g854
S'action-4'
p2717
tp2718
g5
(g9
S'\x82\x98yP\xa2\xac\xdb?'
p2719
tp2720
Rp2721
s(g842
S'action-4'
p2722
tp2723
g5
(g9
S'\x01\xd5\xa3\x8c\x0e\x80\xe8?'
p2724
tp2725
Rp2726
s(g2272
S'prev-action-1'
p2727
tp2728
g5
(g9
S',\xf1@&\t\xab\xd7\xbf'
p2729
tp2730
Rp2731
s(S'diff-x-pos-34'
p2732
S'action-1'
p2733
tp2734
g5
(g9
S'LjI@\xe32\xe6?'
p2735
tp2736
Rp2737
s(S'diff-x-pos-33'
p2738
S'action-1'
p2739
tp2740
g5
(g9
S'\x00\xb7\xa7KRj\x9e?'
p2741
tp2742
Rp2743
s(S'diff-x-pos--16'
p2744
S'action-4'
p2745
tp2746
g5
(g9
S'\xdf^\xe5\x1d6\x9f\x01@'
p2747
tp2748
Rp2749
s(S'diff-x-pos--90'
p2750
S'prev-action-4'
p2751
tp2752
g5
(g9
S'D\x99\xdek7\xbc\xd1?'
p2753
tp2754
Rp2755
s(S'diff-x-pos--10'
p2756
S'prev-action-1'
p2757
tp2758
g5
(g9
S'.\xcb\x89\xae\x96*\xe2\xbf'
p2759
tp2760
Rp2761
s(S'diff-x-pos-50'
p2762
S'prev-action-1'
p2763
tp2764
g5
(g9
S'efu\xe7%\xd3\xde\xbf'
p2765
tp2766
Rp2767
s(S'diff-x-pos--121'
p2768
S'prev-action-4'
p2769
tp2770
g5
(g9
S'\xdaF7\x9d\xb65\xe6\xbf'
p2771
tp2772
Rp2773
s(g1897
S'prev-action-4'
p2774
tp2775
g5
(g9
S'(>B/\x02\xda\xe1\xbf'
p2776
tp2777
Rp2778
s(S'diff-x-pos-45'
p2779
S'prev-action-4'
p2780
tp2781
g5
(g9
S'@\x8a\xff\x86\xbe\x19\xfa\xbf'
p2782
tp2783
Rp2784
s(g1874
S'prev-action-3'
p2785
tp2786
g5
(g9
S'k\xfd]\xb5\xf3\xd0\xfa\xbf'
p2787
tp2788
Rp2789
s(S'diff-x-pos--8'
p2790
S'action-4'
p2791
tp2792
g5
(g9
S'\x8282\x9dL\x14\xf0?'
p2793
tp2794
Rp2795
s(S'diff-x-pos--1'
p2796
S'action-3'
p2797
tp2798
g5
(g9
S'o\x11\xfb\x92\\\xdf\xfa?'
p2799
tp2800
Rp2801
s(g2038
S'action-4'
p2802
tp2803
g5
(g9
S'p\xed1\x7f\xd5$\xf2\xbf'
p2804
tp2805
Rp2806
s(S'diff-x-pos--64'
p2807
g440
tp2808
g5
(g9
S'\x00\x00\x00\x00\x00\x00\x00\x00'
p2809
tp2810
Rp2811
s(g780
S'prev-action-4'
p2812
tp2813
g5
(g9
S'\xcc\xe9ei!x\xf0?'
p2814
tp2815
Rp2816
s(S'diff-x-pos--100'
p2817
S'prev-action-3'
p2818
tp2819
g5
(g9
S'/\x16\xcaw\x03A\xee?'
p2820
tp2821
Rp2822
s(S'action-1'
p2823
S'object-1-x-90.0'
p2824
tp2825
g5
(g9
S'\xc0\x08\xce}q,\xf2?'
p2826
tp2827
Rp2828
s(g418
S'object-1-x-90.0'
p2829
tp2830
g5
(g9
S'MDg\x84\xfc\xf4\xec\xbf'
p2831
tp2832
Rp2833
s(S'diff-x-pos--91'
p2834
S'action-1'
p2835
tp2836
g5
(g9
S'L\xf0\x05\x1c\xc9\xba\xdf\xbf'
p2837
tp2838
Rp2839
s(S'diff-x-pos-38'
p2840
S'prev-action-4'
p2841
tp2842
g5
(g9
S'v\xb6\xc5\x0c\xf0\x95\xe6\xbf'
p2843
tp2844
Rp2845
s(S'diff-x-pos--20'
p2846
S'action-3'
p2847
tp2848
g5
(g9
S'\x98\t\xb8\xc8\r\x1f\xa9?'
p2849
tp2850
Rp2851
s(g1810
S'action-1'
p2852
tp2853
g5
(g9
S'\xc2\xa4\x82\xd3\x0b\xcd\xd8?'
p2854
tp2855
Rp2856
s(S'diff-x-pos-39'
p2857
S'action-1'
p2858
tp2859
g5
(g9
S'\x18bVSP\xce\xea\xbf'
p2860
tp2861
Rp2862
s(S'diff-x-pos-0'
p2863
S'action-1'
p2864
tp2865
g5
(g9
S'\x10q\xec\xe5\xdeU\xad?'
p2866
tp2867
Rp2868
s(g454
S'prev-action-4'
p2869
tp2870
g5
(g9
S'\x00\xc4\x8a\xed\x1d\x9c\xa9?'
p2871
tp2872
Rp2873
s(g2401
S'object-0-x-40.0'
p2874
tp2875
g5
(g9
S'x\xaf\xa1\x03\x89\xbf\x05@'
p2876
tp2877
Rp2878
s(S'diff-x-pos-49'
p2879
S'prev-action-4'
p2880
tp2881
g5
(g9
S'\xcb\x8f\xe53\t\xf3\xe8?'
p2882
tp2883
Rp2884
s(g1792
S'action-3'
p2885
tp2886
g5
(g9
S'\xc0\x08/\xc7\x1eJ\xe9?'
p2887
tp2888
Rp2889
s(S'diff-x-pos--114'
p2890
S'action-1'
p2891
tp2892
g5
(g9
S'\x80Bu1\x1f\x99\x81\xbf'
p2893
tp2894
Rp2895
s(g570
g458
tp2896
g5
(g9
S',Yg>\xfe%\xf2?'
p2897
tp2898
Rp2899
s(S'diff-x-pos--73'
p2900
S'action-1'
p2901
tp2902
g5
(g9
S'hW\xd3<\x11\x82\xd5?'
p2903
tp2904
Rp2905
s(S'action-4'
p2906
S'object-0-x-10.0'
p2907
tp2908
g5
(g9
S'\xc0\xf0\xd6u\x89d\x90?'
p2909
tp2910
Rp2911
s(g196
S'object-0-x-70.0'
p2912
tp2913
g5
(g9
S'x\x91\xb7w;l\x06@'
p2914
tp2915
Rp2916
s(S'diff-x-pos--82'
p2917
S'prev-action-1'
p2918
tp2919
g5
(g9
S'fA\no\xf7\x9e\xd8\xbf'
p2920
tp2921
Rp2922
s(S'diff-x-pos--57'
p2923
g2166
tp2924
g5
(g9
S"\x9c'\xb2\t\xe4P\xcd\xbf"
p2925
tp2926
Rp2927
s(g1721
S'action-4'
p2928
tp2929
g5
(g9
S'\x11\x863\xa9\xdei\xf3\xbf'
p2930
tp2931
Rp2932
s(S'diff-x-pos-29'
p2933
S'prev-action-3'
p2934
tp2935
g5
(g9
S'\xd0jRX\xf4\x1c\xb9\xbf'
p2936
tp2937
Rp2938
s(S'diff-x-pos-35'
p2939
S'action-4'
p2940
tp2941
g5
(g9
S'\xa7\xbf\x91\xa8\x1c8\xd0\xbf'
p2942
tp2943
Rp2944
s(S'diff-x-pos-24'
p2945
S'prev-action-1'
p2946
tp2947
g5
(g9
S'\x91I]\x94\xbbk\xe8?'
p2948
tp2949
Rp2950
s(S'diff-x-pos--21'
p2951
S'action-3'
p2952
tp2953
g5
(g9
S'rE\x07\xe3G\x89\xcc\xbf'
p2954
tp2955
Rp2956
s(S'diff-x-pos--74'
p2957
S'prev-action-4'
p2958
tp2959
g5
(g9
S'\xd6]S\xa33\x8c\xc7\xbf'
p2960
tp2961
Rp2962
s(S'diff-x-pos--80'
p2963
S'action-3'
p2964
tp2965
g5
(g9
S'\xec;\r\x81\xc6)\xcb?'
p2966
tp2967
Rp2968
s(S'diff-x-pos--2'
p2969
S'prev-action-3'
p2970
tp2971
g5
(g9
S'\xaf\x1bb\ni\xe5\xf0?'
p2972
tp2973
Rp2974
sS'object-1-x-110.0'
p2975
g5
(g9
S'V\xfeQJ\xcf\xa9\xf0?'
p2976
tp2977
Rp2978
s(S'diff-x-pos--77'
p2979
S'prev-action-1'
p2980
tp2981
g5
(g9
S'4\x12|\x84\xecq\x9b?'
p2982
tp2983
Rp2984
s(S'action-1'
p2985
S'object-1-x-100.0'
p2986
tp2987
g5
(g9
S'lq\x04\xfcs>\xe8\xbf'
p2988
tp2989
Rp2990
s(g1662
S'action-1'
p2991
tp2992
g5
(g9
S'\xfa\xcfg\xd1\xfa\xaf\xe4\xbf'
p2993
tp2994
Rp2995
s(S'diff-x-pos-16'
p2996
S'prev-action-4'
p2997
tp2998
g5
(g9
S'\xa0U\x9b:1\x0b\xcb\xbf'
p2999
tp3000
Rp3001
s(g1989
S'prev-action-1'
p3002
tp3003
g5
(g9
S'\xc8\xe4\x81&\xee\xda\xa6\xbf'
p3004
tp3005
Rp3006
s(g1497
S'prev-action-1'
p3007
tp3008
g5
(g9
S'5,F;A\xab\xec?'
p3009
tp3010
Rp3011
s(S'diff-x-pos--6'
p3012
S'action-3'
p3013
tp3014
g5
(g9
S'H\xb4\xeb\xdd\xd2\x9e\xc4\xbf'
p3015
tp3016
Rp3017
s(S'diff-x-pos-0'
p3018
S'prev-action-4'
p3019
tp3020
g5
(g9
S'\xe4\xcb\x19;\x9f\x97\xce?'
p3021
tp3022
Rp3023
s(S'diff-x-pos-32'
p3024
S'prev-action-4'
p3025
tp3026
g5
(g9
S'h^\xb8\xfe\x81\xeb\xec?'
p3027
tp3028
Rp3029
s(S'diff-x-pos-49'
p3030
S'prev-action-3'
p3031
tp3032
g5
(g9
S'(\xc8\xbc6\xad\xf4\xed?'
p3033
tp3034
Rp3035
s(S'diff-x-pos--16'
p3036
S'prev-action-1'
p3037
tp3038
g5
(g9
S'\x8c\x9d\xfb\xfb\x1a\xd6\xf0?'
p3039
tp3040
Rp3041
s(S'diff-x-pos--40'
p3042
S'prev-action-1'
p3043
tp3044
g5
(g9
S'\x1d\xe3\x07$\xc1%\xf1\xbf'
p3045
tp3046
Rp3047
s(S'diff-x-pos--106'
p3048
S'action-1'
p3049
tp3050
g5
(g9
S'K\x0bi\xfb\xac\x07\xee?'
p3051
tp3052
Rp3053
s(S'diff-x-pos--76'
p3054
S'action-3'
p3055
tp3056
g5
(g9
S'\x80g\xc2l9\x0f\xfd\xbf'
p3057
tp3058
Rp3059
s(S'diff-x-pos-20'
p3060
S'prev-action-1'
p3061
tp3062
g5
(g9
S'6\xd8\xf3\x9c\xd7\xb4\xec?'
p3063
tp3064
Rp3065
s(S'diff-x-pos--95'
p3066
S'prev-action-1'
p3067
tp3068
g5
(g9
S'\x10\xf6\x82\x10\xa6)\xa3?'
p3069
tp3070
Rp3071
sS'diff-x-pos--121'
p3072
g5
(g9
S'\rg\xbd\xe2\x11[\xe2\xbf'
p3073
tp3074
Rp3075
s(S'diff-x-pos-62'
p3076
S'action-1'
p3077
tp3078
g5
(g9
S'3\xf7\xb1\x86\x07\xcc\xd6?'
p3079
tp3080
Rp3081
sS'diff-x-pos--98'
p3082
g5
(g9
S'\x1a\x07\x94\x0127\xd8?'
p3083
tp3084
Rp3085
sS'diff-x-pos--99'
p3086
g5
(g9
S'pG\xf0\xdfV|\xe2\xbf'
p3087
tp3088
Rp3089
s(g1603
S'prev-action-3'
p3090
tp3091
g5
(g9
S'\xa9\xd9\x89fNr\xe2\xbf'
p3092
tp3093
Rp3094
sg395
g5
(g9
S'\xa5{\xea9c)2@'
p3095
tp3096
Rp3097
s(g1321
S'action-4'
p3098
tp3099
g5
(g9
S'Z\xdd\xe8\x1b\x98+\xe5?'
p3100
tp3101
Rp3102
sg448
g5
(g9
S'\x94\xb0\xfd4>\x87\xe1\xbf'
p3103
tp3104
Rp3105
sg916
g5
(g9
S'|\x8dO\xfbm_\xd5?'
p3106
tp3107
Rp3108
sS'diff-x-pos--92'
p3109
g5
(g9
S'\x18*\xe1W\xd4\xb8\x9e?'
p3110
tp3111
Rp3112
sS'diff-x-pos--93'
p3113
g5
(g9
S'T,lR\xc3\xac\xdc\xbf'
p3114
tp3115
Rp3116
sg21
g5
(g9
S'(\x9f\x97\xa8\x0f\x81\xd9\xbf'
p3117
tp3118
Rp3119
sS'diff-x-pos--95'
p3120
g5
(g9
S'\x800n\t2\xac\xa7?'
p3121
tp3122
Rp3123
sS'diff-x-pos--96'
p3124
g5
(g9
S'g\x01\xd5`\xee\x96\xf0?'
p3125
tp3126
Rp3127
sS'diff-x-pos--97'
p3128
g5
(g9
S'\xee\xfa\xa2\xba\xe4\x82\xef\xbf'
p3129
tp3130
Rp3131
s(S'diff-x-pos--110'
p3132
S'prev-action-4'
p3133
tp3134
g5
(g9
S'M\xa4\xfb\xe8\n\xca\xf6?'
p3135
tp3136
Rp3137
s(S'diff-x-pos-8'
p3138
S'action-3'
p3139
tp3140
g5
(g9
S'\x84\xc0\xe8\xa0\xbd\x9d\x91?'
p3141
tp3142
Rp3143
s(g760
S'prev-action-3'
p3144
tp3145
g5
(g9
S'\xd2{@\xb5\x00\x05\xe7\xbf'
p3146
tp3147
Rp3148
s(g1532
S'prev-action-4'
p3149
tp3150
g5
(g9
S'\xdb\xe4&\x83o\xf8\xf6\xbf'
p3151
tp3152
Rp3153
sS'diff-x-pos--29'
p3154
g5
(g9
S'\xe95G\xf7\xdcC\xd2\xbf'
p3155
tp3156
Rp3157
s(g2031
S'action-4'
p3158
tp3159
g5
(g9
S'3\xd9\xf8\x8f\xf4f\xf3?'
p3160
tp3161
Rp3162
s(g1378
S'action-4'
p3163
tp3164
g5
(g9
S'\xb2^\x8c>\xbaF\xe6?'
p3165
tp3166
Rp3167
s(S'diff-x-pos-55'
p3168
S'prev-action-4'
p3169
tp3170
g5
(g9
S'{\x12\xf1nH\x01\xe4?'
p3171
tp3172
Rp3173
s(g937
S'prev-action-3'
p3174
tp3175
g5
(g9
S'8`\x0b\xa1o1\xe3\xbf'
p3176
tp3177
Rp3178
sg93
g5
(g9
S'\x92\x99\xe2\x89v\xa2\xd3?'
p3179
tp3180
Rp3181
sS'diff-x-pos--24'
p3182
g5
(g9
S'hL\x08\xff^\xed\xda?'
p3183
tp3184
Rp3185
sS'diff-x-pos--27'
p3186
g5
(g9
S' \t\x0c\xee\x10b\xc4\xbf'
p3187
tp3188
Rp3189
sS'diff-x-pos--26'
p3190
g5
(g9
S'\x82&OT\x81\x90\xf3?'
p3191
tp3192
Rp3193
sS'diff-x-pos--21'
p3194
g5
(g9
S'z\xa4\x80\xe3)\x82\xe6?'
p3195
tp3196
Rp3197
sS'diff-x-pos--20'
p3198
g5
(g9
S'\x00O\xd4\x91\xde:\xf1?'
p3199
tp3200
Rp3201
sg364
g5
(g9
S'`3eC\xa7V\xb5?'
p3202
tp3203
Rp3204
sS'diff-x-pos--22'
p3205
g5
(g9
S'\t\xa4\xe46I\x0e\xed\xbf'
p3206
tp3207
Rp3208
s(g1479
S'action-3'
p3209
tp3210
g5
(g9
S'\xad\xf2ZrG\x12\xf4\xbf'
p3211
tp3212
Rp3213
s(S'diff-x-pos--65'
p3214
S'prev-action-1'
p3215
tp3216
g5
(g9
S'p;~\x81G\xfa\xc7?'
p3217
tp3218
Rp3219
sg842
g5
(g9
S'\xe2\x90\xac\xe5:$\xd1?'
p3220
tp3221
Rp3222
sg2840
g5
(g9
S'\xc0\x8816\xdej\x93\xbf'
p3223
tp3224
Rp3225
sg2857
g5
(g9
S'\xb6\x17\xbc\xcc\xdc\n\xe5?'
p3226
tp3227
Rp3228
s(g255
S'prev-action-4'
p3229
tp3230
g5
(g9
S'\x14\xd3B?\x08\xe3\xf2?'
p3231
tp3232
Rp3233
s(S'diff-x-pos--41'
p3234
S'prev-action-1'
p3235
tp3236
g5
(g9
S'fE\xdbS\x05W\xc1\xbf'
p3237
tp3238
Rp3239
sS'diff-x-pos-30'
p3240
g5
(g9
S'Hd\xe8[>\xea\xd9\xbf'
p3241
tp3242
Rp3243
sS'diff-x-pos-31'
p3244
g5
(g9
S'\x81\xee\x8f\xcb\xf58\xe0\xbf'
p3245
tp3246
Rp3247
sg3024
g5
(g9
S'N:\xafQz4\xf0\xbf'
p3248
tp3249
Rp3250
sg159
g5
(g9
S'\xd4\xed\xecDHu\xd8\xbf'
p3251
tp3252
Rp3253
sS'diff-x-pos-34'
p3254
g5
(g9
S'.Q\x81\xe4\x90\x1a\xd9\xbf'
p3255
tp3256
Rp3257
sg2939
g5
(g9
S'z\x15\t\xd9S\x81\xf3?'
p3258
tp3259
Rp3260
sS'diff-x-pos-36'
p3261
g5
(g9
S'\x08\xb8TB\xe2,\xfd\xbf'
p3262
tp3263
Rp3264
sg183
g5
(g9
S'7el\xcd70\xd1\xbf'
p3265
tp3266
Rp3267
s(S'diff-x-pos--2'
p3268
S'action-1'
p3269
tp3270
g5
(g9
S'\xe2\x87H;h\xce\xfb?'
p3271
tp3272
Rp3273
s(S'diff-x-pos-42'
p3274
g243
tp3275
g5
(g9
S'\xfa\xfb\xfd\xbele\xee\xbf'
p3276
tp3277
Rp3278
sg2640
g5
(g9
S'\xf0\x7f6c\xcb\xee\xb9?'
p3279
tp3280
Rp3281
s(g3198
S'prev-action-4'
p3282
tp3283
g5
(g9
S'B\xcb\xf9g-\x1f\xe1?'
p3284
tp3285
Rp3286
s(S'diff-x-pos--109'
p3287
S'action-1'
p3288
tp3289
g5
(g9
S' \x8f\x89W\xe1\xcf\xfd\xbf'
p3290
tp3291
Rp3292
s(S'diff-x-pos--52'
p3293
S'prev-action-1'
p3294
tp3295
g5
(g9
S'\xe6\xce\x0c\xb9\xed\xd8\xe9?'
p3296
tp3297
Rp3298
s(g3128
S'action-4'
p3299
tp3300
g5
(g9
S'\xbe%\xc2\xbb\x05u\xd4?'
p3301
tp3302
Rp3303
s(S'diff-x-pos-15'
p3304
S'prev-action-3'
p3305
tp3306
g5
(g9
S'\x10\x9a\xd6\xc6\x0b\x9f\xff?'
p3307
tp3308
Rp3309
s(S'diff-x-pos--9'
p3310
S'prev-action-1'
p3311
tp3312
g5
(g9
S'\x9b\x03z8C\xb5\xd5\xbf'
p3313
tp3314
Rp3315
s(S'diff-x-pos--69'
p3316
S'prev-action-4'
p3317
tp3318
g5
(g9
S'P\x7f\xab\x97^B\xbf?'
p3319
tp3320
Rp3321
s(g2790
S'prev-action-3'
p3322
tp3323
g5
(g9
S'\xdf\xa4\xba\xcfK\x10\xd3\xbf'
p3324
tp3325
Rp3326
s(S'diff-x-pos--58'
p3327
S'action-3'
p3328
tp3329
g5
(g9
S'\x06\xcb\x9b\xed\xa7(\xe1\xbf'
p3330
tp3331
Rp3332
s(g201
S'prev-action-1'
p3333
tp3334
g5
(g9
S'\xf5\xeaaLt\xde\xd3\xbf'
p3335
tp3336
Rp3337
s(g364
S'action-1'
p3338
tp3339
g5
(g9
S'_PqWaA\xf0\xbf'
p3340
tp3341
Rp3342
s(g1197
S'prev-action-3'
p3343
tp3344
g5
(g9
S'\xaa\xcbC\x8f+\xcc\xd1\xbf'
p3345
tp3346
Rp3347
s(g3072
S'action-1'
p3348
tp3349
g5
(g9
S'\rg\xbd\xe2\x11[\xe2\xbf'
p3350
tp3351
Rp3352
s(g2110
S'prev-action-1'
p3353
tp3354
g5
(g9
S'\xba\x98\x8c\x8b\nP\xbe\xbf'
p3355
tp3356
Rp3357
s(g926
S'action-1'
p3358
tp3359
g5
(g9
S'\xd8\x9aH\x94\x9e\xef\xf5\xbf'
p3360
tp3361
Rp3362
s(S'diff-x-pos--115'
p3363
S'action-3'
p3364
tp3365
g5
(g9
S"&'\xdd(N#\xe8\xbf"
p3366
tp3367
Rp3368
sg3030
g5
(g9
S'h\xd9\x97kQUr?'
p3369
tp3370
Rp3371
sg2412
g5
(g9
S'\xfa\r\xbb\xe2\x82\xe3\xd0?'
p3372
tp3373
Rp3374
s(S'diff-x-pos--104'
p3375
S'action-1'
p3376
tp3377
g5
(g9
S'\xcc\x95N\xd0\xa6G\xfa?'
p3378
tp3379
Rp3380
sg2779
g5
(g9
S'\xc8\xdd]m\xd4\x84\xf8\xbf'
p3381
tp3382
Rp3383
sg2281
g5
(g9
S'\x8e?\x13\x1dzW\xd0\xbf'
p3384
tp3385
Rp3386
sg1609
g5
(g9
S'\xd7\xf3\xff4\r\xf3\xee\xbf'
p3387
tp3388
Rp3389
s(g159
S'action-4'
p3390
tp3391
g5
(g9
S'b\xb0\xbf\xbb\x82>\xe3?'
p3392
tp3393
Rp3394
sg2172
g5
(g9
S'm\xfd\x10i\xc8w\xe4\xbf'
p3395
tp3396
Rp3397
sg1111
g5
(g9
S'\x12MIe[\xb9\xef\xbf'
p3398
tp3399
Rp3400
s(S'diff-x-pos--19'
p3401
S'action-1'
p3402
tp3403
g5
(g9
S'C\xbe\xcd\xdc\x85?\xf4?'
p3404
tp3405
Rp3406
sg3274
g5
(g9
S"\xb4\xac(\x97'\x88\xc0\xbf"
p3407
tp3408
Rp3409
s(S'diff-x-pos-52'
p3410
S'prev-action-3'
p3411
tp3412
g5
(g9
S'\xfe\xc5\x1e\xaaoJ\xb1?'
p3413
tp3414
Rp3415
s(S'diff-x-pos-30'
p3416
S'prev-action-4'
p3417
tp3418
g5
(g9
S'\xb1\x8bT\xf6\x94n\xef\xbf'
p3419
tp3420
Rp3421
s(S'diff-x-pos-3'
p3422
S'prev-action-4'
p3423
tp3424
g5
(g9
S'Z\xceoO\xae\xab\xe7?'
p3425
tp3426
Rp3427
s(S'diff-x-pos--72'
p3428
S'prev-action-3'
p3429
tp3430
g5
(g9
S'\x9c\x18\x9d\xa5qA\xf2\xbf'
p3431
tp3432
Rp3433
s(S'diff-x-pos--7'
p3434
S'prev-action-3'
p3435
tp3436
g5
(g9
S'8\x07\x8f\x04<\xc8\xce\xbf'
p3437
tp3438
Rp3439
s(g1549
S'action-3'
p3440
tp3441
g5
(g9
S"\xcf\xc2\xf3\x84'\x98\xf8?"
p3442
tp3443
Rp3444
s(g1082
S'action-4'
p3445
tp3446
g5
(g9
S'\xcb\xa3J\x95\x9b\xc4\xef?'
p3447
tp3448
Rp3449
s(g1781
S'object-0-x-20.0'
p3450
tp3451
g5
(g9
S"\x10'\t)*\xf2\xe7?"
p3452
tp3453
Rp3454
s(S'object-1-dx--1'
p3455
g207
tp3456
g5
(g9
S'\xaa%\x04\x8b\x882\xe6\xbf'
p3457
tp3458
Rp3459
s(S'diff-x-pos--35'
p3460
S'action-1'
p3461
tp3462
g5
(g9
S'\xb7$UX2\xc3\xe0?'
p3463
tp3464
Rp3465
s(g1390
S'action-1'
p3466
tp3467
g5
(g9
S'{\x9b\xed\x808<\xeb\xbf'
p3468
tp3469
Rp3470
s(S'diff-x-pos-9'
p3471
S'prev-action-4'
p3472
tp3473
g5
(g9
S'^\x9c>\xd4k\xbd\xff\xbf'
p3474
tp3475
Rp3476
s(S'diff-x-pos--43'
p3477
S'action-4'
p3478
tp3479
g5
(g9
S'\xeeOA\x03\x1fp\xde\xbf'
p3480
tp3481
Rp3482
s(g2093
S'action-1'
p3483
tp3484
g5
(g9
S'j\xa7\xff\xd64\xa5\xbb\xbf'
p3485
tp3486
Rp3487
s(S'diff-x-pos--84'
p3488
S'prev-action-3'
p3489
tp3490
g5
(g9
S'\x05\x18\xb0\xc7#O\xf8?'
p3491
tp3492
Rp3493
s(S'diff-x-pos-40'
p3494
S'prev-action-3'
p3495
tp3496
g5
(g9
S'J]\xe8f\x0e!\xe1?'
p3497
tp3498
Rp3499
sS'object-0-y-20.0'
p3500
g5
(g9
S'\x91\xbb3\xef#\xea9@'
p3501
tp3502
Rp3503
s(S'diff-x-pos-44'
p3504
S'prev-action-3'
p3505
tp3506
g5
(g9
S'o0-\xdfy\x82\xf8\xbf'
p3507
tp3508
Rp3509
s(g1169
S'prev-action-4'
p3510
tp3511
g5
(g9
S'x^l>C\x96\xa3?'
p3512
tp3513
Rp3514
s(S'diff-x-pos--3'
p3515
S'prev-action-3'
p3516
tp3517
g5
(g9
S'\xb7\x9bf\x95\xe8\x84\xe4\xbf'
p3518
tp3519
Rp3520
s(S'diff-x-pos--101'
p3521
S'action-3'
p3522
tp3523
g5
(g9
S'\xb85$U\xf2\xe9\xca\xbf'
p3524
tp3525
Rp3526
s(S'diff-x-pos-21'
p3527
S'prev-action-3'
p3528
tp3529
g5
(g9
S'\xb9;\xe5\x91g\xc8\xc9\xbf'
p3530
tp3531
Rp3532
s(S'diff-x-pos-33'
p3533
S'action-3'
p3534
tp3535
g5
(g9
S'\x7f\xb2I\xb8<6\xf0\xbf'
p3536
tp3537
Rp3538
s(S'action-4'
p3539
S'object-1-x-70.0'
p3540
tp3541
g5
(g9
S'\x1c\x8b\x15\x8c\xd6\xb0\xe7?'
p3542
tp3543
Rp3544
s(g3086
S'action-3'
p3545
tp3546
g5
(g9
S'\xa6p&\xa6\xeb\x1a\xe4?'
p3547
tp3548
Rp3549
s(S'diff-x-pos--67'
p3550
S'action-4'
p3551
tp3552
g5
(g9
S'\x85\xe4\xb5>\x8d\n\xf7?'
p3553
tp3554
Rp3555
s(S'diff-x-pos-18'
p3556
S'action-1'
p3557
tp3558
g5
(g9
S'\xec\x11\x8f\xcb\xf8\xef\xb7\xbf'
p3559
tp3560
Rp3561
s(g941
S'action-3'
p3562
tp3563
g5
(g9
S'l\x92\x83\xcf\xe1C\xf5\xbf'
p3564
tp3565
Rp3566
s(g129
S'prev-action-4'
p3567
tp3568
g5
(g9
S'\x06M\xd7s\xb51\xf6\xbf'
p3569
tp3570
Rp3571
s(S'diff-x-pos--39'
p3572
S'action-4'
p3573
tp3574
g5
(g9
S'\x92x$&\xae\x8a\xd3\xbf'
p3575
tp3576
Rp3577
s(g1111
S'action-4'
p3578
tp3579
g5
(g9
S'\xde\x93a?Q\xa8\xf0\xbf'
p3580
tp3581
Rp3582
s(S'diff-x-pos-54'
p3583
S'action-4'
p3584
tp3585
g5
(g9
S'J\xf0\x91\x8d\xe4\xb7\x04\xc0'
p3586
tp3587
Rp3588
s(S'diff-x-pos--90'
p3589
S'action-1'
p3590
tp3591
g5
(g9
S'7_u\x84uZ\xeb\xbf'
p3592
tp3593
Rp3594
s(g1088
S'action-4'
p3595
tp3596
g5
(g9
S'\xcc\xc14(\xc6\r\xde?'
p3597
tp3598
Rp3599
s(g2078
S'prev-action-4'
p3600
tp3601
g5
(g9
S'\x9f\xe0q\xab\x00\xed\xe9\xbf'
p3602
tp3603
Rp3604
s(g302
S'action-4'
p3605
tp3606
g5
(g9
S'\x1b\x02pZ\xd1R\xd3\xbf'
p3607
tp3608
Rp3609
s(S'diff-x-pos-23'
p3610
S'prev-action-4'
p3611
tp3612
g5
(g9
S'\xdc\xbbx\xa5\x8f\x1e\xa8?'
p3613
tp3614
Rp3615
s(S'diff-x-pos--75'
p3616
S'prev-action-3'
p3617
tp3618
g5
(g9
S'\x80\xc3\xd4\xfb;4\xde?'
p3619
tp3620
Rp3621
s(g1054
S'action-4'
p3622
tp3623
g5
(g9
S'\xbc\x96\x14\x8e<\xa4\xe9\xbf'
p3624
tp3625
Rp3626
s(g3190
S'prev-action-4'
p3627
tp3628
g5
(g9
S'\x80\x81\xa1S\xa2\xc6\xcf\xbf'
p3629
tp3630
Rp3631
s(g2395
S'action-4'
p3632
tp3633
g5
(g9
S'\x0c\xe0\xbdQ2\x95\xcc\xbf'
p3634
tp3635
Rp3636
s(S'diff-x-pos--31'
p3637
S'prev-action-1'
p3638
tp3639
g5
(g9
S'Q\x03<\x022K\xd0?'
p3640
tp3641
Rp3642
s(S'diff-x-pos--27'
p3643
S'prev-action-3'
p3644
tp3645
g5
(g9
S'9\x8e\x8a\x9dWv\xd4?'
p3646
tp3647
Rp3648
s(S'diff-x-pos--68'
p3649
S'action-4'
p3650
tp3651
g5
(g9
S'\x86\n\x08\x84\xffX\xed\xbf'
p3652
tp3653
Rp3654
s(g2433
S'prev-action-4'
p3655
tp3656
g5
(g9
S'\xd0u\\\xac\x15l\xca\xbf'
p3657
tp3658
Rp3659
s(S'diff-x-pos--118'
p3660
S'prev-action-4'
p3661
tp3662
g5
(g9
S'\xb4s\xc0\xacQ\xca\xd1\xbf'
p3663
tp3664
Rp3665
s(S'diff-x-pos-48'
p3666
S'action-3'
p3667
tp3668
g5
(g9
S'2\xaa\xb8\xd5N\x00\xeb?'
p3669
tp3670
Rp3671
s(S'diff-x-pos--60'
p3672
S'prev-action-3'
p3673
tp3674
g5
(g9
S'm@=\x02~\n\xc4\xbf'
p3675
tp3676
Rp3677
s(S'diff-x-pos--30'
p3678
S'prev-action-3'
p3679
tp3680
g5
(g9
S'\xfe\xefo57\xd7\xef\xbf'
p3681
tp3682
Rp3683
s(S'diff-x-pos-26'
p3684
S'action-3'
p3685
tp3686
g5
(g9
S'\xa6\x8d@\xd8\xe4\xe8\xe9?'
p3687
tp3688
Rp3689
s(S'action-4'
p3690
S'prev-action-0'
p3691
tp3692
g5
(g9
S'\x03\x85.a9t\x1c@'
p3693
tp3694
Rp3695
s(g3109
S'action-1'
p3696
tp3697
g5
(g9
S'\xf0\xce\x8f\xb6\x81\x14\x98?'
p3698
tp3699
Rp3700
s(S'diff-x-pos--42'
p3701
S'action-4'
p3702
tp3703
g5
(g9
S'\xe9\xbf\xace\xe6\xb1\xd6?'
p3704
tp3705
Rp3706
s(g3194
S'prev-action-4'
p3707
tp3708
g5
(g9
S'=\xc3H7\xb7\x08\xf2?'
p3709
tp3710
Rp3711
s(S'diff-x-pos--13'
p3712
S'action-1'
p3713
tp3714
g5
(g9
S'D\x805\xf9\xb4\xbd\xf9\xbf'
p3715
tp3716
Rp3717
s(S'diff-x-pos--19'
p3718
S'prev-action-4'
p3719
tp3720
g5
(g9
S'$\xee^r=|\xf0\xbf'
p3721
tp3722
Rp3723
s(g196
S'prev-action-1'
p3724
tp3725
g5
(g9
S'\x89*\x91\xa6\xc1\x1f!@'
p3726
tp3727
Rp3728
s(S'diff-x-pos-37'
p3729
S'action-1'
p3730
tp3731
g5
(g9
S'J\x8e+\xf8/\xf8\xde?'
p3732
tp3733
Rp3734
s(S'diff-x-pos-65'
p3735
S'action-1'
p3736
tp3737
g5
(g9
S'\xc0D\xdd\x8e\x10\xf9\xe3\xbf'
p3738
tp3739
Rp3740
s(g2097
S'prev-action-3'
p3741
tp3742
g5
(g9
S'\x08\xb5Kq\xf0\x8e\xaa?'
p3743
tp3744
Rp3745
s(S'diff-x-pos--69'
p3746
S'action-3'
p3747
tp3748
g5
(g9
S'\xb3ioF;\x05\xf6\xbf'
p3749
tp3750
Rp3751
s(S'diff-x-pos--49'
p3752
S'prev-action-1'
p3753
tp3754
g5
(g9
S'\xcf\xfe1R\x85W\xd7\xbf'
p3755
tp3756
Rp3757
s(S'diff-x-pos--93'
p3758
S'prev-action-3'
p3759
tp3760
g5
(g9
S'@\xa2i\xedP\xdc\xf0\xbf'
p3761
tp3762
Rp3763
s(S'object-0-dx-1'
p3764
g444
tp3765
g5
(g9
S'\x87\xf1L\x97}\xa8\xea\xbf'
p3766
tp3767
Rp3768
s(g3205
g207
tp3769
g5
(g9
S'\xear\x06\xfe~\xa5\xa5\xbf'
p3770
tp3771
Rp3772
s(g1252
S'prev-action-4'
p3773
tp3774
g5
(g9
S'\xfcU>\xe2\x95l\xf7\xbf'
p3775
tp3776
Rp3777
s(S'diff-x-pos--37'
p3778
S'action-1'
p3779
tp3780
g5
(g9
S'\xdcf\xb6\xe3d\x83\xe5\xbf'
p3781
tp3782
Rp3783
s(S'diff-x-pos--39'
p3784
S'prev-action-1'
p3785
tp3786
g5
(g9
S'\x07\xad]\x7f\x812\xdb?'
p3787
tp3788
Rp3789
s(g1396
S'prev-action-1'
p3790
tp3791
g5
(g9
S'\xb8\x1ei\xe98\xc2\xd7?'
p3792
tp3793
Rp3794
s(S'diff-x-pos--55'
p3795
S'action-1'
p3796
tp3797
g5
(g9
S'5\xaeTY\x97\xdd\t@'
p3798
tp3799
Rp3800
s(S'diff-x-pos-4'
p3801
S'prev-action-1'
p3802
tp3803
g5
(g9
S'\x9a\xe7_\xae\x85(\xf8?'
p3804
tp3805
Rp3806
s(S'diff-x-pos-44'
p3807
S'prev-action-1'
p3808
tp3809
g5
(g9
S'0\xa7\xaa\xd9\xf4\xd6\xae?'
p3810
tp3811
Rp3812
s(S'diff-x-pos--47'
p3813
S'prev-action-3'
p3814
tp3815
g5
(g9
S'<\xe2"J\x14\xd6\xe9?'
p3816
tp3817
Rp3818
sg564
g5
(g9
S'F\xfc\xce\x19"B\xf6?'
p3819
tp3820
Rp3821
sg2463
g5
(g9
S'\x1a\xe9\x86\x85\xae\xbd\xf0?'
p3822
tp3823
Rp3824
s(S'diff-x-pos--28'
p3825
S'action-1'
p3826
tp3827
g5
(g9
S'\xb5x\xe4^\x7f\xe1\xea\xbf'
p3828
tp3829
Rp3830
sg1995
g5
(g9
S'\xa1\x83\x1eU\xd8`\xed\xbf'
p3831
tp3832
Rp3833
sS'diff-x-pos--116'
p3834
g5
(g9
S'0\xd8M\xe4\x9d\xd4\xd7\xbf'
p3835
tp3836
Rp3837
sg2433
g5
(g9
S'\x00z\x7f\xf0\xb4\xdf\xb2?'
p3838
tp3839
Rp3840
sS'diff-x-pos--114'
p3841
g5
(g9
S'(\xa1\xee\xf9\xf0\xa1\xc2\xbf'
p3842
tp3843
Rp3844
s(S'diff-x-pos--61'
p3845
S'prev-action-4'
p3846
tp3847
g5
(g9
S'\xd8x\x1fd\x0e\xae\xdc?'
p3848
tp3849
Rp3850
sg3660
g5
(g9
S'\x18\xe7H\xcf`3\xde?'
p3851
tp3852
Rp3853
s(g963
S'action-4'
p3854
tp3855
g5
(g9
S'xZ\xe1\xae\xc7\xfb\xec\xbf'
p3856
tp3857
Rp3858
s(g3422
S'action-1'
p3859
tp3860
g5
(g9
S'\xcb\x1e\x16\xc0\x17\xd8\xd3\xbf'
p3861
tp3862
Rp3863
s(S'diff-x-pos--21'
p3864
S'prev-action-3'
p3865
tp3866
g5
(g9
S'\xc6\xdfc)[G\xea?'
p3867
tp3868
Rp3869
s(S'diff-x-pos--87'
p3870
S'prev-action-4'
p3871
tp3872
g5
(g9
S'\xf2\x83<0\xb6\xcb\xd8\xbf'
p3873
tp3874
Rp3875
s(g3589
S'prev-action-1'
p3876
tp3877
g5
(g9
S'\x0c>\xf9%\x19\x9b\xcf?'
p3878
tp3879
Rp3880
s(S'diff-x-pos--5'
p3881
S'action-4'
p3882
tp3883
g5
(g9
S'\xb79\x1ex\x164\xf0\xbf'
p3884
tp3885
Rp3886
s(S'diff-x-pos-43'
p3887
S'action-3'
p3888
tp3889
g5
(g9
S'\x8d\xcec@\x1e\xc6\xe4?'
p3890
tp3891
Rp3892
s(S'diff-x-pos-55'
p3893
S'action-1'
p3894
tp3895
g5
(g9
S'v\xa4e3\xc4\x9e\xe2?'
p3896
tp3897
Rp3898
s(S'diff-x-pos-45'
p3899
S'prev-action-1'
p3900
tp3901
g5
(g9
S'\xe6\xf0mUf\xcf\xe8?'
p3902
tp3903
Rp3904
sg2711
g5
(g9
S'4\xd5\xc1\x0bNy\xe8?'
p3905
tp3906
Rp3907
s(g3124
S'action-3'
p3908
tp3909
g5
(g9
S'\x08\\z\xfak\t\xf1\xbf'
p3910
tp3911
Rp3912
s(S'diff-x-pos--59'
p3913
S'action-4'
p3914
tp3915
g5
(g9
S"'S\xfb\x1bM\xfc\xe8?"
p3916
tp3917
Rp3918
s(S'diff-x-pos-36'
p3919
S'action-3'
p3920
tp3921
g5
(g9
S'\x98\x1c\xec\xb5\xdbI\xd5\xbf'
p3922
tp3923
Rp3924
s(S'diff-x-pos--32'
p3925
S'action-3'
p3926
tp3927
g5
(g9
S'~o\x9d\xb2\x968\xfb\xbf'
p3928
tp3929
Rp3930
s(S'diff-x-pos-8'
p3931
S'prev-action-4'
p3932
tp3933
g5
(g9
S'\x9a\x07P\xc5Z*\xdd?'
p3934
tp3935
Rp3936
sS'object-1-y-10.0'
p3937
g5
(g9
S'UcB\xb1~\xe1\xee\xbf'
p3938
tp3939
Rp3940
s(g3109
S'prev-action-1'
p3941
tp3942
g5
(g9
S'N+\x07\r\xdau\xec?'
p3943
tp3944
Rp3945
s(S'diff-x-pos-30'
p3946
S'action-1'
p3947
tp3948
g5
(g9
S'\x03\x18\x98\x1eFj\xf0\xbf'
p3949
tp3950
Rp3951
s(S'diff-x-pos-38'
p3952
S'prev-action-1'
p3953
tp3954
g5
(g9
S'\x98`\xf10\xd5*\xbb?'
p3955
tp3956
Rp3957
s(g623
S'action-3'
p3958
tp3959
g5
(g9
S'6\xb6\xa7\xbc\xc1%\xd3?'
p3960
tp3961
Rp3962
s(S'diff-x-pos--112'
p3963
S'action-1'
p3964
tp3965
g5
(g9
S'h\x07\xa7S\xc2\xf4\xda?'
p3966
tp3967
Rp3968
s(g2160
S'action-4'
p3969
tp3970
g5
(g9
S'\xb3\x00L\xb4\xae\x81\xe6\xbf'
p3971
tp3972
Rp3973
s(g605
S'prev-action-3'
p3974
tp3975
g5
(g9
S'\x9a\xa0S\xbe\xf79\xec?'
p3976
tp3977
Rp3978
s(S'diff-x-pos--93'
p3979
S'prev-action-1'
p3980
tp3981
g5
(g9
S'\xda-\xd2\x93#s\xe7\xbf'
p3982
tp3983
Rp3984
sg1949
g5
(g9
S'\x00j\xf5u\x84\n5?'
p3985
tp3986
Rp3987
s(S'diff-x-pos--33'
p3988
S'action-3'
p3989
tp3990
g5
(g9
S'jC\x00>\xacH\xdd\xbf'
p3991
tp3992
Rp3993
s(S'diff-x-pos--114'
p3994
S'action-4'
p3995
tp3996
g5
(g9
S'@\x94\x87\xe9\xf6\xf1\xf2?'
p3997
tp3998
Rp3999
s(S'diff-x-pos-19'
p4000
S'action-3'
p4001
tp4002
g5
(g9
S'I\x9f;)i\x8a\xf8?'
p4003
tp4004
Rp4005
s(S'diff-x-pos-14'
p4006
S'action-1'
p4007
tp4008
g5
(g9
S'/\x8b\xd6}\xa1\xe5\xf9\xbf'
p4009
tp4010
Rp4011
s(g3758
S'action-4'
p4012
tp4013
g5
(g9
S'M\x0c\xd3a\x04\xfe\xf6\xbf'
p4014
tp4015
Rp4016
s(S'diff-x-pos--5'
p4017
S'action-3'
p4018
tp4019
g5
(g9
S'$\x9c\xedr\x84>\xeb?'
p4020
tp4021
Rp4022
s(S'diff-x-pos--6'
p4023
g1134
tp4024
g5
(g9
S' \xc1Y>\xa8C\x9b\xbf'
p4025
tp4026
Rp4027
s(g2617
S'action-3'
p4028
tp4029
g5
(g9
S'\xee\x9e\xe3\xbe\xcc@\x02\xc0'
p4030
tp4031
Rp4032
s(g2611
S'action-1'
p4033
tp4034
g5
(g9
S'\xeed\xc2\xa3\xea\xc9\xd7?'
p4035
tp4036
Rp4037
sS'object-0-dy-1'
p4038
g5
(g9
S"'\x97`\xa8\xa5K\xe3\xbf"
p4039
tp4040
Rp4041
s(S'diff-x-pos--82'
p4042
S'prev-action-4'
p4043
tp4044
g5
(g9
S'\xf2\x8e\xe26\x81\xc8\xd4?'
p4045
tp4046
Rp4047
s(S'diff-x-pos--24'
p4048
S'action-3'
p4049
tp4050
g5
(g9
S'\x00\xb0\xb6\xf9\xcd\x9aP?'
p4051
tp4052
Rp4053
s(S'diff-x-pos--85'
p4054
S'prev-action-1'
p4055
tp4056
g5
(g9
S'#\x88\xd8\x17M\xe3\xdf?'
p4057
tp4058
Rp4059
s(S'diff-x-pos-35'
p4060
S'action-1'
p4061
tp4062
g5
(g9
S'\x00Q\xfeB\xf7\xff\x86?'
p4063
tp4064
Rp4065
s(S'diff-x-pos--32'
p4066
g2823
tp4067
g5
(g9
S'\x9aiFn\x85;\x0e@'
p4068
tp4069
Rp4070
s(S'diff-x-pos--97'
p4071
S'prev-action-1'
p4072
tp4073
g5
(g9
S'&P\xf6eB\xeb\xe0?'
p4074
tp4075
Rp4076
s(S'diff-x-pos--17'
p4077
S'prev-action-4'
p4078
tp4079
g5
(g9
S'P)\x85\xd4]+\xe7?'
p4080
tp4081
Rp4082
s(S'diff-x-pos--74'
p4083
S'prev-action-1'
p4084
tp4085
g5
(g9
S'\xb2\xc8\x15\xd77\xbb\xe8\xbf'
p4086
tp4087
Rp4088
s(S'diff-x-pos--2'
p4089
S'prev-action-4'
p4090
tp4091
g5
(g9
S'\x88\x1b\xe2\xedw`\xef\xbf'
p4092
tp4093
Rp4094
s(g2939
S'prev-action-3'
p4095
tp4096
g5
(g9
S'\x90\xe8HhN\x87\x05@'
p4097
tp4098
Rp4099
s(S'diff-x-pos--77'
p4100
S'prev-action-4'
p4101
tp4102
g5
(g9
S'\xf6\x10]/\x8d\xaf\xc7\xbf'
p4103
tp4104
Rp4105
s(S'diff-x-pos-46'
p4106
S'action-4'
p4107
tp4108
g5
(g9
S'\xd4LMI3\xc8\x02\xc0'
p4109
tp4110
Rp4111
s(g629
S'prev-action-1'
p4112
tp4113
g5
(g9
S'\xec""X\xd0@\xdf?'
p4114
tp4115
Rp4116
s(S'diff-x-pos--4'
p4117
S'action-4'
p4118
tp4119
g5
(g9
S'\x98\x8a\x01\x8d\xc3I\xe0?'
p4120
tp4121
Rp4122
s(S'diff-x-pos-42'
p4123
S'prev-action-1'
p4124
tp4125
g5
(g9
S'2\xde$\x06\x13\x1f\xdf\xbf'
p4126
tp4127
Rp4128
s(S'action-1'
p4129
S'object-0-x-10.0'
p4130
tp4131
g5
(g9
S'D<\xf5Qo\\\x0f@'
p4132
tp4133
Rp4134
sS'diff-y-pos--9'
p4135
g5
(g9
S'\xee\xb0\r\xc7\xe0\x8d\xd4\xbf'
p4136
tp4137
Rp4138
sS'diff-y-pos--8'
p4139
g5
(g9
S'P\xc4\xff\x82\xe1U\xd6?'
p4140
tp4141
Rp4142
s(g945
S'prev-action-3'
p4143
tp4144
g5
(g9
S'\x00\xa5Q*\xec\xdc\x9c\xbf'
p4145
tp4146
Rp4147
sS'diff-y-pos--4'
p4148
g5
(g9
S'\xf0\xea{\xa4\x83\xda\xee?'
p4149
tp4150
Rp4151
sS'diff-y-pos--7'
p4152
g5
(g9
S'8\xf2u_\xd6\xef\xfd\xbf'
p4153
tp4154
Rp4155
s(g963
S'prev-action-1'
p4156
tp4157
g5
(g9
S'\x82\x05\xa9\xb3\xdbR\xeb\xbf'
p4158
tp4159
Rp4160
sS'diff-y-pos--1'
p4161
g5
(g9
S'\xdd\x9eU\x14\x84\xb6\xd5?'
p4162
tp4163
Rp4164
sS'diff-y-pos--3'
p4165
g5
(g9
S'|\xc9p\x01\x91W\xff\xbf'
p4166
tp4167
Rp4168
sS'diff-y-pos--2'
p4169
g5
(g9
S'A\xd8\xfa\x88 a\xf4?'
p4170
tp4171
Rp4172
s(S'diff-x-pos-20'
p4173
S'prev-action-4'
p4174
tp4175
g5
(g9
S'\xec\xc2b\xb3`O\xf8\xbf'
p4176
tp4177
Rp4178
s(S'diff-x-pos--95'
p4179
S'prev-action-4'
p4180
tp4181
g5
(g9
S'B\xf8\r\x9a\xe1\xca\xde\xbf'
p4182
tp4183
Rp4184
s(S'diff-x-pos--93'
p4185
S'action-3'
p4186
tp4187
g5
(g9
S'\xb2\\\xbd\xb0&\xa5\xd7?'
p4188
tp4189
Rp4190
s(S'object-1-dx-1'
p4191
g4028
tp4192
g5
(g9
S'\xd7.\xd7<\x8a\x99\x03@'
p4193
tp4194
Rp4195
s(g454
S'action-1'
p4196
tp4197
g5
(g9
S'\x98\xa5yBh\xad\xad\xbf'
p4198
tp4199
Rp4200
s(S'diff-x-pos--14'
p4201
S'action-3'
p4202
tp4203
g5
(g9
S'\xaa<.x\xdc\x8c\xca\xbf'
p4204
tp4205
Rp4206
s(S'diff-x-pos--112'
p4207
S'prev-action-3'
p4208
tp4209
g5
(g9
S'&\xa9\x992\xc1\xb7\xf2?'
p4210
tp4211
Rp4212
s(g4117
S'prev-action-1'
p4213
tp4214
g5
(g9
S',O\x03\xee\xaa#\xe0\xbf'
p4215
tp4216
Rp4217
s(g2058
S'action-3'
p4218
tp4219
g5
(g9
S'\x88\xea\x07\xdcMg\xc2\xbf'
p4220
tp4221
Rp4222
s(S'diff-x-pos-38'
p4223
S'action-3'
p4224
tp4225
g5
(g9
S'\x8c\xcfU\x82j?\xf4?'
p4226
tp4227
Rp4228
s(g910
S'action-1'
p4229
tp4230
g5
(g9
S'\xe0\xafI\xb2\xa7\xc3\x98\xbf'
p4231
tp4232
Rp4233
sg1479
g5
(g9
S'\x08\xe6\\i\xc9\xb9\xef?'
p4234
tp4235
Rp4236
sg1185
g5
(g9
S'jo\x84\x18\xe5\x07\xca\xbf'
p4237
tp4238
Rp4239
sg1012
g5
(g9
S'6\x9a6r\xd2]\xd0\xbf'
p4240
tp4241
Rp4242
sg1485
g5
(g9
S'e19 \x1f{\xe6\xbf'
p4243
tp4244
Rp4245
sS'diff-x-pos--83'
p4246
g5
(g9
S'q#\xdf\x1de\x05\xf1\xbf'
p4247
tp4248
Rp4249
sg2068
g5
(g9
S'\xc0\x92\xf0\xf7j\xd3\xee\xbf'
p4250
tp4251
Rp4252
sg2498
g5
(g9
S'@\x0c\xb0\x07_\x11\x83\xbf'
p4253
tp4254
Rp4255
sg81
g5
(g9
S't\x8e\xf3\xd5\xc71\xe2\xbf'
p4256
tp4257
Rp4258
sg2
g5
(g9
S'\xa6X]\xf6\x8a\x1f\xf0?'
p4259
tp4260
Rp4261
sS'diff-x-pos--88'
p4262
g5
(g9
S'V\xc77\xc7\xf19\xd4?'
p4263
tp4264
Rp4265
s(S'diff-x-pos--38'
p4266
S'prev-action-3'
p4267
tp4268
g5
(g9
S'`\xcdrX\x86\x07\xab\xbf'
p4269
tp4270
Rp4271
s(S'diff-x-pos-6'
p4272
S'action-4'
p4273
tp4274
g5
(g9
S'\xfe$\xa2\xd7\x18\xf6\xee?'
p4275
tp4276
Rp4277
s(g2148
S'prev-action-3'
p4278
tp4279
g5
(g9
S'\xb2Q\xaa Q\xa8\xe8\xbf'
p4280
tp4281
Rp4282
s(g3261
S'prev-action-4'
p4283
tp4284
g5
(g9
S'\x10\xceP\xa1\xbfa\x9b\xbf'
p4285
tp4286
Rp4287
s(S'diff-x-pos--28'
p4288
S'prev-action-3'
p4289
tp4290
g5
(g9
S'\x9f@\xdf\xc8I"\xe8?'
p4291
tp4292
Rp4293
sg681
g5
(g9
S'\xce\x10\x05O\x0fr\xe3\xbf'
p4294
tp4295
Rp4296
sS'diff-x-pos--11'
p4297
g5
(g9
S'~\x7f<\xb6\xb5\xd1\xe4\xbf'
p4298
tp4299
Rp4300
sg1810
g5
(g9
S'D\x0e\xf1?\xad\xd2\xe2\xbf'
p4301
tp4302
Rp4303
sg3712
g5
(g9
S'[x\x0f\xd0\x85K\xdf?'
p4304
tp4305
Rp4306
s(S'diff-x-pos--116'
p4307
S'action-4'
p4308
tp4309
g5
(g9
S'tAU\x15\xb7\x81\xe4?'
p4310
tp4311
Rp4312
s(S'diff-x-pos-4'
p4313
S'action-3'
p4314
tp4315
g5
(g9
S'\xb2!\x90&\xbdx\xf1?'
p4316
tp4317
Rp4318
sg1925
g5
(g9
S"\x96\xec\xe2'\x94\x19\xf6?"
p4319
tp4320
Rp4321
sg518
g5
(g9
S'r\x8dd\xf4r\xfa\xd9?'
p4322
tp4323
Rp4324
s(g290
S'prev-action-4'
p4325
tp4326
g5
(g9
S'\xf23\xce\xeb\xd1\xa1\xf1?'
p4327
tp4328
Rp4329
sS'diff-x-pos--19'
p4330
g5
(g9
S'\xceP\xbdG\n\xf9\xc0?'
p4331
tp4332
Rp4333
s(g3795
S'prev-action-3'
p4334
tp4335
g5
(g9
S'iP\x97\xb2|\xc9\xf2?'
p4336
tp4337
Rp4338
s(S'diff-x-pos-42'
p4339
S'action-1'
p4340
tp4341
g5
(g9
S'\xfc\x10\xa8\r\x07\xee\xc9?'
p4342
tp4343
Rp4344
s(S'diff-x-pos--62'
p4345
S'prev-action-0'
p4346
tp4347
g5
(g9
S'\xd0)\x83\xbeX8\r@'
p4348
tp4349
Rp4350
s(S'diff-x-pos--37'
p4351
S'prev-action-3'
p4352
tp4353
g5
(g9
S'\x8cs\xfd\xa3\xf1\xa9\xbb?'
p4354
tp4355
Rp4356
s(S'diff-x-pos--22'
p4357
S'prev-action-1'
p4358
tp4359
g5
(g9
S'J,\x00t\xbf\x1d\xc9\xbf'
p4360
tp4361
Rp4362
s(S'diff-x-pos--97'
p4363
S'action-1'
p4364
tp4365
g5
(g9
S'\xe0\xfdu\x14#_\x02\xc0'
p4366
tp4367
Rp4368
s(S'diff-x-pos--69'
p4369
S'prev-action-1'
p4370
tp4371
g5
(g9
S'Uk\xa5\x97\x05\xe6\xf9?'
p4372
tp4373
Rp4374
s(g2097
S'action-1'
p4375
tp4376
g5
(g9
S'b\x136n|\t\xf3?'
p4377
tp4378
Rp4379
s(S'diff-x-pos--23'
p4380
S'action-4'
p4381
tp4382
g5
(g9
S'\x8f\x90&6\xd6\x06\xec?'
p4383
tp4384
Rp4385
s(g3578
S'object-0-x-100.0'
p4386
tp4387
g5
(g9
S'\xb2\xf1\xbazl\xa4\xfb?'
p4388
tp4389
Rp4390
s(S'diff-x-pos-25'
p4391
S'action-1'
p4392
tp4393
g5
(g9
S'\xc2\xde\r\x1br\xf5\xe4?'
p4394
tp4395
Rp4396
s(S'diff-x-pos--33'
p4397
S'prev-action-3'
p4398
tp4399
g5
(g9
S'\xca(S\x9c\xacH\xf7?'
p4400
tp4401
Rp4402
s(g3678
S'action-1'
p4403
tp4404
g5
(g9
S'\xbb\xc1h\x9d\xdd\xbe\xea?'
p4405
tp4406
Rp4407
s(S'diff-x-pos--71'
p4408
S'prev-action-4'
p4409
tp4410
g5
(g9
S'\xbd\xffs\xcd\xd2_\xd6\xbf'
p4411
tp4412
Rp4413
s(S'diff-x-pos-47'
p4414
S'prev-action-4'
p4415
tp4416
g5
(g9
S'\xa8dF\x9d\xb5\xd4\xe2\xbf'
p4417
tp4418
Rp4419
s(S'action-3'
p4420
S'object-1-x-100.0'
p4421
tp4422
g5
(g9
S':\xd5#Q\x0b\x07\xe4\xbf'
p4423
tp4424
Rp4425
s(S'diff-x-pos--55'
p4426
S'prev-action-4'
p4427
tp4428
g5
(g9
S'<\x1d\xa3\xfds<\xe4\xbf'
p4429
tp4430
Rp4431
sS'object-0-x-80.0'
p4432
g5
(g9
S'\x8b\x94\x1e=%:\x14@'
p4433
tp4434
Rp4435
s(S'diff-x-pos--60'
p4436
S'prev-action-1'
p4437
tp4438
g5
(g9
S'\xfe\xf7,R4O\x03@'
p4439
tp4440
Rp4441
s(g3240
S'prev-action-1'
p4442
tp4443
g5
(g9
S'\x00\x147\x0e\xef\x1fv\xbf'
p4444
tp4445
Rp4446
s(g3186
S'action-1'
p4447
tp4448
g5
(g9
S'\xa4\xc4\xa7F\x14[\xdd\xbf'
p4449
tp4450
Rp4451
sg1088
g5
(g9
S'\x8dm79\xb7\xc8\xf4?'
p4452
tp4453
Rp4454
sg1264
g5
(g9
S'\xfe\x81.\xda\x13\xda\xd5?'
p4455
tp4456
Rp4457
sg1372
g5
(g9
S'D\xadw\xd8\xd1\xc0\xdb\xbf'
p4458
tp4459
Rp4460
sg910
g5
(g9
S'\xca\xb7\x11\xe2=$\xeb\xbf'
p4461
tp4462
Rp4463
sg1549
g5
(g9
S'\x92\x01\xff\xb5%\x01\xdc?'
p4464
tp4465
Rp4466
sg3893
g5
(g9
S'l}\x94\xc2yc\xd0?'
p4467
tp4468
Rp4469
sg1252
g5
(g9
S'\xd3a\t\x98\xaa\x1c\xd1\xbf'
p4470
tp4471
Rp4472
sg1897
g5
(g9
S'\xa2\x86Q\xbb\xf3\xc2\xee?'
p4473
tp4474
Rp4475
sg1650
g5
(g9
S'\x06\x05\nf\n\xdf\xc0\xbf'
p4476
tp4477
Rp4478
sg1573
g5
(g9
S'\xc9\x1ej\xe6\x9aP\xf3\xbf'
p4479
tp4480
Rp4481
s(g3124
S'prev-action-3'
p4482
tp4483
g5
(g9
S'\xb2\xc7s\xc7\x8f\x8a\xfa?'
p4484
tp4485
Rp4486
s(g983
S'action-1'
p4487
tp4488
g5
(g9
S'\x94`to\xc1|\xfa\xbf'
p4489
tp4490
Rp4491
s(g2779
S'action-1'
p4492
tp4493
g5
(g9
S'\xd5\xce0\xc40\xce\xed?'
p4494
tp4495
Rp4496
s(g1503
S'prev-action-3'
p4497
tp4498
g5
(g9
S'\xdc\xdb\x9e\xa4\x06@\xc9\xbf'
p4499
tp4500
Rp4501
s(g4017
S'prev-action-4'
p4502
tp4503
g5
(g9
S'\x91\xd2\x8aD,\x9c\xca?'
p4504
tp4505
Rp4506
s(S'diff-x-pos--60'
p4507
S'prev-action-4'
p4508
tp4509
g5
(g9
S'(\xcf\x81\x92\x86!\xcd\xbf'
p4510
tp4511
Rp4512
sS'object-0-y-10.0'
p4513
g5
(g9
S'\xd0\xecX\x0e\xb3\x8f9@'
p4514
tp4515
Rp4516
s(g1031
S'object-1-x-90.0'
p4517
tp4518
g5
(g9
S'\x9b!\x14;\xb1\x83\xd6\xbf'
p4519
tp4520
Rp4521
s(S'diff-x-pos--61'
p4522
S'action-4'
p4523
tp4524
g5
(g9
S'!\xee\x9c\x072\xa8\xe1\xbf'
p4525
tp4526
Rp4527
s(S'diff-x-pos-52'
p4528
S'action-1'
p4529
tp4530
g5
(g9
S'+\x92\x06\xf0)C\xf2?'
p4531
tp4532
Rp4533
s(g2738
S'prev-action-1'
p4534
tp4535
g5
(g9
S'-ea\x1f\xb5\xeb\xf0?'
p4536
tp4537
Rp4538
s(g865
S'object-1-x-120.0'
p4539
tp4540
g5
(g9
S'\xee\xeb\x9a\xe5T\x0b\x05@'
p4541
tp4542
Rp4543
s(S'diff-x-pos--5'
p4544
S'action-1'
p4545
tp4546
g5
(g9
S'z\x8b\xc0\xc1\xfc\xcb\xb3\xbf'
p4547
tp4548
Rp4549
s(g534
S'prev-action-1'
p4550
tp4551
g5
(g9
S'xr\xb8z\xd2/\xdd?'
p4552
tp4553
Rp4554
s(S'diff-x-pos--39'
p4555
g1520
tp4556
g5
(g9
S'\xf6\xbb3,N\x1a\xe7?'
p4557
tp4558
Rp4559
s(S'diff-x-pos-40'
p4560
S'action-1'
p4561
tp4562
g5
(g9
S'\x98&Y\xdb\x0f\xcf\xda\xbf'
p4563
tp4564
Rp4565
s(S'object-0-dx-1'
p4566
g659
tp4567
g5
(g9
S'\x80\xbc\x12K\x1e\xbf\xb5\xbf'
p4568
tp4569
Rp4570
s(S'action-4'
p4571
S'object-0-x-0.0'
p4572
tp4573
g5
(g9
S'\x12\xdc\xe0\\\xd1\xf8\x07@'
p4574
tp4575
Rp4576
s(g3583
S'prev-action-4'
p4577
tp4578
g5
(g9
S'\xd0L\xf3m\xcf/\x03\xc0'
p4579
tp4580
Rp4581
sg350
g5
(g9
S'\xcd\xe6V\x06fC\xe9?'
p4582
tp4583
Rp4584
s(g370
S'prev-action-1'
p4585
tp4586
g5
(g9
S'H\xc0\xa8\xc5\xaah\xd5?'
p4587
tp4588
Rp4589
sg400
g5
(g9
S'y~m\xa3h\xc6\xf8?'
p4590
tp4591
Rp4592
s(S'diff-x-pos--26'
p4593
S'prev-action-3'
p4594
tp4595
g5
(g9
S'\x84\xe7\x0e\xf0X\x15\xe2\xbf'
p4596
tp4597
Rp4598
s(g3712
S'prev-action-1'
p4599
tp4600
g5
(g9
S'\xdeV\x83\xef\xcfm\xc6?'
p4601
tp4602
Rp4603
s(g3194
S'action-4'
p4604
tp4605
g5
(g9
S'\x80%<\x91Z\x16\xde?'
p4606
tp4607
Rp4608
s(g3186
S'prev-action-4'
p4609
tp4610
g5
(g9
S'\x12\xe1\x91:\xc5\xc8\xee\xbf'
p4611
tp4612
Rp4613
s(S'diff-x-pos--7'
p4614
S'action-1'
p4615
tp4616
g5
(g9
S'\x14\x8d\xbdO\xe0z\x8e?'
p4617
tp4618
Rp4619
s(S'diff-x-pos--109'
p4620
S'prev-action-4'
p4621
tp4622
g5
(g9
S'4,\x15\xd03:\xe9?'
p4623
tp4624
Rp4625
s(g2985
g1880
tp4626
g5
(g9
S"\x8c\xfe\xbc\xd8'\xb9\x14@"
p4627
tp4628
Rp4629
sg4386
g5
(g9
S'\xa8B0\r\xac"\x17@'
p4630
tp4631
Rp4632
s(g1848
S'action-4'
p4633
tp4634
g5
(g9
S'\xce~\x1fk\xa6\xd6\x00\xc0'
p4635
tp4636
Rp4637
s(S'diff-x-pos--94'
p4638
S'prev-action-3'
p4639
tp4640
g5
(g9
S'n\x18,\xf9\xd9J\xe5\xbf'
p4641
tp4642
Rp4643
s(S'diff-x-pos-48'
p4644
S'prev-action-3'
p4645
tp4646
g5
(g9
S'hv\x06\xff\x8b/\xdf?'
p4647
tp4648
Rp4649
s(S'diff-x-pos--50'
p4650
S'prev-action-1'
p4651
tp4652
g5
(g9
S'\x08\x8e\xad\x178u\xb9?'
p4653
tp4654
Rp4655
s(S'diff-x-pos--104'
p4656
S'prev-action-3'
p4657
tp4658
g5
(g9
S'\xeb\xb4\xfc=z?\xc6?'
p4659
tp4660
Rp4661
s(S'diff-x-pos--115'
p4662
S'prev-action-1'
p4663
tp4664
g5
(g9
S'\xcf[<\xae\xb3-\xcb?'
p4665
tp4666
Rp4667
s(g1396
S'action-4'
p4668
tp4669
g5
(g9
S'\xda\x9e\xb4\xef\xc2\xd0\xf6\xbf'
p4670
tp4671
Rp4672
s(g75
g395
tp4673
g5
(g9
S'\xa2\x8aD\xbf\xc6\xe4\x1e@'
p4674
tp4675
Rp4676
s(S'diff-x-pos--56'
p4677
S'prev-action-1'
p4678
tp4679
g5
(g9
S'JV\x10\xc8\xc4\x97\xe7?'
p4680
tp4681
Rp4682
s(S'diff-x-pos-13'
p4683
S'prev-action-3'
p4684
tp4685
g5
(g9
S'3x\xda\xd6>9\xf1?'
p4686
tp4687
Rp4688
s(S'action-3'
p4689
S'object-0-x-30.0'
p4690
tp4691
g5
(g9
S'\xa7Us(\x81m\x0c@'
p4692
tp4693
Rp4694
sS'diff-x-pos-27'
p4695
g5
(g9
S'o\xa1\xc5{\xf3\xd1\xe2\xbf'
p4696
tp4697
Rp4698
s(S'diff-x-pos--26'
p4699
S'action-4'
p4700
tp4701
g5
(g9
S',\x90\x13fX\x05\x06@'
p4702
tp4703
Rp4704
s(S'diff-x-pos-9'
p4705
S'action-1'
p4706
tp4707
g5
(g9
S'Ygf\x19\xf1\xaa\xe3\xbf'
p4708
tp4709
Rp4710
s(g4380
S'prev-action-3'
p4711
tp4712
g5
(g9
S'\xc9\x93\r5a\xae\xf5\xbf'
p4713
tp4714
Rp4715
s(g3082
S'action-3'
p4716
tp4717
g5
(g9
S'\x18\xb5\xe4P\xcc\xf1\xe3\xbf'
p4718
tp4719
Rp4720
sS'object-0-x-120.0'
p4721
g5
(g9
S'\xab\x93\xaa1sP\x14@'
p4722
tp4723
Rp4724
s(g756
S'prev-action-1'
p4725
tp4726
g5
(g9
S'\x16]y\xe6\x9cs\xf5\xbf'
p4727
tp4728
Rp4729
s(g739
g458
tp4730
g5
(g9
S'9\x9b,\xf5\x17\x16\xe2?'
p4731
tp4732
Rp4733
sg3795
g5
(g9
S'\xda\x9d\xc4&\xe5\x0b\xed?'
p4734
tp4735
Rp4736
s(g949
S'action-1'
p4737
tp4738
g5
(g9
S'\xe4\xa9#h\xc6\xe0\xf6\xbf'
p4739
tp4740
Rp4741
s(g743
S'action-3'
p4742
tp4743
g5
(g9
S'\xb0\xe6\x1b\x82\xa6\xfa\x01\xc0'
p4744
tp4745
Rp4746
s(g4555
S'prev-action-4'
p4747
tp4748
g5
(g9
S'8gc\xc1\x1e\x19\xfc\xbf'
p4749
tp4750
Rp4751
s(S'diff-x-pos-62'
p4752
S'prev-action-4'
p4753
tp4754
g5
(g9
S'\xc0g\xe8-\xb8\x88\xee\xbf'
p4755
tp4756
Rp4757
s(S'diff-x-pos--109'
p4758
S'prev-action-3'
p4759
tp4760
g5
(g9
S'@\x02\x8e\x8f\xad8\xf9\xbf'
p4761
tp4762
Rp4763
s(g177
S'prev-action-3'
p4764
tp4765
g5
(g9
S'\xbb\x90\xb0I\x1e#\xf3\xbf'
p4766
tp4767
Rp4768
s(S'diff-x-pos--15'
p4769
S'prev-action-4'
p4770
tp4771
g5
(g9
S'\xe8Q\xa9V7\xb1\xd6\xbf'
p4772
tp4773
Rp4774
s(S'diff-x-pos-41'
p4775
S'action-4'
p4776
tp4777
g5
(g9
S'f\xa6\x18\x80a\x94\xc1\xbf'
p4778
tp4779
Rp4780
s(S'diff-x-pos--67'
p4781
g1332
tp4782
g5
(g9
S'\xf3\xc3\x15\xa0\x8b+\x15@'
p4783
tp4784
Rp4785
s(S'diff-x-pos--31'
p4786
S'action-3'
p4787
tp4788
g5
(g9
S'r?o\x9d\xd7\x9e\xec?'
p4789
tp4790
Rp4791
s(g2660
S'prev-action-4'
p4792
tp4793
g5
(g9
S'\xc0\xb8\xf3f\xd1\x0b\xb8?'
p4794
tp4795
Rp4796
s(S'diff-x-pos-1'
p4797
S'action-3'
p4798
tp4799
g5
(g9
S'<\xc7\xe6\xdd?J\xe8\xbf'
p4800
tp4801
Rp4802
s(g2143
g75
tp4803
g5
(g9
S's\xdd\xb3\x9b\x08P\xf0?'
p4804
tp4805
Rp4806
s(S'diff-x-pos--41'
p4807
S'action-3'
p4808
tp4809
g5
(g9
S'\xbau\xfcxD\xbd\xf5\xbf'
p4810
tp4811
Rp4812
s(g326
g458
tp4813
g5
(g9
S':\x80\xff\xb5\xc8\x18\x13@'
p4814
tp4815
Rp4816
s(g717
S'prev-action-4'
p4817
tp4818
g5
(g9
S't\x19H\xcd\xb6\xba\xbf?'
p4819
tp4820
Rp4821
s(g1128
S'action-3'
p4822
tp4823
g5
(g9
S'#\xe9\x9b\xafO\xae\xe9?'
p4824
tp4825
Rp4826
sg2874
g5
(g9
S')\xd3)k(K\x1f@'
p4827
tp4828
Rp4829
s(g3214
S'action-3'
p4830
tp4831
g5
(g9
S'w\x92M\xa4\xd4>\xf0\xbf'
p4832
tp4833
Rp4834
s(g895
S'object-1-x-110.0'
p4835
tp4836
g5
(g9
S'\x80\xc6\x9e\ts\xda\x83?'
p4837
tp4838
Rp4839
s(S'diff-x-pos--87'
p4840
S'prev-action-1'
p4841
tp4842
g5
(g9
S'U\x95Z\x93\xac\x00\xea?'
p4843
tp4844
Rp4845
s(g3190
S'action-3'
p4846
tp4847
g5
(g9
S'j^\x87x{\x1e\xfe\xbf'
p4848
tp4849
Rp4850
s(S'diff-x-pos--35'
p4851
S'prev-action-1'
p4852
tp4853
g5
(g9
S'K\x8e\xf5:\xad\x90\xdc?'
p4854
tp4855
Rp4856
s(g760
S'action-1'
p4857
tp4858
g5
(g9
S':\x86\xf3\x02Z|\xf9\xbf'
p4859
tp4860
Rp4861
s(S'diff-x-pos-54'
p4862
S'prev-action-3'
p4863
tp4864
g5
(g9
S'\x80\xe2\x13/\xfeK\xe8?'
p4865
tp4866
Rp4867
s(g3138
S'prev-action-1'
p4868
tp4869
g5
(g9
S'\x83\x85\xfc\x83\xf4u\xf8\xbf'
p4870
tp4871
Rp4872
s(S'diff-x-pos-24'
p4873
S'action-4'
p4874
tp4875
g5
(g9
S'\x92\xaf7\xff"\xaa\xd7?'
p4876
tp4877
Rp4878
s(g33
S'action-1'
p4879
tp4880
g5
(g9
S'\xaakq\x9a\x88\x9c\xdd\xbf'
p4881
tp4882
Rp4883
s(g3240
S'action-4'
p4884
tp4885
g5
(g9
S"\xac\xc8o\xb3,'\xe5?"
p4886
tp4887
Rp4888
s(S'diff-x-pos--112'
p4889
S'action-4'
p4890
tp4891
g5
(g9
S'I\x1c\xbb\xa4\xb3P\xd2\xbf'
p4892
tp4893
Rp4894
s(S'diff-x-pos-12'
p4895
S'action-1'
p4896
tp4897
g5
(g9
S'\xdaM\x1d/\xbb\x8b\xc0?'
p4898
tp4899
Rp4900
s(g141
S'action-3'
p4901
tp4902
g5
(g9
S'1@\x1c\x01\x10V\xd0?'
p4903
tp4904
Rp4905
s(g1840
g15
tp4906
g5
(g9
S'\x9a\x16$\xb63V\xe5?'
p4907
tp4908
Rp4909
s(g3120
S'action-3'
p4910
tp4911
g5
(g9
S'\xa6\xeaw\x15\x13:\xde?'
p4912
tp4913
Rp4914
s(g1949
S'action-3'
p4915
tp4916
g5
(g9
S'\x1e\xecsbU\xaa\xf6\xbf'
p4917
tp4918
Rp4919
s(g1943
S'prev-action-1'
p4920
tp4921
g5
(g9
S'\x18\x0e\x8c\xff\xf1k\xd9?'
p4922
tp4923
Rp4924
s(g3198
g798
tp4925
g5
(g9
S'\xd6\x8b\xda\x1e`\xed\xf8?'
p4926
tp4927
Rp4928
s(g1925
S'action-3'
p4929
tp4930
g5
(g9
S'\x0c\tk\xd6B\x88\xf2\xbf'
p4931
tp4932
Rp4933
s(g945
S'action-4'
p4934
tp4935
g5
(g9
S'\x1c\xa2\xb7\x13\xad\x04\xc7?'
p4936
tp4937
Rp4938
s(S'action-1'
p4939
g4721
tp4940
g5
(g9
S'\xdc\xdd\xd47Z`\xf9?'
p4941
tp4942
Rp4943
s(S'diff-x-pos--18'
p4944
S'action-1'
p4945
tp4946
g5
(g9
S'H\x12\x04\xd9Y\xad\xf0?'
p4947
tp4948
Rp4949
s(S'diff-x-pos--6'
p4950
S'prev-action-1'
p4951
tp4952
g5
(g9
S'\xc6\t\xa5\xcd\xdd\x00\xf8\xbf'
p4953
tp4954
Rp4955
s(S'diff-x-pos--36'
p4956
S'action-3'
p4957
tp4958
g5
(g9
S'\\v\x81\xd8\xce\xf9\xec\xbf'
p4959
tp4960
Rp4961
s(S'diff-x-pos-53'
p4962
S'prev-action-3'
p4963
tp4964
g5
(g9
S'\x070y\x17\xffq\xfa?'
p4965
tp4966
Rp4967
s(S'diff-x-pos--70'
p4968
S'action-3'
p4969
tp4970
g5
(g9
S'\x18\xd5\xd5\xb6\x04\xa3\xe4\xbf'
p4971
tp4972
Rp4973
s(g3182
S'action-4'
p4974
tp4975
g5
(g9
S't)\xb0 Z\xc2\xfd?'
p4976
tp4977
Rp4978
s(g2031
S'prev-action-1'
p4979
tp4980
g5
(g9
S'\xa6\xb1\xfd\xb2\xa1\xf6\xcc\xbf'
p4981
tp4982
Rp4983
s(g1157
S'action-3'
p4984
tp4985
g5
(g9
S'uW;\x1e\x13\x12\xe9\xbf'
p4986
tp4987
Rp4988
s(g4100
S'action-3'
p4989
tp4990
g5
(g9
S'\xee\xce\x0f\x83.\x08\xed\xbf'
p4991
tp4992
Rp4993
sS'diff-y-pos--12'
p4994
g5
(g9
S'\xcd\xb9\x8a\x1ek%\xd4?'
p4995
tp4996
Rp4997
s(S'diff-x-pos--1'
p4998
S'action-4'
p4999
tp5000
g5
(g9
S'\x89\xdd\xc2\xfc\xa5[\xed\xbf'
p5001
tp5002
Rp5003
s(g3128
S'prev-action-4'
p5004
tp5005
g5
(g9
S'\xc4\xe9q\xf2U\xd1\xef\xbf'
p5006
tp5007
Rp5008
s(S'diff-x-pos--17'
p5009
S'action-3'
p5010
tp5011
g5
(g9
S'\x14\x8cn\xb1\xf1;\xe9?'
p5012
tp5013
Rp5014
s(g2945
S'action-3'
p5015
tp5016
g5
(g9
S'X\x0e\x86\xcdIM\xf9\xbf'
p5017
tp5018
Rp5019
s(g2074
S'action-1'
p5020
tp5021
g5
(g9
S'\xcavs!\xf5\xbd\xc5?'
p5022
tp5023
Rp5024
s(g3274
S'prev-action-4'
p5025
tp5026
g5
(g9
S"\xd0/&\xf9\xd4'\xd4\xbf"
p5027
tp5028
Rp5029
s(S'diff-x-pos--2'
p5030
S'prev-action-1'
p5031
tp5032
g5
(g9
S'tP]:\x1ay\xd7\xbf'
p5033
tp5034
Rp5035
s(g4414
S'action-4'
p5036
tp5037
g5
(g9
S'\x9e\x14\x92 \xeb|\xda\xbf'
p5038
tp5039
Rp5040
s(g4297
S'action-4'
p5041
tp5042
g5
(g9
S'\xa7\x86\x03\xb1\xe9\x9b\xff\xbf'
p5043
tp5044
Rp5045
s(S'object-1-dx--1'
p5046
g395
tp5047
g5
(g9
S'\xe0\x86\xab\xf0s\x82\x07@'
p5048
tp5049
Rp5050
s(g3841
S'prev-action-3'
p5051
tp5052
g5
(g9
S'ex\xdd\xaf\x19\x87\xef\xbf'
p5053
tp5054
Rp5055
s(g3254
S'prev-action-4'
p5056
tp5057
g5
(g9
S'l\xb4\x8e\xabqu\xf0?'
p5058
tp5059
Rp5060
s(g2857
S'prev-action-3'
p5061
tp5062
g5
(g9
S'Y\r2\x1f}-\xf0?'
p5063
tp5064
Rp5065
s(S'diff-x-pos--12'
p5066
S'prev-action-3'
p5067
tp5068
g5
(g9
S'\xfc/1\xdc\xd5.\xd2\xbf'
p5069
tp5070
Rp5071
s(g2110
S'action-4'
p5072
tp5073
g5
(g9
S'+y\xc6\x9et\xb0\x01\xc0'
p5074
tp5075
Rp5076
s(S'diff-x-pos-27'
p5077
S'action-3'
p5078
tp5079
g5
(g9
S'\x84(]\xb9^2\xcd?'
p5080
tp5081
Rp5082
s(g2796
S'prev-action-1'
p5083
tp5084
g5
(g9
S'>a\x80\xf2S)\xf1?'
p5085
tp5086
Rp5087
s(S'diff-x-pos--91'
p5088
S'prev-action-3'
p5089
tp5090
g5
(g9
S'\xfe\x99\xedZe\x84\xc5\xbf'
p5091
tp5092
Rp5093
s(g747
S'action-1'
p5094
tp5095
g5
(g9
S'Q\xa4E\x80\xda\x86\xf7\xbf'
p5096
tp5097
Rp5098
s(S'diff-x-pos--45'
p5099
S'prev-action-4'
p5100
tp5101
g5
(g9
S'd\x8a\x0c\xf3\xa1\xac\xd2?'
p5102
tp5103
Rp5104
s(g1870
S'prev-action-4'
p5105
tp5106
g5
(g9
S'\x0f\xf2>\xe3\x19\x14\xf1?'
p5107
tp5108
Rp5109
s(g1253
S'object-0-x-110.0'
p5110
tp5111
g5
(g9
S'\xb0+\x8f\xb9m\xbc\xd4?'
p5112
tp5113
Rp5114
s(g1321
S'prev-action-4'
p5115
tp5116
g5
(g9
S'\xf8r(.~N\xe4\xbf'
p5117
tp5118
Rp5119
s(S'diff-x-pos--10'
p5120
S'action-3'
p5121
tp5122
g5
(g9
S'\xec&=\xef0\xec\xf7?'
p5123
tp5124
Rp5125
s(g4173
S'action-1'
p5126
tp5127
g5
(g9
S'\xe2q\xf3>\xf4x\xda?'
p5128
tp5129
Rp5130
s(S'diff-x-pos--106'
p5131
S'prev-action-1'
p5132
tp5133
g5
(g9
S',\xb6f\x94\xafl\xea?'
p5134
tp5135
Rp5136
s(g3042
S'action-1'
p5137
tp5138
g5
(g9
S'\x82\x9f\xe3\x94\x18\xa9\xe7\xbf'
p5139
tp5140
Rp5141
s(S'diff-x-pos-34'
p5142
S'prev-action-3'
p5143
tp5144
g5
(g9
S'\x90\xde\xe3(\xffn\xb4?'
p5145
tp5146
Rp5147
s(g3834
S'action-3'
p5148
tp5149
g5
(g9
S'\xc6\x16\xbe\x03\x036\xf0\xbf'
p5150
tp5151
Rp5152
s(g4895
S'prev-action-4'
p5153
tp5154
g5
(g9
S'\xae.t\x80\xc5&\xd6?'
p5155
tp5156
Rp5157
s(g4246
S'action-1'
p5158
tp5159
g5
(g9
S">'x\xd5\xf1\x90\xf0?"
p5160
tp5161
Rp5162
s(g937
S'action-4'
p5163
tp5164
g5
(g9
S'\xf4\xa7{\xff\xd8(\xc0?'
p5165
tp5166
Rp5167
s(S'diff-x-pos-39'
p5168
S'prev-action-4'
p5169
tp5170
g5
(g9
S'\x83\xb5\xa7MC\x90\xff\xbf'
p5171
tp5172
Rp5173
sS'object-1-dy-1'
p5174
g5
(g9
S'i\xae\x14W\x94h\x00@'
p5175
tp5176
Rp5177
s(g2645
S'action-1'
p5178
tp5179
g5
(g9
S'j\xeaV\xf54[\xe1?'
p5180
tp5181
Rp5182
s(g3205
g2600
tp5183
g5
(g9
S'=3\xcbf]m\xe8\xbf'
p5184
tp5185
Rp5186
s(S'diff-x-pos--53'
p5187
S'prev-action-1'
p5188
tp5189
g5
(g9
S'r#\xd1\xa9\xc2\xf9\xe7?'
p5190
tp5191
Rp5192
s(g647
S'prev-action-1'
p5193
tp5194
g5
(g9
S'\x80\xb5\xe9\xce\xcb\x94\xd2\xbf'
p5195
tp5196
Rp5197
s(S'diff-x-pos-22'
p5198
S'prev-action-3'
p5199
tp5200
g5
(g9
S'\x97\xadC1\x98j\xee?'
p5201
tp5202
Rp5203
s(S'diff-x-pos--66'
p5204
S'prev-action-4'
p5205
tp5206
g5
(g9
S'S\x84\xd2\x1d\r\x8c\xef\xbf'
p5207
tp5208
Rp5209
s(S'diff-x-pos--57'
p5210
S'prev-action-4'
p5211
tp5212
g5
(g9
S'\xe8\xd5\x7f>\xa2\x14\xfb\xbf'
p5213
tp5214
Rp5215
s(g2696
S'action-4'
p5216
tp5217
g5
(g9
S'\x0b)|\xf5\xf9\x98\x07@'
p5218
tp5219
Rp5220
s(g727
S'prev-action-3'
p5221
tp5222
g5
(g9
S'g\x97\xc7>\n\t\xe0\xbf'
p5223
tp5224
Rp5225
s(S'diff-x-pos--14'
p5226
S'prev-action-3'
p5227
tp5228
g5
(g9
S'\xd7:> H\xb5\xd6?'
p5229
tp5230
Rp5231
s(g860
g4143
tp5232
g5
(g9
S'\x89\x1b\xad\xb8\xc6\x90\xe1\xbf'
p5233
tp5234
Rp5235
sg171
g5
(g9
S'\x99\xd7\x01\x0bh\xa9\xe8?'
p5236
tp5237
Rp5238
s(S'diff-x-pos-46'
p5239
S'action-1'
p5240
tp5241
g5
(g9
S'\x90\x99A&w$\xaf?'
p5242
tp5243
Rp5244
s(S'diff-x-pos--54'
p5245
S'action-1'
p5246
tp5247
g5
(g9
S'\x93-\xc4~\xbc\xc7\xda?'
p5248
tp5249
Rp5250
s(g308
S'action-4'
p5251
tp5252
g5
(g9
S'\x00\x91\x99#\xfa\x0bV?'
p5253
tp5254
Rp5255
s(g3030
g2712
tp5256
g5
(g9
S'\x8d^\xdc\xcc\xc6_\xf6?'
p5257
tp5258
Rp5259
s(S'diff-x-pos--71'
p5260
S'prev-action-3'
p5261
tp5262
g5
(g9
S'GvR\x9d~\xc2\xea\xbf'
p5263
tp5264
Rp5265
s(g2567
S'prev-action-1'
p5266
tp5267
g5
(g9
S'\x8a\xabv\xd4U\x05\xfd\xbf'
p5268
tp5269
Rp5270
s(S'diff-x-pos--64'
p5271
S'action-4'
p5272
tp5273
g5
(g9
S'G!\x9d\x10\xd4_\xec?'
p5274
tp5275
Rp5276
s(g3154
S'action-1'
p5277
tp5278
g5
(g9
S'[e8\xc2\xf8)\xc1?'
p5279
tp5280
Rp5281
sS'object-0-x-60.0'
p5282
g5
(g9
S'\x98#\xae\xba3\xb4\x1a@'
p5283
tp5284
Rp5285
s(S'diff-x-pos-0'
p5286
S'prev-action-1'
p5287
tp5288
g5
(g9
S'G\xce@\xd7\xb7\x1a\xe5?'
p5289
tp5290
Rp5291
s(g1861
S'action-1'
p5292
tp5293
g5
(g9
S'\xa4\x191\xb3B&\xe1\xbf'
p5294
tp5295
Rp5296
s(S'action-3'
p5297
S'object-0-x-130.0'
p5298
tp5299
g5
(g9
S'\xcdd\xa4\xe6g\xf2\xca\xbf'
p5300
tp5301
Rp5302
s(S'diff-x-pos-10'
p5303
S'prev-action-1'
p5304
tp5305
g5
(g9
S'P\xdfJ#|\x14\xb7?'
p5306
tp5307
Rp5308
s(S'diff-x-pos--20'
p5309
S'prev-action-3'
p5310
tp5311
g5
(g9
S'.LpB\xee\xf0\xf3\xbf'
p5312
tp5313
Rp5314
s(S'diff-x-pos--62'
p5315
S'prev-action-4'
p5316
tp5317
g5
(g9
S'\x90\xdc|\xb74m\xe2\xbf'
p5318
tp5319
Rp5320
s(S'diff-x-pos--100'
p5321
S'action-3'
p5322
tp5323
g5
(g9
S'a\xfbG_\x0f\xeb\xe7\xbf'
p5324
tp5325
Rp5326
s(g4083
S'action-1'
p5327
tp5328
g5
(g9
S'\x8c\xb5\xec}\xbe!\xe4\xbf'
p5329
tp5330
Rp5331
s(g3925
S'prev-action-4'
p5332
tp5333
g5
(g9
S'6^\x1b\xc5/\x9f\xf2?'
p5334
tp5335
Rp5336
s(g2498
S'prev-action-3'
p5337
tp5338
g5
(g9
S'6%\x0b\x91:\x1a\xd4?'
p5339
tp5340
Rp5341
s(S'diff-x-pos-45'
p5342
S'action-4'
p5343
tp5344
g5
(g9
S'\x84\x9d\nV2\x07\xff\xbf'
p5345
tp5346
Rp5347
s(S'diff-x-pos--82'
p5348
S'action-4'
p5349
tp5350
g5
(g9
S'C\x81\x1f\xba,a\xf9?'
p5351
tp5352
Rp5353
s(S'diff-x-pos-28'
p5354
S'action-3'
p5355
tp5356
g5
(g9
S'\xe6\xc1s\x84\x14\xbb\xec?'
p5357
tp5358
Rp5359
s(S'diff-x-pos-58'
p5360
S'prev-action-3'
p5361
tp5362
g5
(g9
S'\x1a\x89\xe7\x98RU\xe5?'
p5363
tp5364
Rp5365
sg4752
g5
(g9
S'L\x0b\x1fp"\xdf\xe1\xbf'
p5366
tp5367
Rp5368
sS'diff-x-pos-61'
p5369
g5
(g9
S"\x19Y\x16\xf6!'\xde\xbf"
p5370
tp5371
Rp5372
sg1215
g5
(g9
S'F!4?=h\xf0?'
p5373
tp5374
Rp5375
s(g2463
S'action-3'
p5376
tp5377
g5
(g9
S'0{\xa5\xa1\xd6\x81\xa2\xbf'
p5378
tp5379
Rp5380
s(S'diff-x-pos-1'
p5381
S'action-4'
p5382
tp5383
g5
(g9
S't\xbc\xd7\xd07Q\xc0?'
p5384
tp5385
Rp5386
sg3735
g5
(g9
S'\xc0D\xdd\x8e\x10\xf9\xe3\xbf'
p5387
tp5388
Rp5389
s(g2750
S'action-4'
p5390
tp5391
g5
(g9
S'|_\xbb\xd2\xce\x98\xe7\xbf'
p5392
tp5393
Rp5394
s(g3527
S'action-3'
p5395
tp5396
g5
(g9
S'\xd0\xa8%k\xc2\x7f\x89?'
p5397
tp5398
Rp5399
s(S'diff-x-pos--115'
p5400
S'action-4'
p5401
tp5402
g5
(g9
S'\xe7\x03\x17\x1c\x15\x89\xd4\xbf'
p5403
tp5404
Rp5405
s(S'object-0-dx--1'
p5406
g1914
tp5407
g5
(g9
S'L2\xb7,\xeaI\xf4\xbf'
p5408
tp5409
Rp5410
s(g2418
S'action-1'
p5411
tp5412
g5
(g9
S'\xd06\x8bb\xf3\x92\xf3\xbf'
p5413
tp5414
Rp5415
s(g2705
S'prev-action-1'
p5416
tp5417
g5
(g9
S'~\\\t|\xf3\xd8\xd6\xbf'
p5418
tp5419
Rp5420
s(g916
S'action-3'
p5421
tp5422
g5
(g9
S'\x86\xb5\xdc\xd7T\xf7\xf1?'
p5423
tp5424
Rp5425
s(g2667
S'prev-action-4'
p5426
tp5427
g5
(g9
S'QE\x1f\x84\xdf\x19\xea?'
p5428
tp5429
Rp5430
s(S'diff-x-pos--85'
p5431
S'action-1'
p5432
tp5433
g5
(g9
S'^\xec\xcf\xd0e\xc8\xb7?'
p5434
tp5435
Rp5436
s(S'diff-x-pos--72'
p5437
S'prev-action-4'
p5438
tp5439
g5
(g9
S'|b\xc5\x8a\x9aw\xd6\xbf'
p5440
tp5441
Rp5442
s(S'diff-x-pos--18'
p5443
S'prev-action-4'
p5444
tp5445
g5
(g9
S'\x86\xe2\\\xef}\x7f\xd9\xbf'
p5446
tp5447
Rp5448
s(S'diff-x-pos--78'
p5449
S'prev-action-3'
p5450
tp5451
g5
(g9
S'\xd3\x11\xb1\xe8F\xce\x02\xc0'
p5452
tp5453
Rp5454
s(g2038
S'prev-action-3'
p5455
tp5456
g5
(g9
S'0\xac\xff\xb6$\xed\xa3\xbf'
p5457
tp5458
Rp5459
s(g2640
g326
tp5460
g5
(g9
S'\xa6Z\xcc\xd4\x9ch\x00@'
p5461
tp5462
Rp5463
s(S'diff-x-pos--43'
p5464
S'prev-action-3'
p5465
tp5466
g5
(g9
S'\xf4-sr\xa5U\xb4?'
p5467
tp5468
Rp5469
s(S'diff-x-pos-7'
p5470
S'prev-action-1'
p5471
tp5472
g5
(g9
S'\xf4\x1d\xd2\xe9\xec\x97\xd5\xbf'
p5473
tp5474
Rp5475
s(S'diff-x-pos-60'
p5476
S'prev-action-1'
p5477
tp5478
g5
(g9
S'\x01\x8e\x98R\x17\x95\xea?'
p5479
tp5480
Rp5481
s(g1215
S'action-1'
p5482
tp5483
g5
(g9
S'4>\x07mDo\xcf?'
p5484
tp5485
Rp5486
s(S'diff-x-pos-37'
p5487
S'prev-action-4'
p5488
tp5489
g5
(g9
S'\n\x89E%\xc8\xad\xe4\xbf'
p5490
tp5491
Rp5492
s(g314
S'prev-action-1'
p5493
tp5494
g5
(g9
S"\xef\x01'\xeb=)\xde?"
p5495
tp5496
Rp5497
s(S'diff-x-pos--25'
p5498
S'prev-action-3'
p5499
tp5500
g5
(g9
S'J\x04x\x14\xe3c\xff?'
p5501
tp5502
Rp5503
s(g1185
S'prev-action-3'
p5504
tp5505
g5
(g9
S'\x85\xb0}\xf5\xf2\xc7\xd3\xbf'
p5506
tp5507
Rp5508
s(g5449
S'action-3'
p5509
tp5510
g5
(g9
S'\x86\x88V\x8a\xc50\xf3\xbf'
p5511
tp5512
Rp5513
s(g3684
S'prev-action-1'
p5514
tp5515
g5
(g9
S'\xb6i\xdcM\xaa%\xd4?'
p5516
tp5517
Rp5518
s(S'diff-x-pos--60'
p5519
S'action-4'
p5520
tp5521
g5
(g9
S'f\xd9\xaf/\x9a<\xdf?'
p5522
tp5523
Rp5524
s(S'diff-x-pos-31'
p5525
S'prev-action-3'
p5526
tp5527
g5
(g9
S'R)\xb7y\x1d\xb4\xf9\xbf'
p5528
tp5529
Rp5530
s(g3813
g4689
tp5531
g5
(g9
S';\xa35\xd6ps\xf6?'
p5532
tp5533
Rp5534
s(g2711
g3031
tp5535
g5
(g9
S'\x9236\xdaS\x13\xf7?'
p5536
tp5537
Rp5538
s(g3660
S'action-3'
p5539
tp5540
g5
(g9
S'M]A)@\x03\xd8\xbf'
p5541
tp5542
Rp5543
s(g926
S'prev-action-4'
p5544
tp5545
g5
(g9
S']~\xd4\x84\x8fh\xe1\xbf'
p5546
tp5547
Rp5548
s(S'diff-x-pos--67'
p5549
S'action-3'
p5550
tp5551
g5
(g9
S'`\xe1,\x13\xc4\xd8\xbe?'
p5552
tp5553
Rp5554
s(S'diff-x-pos--115'
p5555
S'prev-action-4'
p5556
tp5557
g5
(g9
S'\xc0m\xbc\x97\xddp\xe9?'
p5558
tp5559
Rp5560
s(S'diff-x-pos--15'
p5561
S'action-1'
p5562
tp5563
g5
(g9
S'5\x17\xb3Is\xa3\xe3?'
p5564
tp5565
Rp5566
s(g735
g2906
tp5567
g5
(g9
S"[\x18\x0c\x8f\n'\x00@"
p5568
tp5569
Rp5570
sg4517
g5
(g9
S'\xf0\x1c\xaa2\x91\xef\xbe\xbf'
p5571
tp5572
Rp5573
s(g2243
S'prev-action-3'
p5574
tp5575
g5
(g9
S'6\x0b/\x0b\x089\xb2\xbf'
p5576
tp5577
Rp5578
s(g3752
g4129
tp5579
g5
(g9
S'\x00\xe1\xc0#\xa1I\x8e\xbf'
p5580
tp5581
Rp5582
s(g5360
S'action-3'
p5583
tp5584
g5
(g9
S'4zT^\x8b\x8a\xea?'
p5585
tp5586
Rp5587
s(g219
S'action-3'
p5588
tp5589
g5
(g9
S'\xd5\xf5\xaa\xcdZ+\xe1\xbf'
p5590
tp5591
Rp5592
s(g1372
S'action-1'
p5593
tp5594
g5
(g9
S'9\xe4\xb2\xad\xae\xd0\xe4\xbf'
p5595
tp5596
Rp5597
s(S'diff-x-pos-26'
p5598
S'action-1'
p5599
tp5600
g5
(g9
S'*\xb2U\x8b\xe24\xd7?'
p5601
tp5602
Rp5603
s(g3735
S'prev-action-1'
p5604
tp5605
g5
(g9
S'\xc0D\xdd\x8e\x10\xf9\xe3\xbf'
p5606
tp5607
Rp5608
sg660
g5
(g9
S'\x10;\x14\xd8\x1de\xc7\xbf'
p5609
tp5610
Rp5611
s(S'diff-x-pos--81'
p5612
S'action-3'
p5613
tp5614
g5
(g9
S'4*\xa1V\x1b\x00\xe6\xbf'
p5615
tp5616
Rp5617
s(g933
S'prev-action-4'
p5618
tp5619
g5
(g9
S'\xdeh\x80\xdd\x91$\xd8?'
p5620
tp5621
Rp5622
s(S'diff-x-pos-25'
p5623
S'prev-action-1'
p5624
tp5625
g5
(g9
S'\x80\x16\x1c*~\x02\x81?'
p5626
tp5627
Rp5628
s(S'diff-x-pos--78'
p5629
S'action-4'
p5630
tp5631
g5
(g9
S'\xa8b\xb8+\xce\x10\xac\xbf'
p5632
tp5633
Rp5634
s(S'diff-x-pos--44'
p5635
S'prev-action-3'
p5636
tp5637
g5
(g9
S'\xe0\x84\x03\x12(\x98\xc2?'
p5638
tp5639
Rp5640
s(S'diff-x-pos--62'
p5641
S'action-4'
p5642
tp5643
g5
(g9
S'b2\xd4\x1c9\xfc\xfa?'
p5644
tp5645
Rp5646
s(g3244
S'prev-action-4'
p5647
tp5648
g5
(g9
S'L\x12\xfd\r\xbe\xad\xef\xbf'
p5649
tp5650
Rp5651
s(S'diff-x-pos--34'
p5652
S'action-1'
p5653
tp5654
g5
(g9
S'g\xfd\xd3\x9cJ\xad\x08\xc0'
p5655
tp5656
Rp5657
s(S'diff-x-pos-59'
p5658
S'action-3'
p5659
tp5660
g5
(g9
S'\xa7/\x15\x98\x1eY\xee?'
p5661
tp5662
Rp5663
s(g2172
S'action-3'
p5664
tp5665
g5
(g9
S'\x03S\xca\x16\x19!\xed?'
p5666
tp5667
Rp5668
s(g2401
g2975
tp5669
g5
(g9
S'\x08L/\x7f\x94;\xcb?'
p5670
tp5671
Rp5672
s(S'diff-x-pos--29'
p5673
S'prev-action-1'
p5674
tp5675
g5
(g9
S"\xeeY\xb8'}\xd2\xf3?"
p5676
tp5677
Rp5678
s(S'diff-x-pos--118'
p5679
S'action-4'
p5680
tp5681
g5
(g9
S'f\xc0\xd2_IX\xe9?'
p5682
tp5683
Rp5684
s(S'diff-x-pos--117'
p5685
S'action-4'
p5686
tp5687
g5
(g9
S'@\x02\xf9\xdbP"\xf0\xbf'
p5688
tp5689
Rp5690
s(S'diff-x-pos-5'
p5691
S'action-1'
p5692
tp5693
g5
(g9
S'\x03Dl\xf14\xf5\xee\xbf'
p5694
tp5695
Rp5696
s(S'diff-x-pos--101'
p5697
S'prev-action-4'
p5698
tp5699
g5
(g9
S':\x8f[\xef\x88\x8a\xfc\xbf'
p5700
tp5701
Rp5702
s(S'diff-x-pos--30'
p5703
S'prev-action-0'
p5704
tp5705
g5
(g9
S'\xbdF\xf1\x91\xe8c\x06@'
p5706
tp5707
Rp5708
s(S'diff-x-pos--54'
p5709
S'prev-action-1'
p5710
tp5711
g5
(g9
S'\x18\x00\xb4\x99\xee\xd5\xdf?'
p5712
tp5713
Rp5714
s(g5239
S'prev-action-1'
p5715
tp5716
g5
(g9
S'\x8c\xa5o\x9akX\xf8\xbf'
p5717
tp5718
Rp5719
s(S'diff-x-pos--84'
p5720
S'action-4'
p5721
tp5722
g5
(g9
S'\xe5\x91\xac\x0b\x17x\xfd\xbf'
p5723
tp5724
Rp5725
s(g2368
S'action-1'
p5726
tp5727
g5
(g9
S'\xde+\xd60\x13q\xed?'
p5728
tp5729
Rp5730
s(S'diff-x-pos--113'
p5731
S'prev-action-4'
p5732
tp5733
g5
(g9
S'S\x8b!\xff9\xbd\xf0?'
p5734
tp5735
Rp5736
s(S'diff-x-pos--103'
p5737
S'action-1'
p5738
tp5739
g5
(g9
S'\xf4\xed\x94\xbb)\xcd\xe1\xbf'
p5740
tp5741
Rp5742
s(S'diff-x-pos--75'
p5743
S'action-3'
p5744
tp5745
g5
(g9
S'u!@\xf2\x11\xa3\xe9\xbf'
p5746
tp5747
Rp5748
s(g4677
S'action-3'
p5749
tp5750
g5
(g9
S'\x04Y\xec&\x1e\xcc\xe3\xbf'
p5751
tp5752
Rp5753
s(g2062
S'prev-action-3'
p5754
tp5755
g5
(g9
S'\xe1\x1a\x1aB\x8b\xca\xe6?'
p5756
tp5757
Rp5758
s(g4246
S'prev-action-3'
p5759
tp5760
g5
(g9
S'\xb0\x10%\x99>t\xb4?'
p5761
tp5762
Rp5763
s(S'diff-x-pos--22'
p5764
S'prev-action-3'
p5765
tp5766
g5
(g9
S'\xf4\xa4i\xce@h\xaa?'
p5767
tp5768
Rp5769
s(g5198
S'action-3'
p5770
tp5771
g5
(g9
S'\xf9\x16\xb7q\xf2\xa9\xe8?'
p5772
tp5773
Rp5774
s(g3261
S'action-4'
p5775
tp5776
g5
(g9
S'\xd2\xd9\x1dd\xfc\x1b\xfb\xbf'
p5777
tp5778
Rp5779
s(S'diff-x-pos--22'
p5780
S'action-4'
p5781
tp5782
g5
(g9
S"~\x04\xd8j'\xd4\xf4\xbf"
p5783
tp5784
Rp5785
s(S'diff-x-pos--39'
p5786
S'prev-action-0'
p5787
tp5788
g5
(g9
S'`R\xbd\xd8\xcd?\x0b@'
p5789
tp5790
Rp5791
s(S'diff-x-pos--110'
p5792
S'action-1'
p5793
tp5794
g5
(g9
S'~\x95v\xcc\x8c\xed\xf5?'
p5795
tp5796
Rp5797
s(g171
S'action-3'
p5798
tp5799
g5
(g9
S'f\x95^\xad\xee\xbd\xf6\xbf'
p5800
tp5801
Rp5802
s(g959
S'prev-action-1'
p5803
tp5804
g5
(g9
S'/\x90}\xee|\x14\xd7\xbf'
p5805
tp5806
Rp5807
s(g5549
S'prev-action-4'
p5808
tp5809
g5
(g9
S'\xd2\xec\xa6\x85%\xa2\x02\xc0'
p5810
tp5811
Rp5812
s(g922
g3539
tp5813
g5
(g9
S'\x08\xefih\xc3\xf1\xbb?'
p5814
tp5815
Rp5816
s(S'diff-x-pos--64'
p5817
S'prev-action-1'
p5818
tp5819
g5
(g9
S')\xabw[\xcc\xe1\xe1\xbf'
p5820
tp5821
Rp5822
s(g1561
S'prev-action-3'
p5823
tp5824
g5
(g9
S'\x10\xb8\xf6R.i\x00@'
p5825
tp5826
Rp5827
s(g2
S'prev-action-3'
p5828
tp5829
g5
(g9
S'\xaai\x15\xeb\x05|\x05\xc0'
p5830
tp5831
Rp5832
s(g3746
S'prev-action-3'
p5833
tp5834
g5
(g9
S'65_\xe7\xc0\x80\xf5\xbf'
p5835
tp5836
Rp5837
s(S'diff-x-pos--84'
p5838
S'action-3'
p5839
tp5840
g5
(g9
S'\xcaH\xd4\x1a\x9a\x1d\xec?'
p5841
tp5842
Rp5843
s(S'diff-x-pos-50'
p5844
S'prev-action-3'
p5845
tp5846
g5
(g9
S'\x01v\xeb\xc9M\x0f\xc1\xbf'
p5847
tp5848
Rp5849
s(g3870
S'action-4'
p5850
tp5851
g5
(g9
S'\xf2a`\xc3Y\xcb\xe3?'
p5852
tp5853
Rp5854
s(g727
S'action-4'
p5855
tp5856
g5
(g9
S'\xa1\x10\xc8e\xf2s\x03@'
p5857
tp5858
Rp5859
s(S'diff-x-pos-14'
p5860
S'prev-action-4'
p5861
tp5862
g5
(g9
S'\xa3\xae\tbNE\xd7?'
p5863
tp5864
Rp5865
s(S'diff-x-pos--108'
p5866
S'prev-action-1'
p5867
tp5868
g5
(g9
S'\xfew5\x95\xee\xda\xe9?'
p5869
tp5870
Rp5871
s(S'diff-x-pos--48'
p5872
S'action-4'
p5873
tp5874
g5
(g9
S"\x9c'p\x8a\x0bK\xe2\xbf"
p5875
tp5876
Rp5877
s(S'diff-x-pos-23'
p5878
S'action-3'
p5879
tp5880
g5
(g9
S'\xdd\xe7\x91\xb2g\n\xf3?'
p5881
tp5882
Rp5883
s(S'diff-x-pos-6'
p5884
S'prev-action-3'
p5885
tp5886
g5
(g9
S'\xceT\xb5i\xa1\xac\xe4\xbf'
p5887
tp5888
Rp5889
s(S'diff-x-pos--65'
p5890
S'prev-action-4'
p5891
tp5892
g5
(g9
S'[\xfb5\x1au0\xc2\xbf'
p5893
tp5894
Rp5895
s(S'diff-x-pos--80'
p5896
S'prev-action-4'
p5897
tp5898
g5
(g9
S'\xe0&^#f\x1c\xdc\xbf'
p5899
tp5900
Rp5901
s(S'diff-x-pos-19'
p5902
S'prev-action-4'
p5903
tp5904
g5
(g9
S'\xc1\xfa\xab\xcd\xe0\x97\xd7?'
p5905
tp5906
Rp5907
sg2807
g5
(g9
S'\x95\xbb\xf7\x9b\x98\xdf\xed\xbf'
p5908
tp5909
Rp5910
s(g5437
S'action-3'
p5911
tp5912
g5
(g9
S'Z\xaa\x03\xb9\xd0\xf4\xd3?'
p5913
tp5914
Rp5915
s(S'diff-x-pos-29'
p5916
S'action-4'
p5917
tp5918
g5
(g9
S'X\x944\x9eCv\xed\xbf'
p5919
tp5920
Rp5921
s(S'diff-x-pos--79'
p5922
S'action-1'
p5923
tp5924
g5
(g9
S'f\x04\x0f>+\x8e\xc9?'
p5925
tp5926
Rp5927
s(g3086
S'prev-action-1'
p5928
tp5929
g5
(g9
S'i\x95\x85\xa8\x12Q\xdc\xbf'
p5930
tp5931
Rp5932
s(g764
S'prev-action-3'
p5933
tp5934
g5
(g9
S'\x7fN\xbc\x86\x0b`\xe7\xbf'
p5935
tp5936
Rp5937
s(S'diff-x-pos--12'
p5938
S'action-3'
p5939
tp5940
g5
(g9
S' "{KM\xb6\xe7\xbf'
p5941
tp5942
Rp5943
s(S'diff-x-pos-39'
p5944
S'action-3'
p5945
tp5946
g5
(g9
S'Y\xb0\x91\x9c\xa83\xe8?'
p5947
tp5948
Rp5949
s(g4330
S'prev-action-1'
p5950
tp5951
g5
(g9
S'=\x03\xb4\xde\xc2\xf0\xf6\xbf'
p5952
tp5953
Rp5954
s(g5938
S'prev-action-4'
p5955
tp5956
g5
(g9
S'\x10K\xd8\xb1\xf8\x17\xd4\xbf'
p5957
tp5958
Rp5959
s(g4968
S'prev-action-3'
p5960
tp5961
g5
(g9
S'^\x947<\xfa\x19\xf2?'
p5962
tp5963
Rp5964
s(g3254
S'action-4'
p5965
tp5966
g5
(g9
S'Q\xd7\x90\x88P\xd8\xe4?'
p5967
tp5968
Rp5969
s(g3841
S'action-3'
p5970
tp5971
g5
(g9
S'\xe7}b\xca\x02#\xf5\xbf'
p5972
tp5973
Rp5974
s(S'diff-x-pos--47'
p5975
S'prev-action-4'
p5976
tp5977
g5
(g9
S'\x81\x8a\xafvp"\xfb\xbf'
p5978
tp5979
Rp5980
s(g2114
S'action-3'
p5981
tp5982
g5
(g9
S'\x05;\xe3\x19\xfd\xf3\xec\xbf'
p5983
tp5984
Rp5985
s(g3072
S'prev-action-1'
p5986
tp5987
g5
(g9
S'g\xfe\xce\xd3%\xd5\xbe?'
p5988
tp5989
Rp5990
s(S'diff-x-pos--86'
p5991
S'action-4'
p5992
tp5993
g5
(g9
S'\x07d\xc3\x96~\xf1\xc0\xbf'
p5994
tp5995
Rp5996
s(g1870
g418
tp5997
g5
(g9
S';\x85g\x13\xb5\xce\xd1\xbf'
p5998
tp5999
Rp6000
s(g2068
S'prev-action-3'
p6001
tp6002
g5
(g9
S'\x8a\xb9\xdc\xdb/\xe8\xec\xbf'
p6003
tp6004
Rp6005
s(S'diff-x-pos--45'
p6006
S'action-1'
p6007
tp6008
g5
(g9
S'\x96nl|\x11T\xf6?'
p6009
tp6010
Rp6011
s(S'diff-x-pos--5'
p6012
S'prev-action-1'
p6013
tp6014
g5
(g9
S'\x064\x87\x03 \xa2\xd7\xbf'
p6015
tp6016
Rp6017
s(g81
g1077
tp6018
g5
(g9
S'\xc8\xeb3\x9b9\xcd\xc2\xbf'
p6019
tp6020
Rp6021
s(g1686
S'prev-action-3'
p6022
tp6023
g5
(g9
S'\xe8\x10\xa8+\xaf\x92\xf2\xbf'
p6024
tp6025
Rp6026
s(S'diff-x-pos--20'
p6027
S'action-4'
p6028
tp6029
g5
(g9
S'H\xfa\x97\xf6\xf3\xf6\xe0\xbf'
p6030
tp6031
Rp6032
s(g1674
S'prev-action-1'
p6033
tp6034
g5
(g9
S'{2\xc7\x99\xae`\xe8?'
p6035
tp6036
Rp6037
s(g1995
S'action-4'
p6038
tp6039
g5
(g9
S'\xb0c\xeb$\xc4\xa5\xf5?'
p6040
tp6041
Rp6042
s(g5872
S'prev-action-3'
p6043
tp6044
g5
(g9
S'\x86\xdc]\x9f\xe8\xb9\xf4\xbf'
p6045
tp6046
Rp6047
s(S'diff-x-pos--12'
p6048
S'action-4'
p6049
tp6050
g5
(g9
S'\x88\xf9\xdcx\x97\x0b\xce\xbf'
p6051
tp6052
Rp6053
s(S'diff-x-pos-53'
p6054
S'action-3'
p6055
tp6056
g5
(g9
S'\x80.\xbc\xe1\xe2\xa3\xf1?'
p6057
tp6058
Rp6059
s(g3244
S'action-4'
p6060
tp6061
g5
(g9
S'\x11a\xe3?B\xae\xfa\xbf'
p6062
tp6063
Rp6064
s(S'diff-x-pos-49'
p6065
S'prev-action-1'
p6066
tp6067
g5
(g9
S'"\x94\xe5\xe3\x85a\xfb\xbf'
p6068
tp6069
Rp6070
s(S'diff-x-pos--16'
p6071
S'prev-action-3'
p6072
tp6073
g5
(g9
S'\xbaZ\xea/\xc3\x9c\xd6\xbf'
p6074
tp6075
Rp6076
s(g1627
g1221
tp6077
g5
(g9
S'\xc0\xaaMe\xef\xd9\xe8?'
p6078
tp6079
Rp6080
s(g3120
S'prev-action-3'
p6081
tp6082
g5
(g9
S'\x88_+\x193[\xdf?'
p6083
tp6084
Rp6085
s(S'diff-x-pos-32'
p6086
S'action-3'
p6087
tp6088
g5
(g9
S'5Y\x9c\xa11\x82\xfd?'
p6089
tp6090
Rp6091
s(g860
g4934
tp6092
g5
(g9
S'@_\n\xc3\x8e\r\xf9\xbf'
p6093
tp6094
Rp6095
s(g922
g816
tp6096
g5
(g9
S'\x8f\x01\xa3x\x0cg\xb9?'
p6097
tp6098
Rp6099
s(g1100
S'prev-action-4'
p6100
tp6101
g5
(g9
S'\x83\n~($M\xf0\xbf'
p6102
tp6103
Rp6104
s(S'diff-x-pos-16'
p6105
S'action-3'
p6106
tp6107
g5
(g9
S'\x92\xfb\xac?\xfc\x19\xd5\xbf'
p6108
tp6109
Rp6110
s(g564
S'prev-action-4'
p6111
tp6112
g5
(g9
S'\xd0\xd1\x94p\xd5\x01\xc0?'
p6113
tp6114
Rp6115
s(g4998
S'prev-action-4'
p6116
tp6117
g5
(g9
S'9\xcf\x1c\xc6\xbb\x90\xf4?'
p6118
tp6119
Rp6120
s(S'diff-x-pos--102'
p6121
S'action-3'
p6122
tp6123
g5
(g9
S'\xfe\xdd\x02\xa7\x97V\xb0?'
p6124
tp6125
Rp6126
s(S'diff-x-pos--111'
p6127
S'prev-action-1'
p6128
tp6129
g5
(g9
S'\xb2~~p-j\xd0?'
p6130
tp6131
Rp6132
s(g731
g2985
tp6133
g5
(g9
S'\x0cx\xea\x03\x91\xea\xf7?'
p6134
tp6135
Rp6136
s(S'diff-x-pos--99'
p6137
S'action-1'
p6138
tp6139
g5
(g9
S'\x80\x07*(f=~?'
p6140
tp6141
Rp6142
sS'diff-y-pos--5'
p6143
g5
(g9
S'#7\xb6G\xee4\xe2?'
p6144
tp6145
Rp6146
s(g3919
S'prev-action-3'
p6147
tp6148
g5
(g9
S'\x19}\x1a\xc6\xfeK\xf3\xbf'
p6149
tp6150
Rp6151
s(g2093
S'prev-action-4'
p6152
tp6153
g5
(g9
S'\xc4\xcf*&E1\xf5\xbf'
p6154
tp6155
Rp6156
s(g3859
S'object-0-x-110.0'
p6157
tp6158
g5
(g9
S'sm\x12/24\x00@'
p6159
tp6160
Rp6161
s(S'diff-x-pos-8'
p6162
S'action-1'
p6163
tp6164
g5
(g9
S'\\\xbf\x88\x8f\xfe\x0e\xf5?'
p6165
tp6166
Rp6167
sg5449
g5
(g9
S'\xa170\x7f\xb5w\xf9\xbf'
p6168
tp6169
Rp6170
sg165
g5
(g9
S'\xcf\xbc}\xc5\x96\xb2\xdb\xbf'
p6171
tp6172
Rp6173
sg480
g5
(g9
S'Nb\xbf\xcbk\xc0\xb3?'
p6174
tp6175
Rp6176
sg2114
g5
(g9
S'\x14\xf6n~\xf8\xf5\xe3\xbf'
p6177
tp6178
Rp6179
sg4968
g5
(g9
S'\x80&\x07\xcf\xd2M\xd0?'
p6180
tp6181
Rp6182
sg5260
g5
(g9
S'\xe6\x86\x8c\xd4\xf7\x8e\xfc\xbf'
p6183
tp6184
Rp6185
sg1627
g5
(g9
S'\x8e\xf8T\xe7\xe4\x0c\xc3\xbf'
p6186
tp6187
Rp6188
s(S'diff-x-pos--57'
p6189
S'prev-action-3'
p6190
tp6191
g5
(g9
S'\xcc\x90\x9a\x83Ta\xf2?'
p6192
tp6193
Rp6194
s(S'diff-x-pos--111'
p6195
S'action-3'
p6196
tp6197
g5
(g9
S'\xa7\xa2\x11\xd7G\xfa\xe0\xbf'
p6198
tp6199
Rp6200
sg358
g5
(g9
S'G\xd9\x9e\x0c\xc3m\xd2?'
p6201
tp6202
Rp6203
s(S'diff-x-pos--108'
p6204
S'action-1'
p6205
tp6206
g5
(g9
S'rD\xfc\xe9\xa6\xe4\xf3\xbf'
p6207
tp6208
Rp6209
s(g6105
S'prev-action-1'
p6210
tp6211
g5
(g9
S'd\xe4\xfb\xf5\x03\xbe\xc9\xbf'
p6212
tp6213
Rp6214
s(g2605
S'prev-action-4'
p6215
tp6216
g5
(g9
S'\xa8\x91\xd0\xf0\xbe8\xcb?'
p6217
tp6218
Rp6219
s(g1258
S'object-0-x-80.0'
p6220
tp6221
g5
(g9
S'\xb1_u\x18\x9aC\xf8?'
p6222
tp6223
Rp6224
s(g3076
S'prev-action-1'
p6225
tp6226
g5
(g9
S'\xe7\xb8\x92{+S\xd9?'
p6227
tp6228
Rp6229
s(g2623
S'prev-action-1'
p6230
tp6231
g5
(g9
S'\xbcm\x0b\xdcu\xfa\xb1?'
p6232
tp6233
Rp6234
s(S'diff-x-pos--87'
p6235
S'action-1'
p6236
tp6237
g5
(g9
S'\xbb4YE\x7f\t\xfa?'
p6238
tp6239
Rp6240
s(S'diff-x-pos--40'
p6241
S'prev-action-4'
p6242
tp6243
g5
(g9
S'\xeae\xc7k\xba\xed\xf2\xbf'
p6244
tp6245
Rp6246
s(g717
g4571
tp6247
g5
(g9
S'I\x91\xf8\x1e\xe9)\xda\xbf'
p6248
tp6249
Rp6250
s(g1840
S'prev-action-3'
p6251
tp6252
g5
(g9
S'h\xd3\x99m\xbcV\xe9\xbf'
p6253
tp6254
Rp6255
sg76
g5
(g9
S'\xe0\xd0@P\xf4R\xc9?'
p6256
tp6257
Rp6258
s(g3024
S'action-4'
p6259
tp6260
g5
(g9
S':\x91\xa3O\x9e\xc1\xeb\xbf'
p6261
tp6262
Rp6263
s(g2807
g2401
tp6264
g5
(g9
S'\xa6w@\xa6\xfe\x14\xf4\xbf'
p6265
tp6266
Rp6267
s(g1276
S'prev-action-4'
p6268
tp6269
g5
(g9
S'uBI\x8b\x7f\\\xe3?'
p6270
tp6271
Rp6272
s(S'diff-x-pos-20'
p6273
S'action-4'
p6274
tp6275
g5
(g9
S'\xa0\xdf\xa2\x90N\x85\xaf?'
p6276
tp6277
Rp6278
s(g4695
S'action-4'
p6279
tp6280
g5
(g9
S'Z\xa8>\xbd0\xe4\xe9\xbf'
p6281
tp6282
Rp6283
s(g5991
S'prev-action-4'
p6284
tp6285
g5
(g9
S'\r\x89\x9b>\x12\x1a\xe5?'
p6286
tp6287
Rp6288
s(g1412
S'prev-action-1'
p6289
tp6290
g5
(g9
S'\x95\x93BzC\xbd\xeb\xbf'
p6291
tp6292
Rp6293
s(g743
S'prev-action-3'
p6294
tp6295
g5
(g9
S'}h\x03x\x82e\xa1\xbf'
p6296
tp6297
Rp6298
s(S'diff-x-pos--29'
p6299
S'action-4'
p6300
tp6301
g5
(g9
S'\x85`"\xc6B\xd0\xd1\xbf'
p6302
tp6303
Rp6304
s(S'diff-x-pos--74'
p6305
S'action-4'
p6306
tp6307
g5
(g9
S'\xaa\x0b \xad\xb3\x1d\xc9?'
p6308
tp6309
Rp6310
s(g1400
S'prev-action-1'
p6311
tp6312
g5
(g9
S"\xc1f^\x96'\x9f\x00\xc0"
p6313
tp6314
Rp6315
sS'diff-y-pos--6'
p6316
g5
(g9
S'\x93\xa6\xdf\x0b\xf6\t\xf6?'
p6317
tp6318
Rp6319
s(S'diff-x-pos--105'
p6320
S'action-3'
p6321
tp6322
g5
(g9
S'Y\xfdh\x05\x8d\x9f\xea\xbf'
p6323
tp6324
Rp6325
s(g2917
S'action-1'
p6326
tp6327
g5
(g9
S"\xaa'1\x07g\xf3\xff\xbf"
p6328
tp6329
Rp6330
s(g756
S'action-1'
p6331
tp6332
g5
(g9
S'\x17\xdeM\xd4y\xb8\xfd\xbf'
p6333
tp6334
Rp6335
s(g1360
S'action-3'
p6336
tp6337
g5
(g9
S'\xc8\xda\xa2\x84\x05\x9b\xcc?'
p6338
tp6339
Rp6340
s(S'diff-x-pos--103'
p6341
S'prev-action-1'
p6342
tp6343
g5
(g9
S'\xc0\x8eq\x016T\xb3?'
p6344
tp6345
Rp6346
s(S'diff-x-pos--113'
p6347
S'action-4'
p6348
tp6349
g5
(g9
S'\x00\x83\xa2\xe4\xa9q\xe5\xbf'
p6350
tp6351
Rp6352
s(g1012
S'prev-action-3'
p6353
tp6354
g5
(g9
S'\nW\xee\xf8\xf3Y\xe9\xbf'
p6355
tp6356
Rp6357
s(S'diff-x-pos-13'
p6358
S'action-3'
p6359
tp6360
g5
(g9
S'\xd4lC\x83U\xcf\xf1?'
p6361
tp6362
Rp6363
s(g2900
S'prev-action-1'
p6364
tp6365
g5
(g9
S'\xb0\x84\x1e\t\xa1)\xe0\xbf'
p6366
tp6367
Rp6368
s(g326
g530
tp6369
g5
(g9
S'\xb68\xee\x17\x94\xc4\xe7?'
p6370
tp6371
Rp6372
s(S'diff-x-pos-31'
p6373
S'prev-action-1'
p6374
tp6375
g5
(g9
S'\x9e\xddv\xcd@\xb7\x00@'
p6376
tp6377
Rp6378
s(g570
g326
tp6379
g5
(g9
S'\x05\x92NW\x11\xf2\xf3?'
p6380
tp6381
Rp6382
s(g5381
S'prev-action-1'
p6383
tp6384
g5
(g9
S',z/PnH\xc4?'
p6385
tp6386
Rp6387
s(g1299
S'action-1'
p6388
tp6389
g5
(g9
S'x\x03#Kd\x96\x08@'
p6390
tp6391
Rp6392
s(g5691
S'prev-action-1'
p6393
tp6394
g5
(g9
S'\xbb\xcb|;C#\x02@'
p6395
tp6396
Rp6397
s(g21
S'prev-action-4'
p6398
tp6399
g5
(g9
S'\xce\x89\rW\xfd\xb2\xea?'
p6400
tp6401
Rp6402
s(g4023
g659
tp6403
g5
(g9
S'\xee\xb3(\x9f\x86\x08\xcc\xbf'
p6404
tp6405
Rp6406
s(g2660
S'action-3'
p6407
tp6408
g5
(g9
S'aa4\xe4\xc8p\xf3\xbf'
p6409
tp6410
Rp6411
s(g1491
S'action-1'
p6412
tp6413
g5
(g9
S'\xfa\x14i\xaeeo\xf5\xbf'
p6414
tp6415
Rp6416
s(g4262
S'prev-action-4'
p6417
tp6418
g5
(g9
S'\xd8\xe1\xee\xf7#\xad\xa6?'
p6419
tp6420
Rp6421
sS'object-0-dy--1'
p6422
g5
(g9
S'U\x9eD\x90f\x81\xf7?'
p6423
tp6424
Rp6425
s(S'diff-x-pos--19'
p6426
S'action-3'
p6427
tp6428
g5
(g9
S'`\x1f\n\xb5\xd6\x10\x02\xc0'
p6429
tp6430
Rp6431
s(S'diff-x-pos-41'
p6432
S'prev-action-3'
p6433
tp6434
g5
(g9
S'\xb5k\t\xd7\x01)\xd1\xbf'
p6435
tp6436
Rp6437
s(g1739
S'action-4'
p6438
tp6439
g5
(g9
S'\x08\x0e?tf\xe2\xba\xbf'
p6440
tp6441
Rp6442
s(g165
S'prev-action-3'
p6443
tp6444
g5
(g9
S'{\xcb\x90^\x17\xc9\xe5\xbf'
p6445
tp6446
Rp6447
s(S'diff-x-pos-51'
p6448
S'prev-action-4'
p6449
tp6450
g5
(g9
S'\xe2\x87\x8bY\x19\xfe\xea?'
p6451
tp6452
Rp6453
s(g480
S'action-4'
p6454
tp6455
g5
(g9
S'\xca\xbf?Sh\xcf\xf1\xbf'
p6456
tp6457
Rp6458
s(g5629
S'prev-action-4'
p6459
tp6460
g5
(g9
S'\x19dn\xa8"\xcd\xf1?'
p6461
tp6462
Rp6463
s(S'diff-x-pos-15'
p6464
S'action-4'
p6465
tp6466
g5
(g9
S'\x1aY\xce;\xa8q\xe0?'
p6467
tp6468
Rp6469
s(g2629
S'prev-action-4'
p6470
tp6471
g5
(g9
S'\xfd\xf4\xa2\xff\x88\x07\xea?'
p6472
tp6473
Rp6474
s(g1680
S'action-1'
p6475
tp6476
g5
(g9
S'\xd9\x0b\x04H.\xd5\xff\xbf'
p6477
tp6478
Rp6479
s(S'diff-x-pos--11'
p6480
S'prev-action-3'
p6481
tp6482
g5
(g9
S'\xeb\x16\x81\xab\xa6_\xe4\xbf'
p6483
tp6484
Rp6485
s(g2058
S'prev-action-4'
p6486
tp6487
g5
(g9
S'\xc06s\x9b\xee|p?'
p6488
tp6489
Rp6490
s(g1650
S'action-1'
p6491
tp6492
g5
(g9
S'd:\xfd\xfa\xf3\xf9\xf8\xbf'
p6493
tp6494
Rp6495
sg4572
g5
(g9
S'\xb7w\xe5\xc2\xa2;\x13@'
p6496
tp6497
Rp6498
s(S'diff-x-pos--84'
p6499
S'prev-action-1'
p6500
tp6501
g5
(g9
S'\xecu\xd3P\xa87\xf1\xbf'
p6502
tp6503
Rp6504
s(g4737
S'object-0-x-70.0'
p6505
tp6506
g5
(g9
S'\x83\xa2\x98 .\x9a\xeb?'
p6507
tp6508
Rp6509
s(S'diff-x-pos--29'
p6510
S'prev-action-4'
p6511
tp6512
g5
(g9
S'\x97\xaaS\x04\xfaa\xf2\xbf'
p6513
tp6514
Rp6515
s(S'diff-x-pos--94'
p6516
S'action-4'
p6517
tp6518
g5
(g9
S'\x8e\x82\x88\x1a\xc1\x15\xe7?'
p6519
tp6520
Rp6521
s(g5369
S'action-1'
p6522
tp6523
g5
(g9
S'\x98\x85|vDY\xa2?'
p6524
tp6525
Rp6526
s(g207
g5282
tp6527
g5
(g9
S'<\xd3\xdc\xe2\xaa^\n@'
p6528
tp6529
Rp6530
s(g1436
S'prev-action-4'
p6531
tp6532
g5
(g9
S'\xa08\x97\xa4\xf5\xd0k\xbf'
p6533
tp6534
Rp6535
s(g2533
S'action-3'
p6536
tp6537
g5
(g9
S'\xec\x13\x8aM\xb0\xb3\xd9?'
p6538
tp6539
Rp6540
s(S'diff-x-pos-6'
p6541
S'action-3'
p6542
tp6543
g5
(g9
S'(\xea\x13\x1e\xa4@\xc7\xbf'
p6544
tp6545
Rp6546
s(S'diff-x-pos--50'
p6547
S'action-3'
p6548
tp6549
g5
(g9
S'\x02[\xd9\xd1\x03\xee\x02\xc0'
p6550
tp6551
Rp6552
s(g1533
g827
tp6553
g5
(g9
S'NP\xb2G\xf2b\xfa?'
p6554
tp6555
Rp6556
s(S'diff-x-pos--67'
p6557
S'action-1'
p6558
tp6559
g5
(g9
S'<6\x89\x15)\x89\xe4\xbf'
p6560
tp6561
Rp6562
s(g93
S'action-3'
p6563
tp6564
g5
(g9
S'\\\x98\xbe\x84PC\xf6\xbf'
p6565
tp6566
Rp6567
s(S'diff-x-pos--66'
p6568
S'prev-action-1'
p6569
tp6570
g5
(g9
S'\xe4|\x1c\xf9\x84\x99\xc3?'
p6571
tp6572
Rp6573
s(g4420
S'object-0-x-50.0'
p6574
tp6575
g5
(g9
S'\xa1\xc6Jei\x08\x04@'
p6576
tp6577
Rp6578
s(S'diff-x-pos-56'
p6579
S'action-4'
p6580
tp6581
g5
(g9
S'4\x07[\xb7\xcd$\xdc?'
p6582
tp6583
Rp6584
s(g358
S'prev-action-1'
p6585
tp6586
g5
(g9
S':c\xd7\xf9>n\xc4?'
p6587
tp6588
Rp6589
s(S'diff-x-pos--43'
p6590
S'action-3'
p6591
tp6592
g5
(g9
S'\xb6\xea$-\x0e:\xef\xbf'
p6593
tp6594
Rp6595
s(S'diff-x-pos-11'
p6596
S'prev-action-3'
p6597
tp6598
g5
(g9
S'*\x97~.;\x82\xf2\xbf'
p6599
tp6600
Rp6601
s(S'diff-x-pos--11'
p6602
S'action-1'
p6603
tp6604
g5
(g9
S'\x00\xf6\xf9\x19Fup?'
p6605
tp6606
Rp6607
s(g75
g677
tp6608
g5
(g9
S'\x8d[\x13\x12\x883\xfd?'
p6609
tp6610
Rp6611
s(g2561
S'prev-action-4'
p6612
tp6613
g5
(g9
S':k\x93V\x7f\x8d\xf5?'
p6614
tp6615
Rp6616
s(S'diff-x-pos--42'
p6617
S'prev-action-1'
p6618
tp6619
g5
(g9
S'`\x16\x9b\x8d\xd9\xf0\xdd?'
p6620
tp6621
Rp6622
s(g2545
S'action-1'
p6623
tp6624
g5
(g9
S'\x00\x84\xe7\xdda\x84\xc6?'
p6625
tp6626
Rp6627
s(g5260
S'action-4'
p6628
tp6629
g5
(g9
S' \x06\xc7tzP\xd5?'
p6630
tp6631
Rp6632
s(g959
S'action-4'
p6633
tp6634
g5
(g9
S'\x0c\xcf7\x8a\xa5\xaa\xd3\xbf'
p6635
tp6636
Rp6637
s(g1424
S'action-4'
p6638
tp6639
g5
(g9
S'{\x08\xac\xfd&\x80\xe5\xbf'
p6640
tp6641
Rp6642
s(S'diff-x-pos--92'
p6643
S'action-3'
p6644
tp6645
g5
(g9
S't\x0b\xe8\xa5\xbci\xcd?'
p6646
tp6647
Rp6648
s(S'action-3'
p6649
S'prev-action-3'
p6650
tp6651
g5
(g9
S'_\xf3\xd8\xf9}\xd7\x17@'
p6652
tp6653
Rp6654
s(g6341
S'action-4'
p6655
tp6656
g5
(g9
S'\x01\x0b\x1d\x90\xca\xb1\xf9?'
p6657
tp6658
Rp6659
s(S'diff-x-pos-28'
p6660
S'prev-action-3'
p6661
tp6662
g5
(g9
S'\xde\xc0\xb4\xe1\xfd3\xdf\xbf'
p6663
tp6664
Rp6665
s(g5878
S'prev-action-1'
p6666
tp6667
g5
(g9
S'\x99h\xacO{\x1e\xf2?'
p6668
tp6669
Rp6670
s(S'diff-x-pos--69'
p6671
S'action-1'
p6672
tp6673
g5
(g9
S'\xa3$\xee\xb4\xa7H\xec?'
p6674
tp6675
Rp6676
s(g1354
S'prev-action-1'
p6677
tp6678
g5
(g9
S',M\xa91\xc4F\xf3?'
p6679
tp6680
Rp6681
s(g1337
S'prev-action-3'
p6682
tp6683
g5
(g9
S'\xc1\r \xbf\xbc\x0c\xe0\xbf'
p6684
tp6685
Rp6686
sg5239
g5
(g9
S'\xe0\xe1O\xfay\xd6\xfe\xbf'
p6687
tp6688
Rp6689
s(g4357
S'action-1'
p6690
tp6691
g5
(g9
S'2\x98W\x1d\xbb\xe8\xdb?'
p6692
tp6693
Rp6694
s(g4351
S'action-3'
p6695
tp6696
g5
(g9
S'\xb8+\xb5Bq\xd0\xe3?'
p6697
tp6698
Rp6699
s(S'object-0-dx--1'
p6700
S'action-3'
p6701
tp6702
g5
(g9
S'\xd1\xa0\xf7,dX\xfd?'
p6703
tp6704
Rp6705
s(g4737
S'object-1-x-60.0'
p6706
tp6707
g5
(g9
S'\x10z\xa3u6,\xe1?'
p6708
tp6709
Rp6710
s(g5303
S'action-1'
p6711
tp6712
g5
(g9
S'\x00U%Ny4\xcc\xbf'
p6713
tp6714
Rp6715
s(S'diff-x-pos--15'
p6716
S'prev-action-3'
p6717
tp6718
g5
(g9
S'\xf0\xb8\x08\xb9d\xb3\xcf\xbf'
p6719
tp6720
Rp6721
s(g6557
S'prev-action-1'
p6722
tp6723
g5
(g9
S'W\x1a\xe5\xf7\x98k\xf9\xbf'
p6724
tp6725
Rp6726
s(S'diff-x-pos--55'
p6727
S'action-3'
p6728
tp6729
g5
(g9
S'\xa1/\xb2\x16\xc1!\x03\xc0'
p6730
tp6731
Rp6732
s(g5369
S'prev-action-4'
p6733
tp6734
g5
(g9
S'\x99gczH\xb8\xe1\xbf'
p6735
tp6736
Rp6737
s(S'diff-x-pos--118'
p6738
S'prev-action-1'
p6739
tp6740
g5
(g9
S'\x1a\x9ek\x7f\x90\xc3\xee?'
p6741
tp6742
Rp6743
s(g2048
S'action-4'
p6744
tp6745
g5
(g9
S'\xf0\x7f4\x8aFV\xc3\xbf'
p6746
tp6747
Rp6748
s(g2412
g1018
tp6749
g5
(g9
S'6Z\x1d\xe0^?\xc6?'
p6750
tp6751
Rp6752
s(g1983
S'prev-action-4'
p6753
tp6754
g5
(g9
S'\xfew\x0b\xcf"V\xef\xbf'
p6755
tp6756
Rp6757
s(S'object-0-dx--1'
p6758
S'action-1'
p6759
tp6760
g5
(g9
S'\x88\x80\x11\xe0\xaf\xcb\xed?'
p6761
tp6762
Rp6763
s(g1848
S'prev-action-1'
p6764
tp6765
g5
(g9
S'=\x12\x12C\xfcG\xf6?'
p6766
tp6767
Rp6768
s(S'diff-x-pos--107'
p6769
S'action-1'
p6770
tp6771
g5
(g9
S'\x07\xf6\xfcR\xed\x1c\xe3?'
p6772
tp6773
Rp6774
s(g4408
S'action-3'
p6775
tp6776
g5
(g9
S'NCBQ9\x9f\xfe\xbf'
p6777
tp6778
Rp6779
s(g4288
S'action-3'
p6780
tp6781
g5
(g9
S'a\xd8-\x8a\x1c\xe7\xd5?'
p6782
tp6783
Rp6784
s(S'diff-x-pos--30'
p6785
S'prev-action-4'
p6786
tp6787
g5
(g9
S'\x97\x90\x9bD&\x0c\xf8\xbf'
p6788
tp6789
Rp6790
sg1412
g5
(g9
S'\x86\x8d\xc2HB<\xd8?'
p6791
tp6792
Rp6793
s(S'diff-x-pos-31'
p6794
S'action-1'
p6795
tp6796
g5
(g9
S'\x94\x90\xd6\x95\xeb\x11\xf1?'
p6797
tp6798
Rp6799
s(g2951
S'prev-action-1'
p6800
tp6801
g5
(g9
S'\xdd`:\xdaO\xeb\xf3\xbf'
p6802
tp6803
Rp6804
s(S'diff-x-pos--63'
p6805
S'action-4'
p6806
tp6807
g5
(g9
S'#\xff\xf8\xd1\xdd\xae\xe2?'
p6808
tp6809
Rp6810
s(g2074
S'prev-action-4'
p6811
tp6812
g5
(g9
S'\x80>\x90\xad\xc3\x15\xc1\xbf'
p6813
tp6814
Rp6815
s(g682
S'object-1-x-80.0'
p6816
tp6817
g5
(g9
S'\xaa?\xcc\xd9\x14\x1f\xdb\xbf'
p6818
tp6819
Rp6820
s(S'action-3'
p6821
S'object-0-x-120.0'
p6822
tp6823
g5
(g9
S'\xf0\x0e\x9f\x1c\xb9\xb3\xca?'
p6824
tp6825
Rp6826
s(g2696
S'prev-action-4'
p6827
tp6828
g5
(g9
S'\xf0PH?x\x1e\xd1?'
p6829
tp6830
Rp6831
s(g747
S'prev-action-4'
p6832
tp6833
g5
(g9
S"\xf2'!\xbc\xa0\t\xed?"
p6834
tp6835
Rp6836
sg1903
g5
(g9
S']i\xc8\x16EF\x0f@'
p6837
tp6838
Rp6839
s(g5470
S'action-3'
p6840
tp6841
g5
(g9
S'\n\xe5C\tal\xb6\xbf'
p6842
tp6843
Rp6844
sg1299
g5
(g9
S'b\xb2\xd1:\xdc\xf8\xff?'
p6845
tp6846
Rp6847
s(S'diff-x-pos-26'
p6848
S'prev-action-3'
p6849
tp6850
g5
(g9
S'$\xf9Z\x14<\xb1\xcb\xbf'
p6851
tp6852
Rp6853
s(g3649
S'prev-action-1'
p6854
tp6855
g5
(g9
S'\xb8\x15g~\xc0\r\xcd\xbf'
p6856
tp6857
Rp6858
s(g4507
S'action-3'
p6859
tp6860
g5
(g9
S'S\x92bN\xec\x05\xde?'
p6861
tp6862
Rp6863
s(S'diff-x-pos-51'
p6864
S'action-3'
p6865
tp6866
g5
(g9
S'\xa2\x1d\x1d%\r\xb4\x03\xc0'
p6867
tp6868
Rp6869
s(S'diff-x-pos--91'
p6870
S'action-4'
p6871
tp6872
g5
(g9
S'OX\x1dH\x1c\xc3\xd2\xbf'
p6873
tp6874
Rp6875
sg1503
g5
(g9
S'\xaa\xcc\x1dy\x7f|\xef?'
p6876
tp6877
Rp6878
sg1792
g5
(g9
S'\x9aH#\xc2H5\xe3?'
p6879
tp6880
Rp6881
s(S'diff-x-pos-39'
p6882
S'action-4'
p6883
tp6884
g5
(g9
S'q\xc9\x80\x83\x84\xa5\xe7?'
p6885
tp6886
Rp6887
s(g4544
S'prev-action-3'
p6888
tp6889
g5
(g9
S"\x00\x1b0'\x19\xc9\xb3\xbf"
p6890
tp6891
Rp6892
sg327
g5
(g9
S'\xab\x00\xee\xd6%\xa5\x1c@'
p6893
tp6894
Rp6895
s(g5890
S'action-4'
p6896
tp6897
g5
(g9
S'H\x82\xcbR\xb3\xc2\xf2\xbf'
p6898
tp6899
Rp6900
s(g4262
S'action-3'
p6901
tp6902
g5
(g9
S'Z\xf0\t\xa8\xad\n\xd4\xbf'
p6903
tp6904
Rp6905
s(S'diff-x-pos--70'
p6906
S'prev-action-4'
p6907
tp6908
g5
(g9
S'\xf0\xef\x92j\\h\xe2\xbf'
p6909
tp6910
Rp6911
s(g2281
S'prev-action-4'
p6912
tp6913
g5
(g9
S'T\x0b\x1b\xb1\xe3u\xf3?'
p6914
tp6915
Rp6916
s(g4330
S'action-4'
p6917
tp6918
g5
(g9
S'\x9c*>\xd6H\x01\xf2?'
p6919
tp6920
Rp6921
s(S'diff-x-pos-34'
p6922
S'action-3'
p6923
tp6924
g5
(g9
S'\x12u\x8d\x1d>\xcc\xfb\xbf'
p6925
tp6926
Rp6927
s(g5902
S'action-1'
p6928
tp6929
g5
(g9
S'\x05\xe3\xe8\xb7\xbdj\xd2\xbf'
p6930
tp6931
Rp6932
s(S'diff-x-pos--73'
p6933
S'action-4'
p6934
tp6935
g5
(g9
S'\xa0lV/@0\xac\xbf'
p6936
tp6937
Rp6938
sg4690
g5
(g9
S'S_\x92\xf9\x044\x1b@'
p6939
tp6940
Rp6941
s(S'diff-x-pos-14'
p6942
S'action-3'
p6943
tp6944
g5
(g9
S'\x06lu\xb7Z\x97\xef?'
p6945
tp6946
Rp6947
s(g1763
S'prev-action-3'
p6948
tp6949
g5
(g9
S'\xff\x94\xd9\xbf\x11\xd0\xef?'
p6950
tp6951
Rp6952
s(g2019
S'prev-action-3'
p6953
tp6954
g5
(g9
S'\xe6r\xf2.\xb8\x18\x03@'
p6955
tp6956
Rp6957
s(g1733
S'action-4'
p6958
tp6959
g5
(g9
S'\xcc\xec\xed\x13%\xb9\xd9\xbf'
p6960
tp6961
Rp6962
s(g4797
S'prev-action-3'
p6963
tp6964
g5
(g9
S'\x12~\x17-rd\xf1?'
p6965
tp6966
Rp6967
s(g1715
S'action-3'
p6968
tp6969
g5
(g9
S'\xc0\x88\xa7\x14[a\xf7?'
p6970
tp6971
Rp6972
sg326
g5
(g9
S'\xca\xa1\x8e\xc0\xeb5:@'
p6973
tp6974
Rp6975
sg2401
g5
(g9
S"S\x01\xa5']u8@"
p6976
tp6977
Rp6978
sg207
g5
(g9
S'}o4%R\t;@'
p6979
tp6980
Rp6981
s(g2137
S'action-4'
p6982
tp6983
g5
(g9
S'\x14r\xc7\x14\xbe\xcf\xd5?'
p6984
tp6985
Rp6986
s(g894
S'prev-action-3'
p6987
tp6988
g5
(g9
S'\x90L\t\xbc\xa2U\xcc\xbf'
p6989
tp6990
Rp6991
s(g2207
S'prev-action-1'
p6992
tp6993
g5
(g9
S'.\x99\x1b\x02vf\xf2\xbf'
p6994
tp6995
Rp6996
sS'object-1-y-20.0'
p6997
g5
(g9
S'\xe6A\xe9\x03H_\xec?'
p6998
tp6999
Rp7000
s(g4695
S'prev-action-3'
p7001
tp7002
g5
(g9
S'N\xabw\x06\xed8\xfa?'
p7003
tp7004
Rp7005
s(S'diff-x-pos--24'
p7006
S'prev-action-3'
p7007
tp7008
g5
(g9
S'\xa6\xa3\xc8\xe4xS\xf0?'
p7009
tp7010
Rp7011
sS'diff-y-pos--11'
p7012
g5
(g9
S'\xed\x05L\x05#\xaa\xfc\xbf'
p7013
tp7014
Rp7015
sS'diff-y-pos--10'
p7016
g5
(g9
S'\x96\xaaW\xbe\xb95\xd9?'
p7017
tp7018
Rp7019
sg4100
g5
(g9
S'\xbf\xc2\x81\x1f\xd9\x1a\xf5\xbf'
p7020
tp7021
Rp7022
s(g5286
S'action-3'
p7023
tp7024
g5
(g9
S'wa\xc6\xe5\x91c\xf1?'
p7025
tp7026
Rp7027
s(S'diff-x-pos--83'
p7028
S'prev-action-4'
p7029
tp7030
g5
(g9
S'ne=\x96\xd1\x95\xf1\xbf'
p7031
tp7032
Rp7033
sg894
g5
(g9
S'\xadyv\xb7\xd6\xd9\xf2\xbf'
p7034
tp7035
Rp7036
s(g1615
S'action-1'
p7037
tp7038
g5
(g9
S'\xfa\xc4\x15\xa0\xb4\xdb\xf3\xbf'
p7039
tp7040
Rp7041
s(S'diff-x-pos--6'
p7042
S'action-4'
p7043
tp7044
g5
(g9
S'\xf2\x16\t\xbf\xd2/\xf9\xbf'
p7045
tp7046
Rp7047
s(g3504
S'action-3'
p7048
tp7049
g5
(g9
S'\xfeii\xffMp\xf5?'
p7050
tp7051
Rp7052
s(g3113
S'prev-action-4'
p7053
tp7054
g5
(g9
S'\x17\xae\xb7\xe2\xb1j\xf5?'
p7055
tp7056
Rp7057
s(g995
S'action-4'
p7058
tp7059
g5
(g9
S'\xdb\xc3\xd5\xdd\xeb3\xd2?'
p7060
tp7061
Rp7062
s(S'diff-x-pos--106'
p7063
S'action-4'
p7064
tp7065
g5
(g9
S'G\x17\x1b4>\x9f\xde?'
p7066
tp7067
Rp7068
s(g3807
S'action-1'
p7069
tp7070
g5
(g9
S'.\x88:[\xef<\xfb\xbf'
p7071
tp7072
Rp7073
s(g196
S'object-1-x-60.0'
p7074
tp7075
g5
(g9
S'^\x85-\xb0\xf6\x0c\xfa?'
p7076
tp7077
Rp7078
s(g3113
S'action-1'
p7079
tp7080
g5
(g9
S'\x13T\x11\xc2\x13\xd3\xe3?'
p7081
tp7082
Rp7083
s(g4752
S'action-4'
p7084
tp7085
g5
(g9
S'\xe6\x06x3&E\xed\xbf'
p7086
tp7087
Rp7088
s(g4934
g4432
tp7089
g5
(g9
S't\xd2\xd2\x10\xfb\xf9\xed?'
p7090
tp7091
Rp7092
s(S'object-1-dx-1'
p7093
g2020
tp7094
g5
(g9
S'\xbbJ\x19\xcfa\x8d\xeb\xbf'
p7095
tp7096
Rp7097
s(g739
g326
tp7098
g5
(g9
S'\t;\x05vLc\xfa?'
p7099
tp7100
Rp7101
s(S'diff-x-pos--14'
p7102
S'action-1'
p7103
tp7104
g5
(g9
S'\xf4\x1c\x04\xe6)M\xdc\xbf'
p7105
tp7106
Rp7107
s(S'diff-x-pos--112'
p7108
S'prev-action-1'
p7109
tp7110
g5
(g9
S'\x80\x8e+\x92c\xa2\xb8?'
p7111
tp7112
Rp7113
s(g558
S'prev-action-3'
p7114
tp7115
g5
(g9
S'#\xffyfTd\xc1?'
p7116
tp7117
Rp7118
s(g2840
S'action-1'
p7119
tp7120
g5
(g9
S'\x05\xd9\\\xeb\xa8\x80\xec\xbf'
p7121
tp7122
Rp7123
s(S'diff-x-pos-29'
p7124
S'prev-action-1'
p7125
tp7126
g5
(g9
S'h\x7f\xff\x9c?\x12\xb6\xbf'
p7127
tp7128
Rp7129
s(S'diff-x-pos--119'
p7130
S'prev-action-1'
p7131
tp7132
g5
(g9
S'\x9a\x00/\x14XS\xc8\xbf'
p7133
tp7134
Rp7135
s(S'diff-x-pos-57'
p7136
S'action-3'
p7137
tp7138
I-1
s(g4873
S'prev-action-3'
p7139
tp7140
g5
(g9
S'\xdc\xe3W\xfeYC\xe8\xbf'
p7141
tp7142
Rp7143
s(S'diff-x-pos-8'
p7144
S'action-4'
p7145
tp7146
g5
(g9
S'\x98\xbd\xc0\x86\x00i\xf6\xbf'
p7147
tp7148
Rp7149
s(g518
S'prev-action-3'
p7150
tp7151
g5
(g9
S'aCNE\x02\x1d\xe2?'
p7152
tp7153
Rp7154
sg4023
g5
(g9
S'\xfe\xa3\xab\xee\xbdD\xff\xbf'
p7155
tp7156
Rp7157
sg39
g5
(g9
S'\x8c;\xc4\xc8\x97\xf3\xfe\xbf'
p7158
tp7159
Rp7160
sg623
g5
(g9
S'.*f\xb2\x84s\xef\xbf'
p7161
tp7162
Rp7163
sg4544
g5
(g9
S'*\xa3\x1bV\xa0\x8c\xce\xbf'
p7164
tp7165
Rp7166
sg5030
g5
(g9
S'\xd0\x18\x99\xece\xa4\xd2\xbf'
p7167
tp7168
Rp7169
sg424
g5
(g9
S'\xba\x8f\xc6\xa9/C\xec\xbf'
p7170
tp7171
Rp7172
s(g3182
S'prev-action-4'
p7173
tp7174
g5
(g9
S'L\x19\x0f;Uh\xf1\xbf'
p7175
tp7176
Rp7177
sg4998
g5
(g9
S'\xf4\xae\x08\xd8A\xf3\xcc?'
p7178
tp7179
Rp7180
s(g3893
S'prev-action-1'
p7181
tp7182
g5
(g9
S'\x8a\xa7M\x1b\x17\x9f\xd7\xbf'
p7183
tp7184
Rp7185
s(g7130
S'action-4'
p7186
tp7187
g5
(g9
S'\x9a\x00/\x14XS\xc8\xbf'
p7188
tp7189
Rp7190
sg2790
g5
(g9
S'\x96\xe8\x84w\xc0%\xf3?'
p7191
tp7192
Rp7193
sg1436
g5
(g9
S'\x97\xa8-\x0f\xc0J\xdc?'
p7194
tp7195
Rp7196
sg3746
g5
(g9
S'H\xb8\x03g\xaae\xd9?'
p7197
tp7198
Rp7199
sg3649
g5
(g9
S'\x9d\xc9\xabIc\xae\xd9\xbf'
p7200
tp7201
Rp7202
s(S'diff-x-pos--36'
p7203
S'prev-action-3'
p7204
tp7205
g5
(g9
S'\x80z\xed\xc8\xbe^\xd1?'
p7206
tp7207
Rp7208
s(g693
S'prev-action-4'
p7209
tp7210
g5
(g9
S'\xa72\xcdY\xfe7\xe0?'
p7211
tp7212
Rp7213
s(g3834
S'prev-action-1'
p7214
tp7215
g5
(g9
S'0\xd8M\xe4\x9d\xd4\xd7\xbf'
p7216
tp7217
Rp7218
sg135
g5
(g9
S'\x11\\\xdf\xc6:H\xeb?'
p7219
tp7220
Rp7221
sg4507
g5
(g9
S'\x03\x07\xe1\x08t<\x00@'
p7222
tp7223
Rp7224
sg2019
g5
(g9
S'\x83\xc6\x1bj~?\xec?'
p7225
tp7226
Rp7227
s(g434
S'prev-action-1'
p7228
tp7229
g5
(g9
S'\xa8\n\xf4W\xde?\xc4\xbf'
p7230
tp7231
Rp7232
sg5890
g5
(g9
S'\xff\x95`=\xa1\x1a\xf8\xbf'
p7233
tp7234
Rp7235
s(g1844
S'prev-action-3'
p7236
tp7237
g5
(g9
S'\x88\xb7rV\xbaN\xfa?'
p7238
tp7239
Rp7240
sg5549
g5
(g9
S'"/H\xea\tg\xed?'
p7241
tp7242
Rp7243
sg5204
g5
(g9
S'F\x13\x92\xeek\xb7\xb0\xbf'
p7244
tp7245
Rp7246
s(g1931
S'prev-action-3'
p7247
tp7248
g5
(g9
S'ZSo"0n\xd2\xbf'
p7249
tp7250
Rp7251
s(S'diff-x-pos--41'
p7252
S'prev-action-4'
p7253
tp7254
g5
(g9
S'\xdd\xbc\x05Z7\xcc\xe1?'
p7255
tp7256
Rp7257
s(g3801
S'action-1'
p7258
tp7259
g5
(g9
S'\xbf\xc5\xbdF\xa8,\xe2?'
p7260
tp7261
Rp7262
s(g5204
S'action-3'
p7263
tp7264
g5
(g9
S'\xd5\x08\x03\xb1\xc5<\xec\xbf'
p7265
tp7266
Rp7267
s(S'diff-x-pos--9'
p7268
S'action-1'
p7269
tp7270
g5
(g9
S'\xf4ZN}\x1c\x91\x9c\xbf'
p7271
tp7272
Rp7273
s(g4297
S'prev-action-4'
p7274
tp7275
g5
(g9
S'Y\xbcU\xdb-\xb5\xd3\xbf'
p7276
tp7277
Rp7278
s(g1264
S'prev-action-4'
p7279
tp7280
g5
(g9
S'\x9cl\xfa\xcc\x95\x80\xdc?'
p7281
tp7282
Rp7283
s(g949
S'prev-action-4'
p7284
tp7285
g5
(g9
S'\x7f^f\xdf\x06\xcc\xf1\xbf'
p7286
tp7287
Rp7288
s(S'diff-x-pos--59'
p7289
S'prev-action-1'
p7290
tp7291
g5
(g9
S'\x82\x14\xdbZcp\xe0?'
p7292
tp7293
Rp7294
sg3138
g5
(g9
S'\xd8\xb3E\x0b\xb08\xb1\xbf'
p7295
tp7296
Rp7297
sg195
g5
(g9
S'\xdc/\xf2+\xaa\xaa\xe9\xbf'
p7298
tp7299
Rp7300
s(g3154
S'prev-action-3'
p7301
tp7302
g5
(g9
S')\xf3\xd9\x84\xe9\x05\xd8\xbf'
p7303
tp7304
Rp7305
sg2160
g5
(g9
S'\x90\x12?\x0b\xa65\xdc?'
p7306
tp7307
Rp7308
sg1100
g5
(g9
S'\xae\x16\xfbt\xde\x02\xcd?'
p7309
tp7310
Rp7311
sg534
g5
(g9
S'\xce\xe6\x87Z\xdb\xdd\xe2?'
p7312
tp7313
Rp7314
sg3422
g5
(g9
S'&\x18\xde\x9ci2\xc8\xbf'
p7315
tp7316
Rp7317
sg302
g5
(g9
S'\x11\x04S\xf3\\\xba\xf5?'
p7318
tp7319
Rp7320
sg2143
g5
(g9
S'\x1a\x01\xbb\xdb\xb3s\xff?'
p7321
tp7322
Rp7323
sg1680
g5
(g9
S'\x9cv\xf5_6B\xf3\xbf'
p7324
tp7325
Rp7326
sg5470
g5
(g9
S'J\xe2\x98\x94G\xb2\xdd?'
p7327
tp7328
Rp7329
sg2907
g5
(g9
S'\x01\xb4\x86Z\x95\x8c\x15@'
p7330
tp7331
Rp7332
s(g4683
S'action-4'
p7333
tp7334
g5
(g9
S'\x80?|3\x14X\xc0?'
p7335
tp7336
Rp7337
s(g332
S'prev-action-3'
p7338
tp7339
g5
(g9
S'\x04\x9eI\x8a\xdb\xd3\xf8\xbf'
p7340
tp7341
Rp7342
s(S'object-1-dx--1'
p7343
g659
tp7344
g5
(g9
S'\xdc\xf1\x14\xe2\x89\xdc\x00@'
p7345
tp7346
Rp7347
s(g1885
S'prev-action-3'
p7348
tp7349
g5
(g9
S'P\x83\xa2\xbd\xcb\x11\xdf?'
p7350
tp7351
Rp7352
s(S'diff-x-pos--30'
p7353
S'action-3'
p7354
tp7355
g5
(g9
S'#RCTS\x13\xc3\xbf'
p7356
tp7357
Rp7358
s(S'diff-x-pos-5'
p7359
S'prev-action-4'
p7360
tp7361
g5
(g9
S'\xbb}\x17C\xd3T\xe2?'
p7362
tp7363
Rp7364
s(g1287
S'action-4'
p7365
tp7366
g5
(g9
S'L\x10\xca\x16\xae\xf2\xef?'
p7367
tp7368
Rp7369
s(g2048
S'prev-action-3'
p7370
tp7371
g5
(g9
S'\x82\xea_\xdd\x18x\xde\xbf'
p7372
tp7373
Rp7374
s(g5030
S'action-3'
p7375
tp7376
g5
(g9
S'X\xd6\x91q\x1c\xa4\xe4\xbf'
p7377
tp7378
Rp7379
s(S'diff-x-pos-49'
p7380
S'action-3'
p7381
tp7382
g5
(g9
S's\x1b?\xf4j\xa1\xef\xbf'
p7383
tp7384
Rp7385
s(S'diff-x-pos--109'
p7386
S'action-3'
p7387
tp7388
g5
(g9
S'\xbet/\x07z-\xfa?'
p7389
tp7390
Rp7391
s(g3643
S'action-3'
p7392
tp7393
g5
(g9
S'Q\xe6\rA\x85\x9b\xd3?'
p7394
tp7395
Rp7396
s(g2762
S'action-4'
p7397
tp7398
g5
(g9
S'\\_K\xb5\xe0B\xe0?'
p7399
tp7400
Rp7401
s(S'diff-x-pos-36'
p7402
S'action-1'
p7403
tp7404
g5
(g9
S'tG!z\x88\x0c\xca?'
p7405
tp7406
Rp7407
s(S'diff-x-pos--8'
p7408
S'prev-action-1'
p7409
tp7410
g5
(g9
S'<\xda\x9f.\xd6\x8e\x01@'
p7411
tp7412
Rp7413
s(S'diff-x-pos-23'
p7414
S'action-4'
p7415
tp7416
g5
(g9
S' oe\xd0\xfc_\xf2\xbf'
p7417
tp7418
Rp7419
s(g2078
S'action-4'
p7420
tp7421
g5
(g9
S'b\x8f\xde<\xd6\x11\xde\xbf'
p7422
tp7423
Rp7424
s(g3082
S'prev-action-3'
p7425
tp7426
g5
(g9
S'\xc3S\xe8\xc4\xe2\x96\x02@'
p7427
tp7428
Rp7429
s(g4851
S'action-4'
p7430
tp7431
g5
(g9
S'\xd1\x95\x1e\xedt\xac\xe3?'
p7432
tp7433
Rp7434
s(g195
g3724
tp7435
g5
(g9
S'\\w\x16\xa2![\xf7?'
p7436
tp7437
Rp7438
s(g2445
S'prev-action-3'
p7439
tp7440
g5
(g9
S'\x07\xb92\x01\xbe4\xd4?'
p7441
tp7442
Rp7443
s(S'action-4'
p7444
S'object-1-x-110.0'
p7445
tp7446
g5
(g9
S'\xe2\xae\xb1\xa8O5\xea?'
p7447
tp7448
Rp7449
stp7450
Rp7451
.