ccollections
Counter
p0
((dp1
(S'diff-x-pos--89'
p2
S'action-4'
p3
tp4
cnumpy.core.multiarray
scalar
p5
(cnumpy
dtype
p6
(S'f8'
p7
I0
I1
tp8
Rp9
(I3
S'<'
p10
NNNI-1
I-1
I0
tp11
bS'\x10\x16\x87=+\x803\xbf'
p12
tp13
Rp14
s(S'action-1'
p15
S'object-1-x-60'
p16
tp17
g5
(g9
S'}\xdb\xae])i\xb8?'
p18
tp19
Rp20
s(S'diff-x-pos-47'
p21
S'prev-action-1'
p22
tp23
g5
(g9
S'Fs\x8eW\xb3\xc9w?'
p24
tp25
Rp26
s(S'action-4'
p27
S'object-1-x-100'
p28
tp29
g5
(g9
S't=\x0e\x10(Y\x8d\xbf'
p30
tp31
Rp32
s(S'diff-x-pos--94'
p33
S'action-3'
p34
tp35
g5
(g9
S'\x1c:4\x98\x93\x9ee?'
p36
tp37
Rp38
s(S'diff-x-pos--80'
p39
S'action-4'
p40
tp41
g5
(g9
S'\x8a\xa3\x9c\xaf\xf0\xc0\x85?'
p42
tp43
Rp44
s(S'action-3'
p45
S'object-0-x-44'
p46
tp47
g5
(g9
S'\xae\xae\xc4z@\xe5\xc6?'
p48
tp49
Rp50
s(S'diff-x-pos-2'
p51
S'prev-action-3'
p52
tp53
g5
(g9
S'Q\xfe\x98\xcet\xa3P?'
p54
tp55
Rp56
s(S'diff-x-pos--7'
p57
S'prev-action-1'
p58
tp59
g5
(g9
S'<:\xa0#:\xc6\x9f\xbf'
p60
tp61
Rp62
s(S'diff-x-pos--27'
p63
S'action-4'
p64
tp65
g5
(g9
S'\x8f\x86m\xd2nOx\xbf'
p66
tp67
Rp68
s(S'diff-x-pos-40'
p69
S'action-3'
p70
tp71
g5
(g9
S'\nu|R\xcd)v?'
p72
tp73
Rp74
s(S'diff-x-pos-54'
p75
S'action-1'
p76
tp77
g5
(g9
S'ojjL~w\x81?'
p78
tp79
Rp80
s(S'diff-x-pos--43'
p81
S'prev-action-4'
p82
tp83
g5
(g9
S'\xc2t\x15J\xfc\xc6\x90?'
p84
tp85
Rp86
s(S'diff-x-pos--96'
p87
S'prev-action-4'
p88
tp89
g5
(g9
S'\xf6\xc8\x9f\x04Gs7?'
p90
tp91
Rp92
s(S'action-3'
p93
S'object-0-x-92'
p94
tp95
g5
(g9
S'"\xb4\xb4\xccy\x9c\xc0?'
p96
tp97
Rp98
s(S'action-3'
p99
S'object-0-x-64'
p100
tp101
g5
(g9
S'\x97I\xe1\xad<-\xc6?'
p102
tp103
Rp104
sS'object-1-x-116'
p105
g5
(g9
S'\xa9\xd1\x83\x89\x9fz\xba\xbf'
p106
tp107
Rp108
sS'object-1-x-112'
p109
g5
(g9
S'\xfc\xe0_\xcb\xef-\x8d\xbf'
p110
tp111
Rp112
s(S'diff-x-pos--35'
p113
S'action-3'
p114
tp115
g5
(g9
S'4C\x8c\x1b}\xb4*?'
p116
tp117
Rp118
s(S'diff-x-pos--25'
p119
S'prev-action-4'
p120
tp121
g5
(g9
S'^M\xf6\xb3*\x02{?'
p122
tp123
Rp124
s(S'diff-x-pos--75'
p125
S'prev-action-4'
p126
tp127
g5
(g9
S'\xaf\xe3\xed\xf01\xfe\x9c?'
p128
tp129
Rp130
s(S'diff-x-pos-43'
p131
S'prev-action-4'
p132
tp133
g5
(g9
S';95\xac\x1f\x8bw?'
p134
tp135
Rp136
s(S'diff-x-pos--26'
p137
S'prev-action-1'
p138
tp139
g5
(g9
S'\x07I6\xaee\xfc\x92?'
p140
tp141
Rp142
s(S'diff-x-pos--9'
p143
S'action-3'
p144
tp145
g5
(g9
S'?{\x1a\xe3\xa2,b?'
p146
tp147
Rp148
sg46
g5
(g9
S']\x1b\xe5\xb5KN\xd9?'
p149
tp150
Rp151
s(S'diff-x-pos-40'
p152
S'prev-action-1'
p153
tp154
g5
(g9
S'~J\x9a\xe3\xfa\xdcy?'
p155
tp156
Rp157
sS'object-0-x-48'
p158
g5
(g9
S'\x1b\r\xee.[\xbb\xd9?'
p159
tp160
Rp161
s(S'diff-x-pos--7'
p162
S'action-3'
p163
tp164
g5
(g9
S'\xfcT\x93\x1f\xf2\x1cq\xbf'
p165
tp166
Rp167
s(S'diff-x-pos--61'
p168
S'action-3'
p169
tp170
g5
(g9
S'U\x02\x05kT\xeb\x8c?'
p171
tp172
Rp173
s(S'action-3'
p174
S'object-1-x-92'
p175
tp176
g5
(g9
S'\xad\xf3 \xeb\x8d\xaf\xa8?'
p177
tp178
Rp179
s(S'diff-x-pos-51'
p180
S'action-1'
p181
tp182
g5
(g9
S'\x8a\xe0\x16\xc0\xf7uv?'
p183
tp184
Rp185
s(S'diff-x-pos-21'
p186
S'prev-action-1'
p187
tp188
g5
(g9
S'\x13\x1e\xff%y\x9f\x83\xbf'
p189
tp190
Rp191
s(S'diff-x-pos-33'
p192
S'prev-action-4'
p193
tp194
g5
(g9
S'\xb7\x19\x80u4\xbbU\xbf'
p195
tp196
Rp197
s(S'diff-x-pos--79'
p198
S'action-3'
p199
tp200
g5
(g9
S'\xa24\xe9\xda^\x02h\xbf'
p201
tp202
Rp203
s(S'diff-x-pos--62'
p204
S'prev-action-3'
p205
tp206
g5
(g9
S'N \xf5d\xcf\x91\x8c\xbf'
p207
tp208
Rp209
s(S'action-4'
p210
S'object-0-x-8'
p211
tp212
g5
(g9
S'\xc2d/zcD\xb2\xbf'
p213
tp214
Rp215
s(S'diff-x-pos--110'
p216
S'prev-action-1'
p217
tp218
g5
(g9
S'\x89\x9bk\xd3\xb8mv?'
p219
tp220
Rp221
sS'object-1-x-84'
p222
g5
(g9
S"#\xee'd~\x9e\xbf?"
p223
tp224
Rp225
s(S'diff-x-pos-17'
p226
S'action-1'
p227
tp228
g5
(g9
S'VWc\xd2\x1eAf\xbf'
p229
tp230
Rp231
s(S'diff-x-pos--13'
p232
S'action-4'
p233
tp234
g5
(g9
S'N\xf5`y\x846\x8b\xbf'
p235
tp236
Rp237
s(S'diff-x-pos-9'
p238
S'action-3'
p239
tp240
g5
(g9
S'8\x97\xe7\xcf\x8f\xc9p\xbf'
p241
tp242
Rp243
s(S'diff-x-pos--98'
p244
S'action-1'
p245
tp246
g5
(g9
S'\xc2#}n\xb4VV?'
p247
tp248
Rp249
s(S'action-4'
p250
S'object-1-x-92'
p251
tp252
g5
(g9
S'\xb5CX^A\xf8\x83\xbf'
p253
tp254
Rp255
s(g199
S'object-1-x-100'
p256
tp257
g5
(g9
S'\xfd1\xd4\xa9\x00\xd6\xa3?'
p258
tp259
Rp260
sS'object-1-y-8'
p261
g5
(g9
S'\xc6\xe2EA\xadS\xdc?'
p262
tp263
Rp264
s(S'diff-x-pos--69'
p265
S'action-4'
p266
tp267
g5
(g9
S'\xb8o\x83\ri\xdfs\xbf'
p268
tp269
Rp270
s(S'diff-x-pos--46'
p271
S'prev-action-4'
p272
tp273
g5
(g9
S'\x07\xa0\x1e\xe5\xf7>\x92?'
p274
tp275
Rp276
s(S'diff-x-pos--53'
p277
S'action-4'
p278
tp279
g5
(g9
S'U*\xc5\xcbp:\x81?'
p280
tp281
Rp282
s(S'diff-x-pos--49'
p283
S'prev-action-4'
p284
tp285
g5
(g9
S'\x1b\xc3\xac\xef\xbe\x00\x88?'
p286
tp287
Rp288
s(S'diff-x-pos-25'
p289
S'action-4'
p290
tp291
g5
(g9
S'\x9a\xd0\x8b\xeb1-\x8b\xbf'
p292
tp293
Rp294
s(S'diff-x-pos--13'
p295
S'prev-action-4'
p296
tp297
g5
(g9
S'b\x1d\x84ke8\x86\xbf'
p298
tp299
Rp300
s(S'diff-x-pos--37'
p301
S'action-4'
p302
tp303
g5
(g9
S'W\xe1\x1d\x99G\xd2\x86?'
p304
tp305
Rp306
s(S'diff-x-pos--27'
p307
S'prev-action-1'
p308
tp309
g5
(g9
S'\xc9\xac\xf7\x01\xd9\xe6s\xbf'
p310
tp311
Rp312
s(S'diff-x-pos--109'
p313
S'prev-action-1'
p314
tp315
g5
(g9
S'f\x9eh\xca\xe9SP?'
p316
tp317
Rp318
s(S'diff-x-pos-59'
p319
S'action-4'
p320
tp321
g5
(g9
S'\x85\xefT\xee\x04\x96Y\xbf'
p322
tp323
Rp324
s(S'diff-x-pos--8'
p325
S'action-1'
p326
tp327
g5
(g9
S'\xbb\r%\x80\xedIa\xbf'
p328
tp329
Rp330
sS'object-0-x-0'
p331
g5
(g9
S'\x11\xb0\x1b\xb3\x94\x86r?'
p332
tp333
Rp334
s(S'diff-x-pos--55'
p335
S'action-4'
p336
tp337
g5
(g9
S'2Vv\xa6\x18<{?'
p338
tp339
Rp340
sS'object-0-x-4'
p341
g5
(g9
S'\xbe\x8d\xd2!9\xfd\xb0?'
p342
tp343
Rp344
s(S'diff-x-pos--31'
p345
S'action-1'
p346
tp347
g5
(g9
S'~PU\x83IX\x86?'
p348
tp349
Rp350
s(S'diff-x-pos-48'
p351
S'action-1'
p352
tp353
g5
(g9
S'F\xb95\x08,\x8b\x8d?'
p354
tp355
Rp356
s(S'diff-x-pos-4'
p357
S'prev-action-4'
p358
tp359
g5
(g9
S'\xd7a2\xabf7\x89\xbf'
p360
tp361
Rp362
s(S'action-4'
p363
S'object-0-x-76'
p364
tp365
g5
(g9
S'\xa6\xcf\x08W\xf36\xc8?'
p366
tp367
Rp368
s(S'diff-x-pos--30'
p369
S'prev-action-1'
p370
tp371
g5
(g9
S'\xa6\xf8\x04rl\x1a\x93\xbf'
p372
tp373
Rp374
s(S'diff-x-pos--61'
p375
S'action-1'
p376
tp377
g5
(g9
S'\x85h\x95\\\x0e\x86\x99?'
p378
tp379
Rp380
s(S'diff-x-pos--63'
p381
S'prev-action-1'
p382
tp383
g5
(g9
S'&\xb0\x10\x8a\x04/\x8e?'
p384
tp385
Rp386
s(S'diff-x-pos-3'
p387
S'action-4'
p388
tp389
g5
(g9
S'\xcf\x82\xb19\xed4\x91\xbf'
p390
tp391
Rp392
s(S'diff-x-pos-26'
p393
S'action-4'
p394
tp395
g5
(g9
S'\xcb\xdb\xd2u2\xb7\x8e\xbf'
p396
tp397
Rp398
s(S'diff-x-pos--13'
p399
S'action-3'
p400
tp401
g5
(g9
S'S4V$[4z\xbf'
p402
tp403
Rp404
s(S'diff-x-pos--26'
p405
S'action-1'
p406
tp407
g5
(g9
S'\x81\xf8l48\xe9q?'
p408
tp409
Rp410
s(g125
S'action-4'
p411
tp412
g5
(g9
S't\x84\x9f\x05\x08\xd2\x9c?'
p413
tp414
Rp415
s(S'diff-x-pos--23'
p416
S'prev-action-4'
p417
tp418
g5
(g9
S'\x8f\xa8x\x8b\xaaQi\xbf'
p419
tp420
Rp421
s(S'diff-x-pos-37'
p422
S'action-3'
p423
tp424
g5
(g9
S'\xcb\xea\x99\x11\xb7\xefu?'
p425
tp426
Rp427
s(S'diff-x-pos-55'
p428
S'action-4'
p429
tp430
g5
(g9
S'\x8a`\xa3l\x80\xb5.?'
p431
tp432
Rp433
s(S'action-3'
p434
S'object-1-x-112'
p435
tp436
g5
(g9
S'jv.\xceu\x00V?'
p437
tp438
Rp439
s(S'diff-x-pos--105'
p440
S'prev-action-4'
p441
tp442
g5
(g9
S'\xc6\xc3h\x92D\xcf?\xbf'
p443
tp444
Rp445
s(S'diff-x-pos--59'
p446
S'action-3'
p447
tp448
g5
(g9
S'\xd4\xce\xa1\x9bl\t\x84?'
p449
tp450
Rp451
s(S'action-4'
p452
S'object-1-x-68'
p453
tp454
g5
(g9
S'%\x88R\xa5\x86\xbe\x85?'
p455
tp456
Rp457
s(S'object-0-dx-1'
p458
S'prev-action-3'
p459
tp460
g5
(g9
S"'\x89[*\xb1\xbe\xbd?"
p461
tp462
Rp463
sS'object-0-dy-1'
p464
g5
(g9
S'\xab&\xbb_\x10\xeb\xca?'
p465
tp466
Rp467
s(S'diff-x-pos--39'
p468
S'prev-action-3'
p469
tp470
g5
(g9
S'=l@\x1e\xe1 u?'
p471
tp472
Rp473
s(S'diff-x-pos-2'
p474
S'action-3'
p475
tp476
g5
(g9
S'[\xb95\xf3\xae\xc1\x95\xbf'
p477
tp478
Rp479
s(S'action-1'
p480
S'object-0-x-108'
p481
tp482
g5
(g9
S"k'\xe7\x9cC\xa0\xbd?"
p483
tp484
Rp485
s(S'diff-x-pos-4'
p486
S'prev-action-3'
p487
tp488
g5
(g9
S'\xaa\xd8\xed\x93\xde/\x85\xbf'
p489
tp490
Rp491
s(S'diff-x-pos--3'
p492
S'action-4'
p493
tp494
g5
(g9
S'\xa7\nt\xa1\xbe\xe6\x92\xbf'
p495
tp496
Rp497
s(S'diff-x-pos-3'
p498
S'action-3'
p499
tp500
g5
(g9
S'u\xd0\xa7C\x95\xd8\x85\xbf'
p501
tp502
Rp503
sS'prev-action-0'
p504
g5
(g9
S'\x8fS\xfc\x01\x90)\xf7?'
p505
tp506
Rp507
sS'prev-action-1'
p508
g5
(g9
S'\xcb(E\x85aY\x0b@'
p509
tp510
Rp511
s(S'diff-x-pos--90'
p512
S'prev-action-3'
p513
tp514
g5
(g9
S'GQ\xe2\x1d\xc9\x17M?'
p515
tp516
Rp517
sS'diff-x-pos--120'
p518
g5
(g9
S'\n\x0b\x0f\xe1E1u\xbf'
p519
tp520
Rp521
sS'prev-action-4'
p522
g5
(g9
S'\x99\xd2\x7f3),\x0b@'
p523
tp524
Rp525
s(S'diff-x-pos-1'
p526
S'prev-action-1'
p527
tp528
g5
(g9
S'+\xac\xecX\xcaN\x94\xbf'
p529
tp530
Rp531
s(S'diff-x-pos--36'
p532
S'action-1'
p533
tp534
g5
(g9
S'\xbcRU\xc8\xb9\x9c\x94?'
p535
tp536
Rp537
s(S'diff-x-pos-43'
p538
S'action-1'
p539
tp540
g5
(g9
S'\x96d\xcf\x08J\xcbr?'
p541
tp542
Rp543
s(S'diff-x-pos--79'
p544
S'action-4'
p545
tp546
g5
(g9
S'\xd8\r\x8a\xfc\xf9:\x82\xbf'
p547
tp548
Rp549
s(g113
S'prev-action-4'
p550
tp551
g5
(g9
S'\xa7N\xbd\xb0qU\x86?'
p552
tp553
Rp554
s(S'diff-x-pos-55'
p555
S'action-3'
p556
tp557
g5
(g9
S'f\x1a\xa1\xcfe\xb0X?'
p558
tp559
Rp560
s(S'diff-x-pos-45'
p561
S'prev-action-3'
p562
tp563
g5
(g9
S'vN\xaf\n5\xe2_?'
p564
tp565
Rp566
s(S'diff-x-pos--34'
p567
S'prev-action-3'
p568
tp569
g5
(g9
S'=\xbex\x89\xe0\x0fy\xbf'
p570
tp571
Rp572
s(S'diff-x-pos-6'
p573
S'prev-action-4'
p574
tp575
g5
(g9
S'\xc21v8\x13W\x91\xbf'
p576
tp577
Rp578
s(S'diff-x-pos--96'
p579
S'action-1'
p580
tp581
g5
(g9
S'p\xa5\x9f\x9f\xeb\xd3>\xbf'
p582
tp583
Rp584
s(S'diff-x-pos-10'
p585
S'action-4'
p586
tp587
g5
(g9
S'\xfd\t"c\x11\x0c\x88\xbf'
p588
tp589
Rp590
sS'diff-y-pos-0'
p591
g5
(g9
S'\xa4.2}\xaf\xeax?'
p592
tp593
Rp594
s(S'diff-x-pos--17'
p595
S'action-1'
p596
tp597
g5
(g9
S'\xb3S\xb2>xS{\xbf'
p598
tp599
Rp600
s(S'diff-x-pos--100'
p601
S'prev-action-4'
p602
tp603
g5
(g9
S'\x00\x02CA\x15%^?'
p604
tp605
Rp606
s(S'action-1'
p607
S'object-0-x-36'
p608
tp609
g5
(g9
S'$\x95B\x88\xde\xcd\xc1?'
p610
tp611
Rp612
s(S'diff-x-pos-24'
p613
S'action-1'
p614
tp615
g5
(g9
S'\xe2\xb1\xbf\xec\x92\x81X\xbf'
p616
tp617
Rp618
s(S'diff-x-pos-2'
p619
S'action-4'
p620
tp621
g5
(g9
S'\x8b\x8e\x04ZA\xf9\x80\xbf'
p622
tp623
Rp624
s(S'diff-x-pos-29'
p625
S'action-3'
p626
tp627
g5
(g9
S'\xbeA\xb6:\x97\xf8J?'
p628
tp629
Rp630
s(S'diff-x-pos-30'
p631
S'action-3'
p632
tp633
g5
(g9
S'\xc6\xa8ZQ\xd2\xedl?'
p634
tp635
Rp636
s(S'diff-x-pos-38'
p637
S'prev-action-3'
p638
tp639
g5
(g9
S'\xe3\x11\xc9\x03o\xbeh\xbf'
p640
tp641
Rp642
s(S'diff-x-pos--4'
p643
S'action-1'
p644
tp645
g5
(g9
S'\xaag\x7f\xba,\x06c\xbf'
p646
tp647
Rp648
sS'object-1-dx--1'
p649
g5
(g9
S'\xdd\xa4\x0f5\xcc\x9f\xc2\xbf'
p650
tp651
Rp652
s(S'diff-x-pos--95'
p653
S'action-4'
p654
tp655
g5
(g9
S'su\xd3\xae\x9b8O?'
p656
tp657
Rp658
s(S'diff-x-pos--33'
p659
S'action-1'
p660
tp661
g5
(g9
S'd\x0b\n\x11\xb43\x91?'
p662
tp663
Rp664
s(S'action-4'
p665
S'object-0-x-104'
p666
tp667
g5
(g9
S'\xb7|\xa4%g\xc3\xbd?'
p668
tp669
Rp670
s(S'action-3'
p671
S'object-1-x-88'
p672
tp673
g5
(g9
S'\tq\xbb\xe2\xc3\xc2\xa9?'
p674
tp675
Rp676
s(S'action-4'
p677
S'object-1-x-124'
p678
tp679
g5
(g9
S'\xf5\nOS\xa9\x17\xad?'
p680
tp681
Rp682
s(S'diff-x-pos--51'
p683
S'action-1'
p684
tp685
g5
(g9
S'\xbc7\xcc\xed\x80\xf3\xa0?'
p686
tp687
Rp688
s(g518
S'action-4'
p689
tp690
g5
(g9
S'\n\x0b\x0f\xe1E1u\xbf'
p691
tp692
Rp693
s(S'diff-x-pos-25'
p694
S'action-3'
p695
tp696
g5
(g9
S'\xf0\xa8\x19\xff\xfe|\x80?'
p697
tp698
Rp699
s(S'diff-x-pos--4'
p700
S'prev-action-4'
p701
tp702
g5
(g9
S'X\xf0\xcb\xed\xb8\xf4\x92\xbf'
p703
tp704
Rp705
s(S'diff-x-pos--24'
p706
S'action-1'
p707
tp708
g5
(g9
S'\x9f\xda\xba\x0fjUy?'
p709
tp710
Rp711
s(g649
S'action-4'
p712
tp713
g5
(g9
S'*\x90\x98UR\x83\xa1\xbf'
p714
tp715
Rp716
s(S'diff-x-pos-38'
p717
S'action-4'
p718
tp719
g5
(g9
S'\x16\x9d\xa6U\xd7Uk?'
p720
tp721
Rp722
s(S'diff-x-pos--77'
p723
S'action-4'
p724
tp725
g5
(g9
S'DUs\x89=\x1ax?'
p726
tp727
Rp728
s(g620
S'object-1-x-80'
p729
tp730
g5
(g9
S'\xb7\x831\xddH\x9au\xbf'
p731
tp732
Rp733
s(S'diff-x-pos-57'
p734
S'action-4'
p735
tp736
g5
(g9
S'\x10\xfeD9\x9d\xa3l?'
p737
tp738
Rp739
s(S'diff-x-pos--97'
p740
S'prev-action-3'
p741
tp742
g5
(g9
S'\x19\xec\xaf\xa1\x9e\xf2s\xbf'
p743
tp744
Rp745
s(S'diff-x-pos-35'
p746
S'prev-action-1'
p747
tp748
g5
(g9
S'\x11/\xe7"\r\xe3\xf3>'
p749
tp750
Rp751
s(S'action-4'
p752
S'object-0-x-16'
p753
tp754
g5
(g9
S';<\x9f\x14\x15!\xb1?'
p755
tp756
Rp757
s(S'diff-x-pos-42'
p758
S'prev-action-3'
p759
tp760
g5
(g9
S'\x11\x17\x85\xaa\x03\xaaj?'
p761
tp762
Rp763
sS'object-0-x-120'
p764
g5
(g9
S'\xd4RS\xb5\x9f\x05\xe0?'
p765
tp766
Rp767
sS'object-0-x-124'
p768
g5
(g9
S'G@\xe6\xb3f\x9a\xee?'
p769
tp770
Rp771
sS'object-0-x-128'
p772
g5
(g9
S'\xae\x01\x90m}\x0cc?'
p773
tp774
Rp775
s(S'diff-x-pos--10'
p776
S'action-1'
p777
tp778
g5
(g9
S'\xd5M6p\xf1N\x8d\xbf'
p779
tp780
Rp781
s(S'action-1'
p782
S'object-0-x-80'
p783
tp784
g5
(g9
S'vI\xb4\xd8\xdf\x03\xc4?'
p785
tp786
Rp787
sS'object-0-x-40'
p788
g5
(g9
S"q=\xca\x82\x85'\xd9?"
p789
tp790
Rp791
s(S'diff-x-pos-19'
p792
S'prev-action-3'
p793
tp794
g5
(g9
S'4\x13\r\xe5N\xec\x87\xbf'
p795
tp796
Rp797
s(S'diff-x-pos--114'
p798
S'prev-action-4'
p799
tp800
g5
(g9
S'>\xf2\x80\xc3\xce\xe0C?'
p801
tp802
Rp803
s(S'diff-x-pos-34'
p804
S'prev-action-1'
p805
tp806
g5
(g9
S'\xd67K5\x0b\xbbQ?'
p807
tp808
Rp809
s(S'action-3'
p810
S'object-1-x-96'
p811
tp812
g5
(g9
S'\x17\x17\x05\xd7\xef"\xa3?'
p813
tp814
Rp815
sS'diff-x-pos--54'
p816
g5
(g9
S'\x8b\xe9%\xac\x01\x9e\xa7?'
p817
tp818
Rp819
sg335
g5
(g9
S'm\xbd\xa8\xbb~U\xa4?'
p820
tp821
Rp822
sS'diff-x-pos--56'
p823
g5
(g9
S'Ucg\xebg\x97\xb5?'
p824
tp825
Rp826
sS'diff-x-pos--57'
p827
g5
(g9
S'\xe5x\xb7\xbe\xfe\x11\xa7?'
p828
tp829
Rp830
sS'diff-x-pos--50'
p831
g5
(g9
S'=TE9\xb2\t\xaf?'
p832
tp833
Rp834
sS'diff-x-pos--51'
p835
g5
(g9
S'k[u2\xcf\xfa\xae?'
p836
tp837
Rp838
sS'diff-x-pos--52'
p839
g5
(g9
S"'K\x0e\x8erB\xa4?"
p840
tp841
Rp842
sg277
g5
(g9
S'\nO\xde\x18b\xdf\xaa?'
p843
tp844
Rp845
sS'diff-x-pos--58'
p846
g5
(g9
S'\x81|C\xfa\x8fI\xa9?'
p847
tp848
Rp849
sS'diff-x-pos--59'
p850
g5
(g9
S'\x88tB.b{\xa8?'
p851
tp852
Rp853
s(S'diff-x-pos--102'
p854
S'action-4'
p855
tp856
g5
(g9
S'h:\x04@\x080k?'
p857
tp858
Rp859
s(S'diff-x-pos--38'
p860
S'action-1'
p861
tp862
g5
(g9
S'\xb1|^\xb7\x0cp\x86?'
p863
tp864
Rp865
s(S'diff-x-pos--68'
p866
S'action-3'
p867
tp868
g5
(g9
S'@\x06/q\xa7;C\xbf'
p869
tp870
Rp871
s(S'diff-x-pos--59'
p872
S'prev-action-4'
p873
tp874
g5
(g9
S'L\xad\x0c\x91H\xea\x8e?'
p875
tp876
Rp877
s(S'diff-x-pos-57'
p878
S'prev-action-3'
p879
tp880
g5
(g9
S'\x8f\xe6\xb6\x9e\nkR\xbf'
p881
tp882
Rp883
s(S'diff-x-pos--38'
p884
S'prev-action-1'
p885
tp886
g5
(g9
S'\xce\xb5\x82\xfa\xc5\x91\xa2?'
p887
tp888
Rp889
s(S'diff-x-pos--14'
p890
S'prev-action-1'
p891
tp892
g5
(g9
S'O3\xfc\xaeSw\x93\xbf'
p893
tp894
Rp895
s(S'object-1-dx-1'
p896
S'prev-action-1'
p897
tp898
g5
(g9
S'\x0fP"\xffT9\xbb\xbf'
p899
tp900
Rp901
s(S'diff-x-pos--2'
p902
S'action-4'
p903
tp904
g5
(g9
S'\xba\xcb\xc2\xe0\x03\x00\x93\xbf'
p905
tp906
Rp907
s(S'diff-x-pos--106'
p908
S'prev-action-4'
p909
tp910
g5
(g9
S'H\xd1\x07)(\xc4(?'
p911
tp912
Rp913
s(S'diff-x-pos--3'
p914
S'prev-action-1'
p915
tp916
g5
(g9
S'S\xa6\xd3\xe3(\t\x90\xbf'
p917
tp918
Rp919
s(S'diff-x-pos--28'
p920
g897
tp921
g5
(g9
S'\x8c0\x90\\/\xdax\xbf'
p922
tp923
Rp924
s(S'diff-x-pos--71'
p925
S'prev-action-1'
p926
tp927
g5
(g9
S'\xd5\x0c\x1c\xc4\xf9K\x83?'
p928
tp929
Rp930
s(S'diff-x-pos--107'
p931
S'prev-action-3'
p932
tp933
g5
(g9
S'\nmoBpn9?'
p934
tp935
Rp936
s(g406
S'object-0-x-40'
p937
tp938
g5
(g9
S'\rP\xba\xb3\xf8r\xc0?'
p939
tp940
Rp941
sS'object-1-dx-1'
p942
g5
(g9
S'F\x19o*\xddQ\xc2\xbf'
p943
tp944
Rp945
s(S'diff-x-pos--83'
p946
g677
tp947
g5
(g9
S'\xbfl\x92\xa4\xf6|\x85\xbf'
p948
tp949
Rp950
s(S'diff-x-pos--55'
p951
S'prev-action-1'
p952
tp953
g5
(g9
S'\xf9\x81\xf7\x8b\x0cS\x91?'
p954
tp955
Rp956
s(S'diff-x-pos-42'
p957
S'action-3'
p958
tp959
g5
(g9
S'Nn\xe4\x97\xae\x90[?'
p960
tp961
Rp962
s(S'diff-x-pos-10'
p963
S'prev-action-3'
p964
tp965
g5
(g9
S'7 >\xd1>\xe5\x86\xbf'
p966
tp967
Rp968
s(S'diff-x-pos--37'
p969
S'prev-action-1'
p970
tp971
g5
(g9
S'"\xcbb\xaea\x88\x86?'
p972
tp973
Rp974
s(S'diff-x-pos--74'
p975
S'action-3'
p976
tp977
g5
(g9
S'2\xe1\x07\xeb-\x0ff?'
p978
tp979
Rp980
s(S'diff-x-pos-52'
p981
S'prev-action-1'
p982
tp983
g5
(g9
S'\x05\x00\xdc\xcd\xe2\xfc\x8b?'
p984
tp985
Rp986
s(S'diff-x-pos--97'
p987
S'action-3'
p988
tp989
g5
(g9
S'p\xdd/\x0bd\x8e\x12?'
p990
tp991
Rp992
s(S'diff-x-pos-57'
p993
S'prev-action-4'
p994
tp995
g5
(g9
S'J\xf1\xc7\x00\x989}?'
p996
tp997
Rp998
s(S'diff-x-pos--91'
p999
S'prev-action-1'
p1000
tp1001
g5
(g9
S'\x9a\x1b_\xba}+X\xbf'
p1002
tp1003
Rp1004
sS'diff-x-pos-12'
p1005
g5
(g9
S'S\xff1]q1\xa3\xbf'
p1006
tp1007
Rp1008
sS'diff-x-pos-13'
p1009
g5
(g9
S'\x07Cl(\x1f/\xa4\xbf'
p1010
tp1011
Rp1012
sg585
g5
(g9
S'\xa2\xe0\xa4\x91Sx\xa3\xbf'
p1013
tp1014
Rp1015
sS'diff-x-pos-11'
p1016
g5
(g9
S"e\x18\x88'\xb6\xd5\xa0\xbf"
p1017
tp1018
Rp1019
sS'diff-x-pos-16'
p1020
g5
(g9
S'\x8a\x8b\x11\noIz\xbf'
p1021
tp1022
Rp1023
sS'diff-x-pos-17'
p1024
g5
(g9
S'n\xb9T1\xa1\xfd\x9a\xbf'
p1025
tp1026
Rp1027
sS'diff-x-pos-14'
p1028
g5
(g9
S'\xe6"\x93$Z^\xa5\xbf'
p1029
tp1030
Rp1031
sS'diff-x-pos-15'
p1032
g5
(g9
S'\xb3Idhe\xab\x94\xbf'
p1033
tp1034
Rp1035
s(S'diff-x-pos-28'
p1036
S'action-1'
p1037
tp1038
g5
(g9
S'\xf36\xe8\t\xb2\x17k\xbf'
p1039
tp1040
Rp1041
sS'diff-x-pos-18'
p1042
g5
(g9
S'\xaf<\x15O\x17@\xa2\xbf'
p1043
tp1044
Rp1045
sS'diff-x-pos-19'
p1046
g5
(g9
S'{\xc7\x8a(\x02{\xa2\xbf'
p1047
tp1048
Rp1049
s(S'diff-x-pos--51'
p1050
S'prev-action-1'
p1051
tp1052
g5
(g9
S'B\x8e\x1a/\xdd/\x85?'
p1053
tp1054
Rp1055
s(g381
S'action-3'
p1056
tp1057
g5
(g9
S'\x92C\x1a\x98\x8f\xd2\x81?'
p1058
tp1059
Rp1060
s(S'diff-x-pos-45'
p1061
S'prev-action-4'
p1062
tp1063
g5
(g9
S'\x03`\xc5\xadG\xe3v?'
p1064
tp1065
Rp1066
s(g33
S'prev-action-1'
p1067
tp1068
g5
(g9
S'TlzH\xa4dO?'
p1069
tp1070
Rp1071
s(S'diff-x-pos--44'
p1072
S'action-3'
p1073
tp1074
g5
(g9
S'k\x8e\xf4\xa3)\xcc\x90?'
p1075
tp1076
Rp1077
s(S'diff-x-pos--33'
p1078
S'prev-action-1'
p1079
tp1080
g5
(g9
S'I\x9c6\xf8\n\xc1@?'
p1081
tp1082
Rp1083
s(S'diff-x-pos--42'
p1084
S'action-3'
p1085
tp1086
g5
(g9
S'\x1cA\xd0\x92\xc9\x00\x9b?'
p1087
tp1088
Rp1089
s(S'diff-x-pos-30'
p1090
S'prev-action-3'
p1091
tp1092
g5
(g9
S'\xfb\xe4\x14\xcb\xd0\x8bV?'
p1093
tp1094
Rp1095
s(S'diff-x-pos--85'
p1096
S'action-3'
p1097
tp1098
g5
(g9
S'\xe5\xeaP\x0c\xfe/a?'
p1099
tp1100
Rp1101
s(g619
S'prev-action-4'
p1102
tp1103
g5
(g9
S'j\x8c\x1a4\x89%\x95\xbf'
p1104
tp1105
Rp1106
s(S'diff-x-pos--44'
p1107
S'action-4'
p1108
tp1109
g5
(g9
S'\xeb\x9e\xa0H\x99l\x88?'
p1110
tp1111
Rp1112
s(S'diff-x-pos--100'
p1113
S'action-4'
p1114
tp1115
g5
(g9
S'[\xe9!\xb1\x83ob?'
p1116
tp1117
Rp1118
s(S'diff-x-pos--32'
p1119
S'prev-action-1'
p1120
tp1121
g5
(g9
S'\x90\xbf\xd0=\x1e\xc1q\xbf'
p1122
tp1123
Rp1124
s(S'diff-x-pos--43'
p1125
S'prev-action-1'
p1126
tp1127
g5
(g9
S'\x10%\xed\x96\x1f\x97\x92?'
p1128
tp1129
Rp1130
s(S'diff-x-pos--81'
p1131
S'prev-action-4'
p1132
tp1133
g5
(g9
S'\x96\xe9\xceKz\xdbF?'
p1134
tp1135
Rp1136
s(S'diff-x-pos--96'
p1137
S'prev-action-1'
p1138
tp1139
g5
(g9
S'\xb9~B}\xde\xc3R\xbf'
p1140
tp1141
Rp1142
s(g174
S'object-0-x-12'
p1143
tp1144
g5
(g9
S'd\xbes\x1d1\xbe\xa7?'
p1145
tp1146
Rp1147
s(S'diff-x-pos-6'
p1148
S'prev-action-1'
p1149
tp1150
g5
(g9
S'\x14^\x7f\xd3\xb1\xd2\x94\xbf'
p1151
tp1152
Rp1153
s(g561
S'action-3'
p1154
tp1155
g5
(g9
S'L\xe6\xb2\xfe\xfe\xeai?'
p1156
tp1157
Rp1158
s(S'action-1'
p1159
S'object-1-x-124'
p1160
tp1161
g5
(g9
S'\xe7\xfb\x13\x7f\xdb\x05\xa0?'
p1162
tp1163
Rp1164
s(S'diff-x-pos--25'
p1165
S'prev-action-1'
p1166
tp1167
g5
(g9
S'\xdf\x95\xd1\xb1~_}\xbf'
p1168
tp1169
Rp1170
s(S'diff-x-pos-58'
p1171
S'prev-action-4'
p1172
tp1173
g5
(g9
S'SPZ\xd7\x16\x00:?'
p1174
tp1175
Rp1176
s(S'diff-x-pos-43'
p1177
S'prev-action-1'
p1178
tp1179
g5
(g9
S'\xfe\xdap\xc1\xfa\x8bK?'
p1180
tp1181
Rp1182
s(S'action-1'
p1183
S'object-1-x-84'
p1184
tp1185
g5
(g9
S'\xda\xf8\x03Z\xcd\x94\xb2?'
p1186
tp1187
Rp1188
s(S'diff-x-pos-1'
p1189
S'action-1'
p1190
tp1191
g5
(g9
S'\xb8\xa50=+=\x80\xbf'
p1192
tp1193
Rp1194
s(S'action-1'
p1195
S'object-1-x-108'
p1196
tp1197
g5
(g9
S'\xec<m\x91\x04\xc7\xa9?'
p1198
tp1199
Rp1200
s(S'diff-x-pos--90'
p1201
S'action-3'
p1202
tp1203
g5
(g9
S'\xaes\x9cq/\xc80?'
p1204
tp1205
Rp1206
s(S'diff-x-pos-40'
p1207
S'prev-action-4'
p1208
tp1209
g5
(g9
S'\xadYZ\xa3\x82\x06l?'
p1210
tp1211
Rp1212
s(S'diff-x-pos--21'
p1213
S'action-1'
p1214
tp1215
g5
(g9
S'aDo\xd6\x8aG\x85?'
p1216
tp1217
Rp1218
s(g57
S'action-4'
p1219
tp1220
g5
(g9
S's}\xb3\x17\xa6\x7f\x9c\xbf'
p1221
tp1222
Rp1223
s(g492
S'prev-action-4'
p1224
tp1225
g5
(g9
S'9{\xd0\xdff\x02\x8d\xbf'
p1226
tp1227
Rp1228
s(g15
g1208
tp1229
g5
(g9
S's\xd6\xa7\x97\x99]\xf2?'
p1230
tp1231
Rp1232
s(S'action-1'
p1233
S'object-1-x-64'
p1234
tp1235
g5
(g9
S'~\t\t\xbe2\x01\xb7?'
p1236
tp1237
Rp1238
s(S'diff-x-pos--47'
p1239
S'action-1'
p1240
tp1241
g5
(g9
S'\x9dM\xca\xc8\xc4\x15\x80?'
p1242
tp1243
Rp1244
s(S'object-0-dx--1'
p1245
S'prev-action-1'
p1246
tp1247
g5
(g9
S'p!clb\x99\xa9?'
p1248
tp1249
Rp1250
s(S'diff-x-pos-33'
p1251
S'prev-action-3'
p1252
tp1253
g5
(g9
S'}p\x99ot\x0bj?'
p1254
tp1255
Rp1256
s(S'action-4'
p1257
S'object-1-x-104'
p1258
tp1259
g5
(g9
S'\xf6\x15\x82>\x08\r\x91\xbf'
p1260
tp1261
Rp1262
s(S'diff-x-pos--8'
p1263
S'prev-action-4'
p1264
tp1265
g5
(g9
S'\x9bfG\xdd\xe4\x02v\xbf'
p1266
tp1267
Rp1268
s(S'action-3'
p1269
S'object-0-x-48'
p1270
tp1271
g5
(g9
S'"S\xf6\x0c<\xaa\xc1?'
p1272
tp1273
Rp1274
s(S'diff-x-pos--11'
p1275
S'prev-action-4'
p1276
tp1277
g5
(g9
S'-\x91\xe7\xe5\xb6\x8d{\xbf'
p1278
tp1279
Rp1280
s(S'diff-x-pos--39'
p1281
S'action-3'
p1282
tp1283
g5
(g9
S'h{I\xa1X\xdc\x9b?'
p1284
tp1285
Rp1286
sS'object-1-y-12'
p1287
g5
(g9
S'\xcaB\xedYZ9\xe6?'
p1288
tp1289
Rp1290
s(S'object-0-dx-1'
p1291
S'action-3'
p1292
tp1293
g5
(g9
S'EO\x7f\xdb\xd0\xa5\xcd?'
p1294
tp1295
Rp1296
s(S'diff-x-pos--86'
p1297
S'action-3'
p1298
tp1299
g5
(g9
S'\xe2V#q.O<?'
p1300
tp1301
Rp1302
s(g283
S'action-3'
p1303
tp1304
g5
(g9
S'^\xbbbf\xf0\xb5\x88?'
p1305
tp1306
Rp1307
s(S'diff-x-pos-9'
p1308
S'action-4'
p1309
tp1310
g5
(g9
S'Yz\xf9Zi\xe8\x97\xbf'
p1311
tp1312
Rp1313
s(S'action-3'
p1314
S'object-0-x-96'
p1315
tp1316
g5
(g9
S'\xdc\xa3\x17\nw\xf5\xbe?'
p1317
tp1318
Rp1319
s(S'diff-x-pos--98'
p1320
S'action-4'
p1321
tp1322
g5
(g9
S'\x85\xd2y\xf923i?'
p1323
tp1324
Rp1325
s(S'diff-x-pos--58'
p1326
S'prev-action-4'
p1327
tp1328
g5
(g9
S'B\xdd%\x93\xaa\xe9\x92?'
p1329
tp1330
Rp1331
s(S'diff-x-pos-60'
p1332
S'prev-action-4'
p1333
tp1334
g5
(g9
S'\xe8J\x9c\x99(Mj\xbf'
p1335
tp1336
Rp1337
sS'object-1-y-16'
p1338
g5
(g9
S'\xb1\xc09\xacK\x85\xe4?'
p1339
tp1340
Rp1341
s(S'diff-x-pos-65'
p1342
S'prev-action-3'
p1343
tp1344
g5
(g9
S'\x1f\xed\xf4l\xf7\x7f\x02\xbf'
p1345
tp1346
Rp1347
s(S'diff-x-pos-37'
p1348
S'prev-action-3'
p1349
tp1350
g5
(g9
S'*\x11z6\x7f\xa1\x83?'
p1351
tp1352
Rp1353
s(g232
S'prev-action-3'
p1354
tp1355
g5
(g9
S'T\x01\xf2\x1do\xe7U?'
p1356
tp1357
Rp1358
s(g393
S'prev-action-4'
p1359
tp1360
g5
(g9
S'lXD\xedUd\x83\xbf'
p1361
tp1362
Rp1363
s(g1107
S'prev-action-1'
p1364
tp1365
g5
(g9
S'T\xc8\x18\xed\xd9\xde}?'
p1366
tp1367
Rp1368
s(S'action-1'
p1369
S'object-0-x-60'
p1370
tp1371
g5
(g9
S'U\x88`\x8aSB\xc3?'
p1372
tp1373
Rp1374
s(S'diff-x-pos--92'
p1375
S'prev-action-3'
p1376
tp1377
g5
(g9
S'^\x18\x06\x86+;]\xbf'
p1378
tp1379
Rp1380
s(S'diff-x-pos-52'
p1381
S'action-3'
p1382
tp1383
g5
(g9
S':\xd2\x90\xcb\x80\xcc{?'
p1384
tp1385
Rp1386
s(g1233
S'prev-action-3'
p1387
tp1388
g5
(g9
S'\xb8\xf7ti\xc0\xd8\xf1?'
p1389
tp1390
Rp1391
s(S'diff-x-pos-59'
p1392
S'action-1'
p1393
tp1394
g5
(g9
S'86LM\xc2<r?'
p1395
tp1396
Rp1397
s(S'diff-x-pos-41'
p1398
S'action-1'
p1399
tp1400
g5
(g9
S'\xd8\xe2\xac7[xk?'
p1401
tp1402
Rp1403
s(S'diff-x-pos-48'
p1404
g508
tp1405
g5
(g9
S'v\x17\xee1;ZP?'
p1406
tp1407
Rp1408
s(S'diff-x-pos--104'
p1409
S'prev-action-1'
p1410
tp1411
g5
(g9
S'\xa0Lq,\xaa\xf9\xfe>'
p1412
tp1413
Rp1414
sS'object-1-x-96'
p1415
g5
(g9
S'\xb1\xeb\x97\x92+1\xb7?'
p1416
tp1417
Rp1418
s(S'diff-x-pos-5'
p1419
S'action-3'
p1420
tp1421
g5
(g9
S'"-\x18\xf78\x1b{\xbf'
p1422
tp1423
Rp1424
s(S'action-4'
p1425
g508
tp1426
g5
(g9
S'\x9eP/\xa9\x8d:\xf2?'
p1427
tp1428
Rp1429
s(S'action-1'
p1430
S'object-1-x-68'
p1431
tp1432
g5
(g9
S'\x81\x1b\x8a\xc5f~\xb5?'
p1433
tp1434
Rp1435
s(S'diff-x-pos-27'
p1436
S'prev-action-1'
p1437
tp1438
g5
(g9
S'\x943\xf7\xe0d\xebg?'
p1439
tp1440
Rp1441
s(S'diff-x-pos-13'
p1442
S'prev-action-1'
p1443
tp1444
g5
(g9
S'\xe9\xaa\xa2=\xdb\x17\x84\xbf'
p1445
tp1446
Rp1447
s(g45
g504
tp1448
g5
(g9
S'm\xd0 \xa0\x9b\xc6\xd6?'
p1449
tp1450
Rp1451
s(S'diff-x-pos--49'
p1452
S'action-4'
p1453
tp1454
g5
(g9
S'\xff\x98^\xbe\xa2\xb5|?'
p1455
tp1456
Rp1457
s(S'diff-x-pos--103'
p1458
S'action-3'
p1459
tp1460
g5
(g9
S'\xc4\x11\x92\xe3\xe3\xce\\?'
p1461
tp1462
Rp1463
s(S'diff-x-pos--75'
p1464
S'action-1'
p1465
tp1466
g5
(g9
S'\x14\x94\x00\x9b\x1d[\x81?'
p1467
tp1468
Rp1469
s(S'diff-x-pos--46'
p1470
S'action-4'
p1471
tp1472
g5
(g9
S'\x06\xa4\xfcK\x89\x0b\x97?'
p1473
tp1474
Rp1475
s(S'diff-x-pos--23'
p1476
S'prev-action-1'
p1477
tp1478
g5
(g9
S'\xc2}\xae\xea\x1cI\x86\xbf'
p1479
tp1480
Rp1481
s(S'diff-x-pos--58'
p1482
S'prev-action-3'
p1483
tp1484
g5
(g9
S'[\xe7\xc4\xf7\x17<\x8c?'
p1485
tp1486
Rp1487
s(S'diff-x-pos-56'
p1488
S'prev-action-4'
p1489
tp1490
g5
(g9
S'\x1e\xa9C\x18\xfe\xd4\x7f?'
p1491
tp1492
Rp1493
s(S'action-3'
p1494
S'object-1-x-104'
p1495
tp1496
g5
(g9
S'\xf8N\x0b\t=\x82\xa3?'
p1497
tp1498
Rp1499
sS'object-0-x-56'
p1500
g5
(g9
S'\xbf\x1f\xe2\xf4w\n\xdd?'
p1501
tp1502
Rp1503
s(S'diff-x-pos--3'
p1504
S'action-1'
p1505
tp1506
g5
(g9
S'=Uq\\0\xc0\x80\xbf'
p1507
tp1508
Rp1509
sS'object-0-x-52'
p1510
g5
(g9
S'\x8b\xc2D\xf1.>\xdb?'
p1511
tp1512
Rp1513
s(S'diff-x-pos--12'
p1514
S'action-1'
p1515
tp1516
g5
(g9
S'\x13\xda\xe2\x0ek\xa1t\xbf'
p1517
tp1518
Rp1519
sS'diff-x-pos--15'
p1520
g5
(g9
S'Y*E[\xdb\x1f\x91\xbf'
p1521
tp1522
Rp1523
s(S'diff-x-pos-15'
p1524
S'action-3'
p1525
tp1526
g5
(g9
S"\xf2\xc0\x93\x1d\x98'`?"
p1527
tp1528
Rp1529
s(S'diff-x-pos--29'
p1530
S'action-1'
p1531
tp1532
g5
(g9
S'\x1cS\xcfS\xb2{\x88?'
p1533
tp1534
Rp1535
s(S'diff-x-pos--52'
p1536
S'action-1'
p1537
tp1538
g5
(g9
S'\xbf\xbf\xc7\xef\x1fK\x91?'
p1539
tp1540
Rp1541
s(S'diff-x-pos--110'
p1542
S'action-3'
p1543
tp1544
g5
(g9
S'\xcd/&BT\x11s?'
p1545
tp1546
Rp1547
s(S'diff-x-pos--62'
p1548
S'action-1'
p1549
tp1550
g5
(g9
S'22\xf1xbE\xa7?'
p1551
tp1552
Rp1553
s(g1024
S'prev-action-1'
p1554
tp1555
g5
(g9
S'\x80\xa7\xc1\x89U\xcd\x8f\xbf'
p1556
tp1557
Rp1558
s(S'diff-x-pos-18'
p1559
S'prev-action-3'
p1560
tp1561
g5
(g9
S'T\xa9V}\xddSp\xbf'
p1562
tp1563
Rp1564
s(S'diff-x-pos--9'
p1565
S'action-4'
p1566
tp1567
g5
(g9
S'\xed\xf3\xb2|\x0b\x85\x93\xbf'
p1568
tp1569
Rp1570
s(S'action-1'
p1571
S'object-0-x-104'
p1572
tp1573
g5
(g9
S'Nr\xe0\x8e_\xbf\xbc?'
p1574
tp1575
Rp1576
s(S'diff-x-pos--64'
p1577
S'prev-action-3'
p1578
tp1579
g5
(g9
S'\x8e\x1a\xf6\xaf\xb4Za?'
p1580
tp1581
Rp1582
s(S'diff-x-pos-21'
p1583
S'action-1'
p1584
tp1585
g5
(g9
S'\xdfu\xf2\xf42xu\xbf'
p1586
tp1587
Rp1588
s(S'diff-x-pos--101'
p1589
S'prev-action-1'
p1590
tp1591
g5
(g9
S'G\xea\xd2\x00\xac@p?'
p1592
tp1593
Rp1594
s(S'diff-x-pos--41'
p1595
S'action-1'
p1596
tp1597
g5
(g9
S'\x11B=\x92\xa8\xc4\x8d?'
p1598
tp1599
Rp1600
s(g168
S'prev-action-3'
p1601
tp1602
g5
(g9
S'\xf0?a\xb9*L\x92?'
p1603
tp1604
Rp1605
s(S'diff-x-pos--76'
p1606
S'prev-action-4'
p1607
tp1608
g5
(g9
S'\xa6Z\x9f@\xe0w\x90?'
p1609
tp1610
Rp1611
s(S'diff-x-pos-46'
p1612
S'prev-action-4'
p1613
tp1614
g5
(g9
S'f\x11\x1f<\x95s\x80?'
p1615
tp1616
Rp1617
s(S'diff-x-pos--87'
p1618
S'prev-action-3'
p1619
tp1620
g5
(g9
S'`\xbcz\xf5t_[?'
p1621
tp1622
Rp1623
s(S'diff-x-pos--84'
p1624
S'action-1'
p1625
tp1626
g5
(g9
S'\x1e\xfa 8*_n?'
p1627
tp1628
Rp1629
s(S'diff-x-pos--36'
p1630
S'action-4'
p1631
tp1632
g5
(g9
S'\\~;\xe2\x16Z8?'
p1633
tp1634
Rp1635
s(g1177
S'action-4'
p1636
tp1637
g5
(g9
S'\xfb\xec\xc8\xc7ShO\xbf'
p1638
tp1639
Rp1640
sS'object-1-y-4'
p1641
g5
(g9
S'\xf7gO\xfd\x14E\xa8?'
p1642
tp1643
Rp1644
s(S'diff-x-pos--108'
p1645
S'prev-action-3'
p1646
tp1647
g5
(g9
S'\x88\x8b\xd4;\xcc\x85\x14?'
p1648
tp1649
Rp1650
s(S'diff-x-pos--34'
p1651
S'prev-action-4'
p1652
tp1653
g5
(g9
S'\xca\xc8\xe2P\xe4C\x86?'
p1654
tp1655
Rp1656
s(S'diff-x-pos-7'
p1657
S'action-4'
p1658
tp1659
g5
(g9
S'\xe8\xd3\xb1\x7f\xccP\x89\xbf'
p1660
tp1661
Rp1662
s(S'diff-x-pos-22'
p1663
S'action-4'
p1664
tp1665
g5
(g9
S'\xe5\xd8\x11;$\x9d\x8c\xbf'
p1666
tp1667
Rp1668
s(g87
S'action-4'
p1669
tp1670
g5
(g9
S'\xd7\xab\xa8\xdd\t9Q\xbf'
p1671
tp1672
Rp1673
s(S'diff-x-pos--20'
p1674
S'prev-action-3'
p1675
tp1676
g5
(g9
S'\xefAZ\xb3\x7f"\x8b?'
p1677
tp1678
Rp1679
s(S'diff-x-pos-54'
p1680
S'prev-action-1'
p1681
tp1682
g5
(g9
S'S\x0caJ\xd31\x99?'
p1683
tp1684
Rp1685
s(S'diff-x-pos-8'
p1686
S'prev-action-3'
p1687
tp1688
g5
(g9
S'\xd7\xe6\xe2P3>\x8e\xbf'
p1689
tp1690
Rp1691
s(S'diff-x-pos--101'
p1692
S'action-1'
p1693
tp1694
g5
(g9
S'\x95}N\x15\x97pp\xbf'
p1695
tp1696
Rp1697
s(S'diff-x-pos--110'
p1698
S'action-4'
p1699
tp1700
g5
(g9
S'|\xdc\x87\x9e\xc3\xfcK?'
p1701
tp1702
Rp1703
s(S'diff-x-pos--72'
p1704
g1159
tp1705
g5
(g9
S'\xa3\x11\xd4b\xe9\xc3\x7f?'
p1706
tp1707
Rp1708
s(S'diff-x-pos--99'
p1709
S'prev-action-3'
p1710
tp1711
g5
(g9
S'\xcd\xdc\x15~\xa226\xbf'
p1712
tp1713
Rp1714
s(S'diff-x-pos--102'
p1715
S'prev-action-1'
p1716
tp1717
g5
(g9
S'\xe2\xfa8\xccI\x15d?'
p1718
tp1719
Rp1720
s(S'diff-x-pos--19'
p1721
S'prev-action-3'
p1722
tp1723
g5
(g9
S'G\xc2:\x96\x8cj\x99?'
p1724
tp1725
Rp1726
s(S'diff-x-pos--88'
p1727
S'action-4'
p1728
tp1729
g5
(g9
S'F\xdc\x10;\r0Y?'
p1730
tp1731
Rp1732
s(S'action-4'
p1733
S'object-1-x-60'
p1734
tp1735
g5
(g9
S'\x8b\x8c\xc2\xd4\t\xd5d?'
p1736
tp1737
Rp1738
s(S'diff-x-pos-47'
p1739
g1233
tp1740
g5
(g9
S'\xbf8\x89\xd30\xea\x90?'
p1741
tp1742
Rp1743
s(S'diff-x-pos--35'
p1744
S'prev-action-3'
p1745
tp1746
g5
(g9
S'\xf2:\xfcR\xe6\xe0Q?'
p1747
tp1748
Rp1749
s(S'diff-x-pos--89'
p1750
S'prev-action-4'
p1751
tp1752
g5
(g9
S'\xb9\xa7W\xa9\xee:b?'
p1753
tp1754
Rp1755
s(S'diff-x-pos--95'
p1756
S'action-1'
p1757
tp1758
g5
(g9
S'\x06\x96\xe7\xdaeFp?'
p1759
tp1760
Rp1761
s(S'diff-x-pos--76'
p1762
S'prev-action-3'
p1763
tp1764
g5
(g9
S'^\x8c\xb0\xa8Cct\xbf'
p1765
tp1766
Rp1767
s(S'diff-x-pos--11'
p1768
S'prev-action-1'
p1769
tp1770
g5
(g9
S'\xfd\xfa\xe4\xf0\xaeS\x95\xbf'
p1771
tp1772
Rp1773
s(S'diff-x-pos--16'
p1774
S'action-1'
p1775
tp1776
g5
(g9
S'|\x96\x05\xd7Y;z?'
p1777
tp1778
Rp1779
s(S'diff-x-pos--10'
p1780
S'prev-action-4'
p1781
tp1782
g5
(g9
S'\xbb\xfa\xcc\x8fi\xa2\x94\xbf'
p1783
tp1784
Rp1785
s(S'diff-x-pos-50'
p1786
S'prev-action-4'
p1787
tp1788
g5
(g9
S'K\x1f\xe6\xa5y7\x82?'
p1789
tp1790
Rp1791
s(S'diff-x-pos--6'
p1792
S'prev-action-3'
p1793
tp1794
g5
(g9
S'[y\x16\x8b\xee8\x81\xbf'
p1795
tp1796
Rp1797
s(S'diff-x-pos-53'
p1798
g1246
tp1799
g5
(g9
S'V\x02\xcfa\x83\xdaQ\xbf'
p1800
tp1801
Rp1802
s(S'diff-x-pos--48'
p1803
S'action-1'
p1804
tp1805
g5
(g9
S'\xac\x91\xbc\x92\xba\xb7\x96?'
p1806
tp1807
Rp1808
s(S'diff-x-pos--45'
p1809
S'action-3'
p1810
tp1811
g5
(g9
S'\xb3#\x9f\x1a\xc3\xf9\x81?'
p1812
tp1813
Rp1814
s(S'diff-x-pos--66'
p1815
S'prev-action-3'
p1816
tp1817
g5
(g9
S'k$\x80CU>\x93?'
p1818
tp1819
Rp1820
s(S'diff-x-pos--77'
p1821
S'action-1'
p1822
tp1823
g5
(g9
S'\xed\x1d\x1f\xdb\x0c\xad\x84?'
p1824
tp1825
Rp1826
s(g39
S'prev-action-3'
p1827
tp1828
g5
(g9
S'\xb2\xfb\x1c:\xfd\x8dx\xbf'
p1829
tp1830
Rp1831
s(S'diff-x-pos-36'
p1832
S'prev-action-1'
p1833
tp1834
g5
(g9
S'k\xae\xff\xc1D\xe7^?'
p1835
tp1836
Rp1837
s(S'action-1'
p1838
S'object-0-x-32'
p1839
tp1840
g5
(g9
S'\x86\x13\xab6\x968\xc0?'
p1841
tp1842
Rp1843
s(S'diff-x-pos-35'
p1844
S'prev-action-4'
p1845
tp1846
g5
(g9
S'xp\xec&\x0e\x86R\xbf'
p1847
tp1848
Rp1849
s(S'diff-x-pos-27'
p1850
S'prev-action-4'
p1851
tp1852
g5
(g9
S'HBaH\x955V\xbf'
p1853
tp1854
Rp1855
s(S'diff-x-pos--45'
p1856
S'prev-action-3'
p1857
tp1858
g5
(g9
S'\x13zj\xbe\x9eP\x87?'
p1859
tp1860
Rp1861
s(S'diff-x-pos-52'
p1862
S'action-4'
p1863
tp1864
g5
(g9
S'L$\xa5du\x9a\x81?'
p1865
tp1866
Rp1867
s(S'diff-x-pos--48'
p1868
S'prev-action-1'
p1869
tp1870
g5
(g9
S'\xd6\x9d\x8c\xfcc\xe4\x80?'
p1871
tp1872
Rp1873
s(S'action-3'
p1874
S'object-0-x-112'
p1875
tp1876
g5
(g9
S'H\x86\x1f!\xe7\xec\xbe?'
p1877
tp1878
Rp1879
s(S'diff-x-pos--60'
p1880
S'action-1'
p1881
tp1882
g5
(g9
S'\x89c\x89\x85\x850\x96?'
p1883
tp1884
Rp1885
s(S'diff-x-pos--10'
p1886
S'action-4'
p1887
tp1888
g5
(g9
S'H>\xcd0\xb5P\x95\xbf'
p1889
tp1890
Rp1891
s(S'object-1-dx--1'
p1892
g508
tp1893
g5
(g9
S'v\x82\x15J\xde\x94\xb7\xbf'
p1894
tp1895
Rp1896
s(S'diff-x-pos--40'
p1897
S'action-4'
p1898
tp1899
g5
(g9
S'\x93\xaa{\xb1\xe9cd?'
p1900
tp1901
Rp1902
s(S'action-4'
p1903
S'object-1-x-120'
p1904
tp1905
g5
(g9
S'\x1fp\xdc\x82\x9ed\xa6?'
p1906
tp1907
Rp1908
s(S'diff-x-pos-16'
p1909
S'action-1'
p1910
tp1911
g5
(g9
S'M\xe2X/X\\\x8d?'
p1912
tp1913
Rp1914
s(S'diff-x-pos-39'
p1915
S'prev-action-1'
p1916
tp1917
g5
(g9
S'`.\xf4%l\xbfc?'
p1918
tp1919
Rp1920
s(S'diff-x-pos--12'
p1921
S'prev-action-1'
p1922
tp1923
g5
(g9
S'~\xb3\x05\xfdQ\xae\x96\xbf'
p1924
tp1925
Rp1926
s(S'diff-x-pos--102'
p1927
S'action-1'
p1928
tp1929
g5
(g9
S'\xd2\xdf|\x92\xcaVp\xbf'
p1930
tp1931
Rp1932
s(S'diff-x-pos--38'
p1933
S'action-4'
p1934
tp1935
g5
(g9
S'b\x905\x14,\xf3\x93?'
p1936
tp1937
Rp1938
s(S'diff-x-pos--99'
p1939
S'action-3'
p1940
tp1941
g5
(g9
S'\xb8\xde&\x1d\xb2\x86\x04?'
p1942
tp1943
Rp1944
sS'object-0-y-4'
p1945
g5
(g9
S'c\xbdc=\x97\x02\x06@'
p1946
tp1947
Rp1948
s(S'action-4'
p1949
g222
tp1950
g5
(g9
S'q\xc8\xc77T\xf1c\xbf'
p1951
tp1952
Rp1953
sS'diff-x-pos--43'
p1954
g5
(g9
S"`\xfc'\x18\x18%\xa9?"
p1955
tp1956
Rp1957
sg1084
g5
(g9
S'vg\x17\xebIt\xa9?'
p1958
tp1959
Rp1960
sg1595
g5
(g9
S'\xfd\x80\x12\xd9t~\xa0?'
p1961
tp1962
Rp1963
sS'diff-x-pos--40'
p1964
g5
(g9
S'\xee\xa2\xb2{#~\x96?'
p1965
tp1966
Rp1967
sS'diff-x-pos--47'
p1968
g5
(g9
S'\xa9\xd09\x08)\x88\x92?'
p1969
tp1970
Rp1971
sg1470
g5
(g9
S'#\xbc\x96\xfe\n\x17\xac?'
p1972
tp1973
Rp1974
sS'diff-x-pos--45'
p1975
g5
(g9
S'.><\xeag \xa5?'
p1976
tp1977
Rp1978
sg1107
g5
(g9
S'\xf2\xc5\x1a\x91\xf1\xac\xa9?'
p1979
tp1980
Rp1981
s(S'diff-x-pos--1'
p1982
S'prev-action-3'
p1983
tp1984
g5
(g9
S'RI\xd5\xc7\x11\xe1\x8c\xbf'
p1985
tp1986
Rp1987
sg283
g5
(g9
S'\xb04y\xdd\xd7\xb1\xa5?'
p1988
tp1989
Rp1990
sS'diff-x-pos--48'
p1991
g5
(g9
S'\xb7\xbe\x06\xed5(\xa7?'
p1992
tp1993
Rp1994
s(S'diff-x-pos-28'
p1995
S'action-3'
p1996
tp1997
g5
(g9
S'M\xd0\x90\x00\t\xa0k?'
p1998
tp1999
Rp2000
s(S'diff-x-pos--53'
p2001
S'action-3'
p2002
tp2003
g5
(g9
S'\xd0R\xcf\x1a\xc8\x9c\x91?'
p2004
tp2005
Rp2006
s(S'diff-x-pos--57'
p2007
S'prev-action-1'
p2008
tp2009
g5
(g9
S'\xbel\xa2f\xcb\xab\x94?'
p2010
tp2011
Rp2012
s(S'diff-x-pos--108'
p2013
S'action-3'
p2014
tp2015
g5
(g9
S'\x1f[\x19\x0b\x19\x82`\xbf'
p2016
tp2017
Rp2018
s(S'diff-x-pos-53'
p2019
S'action-4'
p2020
tp2021
g5
(g9
S'1\x05yE\x0f\x0b\x83?'
p2022
tp2023
Rp2024
sS'object-0-x-8'
p2025
g5
(g9
S'\x8b\x9d\x8f\xb8\xad\xbf\xc6?'
p2026
tp2027
Rp2028
s(g532
S'prev-action-4'
p2029
tp2030
g5
(g9
S'q\x18}\x8e\x15\x03\x8a?'
p2031
tp2032
Rp2033
s(S'object-1-dx-1'
p2034
S'prev-action-4'
p2035
tp2036
g5
(g9
S'\xdb\x06@\xca\xeb\x88\x94\xbf'
p2037
tp2038
Rp2039
s(S'diff-x-pos-32'
p2040
S'prev-action-3'
p2041
tp2042
g5
(g9
S'\x80#\xe9\xbc\x0f\xf3U?'
p2043
tp2044
Rp2045
s(g64
S'object-0-x-72'
p2046
tp2047
g5
(g9
S'l\xa9^M\xaf\x80\xc3?'
p2048
tp2049
Rp2050
s(S'diff-x-pos--16'
p2051
S'prev-action-4'
p2052
tp2053
g5
(g9
S'\x02\xc9\x0f\x85\xc7|{\xbf'
p2054
tp2055
Rp2056
s(S'diff-x-pos-20'
p2057
S'action-3'
p2058
tp2059
g5
(g9
S'T\xab\x1cAC\t`\xbf'
p2060
tp2061
Rp2062
s(S'diff-x-pos-51'
p2063
S'action-4'
p2064
tp2065
g5
(g9
S'\x10\x01\x9b \x1f\x17j?'
p2066
tp2067
Rp2068
s(S'diff-x-pos--76'
p2069
S'action-4'
p2070
tp2071
g5
(g9
S'6[\xeer%\xdb\x89?'
p2072
tp2073
Rp2074
s(S'diff-x-pos--106'
p2075
S'prev-action-3'
p2076
tp2077
g5
(g9
S'G\xb19\xf8\xdc&e?'
p2078
tp2079
Rp2080
s(g1964
S'action-3'
p2081
tp2082
g5
(g9
S'j\xd1\xd5\xe4`\xa7d\xbf'
p2083
tp2084
Rp2085
s(S'diff-x-pos--28'
p2086
S'prev-action-4'
p2087
tp2088
g5
(g9
S'\xc0i\xc5\xfa\x973h\xbf'
p2089
tp2090
Rp2091
s(g2063
S'prev-action-4'
p2092
tp2093
g5
(g9
S'\xcf\xd6\xae\xbe\xce?\x91?'
p2094
tp2095
Rp2096
s(S'diff-x-pos--107'
p2097
S'prev-action-4'
p2098
tp2099
g5
(g9
S'\xcdO9\xa7\x81bm?'
p2100
tp2101
Rp2102
sS'diff-x-pos-62'
p2103
g5
(g9
S'\xec%K\xeel\xa03?'
p2104
tp2105
Rp2106
s(S'diff-x-pos--64'
p2107
g45
tp2108
g5
(g9
S'\xc2A\x81\x82~\xebu?'
p2109
tp2110
Rp2111
s(S'action-4'
p2112
g768
tp2113
g5
(g9
S'!\x81R\xfd\x91z\xe0?'
p2114
tp2115
Rp2116
s(S'diff-x-pos--83'
p2117
S'action-3'
p2118
tp2119
g5
(g9
S'4\xcf\xe3DZ\xddT?'
p2120
tp2121
Rp2122
s(g585
S'prev-action-4'
p2123
tp2124
g5
(g9
S'\x8co\xfa\xc2*\xda\x89\xbf'
p2125
tp2126
Rp2127
sg1768
g5
(g9
S'\xc1\x03\x1c\xb3=8\xa0\xbf'
p2128
tp2129
Rp2130
s(g1548
S'prev-action-1'
p2131
tp2132
g5
(g9
S',\xaa\xea\n\x8a>\xa0\xbf'
p2133
tp2134
Rp2135
sS'diff-x-pos-66'
p2136
g5
(g9
S')\x84\xdd\xd6|\x13[\xbf'
p2137
tp2138
Rp2139
sg532
g5
(g9
S'\x90KUl\xa75\xa1?'
p2140
tp2141
Rp2142
sg301
g5
(g9
S'\xaa\x91\xc5#t\x06\xa5?'
p2143
tp2144
Rp2145
sg567
g5
(g9
S'r\xfd\xbca\x99\x95\xa0?'
p2146
tp2147
Rp2148
sS'diff-x-pos--35'
p2149
g5
(g9
S'\x0e\x0e\x1e\x92\xdc\x97\x93?'
p2150
tp2151
Rp2152
sg1119
g5
(g9
S'\xb6{\xd5d\xb9\n\x99?'
p2153
tp2154
Rp2155
sg659
g5
(g9
S'6/<"\xd2\x8d\x99?'
p2156
tp2157
Rp2158
sS'diff-x-pos--30'
p2159
g5
(g9
S'7\xdf\xec\xf1\xb4\x82\xb1?'
p2160
tp2161
Rp2162
sS'diff-x-pos--31'
p2163
g5
(g9
S',1K\xef\x86/\x9a?'
p2164
tp2165
Rp2166
s(S'diff-x-pos-22'
p2167
S'prev-action-1'
p2168
tp2169
g5
(g9
S'\xf9u<a\xcd\xd5\x93\xbf'
p2170
tp2171
Rp2172
sg1933
g5
(g9
S'+E:\xc1\xe7\xc2\xa9?'
p2173
tp2174
Rp2175
sS'diff-x-pos--39'
p2176
g5
(g9
S'\xe1\x0b"\xd8\xd8\xaa\xaf?'
p2177
tp2178
Rp2179
s(S'diff-x-pos--82'
p2180
S'action-3'
p2181
tp2182
g5
(g9
S'`\x87\x88JF\x86y?'
p2183
tp2184
Rp2185
sS'diff-x-pos-29'
p2186
g5
(g9
S'\xda\xcb\xcbJdy\\?'
p2187
tp2188
Rp2189
sS'diff-x-pos-28'
p2190
g5
(g9
S'\xa0\xd8{/\xf2"t\xbf'
p2191
tp2192
Rp2193
sg1850
g5
(g9
S'f\xd4I\x80\xd1\x9bv\xbf'
p2194
tp2195
Rp2196
sg393
g5
(g9
S'\x15\x8b\xbf@RP\x8a\xbf'
p2197
tp2198
Rp2199
sS'diff-x-pos-25'
p2200
g5
(g9
S'w\xd8\n\xd3\xb3\xb4\x80\xbf'
p2201
tp2202
Rp2203
sS'diff-x-pos-24'
p2204
g5
(g9
S'\x8a\xa7\x06\x1d\x9b\x0c\x94\xbf'
p2205
tp2206
Rp2207
sS'diff-x-pos-23'
p2208
g5
(g9
S'}\rZ \xbe\xb8\x8b\xbf'
p2209
tp2210
Rp2211
sg1663
g5
(g9
S'}. \x1f\xae\xe1\x99\xbf'
p2212
tp2213
Rp2214
s(S'diff-x-pos-62'
p2215
S'prev-action-4'
p2216
tp2217
g5
(g9
S')\xe4\xb1\xb8\xb8\xdc-\xbf'
p2218
tp2219
Rp2220
sS'diff-x-pos-20'
p2221
g5
(g9
S'\xcf\xa7\xafN\xd3f\x9c\xbf'
p2222
tp2223
Rp2224
sS'diff-x-pos--18'
p2225
g5
(g9
S'V\xf4\x1b\xeb\x18\xaf\x83\xbf'
p2226
tp2227
Rp2228
s(S'diff-x-pos--73'
p2229
S'prev-action-3'
p2230
tp2231
g5
(g9
S'\xa4b\x9d\xa8\xd7\x85y?'
p2232
tp2233
Rp2234
s(S'diff-x-pos-46'
p2235
S'action-3'
p2236
tp2237
g5
(g9
S'\xb0*\xa1\xb9\xb4\x8cu?'
p2238
tp2239
Rp2240
s(g816
g1292
tp2241
g5
(g9
S'\x99u\x1a\xdc\x11\x12|?'
p2242
tp2243
Rp2244
s(g659
S'prev-action-4'
p2245
tp2246
g5
(g9
S'\x8a\x9a6\x9a\x1d\xb2\x87?'
p2247
tp2248
Rp2249
s(S'diff-x-pos--17'
p2250
S'prev-action-1'
p2251
tp2252
g5
(g9
S'T\xd2\xc3\xae\xb3\x17\x8f\xbf'
p2253
tp2254
Rp2255
s(S'diff-x-pos-5'
p2256
S'prev-action-3'
p2257
tp2258
g5
(g9
S'\xecn\xbdt\x8b\xe0\x88\xbf'
p2259
tp2260
Rp2261
s(S'diff-x-pos--65'
p2262
S'action-1'
p2263
tp2264
g5
(g9
S'U\xa8c\x1a8\xc2\x91?'
p2265
tp2266
Rp2267
s(S'diff-x-pos--29'
p2268
S'action-3'
p2269
tp2270
g5
(g9
S'\xf6CMo\xd2\x00i?'
p2271
tp2272
Rp2273
s(S'diff-x-pos-0'
p2274
S'prev-action-3'
p2275
tp2276
g5
(g9
S'\xa15\xca\x16!\ra?'
p2277
tp2278
Rp2279
s(S'diff-x-pos-41'
p2280
S'prev-action-1'
p2281
tp2282
g5
(g9
S'\xd4\xa5\xf1\x8f\x18\xfc\x87?'
p2283
tp2284
Rp2285
s(S'diff-x-pos-59'
p2286
S'prev-action-1'
p2287
tp2288
g5
(g9
S'\xc0\x0c\x1a\xeb1\x1d)?'
p2289
tp2290
Rp2291
s(S'diff-x-pos--20'
p2292
S'prev-action-1'
p2293
tp2294
g5
(g9
S')\n\x12\x9d\x12\x7f\x85\xbf'
p2295
tp2296
Rp2297
s(S'diff-x-pos--79'
p2298
S'prev-action-1'
p2299
tp2300
g5
(g9
S'\xc2N\xb8x\xf3\xb3n\xbf'
p2301
tp2302
Rp2303
s(S'diff-x-pos-69'
p2304
S'prev-action-1'
p2305
tp2306
g5
(g9
S'\x85\x8d\xbc\xa7]\x07d?'
p2307
tp2308
Rp2309
s(S'diff-x-pos-12'
p2310
S'action-3'
p2311
tp2312
g5
(g9
S'J2>\xf22,P?'
p2313
tp2314
Rp2315
s(S'diff-x-pos--44'
p2316
S'action-1'
p2317
tp2318
g5
(g9
S'\xfd\xad\xf0\xd9lW\x96?'
p2319
tp2320
Rp2321
s(g839
S'prev-action-4'
p2322
tp2323
g5
(g9
S'\x02c\xd7\xde\xb9\x93\x8c?'
p2324
tp2325
Rp2326
s(S'diff-x-pos--100'
p2327
S'action-1'
p2328
tp2329
g5
(g9
S'\xcc\x95\x8bJ=\xdek?'
p2330
tp2331
Rp2332
s(S'diff-x-pos--81'
p2333
S'prev-action-1'
p2334
tp2335
g5
(g9
S'7\xa2|\xc6\xe8^s?'
p2336
tp2337
Rp2338
s(S'diff-x-pos-6'
p2339
S'action-3'
p2340
tp2341
g5
(g9
S'\xfa^\x8c\xaa\x1b\xb7\x89\xbf'
p2342
tp2343
Rp2344
s(g1332
S'action-4'
p2345
tp2346
g5
(g9
S'\xc4l\x90\x897zM?'
p2347
tp2348
Rp2349
s(g846
S'action-4'
p2350
tp2351
g5
(g9
S'\xf6\xf6\x03xw[\x8a?'
p2352
tp2353
Rp2354
s(S'diff-x-pos--98'
p2355
S'prev-action-4'
p2356
tp2357
g5
(g9
S'\x1f\x7fsq=~G?'
p2358
tp2359
Rp2360
s(S'diff-x-pos-58'
p2361
S'prev-action-1'
p2362
tp2363
g5
(g9
S'\xa9-\xe5s\xf0\xaao?'
p2364
tp2365
Rp2366
s(S'diff-x-pos--113'
p2367
S'action-1'
p2368
tp2369
g5
(g9
S'\x1f\x15\xed\xaf\xd99=\xbf'
p2370
tp2371
Rp2372
s(S'diff-x-pos-50'
p2373
S'action-3'
p2374
tp2375
g5
(g9
S'\x1do\xd6K\xbc\xa9{?'
p2376
tp2377
Rp2378
s(g289
S'prev-action-3'
p2379
tp2380
g5
(g9
S'4\xb1xo\xe1\x15s\xbf'
p2381
tp2382
Rp2383
s(S'diff-x-pos--73'
p2384
S'prev-action-4'
p2385
tp2386
g5
(g9
S'\xe3\xc8\x18)\x13]\x88?'
p2387
tp2388
Rp2389
s(S'diff-x-pos--89'
p2390
S'action-3'
p2391
tp2392
g5
(g9
S'\x1f\xc5\xfb\x0b\xa836?'
p2393
tp2394
Rp2395
s(S'diff-x-pos-44'
p2396
g665
tp2397
g5
(g9
S'\x95>\x90\xfb\x05Y\x83?'
p2398
tp2399
Rp2400
s(S'diff-x-pos--70'
p2401
S'action-4'
p2402
tp2403
g5
(g9
S'\xca\x11\x94\xf6\xc7\x1at?'
p2404
tp2405
Rp2406
s(S'action-4'
p2407
S'object-1-x-64'
p2408
tp2409
g5
(g9
S'\x1ap\xb9g\x01\x14\x87?'
p2410
tp2411
Rp2412
s(S'action-1'
p2413
S'object-0-x-96'
p2414
tp2415
g5
(g9
S'}\xf9lj\xa6c\xbd?'
p2416
tp2417
Rp2418
s(S'diff-x-pos--91'
p2419
S'prev-action-4'
p2420
tp2421
g5
(g9
S'2\xc6\xb4\xb3\xde\xd65?'
p2422
tp2423
Rp2424
s(S'diff-x-pos-51'
p2425
S'prev-action-3'
p2426
tp2427
g5
(g9
S'\xb0&\xcb\xbfT\x1d.\xbf'
p2428
tp2429
Rp2430
s(g831
S'action-1'
p2431
tp2432
g5
(g9
S'\xcd\xcd\xc9\xe0+\x91\xa0?'
p2433
tp2434
Rp2435
s(S'diff-x-pos--78'
p2436
S'prev-action-1'
p2437
tp2438
g5
(g9
S'NL$\x0e\\\xc7d?'
p2439
tp2440
Rp2441
s(S'action-1'
p2442
S'object-0-x-16'
p2443
tp2444
g5
(g9
S'b\x11\x8eY`\x8a\xb4?'
p2445
tp2446
Rp2447
s(S'diff-x-pos--25'
p2448
S'action-1'
p2449
tp2450
g5
(g9
S'<\x9d4\xd6\x00\xfc\xe5\xbe'
p2451
tp2452
Rp2453
s(S'diff-x-pos-7'
p2454
S'prev-action-3'
p2455
tp2456
g5
(g9
S'\x9d\xbb\x93\xa4Q\x94\x8d\xbf'
p2457
tp2458
Rp2459
s(S'diff-x-pos-60'
p2460
S'action-3'
p2461
tp2462
g5
(g9
S'8EG(\xab\xe7h\xbf'
p2463
tp2464
Rp2465
s(S'diff-x-pos--57'
p2466
S'action-3'
p2467
tp2468
g5
(g9
S'g\xa0\xea\x80\xb6Y\x85?'
p2469
tp2470
Rp2471
s(S'diff-x-pos--43'
p2472
S'action-1'
p2473
tp2474
g5
(g9
S'\xa1>\xb0g\x8e\xc3\x90?'
p2475
tp2476
Rp2477
s(g1016
S'prev-action-1'
p2478
tp2479
g5
(g9
S'\xbb\xf0\x84\xe5\xe1\x86~\xbf'
p2480
tp2481
Rp2482
s(S'diff-x-pos--84'
p2483
S'prev-action-4'
p2484
tp2485
g5
(g9
S'\xce\xa8\xc5?M\xc67\xbf'
p2486
tp2487
Rp2488
s(S'diff-x-pos--78'
p2489
S'action-1'
p2490
tp2491
g5
(g9
S'\xa2\x9b\xbf\xe6\xff\xaas\xbf'
p2492
tp2493
Rp2494
s(S'diff-x-pos--44'
p2495
S'prev-action-4'
p2496
tp2497
g5
(g9
S'\xc8\xbbA\xce\xb3\xee\x92?'
p2498
tp2499
Rp2500
s(S'diff-x-pos--11'
p2501
S'action-3'
p2502
tp2503
g5
(g9
S'\x17\t\x10\xfa]\xd3e?'
p2504
tp2505
Rp2506
s(S'diff-x-pos--92'
p2507
S'prev-action-4'
p2508
tp2509
g5
(g9
S'(q\xc4s\xd7\xd5h?'
p2510
tp2511
Rp2512
s(S'action-1'
p2513
S'prev-action-0'
p2514
tp2515
g5
(g9
S'\xed\xb9\x90r\x91Y\xd3?'
p2516
tp2517
Rp2518
s(S'diff-x-pos--101'
p2519
S'action-4'
p2520
tp2521
g5
(g9
S'\xc2\x85\x9e\x85-9$?'
p2522
tp2523
Rp2524
s(S'action-4'
p2525
S'object-1-x-108'
p2526
tp2527
g5
(g9
S',\xa1\xbb\xa1k\xaat?'
p2528
tp2529
Rp2530
s(S'diff-x-pos--42'
p2531
S'prev-action-3'
p2532
tp2533
g5
(g9
S'\xa2\\+\xbf\xba\xf21\xbf'
p2534
tp2535
Rp2536
s(S'diff-x-pos-61'
p2537
S'action-4'
p2538
tp2539
g5
(g9
S'M)%\xd5\x8f\xcdl\xbf'
p2540
tp2541
Rp2542
s(S'diff-x-pos--9'
p2543
S'prev-action-3'
p2544
tp2545
g5
(g9
S'$\x94\xde\xc1d\xf4o\xbf'
p2546
tp2547
Rp2548
s(S'action-3'
p2549
S'object-0-x-76'
p2550
tp2551
g5
(g9
S'\x98*<\xaa\xfcU\xc5?'
p2552
tp2553
Rp2554
s(S'diff-x-pos--18'
p2555
S'action-3'
p2556
tp2557
g5
(g9
S'TS\xcb\xfe`\xa5C?'
p2558
tp2559
Rp2560
s(S'diff-x-pos-11'
p2561
S'action-4'
p2562
tp2563
g5
(g9
S'\xe7\xb9t[[F\x90\xbf'
p2564
tp2565
Rp2566
s(S'diff-x-pos-58'
p2567
S'action-1'
p2568
tp2569
g5
(g9
S'\xcd\xd4\xc76?\xc8m?'
p2570
tp2571
Rp2572
s(S'diff-x-pos--46'
p2573
S'action-1'
p2574
tp2575
g5
(g9
S'\xaa\xb2\x13\x87\xc2\xae\x87?'
p2576
tp2577
Rp2578
s(g1996
S'object-0-x-88'
p2579
tp2580
g5
(g9
S'\x8c\xe2&\x9c^d\xc2?'
p2581
tp2582
Rp2583
s(S'diff-x-pos-28'
p2584
S'prev-action-1'
p2585
tp2586
g5
(g9
S'|\xcb\xb0\xb1\xc8_d\xbf'
p2587
tp2588
Rp2589
s(S'diff-x-pos-56'
p2590
S'prev-action-1'
p2591
tp2592
g5
(g9
S'v~\xc4 V\xbad?'
p2593
tp2594
Rp2595
s(g2590
S'action-3'
p2596
tp2597
g5
(g9
S'\xd2\xee\xfa\xb2?\x8cU?'
p2598
tp2599
Rp2600
s(S'diff-x-pos--46'
p2601
S'prev-action-3'
p2602
tp2603
g5
(g9
S'm%\xe1Q\xb4\xb1}?'
p2604
tp2605
Rp2606
s(g1131
S'action-1'
p2607
tp2608
g5
(g9
S'V_\x0b\xf5\xc4\x81J\xbf'
p2609
tp2610
Rp2611
s(S'diff-x-pos--72'
p2612
S'prev-action-4'
p2613
tp2614
g5
(g9
S'\x1a\xcd\n#(\x88 ?'
p2615
tp2616
Rp2617
sS'object-0-x-28'
p2618
g5
(g9
S'<\x81\xe9B\x9e"\xd1?'
p2619
tp2620
Rp2621
s(g839
S'action-4'
p2622
tp2623
g5
(g9
S' h\xbd\x14\x04 \x80?'
p2624
tp2625
Rp2626
s(g831
S'prev-action-4'
p2627
tp2628
g5
(g9
S'\x91.\x94#\x80\xa4\xa5?'
p2629
tp2630
Rp2631
s(S'action-1'
p2632
S'object-0-x-64'
p2633
tp2634
g5
(g9
S'\x88\xb6\xa8\xcc\x19\xdb\xc1?'
p2635
tp2636
Rp2637
s(g2304
S'action-1'
p2638
tp2639
g5
(g9
S'\x85\x8d\xbc\xa7]\x07d?'
p2640
tp2641
Rp2642
s(S'diff-x-pos-63'
p2643
S'prev-action-4'
p2644
tp2645
g5
(g9
S'\xae\x13fv\x19\xc0C?'
p2646
tp2647
Rp2648
sS'object-0-x-20'
p2649
g5
(g9
S'\xc7\x00\x07:\x8e9\xcc?'
p2650
tp2651
Rp2652
s(S'diff-x-pos-17'
p2653
S'prev-action-4'
p2654
tp2655
g5
(g9
S'\x06\xb3]\x01\xca\x7fv\xbf'
p2656
tp2657
Rp2658
s(S'diff-x-pos-10'
p2659
S'action-3'
p2660
tp2661
g5
(g9
S'\x7f/]\xd9\xa4\x9e\x84\xbf'
p2662
tp2663
Rp2664
s(g1042
S'prev-action-4'
p2665
tp2666
g5
(g9
S'\x04iikJ\xc1q\xbf'
p2667
tp2668
Rp2669
s(S'diff-x-pos--76'
p2670
S'action-3'
p2671
tp2672
g5
(g9
S'+\xf4G\xc0\x06Ly?'
p2673
tp2674
Rp2675
s(S'diff-x-pos--67'
p2676
S'prev-action-3'
p2677
tp2678
g5
(g9
S'\x86\n\x99S\xd2\x0f\xbf\xbf'
p2679
tp2680
Rp2681
sS'object-0-y-12'
p2682
g5
(g9
S'H\xde\xb4\x9f@d\r@'
p2683
tp2684
Rp2685
sS'diff-x-pos--112'
p2686
g5
(g9
S'{\xd0\x87\xb6\xb6\xa6D?'
p2687
tp2688
Rp2689
sS'object-0-y-16'
p2690
g5
(g9
S'\xa7G\xce\x058\xa3\x0c@'
p2691
tp2692
Rp2693
s(g1084
S'prev-action-4'
p2694
tp2695
g5
(g9
S'[x\x00s\xfbl\x9b?'
p2696
tp2697
Rp2698
s(g186
S'action-4'
p2699
tp2700
g5
(g9
S'\xe5P\xaf\rg\x18\x93\xbf'
p2701
tp2702
Rp2703
s(S'diff-x-pos--107'
p2704
S'action-3'
p2705
tp2706
g5
(g9
S'H\x14\x84\xe9\x01\rj?'
p2707
tp2708
Rp2709
s(S'diff-x-pos--71'
p2710
S'action-1'
p2711
tp2712
g5
(g9
S'f\xd5y@\xac\x1f\x85?'
p2713
tp2714
Rp2715
s(S'diff-x-pos--54'
p2716
S'prev-action-3'
p2717
tp2718
g5
(g9
S'\xa1"\xd54)\xfc\x92?'
p2719
tp2720
Rp2721
s(S'diff-x-pos-31'
p2722
S'action-3'
p2723
tp2724
g5
(g9
S'\x9d\xb1:\xe0\xa2\x86q?'
p2725
tp2726
Rp2727
s(S'diff-x-pos-46'
p2728
S'prev-action-3'
p2729
tp2730
g5
(g9
S'9]S\xebx\xffk?'
p2731
tp2732
Rp2733
s(S'diff-x-pos-11'
p2734
S'action-3'
p2735
tp2736
g5
(g9
S'\xed2\x1em\xbf\x08u\xbf'
p2737
tp2738
Rp2739
s(g1292
g2035
tp2740
g5
(g9
S'I\xceg\xf5x\x0f\xf2?'
p2741
tp2742
Rp2743
s(S'diff-x-pos--56'
p2744
S'action-1'
p2745
tp2746
g5
(g9
S'\xef\x88,\x04\xe9m\x95?'
p2747
tp2748
Rp2749
s(S'diff-x-pos-37'
p2750
S'action-4'
p2751
tp2752
g5
(g9
S"D'I\x14a\x0eb?"
p2753
tp2754
Rp2755
s(g302
S'object-1-x-76'
p2756
tp2757
g5
(g9
S'\x17\xc2\xca\xde\x1c\xa0{\xbf'
p2758
tp2759
Rp2760
s(g45
S'object-1-x-108'
p2761
tp2762
g5
(g9
S'\x9f\xb9w\xfc=\x8b\xa8?'
p2763
tp2764
Rp2765
s(S'diff-x-pos-32'
p2766
S'action-1'
p2767
tp2768
g5
(g9
S'\xc8*S\xb68rJ\xbf'
p2769
tp2770
Rp2771
s(S'diff-x-pos-7'
p2772
S'action-1'
p2773
tp2774
g5
(g9
S'\xa5\xf7$\r\xf0\xdb\x8e\xbf'
p2775
tp2776
Rp2777
s(S'diff-x-pos-22'
p2778
S'action-1'
p2779
tp2780
g5
(g9
S'\xf0\x82\xf44\x1c\xf6\x87\xbf'
p2781
tp2782
Rp2783
s(S'object-0-dx-1'
p2784
g522
tp2785
g5
(g9
S'P\xe0\xf1\xf1\x0b{\x93?'
p2786
tp2787
Rp2788
s(S'diff-x-pos--68'
p2789
S'prev-action-3'
p2790
tp2791
g5
(g9
S'A4\xe7\xa0\xb8\xc3]\xbf'
p2792
tp2793
Rp2794
s(S'diff-x-pos--50'
p2795
S'prev-action-3'
p2796
tp2797
g5
(g9
S'Z\xd5\x99\xda\x02\xd6[?'
p2798
tp2799
Rp2800
sg440
g5
(g9
S'\x0e\xe5\xff\xc6\xbe\x071\xbf'
p2801
tp2802
Rp2803
sS'diff-x-pos--104'
p2804
g5
(g9
S'\xbe6\xf8\xe9\x0c\xf7b\xbf'
p2805
tp2806
Rp2807
sg931
g5
(g9
S'T\xcf\xfc}@\n\x81?'
p2808
tp2809
Rp2810
sS'diff-x-pos--106'
p2811
g5
(g9
S'\x13%\xf1\x10\x17\xf0d?'
p2812
tp2813
Rp2814
sS'diff-x-pos--101'
p2815
g5
(g9
S'\xb2\xcca\xa3F\xf7o\xbf'
p2816
tp2817
Rp2818
sg1113
g5
(g9
S'\x93\xbf\xd6}\xe0&w?'
p2819
tp2820
Rp2821
sg1458
g5
(g9
S'\\\x12H\n\x9f\xa3s?'
p2822
tp2823
Rp2824
sS'diff-x-pos--102'
p2825
g5
(g9
S'\xe0)uq\xd6:i?'
p2826
tp2827
Rp2828
s(g2825
S'prev-action-4'
p2829
tp2830
g5
(g9
S'\xcd<\xf9\xd2\x9c\xe9@\xbf'
p2831
tp2832
Rp2833
s(g15
S'object-0-x-100'
p2834
tp2835
g5
(g9
S'\xbbfI\x94\xb9X\xbe?'
p2836
tp2837
Rp2838
sg1645
g5
(g9
S'fB\x14\x1e\x1b\xa5E\xbf'
p2839
tp2840
Rp2841
sS'object-1-dy--1'
p2842
g5
(g9
S'jFb\xd5k\xc6\xc2\xbf'
p2843
tp2844
Rp2845
s(S'diff-x-pos--88'
p2846
S'action-1'
p2847
tp2848
g5
(g9
S'\x8er\x98\x84\x01\x0fD?'
p2849
tp2850
Rp2851
s(g1245
S'action-4'
p2852
tp2853
g5
(g9
S'\xed\xd1(\xf2\xb5\x81\xc7\xbf'
p2854
tp2855
Rp2856
s(g931
S'action-4'
p2857
tp2858
g5
(g9
S':"G\xb0\x0b\tn?'
p2859
tp2860
Rp2861
s(S'diff-x-pos--28'
p2862
S'action-4'
p2863
tp2864
g5
(g9
S't\xf7\x17\xc7%.\t?'
p2865
tp2866
Rp2867
s(g2
S'prev-action-1'
p2868
tp2869
g5
(g9
S'\x9c\xd8\x7f-\xa8)c\xbf'
p2870
tp2871
Rp2872
s(g804
S'action-1'
p2873
tp2874
g5
(g9
S'2\xc5\xbe\xa0C\x97y?'
p2875
tp2876
Rp2877
s(g192
S'action-1'
p2878
tp2879
g5
(g9
S'p\xcb\x84w\xb6\xff\x82?'
p2880
tp2881
Rp2882
s(g2051
S'action-4'
p2883
tp2884
g5
(g9
S'\x82\xb9N\xfdq\x00\x8c\xbf'
p2885
tp2886
Rp2887
s(g2460
S'prev-action-1'
p2888
tp2889
g5
(g9
S'\xb4%\xa1C\x87?_?'
p2890
tp2891
Rp2892
s(g1201
S'prev-action-4'
p2893
tp2894
g5
(g9
S'\x0f\xb7k\xbdn\xfcn?'
p2895
tp2896
Rp2897
s(g1886
S'prev-action-1'
p2898
tp2899
g5
(g9
S'y\xca\x10SW\x0c|\xbf'
p2900
tp2901
Rp2902
s(S'diff-x-pos-50'
p2903
S'prev-action-1'
p2904
tp2905
g5
(g9
S'\x93\xfc\xa2\x98\xa8\xf2\x93?'
p2906
tp2907
Rp2908
s(g2019
S'prev-action-4'
p2909
tp2910
g5
(g9
S'\xd8\xbb\xc5\x03\x1c\x01d?'
p2911
tp2912
Rp2913
sg2419
g5
(g9
S'z&~\x7f\xec\xbcD\xbf'
p2914
tp2915
Rp2916
s(g277
S'prev-action-3'
p2917
tp2918
g5
(g9
S'\xd8\xaac\x18\x05\xf7|?'
p2919
tp2920
Rp2921
s(g1263
S'action-4'
p2922
tp2923
g5
(g9
S'\x8d\x85\x96B\xb53\x7f\xbf'
p2924
tp2925
Rp2926
s(S'diff-x-pos--19'
p2927
S'action-1'
p2928
tp2929
g5
(g9
S'5E\x96\xdaH\xf8\x83?'
p2930
tp2931
Rp2932
s(S'diff-x-pos--1'
p2933
S'action-3'
p2934
tp2935
g5
(g9
S'\x88\xe7y\x97T\x1c\x86\xbf'
p2936
tp2937
Rp2938
s(g1119
S'action-4'
p2939
tp2940
g5
(g9
S'\xa9\x9a}\x84s\x01v?'
p2941
tp2942
Rp2943
s(g2107
g504
tp2944
g5
(g9
S'\x00\x00\x00\x00\x00\x00\x00\x00'
p2945
tp2946
Rp2947
s(S'diff-x-pos--68'
p2948
S'prev-action-4'
p2949
tp2950
g5
(g9
S'\xb9\xb7\xf2L,\xe6\x87?'
p2951
tp2952
Rp2953
s(g1113
S'prev-action-3'
p2954
tp2955
g5
(g9
S'\xc1\x11\x9f\x8a7%j?'
p2956
tp2957
Rp2958
s(g2419
S'action-1'
p2959
tp2960
g5
(g9
S'q)\xdb5\x1f\xe1X\xbf'
p2961
tp2962
Rp2963
s(g717
S'prev-action-4'
p2964
tp2965
g5
(g9
S'.0\xe4\xc3\x8cJL\xbf'
p2966
tp2967
Rp2968
s(S'diff-x-pos--20'
p2969
S'action-3'
p2970
tp2971
g5
(g9
S'i\x96\x98\xc5c\x81~\xbf'
p2972
tp2973
Rp2974
s(S'diff-x-pos--86'
p2975
S'prev-action-1'
p2976
tp2977
g5
(g9
S"\x80\x0c*\xa7'\x83e?"
p2978
tp2979
Rp2980
s(S'diff-x-pos-39'
p2981
S'action-1'
p2982
tp2983
g5
(g9
S'\xe2V\xaa[\xc5\x1ar?'
p2984
tp2985
Rp2986
s(S'diff-x-pos-0'
p2987
S'action-1'
p2988
tp2989
g5
(g9
S'V\x87F\xc9\x15\x7fz\xbf'
p2990
tp2991
Rp2992
s(S'diff-x-pos--70'
p2993
S'prev-action-1'
p2994
tp2995
g5
(g9
S'\xc0\x02\xb8\x80\xb6\xcej\xbf'
p2996
tp2997
Rp2998
s(S'diff-x-pos-49'
p2999
S'prev-action-4'
p3000
tp3001
g5
(g9
S'\xd6\n!s:\x10\x86?'
p3002
tp3003
Rp3004
s(S'diff-x-pos--114'
p3005
S'action-1'
p3006
tp3007
g5
(g9
S'\xa4J`c\x84/Z?'
p3008
tp3009
Rp3010
s(g649
g522
tp3011
g5
(g9
S'\x10{\xbf\xc1\xddZ\x98\xbf'
p3012
tp3013
Rp3014
s(S'diff-x-pos--73'
p3015
S'action-1'
p3016
tp3017
g5
(g9
S'\x9c\xa0\x05\xbb\xb0Z\x8c?'
p3018
tp3019
Rp3020
s(S'action-3'
p3021
S'object-0-x-32'
p3022
tp3023
g5
(g9
S'1\x87}l\xed\x18\xb6?'
p3024
tp3025
Rp3026
s(S'diff-x-pos--82'
p3027
S'prev-action-1'
p3028
tp3029
g5
(g9
S'\xdc\xecy\xa9\x15\x94b?'
p3030
tp3031
Rp3032
s(S'diff-x-pos--57'
p3033
S'action-4'
p3034
tp3035
g5
(g9
S'\x0b\x1ci$e\xc7\x92?'
p3036
tp3037
Rp3038
s(S'diff-x-pos--99'
p3039
S'action-4'
p3040
tp3041
g5
(g9
S'\x98\xd9\xf3\x93M!\x1e?'
p3042
tp3043
Rp3044
s(S'diff-x-pos-29'
p3045
S'prev-action-3'
p3046
tp3047
g5
(g9
S'\x8b\x86\xe7\xeaa\x91S\xbf'
p3048
tp3049
Rp3050
s(g1844
S'action-4'
p3051
tp3052
g5
(g9
S'\xb0\x06\xa1\xf1D9Q?'
p3053
tp3054
Rp3055
s(S'diff-x-pos-24'
p3056
S'prev-action-1'
p3057
tp3058
g5
(g9
S"G\xb75\x0e\xe1\xd0'\xbf"
p3059
tp3060
Rp3061
s(S'diff-x-pos--21'
p3062
S'action-3'
p3063
tp3064
g5
(g9
S'\xa3\x1e\xd8\xeb\xe3^<?'
p3065
tp3066
Rp3067
s(S'diff-x-pos--74'
p3068
S'prev-action-4'
p3069
tp3070
g5
(g9
S'\x13\xea\r\xfc\x11\x03\x8b?'
p3071
tp3072
Rp3073
s(S'diff-x-pos--80'
p3074
S'action-3'
p3075
tp3076
g5
(g9
S'QK@|\xb3(\x90?'
p3077
tp3078
Rp3079
s(S'diff-x-pos--2'
p3080
S'prev-action-3'
p3081
tp3082
g5
(g9
S'|\x92\xd1Z\xac\xda~\xbf'
p3083
tp3084
Rp3085
s(g723
S'prev-action-1'
p3086
tp3087
g5
(g9
S'b\x8f\x84\x8f\xc8\xa1\x91?'
p3088
tp3089
Rp3090
s(S'diff-x-pos--34'
p3091
S'action-3'
p3092
tp3093
g5
(g9
S'\xa1\x1eHM\xdf\xeb\x89?'
p3094
tp3095
Rp3096
s(S'diff-x-pos-56'
p3097
S'prev-action-3'
p3098
tp3099
g5
(g9
S'\x8fV\x91o9\xf03?'
p3100
tp3101
Rp3102
s(S'action-3'
p3103
S'object-0-x-116'
p3104
tp3105
g5
(g9
S'\xe8s\x10\xa32\x1c\x8a?'
p3106
tp3107
Rp3108
s(S'diff-x-pos-53'
p3109
S'action-1'
p3110
tp3111
g5
(g9
S'\x11\t\x08\x8d\xf7\xd6u\xbf'
p3112
tp3113
Rp3114
s(g1020
S'prev-action-4'
p3115
tp3116
g5
(g9
S'$e\xfd\xc5\xbf\x89N?'
p3117
tp3118
Rp3119
s(S'diff-x-pos--83'
p3120
S'prev-action-1'
p3121
tp3122
g5
(g9
S'P\x8bh\xf18\xa1{\xbf'
p3123
tp3124
Rp3125
s(g335
S'prev-action-4'
p3126
tp3127
g5
(g9
S"\xe9'njoe5\xbf"
p3128
tp3129
Rp3130
s(S'diff-x-pos--36'
p3131
S'prev-action-1'
p3132
tp3133
g5
(g9
S'Z\x85\xed\x9cy\xea\x85?'
p3134
tp3135
Rp3136
s(S'diff-x-pos--6'
p3137
S'action-3'
p3138
tp3139
g5
(g9
S'\x00\x81:w}\x91\xf3\xbe'
p3140
tp3141
Rp3142
s(S'diff-x-pos-32'
p3143
S'prev-action-4'
p3144
tp3145
g5
(g9
S'\x03\x187X\xb2\x01r\xbf'
p3146
tp3147
Rp3148
s(S'diff-x-pos-49'
p3149
S'prev-action-3'
p3150
tp3151
g5
(g9
S'\x8f\xf4\xee\x8dW\x0cf?'
p3152
tp3153
Rp3154
s(S'diff-x-pos--16'
p3155
S'prev-action-1'
p3156
tp3157
g5
(g9
S'\xcaCk4\xd4\x0c\x81\xbf'
p3158
tp3159
Rp3160
s(g1897
S'prev-action-1'
p3161
tp3162
g5
(g9
S'\xbd#\xd7{9\xa3L\xbf'
p3163
tp3164
Rp3165
s(S'diff-x-pos--106'
p3166
S'action-1'
p3167
tp3168
g5
(g9
S'\xa4h\x0f\xae\x1d\xb21?'
p3169
tp3170
Rp3171
s(S'action-4'
p3172
S'object-0-x-64'
p3173
tp3174
g5
(g9
S'\xf6\xfc\xdd*4;\xc7?'
p3175
tp3176
Rp3177
s(S'diff-x-pos-20'
p3178
S'prev-action-1'
p3179
tp3180
g5
(g9
S'O\xf2\x05[\x81>{\xbf'
p3181
tp3182
Rp3183
s(g653
S'prev-action-1'
p3184
tp3185
g5
(g9
S'\x02\xe80x\xb5\xbcG?'
p3186
tp3187
Rp3188
s(g2345
g764
tp3189
g5
(g9
S'\x93|S\xba\xee\x10\xd6?'
p3190
tp3191
Rp3192
s(S'action-3'
p3193
S'object-1-x-80'
p3194
tp3195
g5
(g9
S'm\xd5\x90I\x17\n\xb0?'
p3196
tp3197
Rp3198
s(g2215
S'action-1'
p3199
tp3200
g5
(g9
S'\xe8Q\xe40l\x14\xfd>'
p3201
tp3202
Rp3203
sg2355
g5
(g9
S'c\xaf\x07\xe9\x83\xa0{?'
p3204
tp3205
Rp3206
sS'diff-x-pos--99'
p3207
g5
(g9
S'\xdccy\xb7\xe0\x05L\xbf'
p3208
tp3209
Rp3210
s(S'diff-x-pos-12'
p3211
S'prev-action-3'
p3212
tp3213
g5
(g9
S'\x0e8\xdfg\x94p\x93\xbf'
p3214
tp3215
Rp3216
sg459
g5
(g9
S'\x8c\x9c\x0f\xa5g=\n@'
p3217
tp3218
Rp3219
s(S'diff-x-pos--14'
p3220
g250
tp3221
g5
(g9
S'\\\x14\xb9%\x00\xcc\x83?'
p3222
tp3223
Rp3224
sS'diff-x-pos--90'
p3225
g5
(g9
S'8\x0fG\xf3\xf0n\x7f?'
p3226
tp3227
Rp3228
s(g2431
g2025
tp3229
g5
(g9
S'\x81\x850\xaa\xe6\x9f\xbf?'
p3230
tp3231
Rp3232
sg1375
g5
(g9
S'\x08~\x1f=\xac\xe3u?'
p3233
tp3234
Rp3235
sS'diff-x-pos--93'
p3236
g5
(g9
S'\xd5\xa8\xff\xe2m\x1a\x8a?'
p3237
tp3238
Rp3239
sS'diff-x-pos--94'
p3240
g5
(g9
S'\xea\xabH\xf2T\t\x85?'
p3241
tp3242
Rp3243
sS'diff-x-pos--95'
p3244
g5
(g9
S'+\x95\xdf\xc9Y\x16\x82?'
p3245
tp3246
Rp3247
sS'diff-x-pos--96'
p3248
g5
(g9
S'\xa6\xba\x0fd\x9f\x91\x83\xbf'
p3249
tp3250
Rp3251
sg740
g5
(g9
S'G\xa7\x1f\xf4S@{\xbf'
p3252
tp3253
Rp3254
s(S'diff-x-pos--110'
p3255
S'prev-action-4'
p3256
tp3257
g5
(g9
S'\xc35\x06\xa1\x07\xfdX?'
p3258
tp3259
Rp3260
s(S'diff-x-pos-8'
p3261
S'action-3'
p3262
tp3263
g5
(g9
S'\x7f@\x84\xeb\x95\xaat\xbf'
p3264
tp3265
Rp3266
s(S'action-3'
p3267
S'object-0-x-4'
p3268
tp3269
g5
(g9
S'\xc8\xdfi\xfa\xdcv\x8c?'
p3270
tp3271
Rp3272
s(g1663
S'prev-action-4'
p3273
tp3274
g5
(g9
S'\\\x0c\x96\xf6\xf5 u\xbf'
p3275
tp3276
Rp3277
sS'diff-x-pos--29'
p3278
g5
(g9
S'\xe9\xa8\xeaiF\xe3\x8e?'
p3279
tp3280
Rp3281
s(g567
g3172
tp3282
g5
(g9
S'L\xd7\xaf\xd2$\xa9T\xbf'
p3283
tp3284
Rp3285
s(g440
S'action-4'
p3286
tp3287
g5
(g9
S'H\xb1\xa1\xb3\xe18\x06?'
p3288
tp3289
Rp3290
s(g428
S'prev-action-4'
p3291
tp3292
g5
(g9
S'\xc2\xaf\x88\xa3\x14pk?'
p3293
tp3294
Rp3295
s(S'diff-x-pos-16'
p3296
S'prev-action-3'
p3297
tp3298
g5
(g9
S'\xf9I+\x0f\xe9K\x82?'
p3299
tp3300
Rp3301
sS'diff-x-pos--25'
p3302
g5
(g9
S'\x85\x9c\xae2`6g\xbf'
p3303
tp3304
Rp3305
sS'diff-x-pos--24'
p3306
g5
(g9
S'-\x05\x86u\xef\xe8P?'
p3307
tp3308
Rp3309
sg63
g5
(g9
S'\xb0^]\\\xd1\x06\x8b?'
p3310
tp3311
Rp3312
sg405
g5
(g9
S'7\xe2\x0e;\xd0\xf1\x96?'
p3313
tp3314
Rp3315
sS'diff-x-pos--21'
p3316
g5
(g9
S'w{\xe8\x9ei\x87a\xbf'
p3317
tp3318
Rp3319
sS'diff-x-pos--20'
p3320
g5
(g9
S'\xa1\xc7\x98x\xe6\xe6\x80\xbf'
p3321
tp3322
Rp3323
sS'diff-x-pos--23'
p3324
g5
(g9
S't\x052\x1c\xe6\x7fc\xbf'
p3325
tp3326
Rp3327
sS'diff-x-pos--22'
p3328
g5
(g9
S'\x91\xa36C\x18\xbbk?'
p3329
tp3330
Rp3331
s(S'diff-x-pos--87'
p3332
S'action-3'
p3333
tp3334
g5
(g9
S'\xa0\x1b\xb3\xc1qFy?'
p3335
tp3336
Rp3337
s(S'action-1'
p3338
S'object-0-x-88'
p3339
tp3340
g5
(g9
S'\xc3\xea/9p\x80\xbf?'
p3341
tp3342
Rp3343
s(S'diff-x-pos--65'
p3344
S'prev-action-1'
p3345
tp3346
g5
(g9
S'\xa5:\xed>i\x8f\x85?'
p3347
tp3348
Rp3349
sg920
g5
(g9
S'\x90b\x82E~9\x93?'
p3350
tp3351
Rp3352
s(S'object-1-dx--1'
p3353
g1874
tp3354
g5
(g9
S'z\x82x\xea\xf3`\xba\xbf'
p3355
tp3356
Rp3357
sS'diff-x-pos-39'
p3358
g5
(g9
S'\xc6J\xa1\x91\x91\xb3\x85?'
p3359
tp3360
Rp3361
s(S'diff-x-pos--37'
p3362
S'prev-action-4'
p3363
tp3364
g5
(g9
S'\x0b_\x19\xc8\xec\xd4\x93?'
p3365
tp3366
Rp3367
s(S'diff-x-pos--41'
p3368
S'prev-action-1'
p3369
tp3370
g5
(g9
S'\xc1\xf1\x1fPw\xbb\x96?'
p3371
tp3372
Rp3373
sS'diff-x-pos-30'
p3374
g5
(g9
S'\x88)\xd3\x18h7A?'
p3375
tp3376
Rp3377
sS'diff-x-pos-31'
p3378
g5
(g9
S'\xb0\xe5e\x04\xafdf?'
p3379
tp3380
Rp3381
sg2040
g5
(g9
S'(,b\xa2\xec>Q?'
p3382
tp3383
Rp3384
sg192
g5
(g9
S'\xb6\xb2\x86\xc1\xcb\x01~?'
p3385
tp3386
Rp3387
sS'diff-x-pos-34'
p3388
g5
(g9
S'\xbe\x86\x1a\xe7\xfd\xd1k?'
p3389
tp3390
Rp3391
sg746
g5
(g9
S'\x91\xec\xed\xa2GP5?'
p3392
tp3393
Rp3394
sS'diff-x-pos-36'
p3395
g5
(g9
S'3/"\x8f\x08\xbb\x8a?'
p3396
tp3397
Rp3398
sg2750
g5
(g9
S'\x99*\xcbn\xa4\xe5\x92?'
p3399
tp3400
Rp3401
s(S'diff-x-pos--2'
p3402
S'action-1'
p3403
tp3404
g5
(g9
S'|}]\xb1\xca\xc3\x88\xbf'
p3405
tp3406
Rp3407
s(S'diff-x-pos-42'
p3408
S'action-4'
p3409
tp3410
g5
(g9
S'\xaer\xd7\xe4d\xbbd?'
p3411
tp3412
Rp3413
s(g1392
S'prev-action-4'
p3414
tp3415
g5
(g9
S'\x00Dhj.FL?'
p3416
tp3417
Rp3418
s(g3320
S'prev-action-4'
p3419
tp3420
g5
(g9
S'e\xff\xe0\x8eS\x8a\x86\xbf'
p3421
tp3422
Rp3423
s(S'diff-x-pos--109'
p3424
S'action-1'
p3425
tp3426
g5
(g9
S'\\WAJ[\x82b?'
p3427
tp3428
Rp3429
sS'diff-x-pos-54'
p3430
g5
(g9
S'<;\xe5\x93P|\x9c?'
p3431
tp3432
Rp3433
s(g1154
S'object-0-x-108'
p3434
tp3435
g5
(g9
S'h)\\\xc1N\xad\xbb?'
p3436
tp3437
Rp3438
s(S'diff-x-pos--97'
p3439
S'action-4'
p3440
tp3441
g5
(g9
S'\x7f\xb29y\t@t\xbf'
p3442
tp3443
Rp3444
s(S'diff-x-pos-15'
p3445
S'prev-action-3'
p3446
tp3447
g5
(g9
S'`\xf9]\x9d\xb1\xe0\x86?'
p3448
tp3449
Rp3450
s(S'diff-x-pos--9'
p3451
S'prev-action-1'
p3452
tp3453
g5
(g9
S'\xa2\x06\xce\xb0\xf6\x9c\x90\xbf'
p3454
tp3455
Rp3456
s(S'diff-x-pos--69'
p3457
S'prev-action-4'
p3458
tp3459
g5
(g9
S'n\xf0P\x96k<\x81?'
p3460
tp3461
Rp3462
s(S'diff-x-pos--8'
p3463
S'prev-action-3'
p3464
tp3465
g5
(g9
S'}\xcf\xb3\x9aI\xa4\x90?'
p3466
tp3467
Rp3468
s(S'diff-x-pos--58'
p3469
g810
tp3470
g5
(g9
S"\xcc'xlvK\x94?"
p3471
tp3472
Rp3473
s(g1320
S'prev-action-1'
p3474
tp3475
g5
(g9
S'8\xec<h\x04\xbdw?'
p3476
tp3477
Rp3478
s(S'diff-x-pos--23'
p3479
S'action-1'
p3480
tp3481
g5
(g9
S'\x7f\xf0V\xc1\x08\xdf\x84?'
p3482
tp3483
Rp3484
s(S'action-1'
p3485
S'object-0-x-124'
p3486
tp3487
g5
(g9
S'\xf6+\x99\x96uL\xcf?'
p3488
tp3489
Rp3490
s(g1308
S'prev-action-3'
p3491
tp3492
g5
(g9
S'i\x83\xad\xcd\x99e\x94\xbf'
p3493
tp3494
Rp3495
s(g2225
S'prev-action-1'
p3496
tp3497
g5
(g9
S'\xb0\xf4\xed\x8e&q\x89\xbf'
p3498
tp3499
Rp3500
s(S'action-4'
p3501
S'object-0-x-24'
p3502
tp3503
g5
(g9
S'\\\xf7\x7f\xbb\x1bn\xb5?'
p3504
tp3505
Rp3506
s(S'diff-x-pos-13'
p3507
S'action-1'
p3508
tp3509
g5
(g9
S'4\xf2 \xbbZlw\xbf'
p3510
tp3511
Rp3512
s(g684
S'object-1-x-92'
p3513
tp3514
g5
(g9
S'\x19q\xb6\xbf;`\xac?'
p3515
tp3516
Rp3517
s(S'diff-x-pos--15'
p3518
S'prev-action-3'
p3519
tp3520
g5
(g9
S'\xd4\xd1\xa3\x00\x8ep|?'
p3521
tp3522
Rp3523
s(S'diff-x-pos--115'
p3524
S'action-3'
p3525
tp3526
g5
(g9
S'gl\x82\xd4~<r\xbf'
p3527
tp3528
Rp3529
s(g1739
g1387
tp3530
g5
(g9
S'\x01{\xb1SFg\x87?'
p3531
tp3532
Rp3533
sg1404
g5
(g9
S'\xb5V\xd8\xfbK\x82\x9b?'
p3534
tp3535
Rp3536
sS'diff-x-pos-45'
p3537
g5
(g9
S'\x10\r\x1a`J\xf5\x91?'
p3538
tp3539
Rp3540
sg2396
g5
(g9
S'\xd5EJ\x86V\xe4\x95?'
p3541
tp3542
Rp3543
sg1739
g5
(g9
S'\xbe\xb4\x9fq.F\x96?'
p3544
tp3545
Rp3546
s(g1251
S'action-4'
p3547
tp3548
g5
(g9
S'S"z\x9dn\xdaz\xbf'
p3549
tp3550
Rp3551
sS'diff-x-pos-41'
p3552
g5
(g9
S'\r\xf1\x07\xea(\xab\x93?'
p3553
tp3554
Rp3555
sg1207
g5
(g9
S'\xfaD\x8cp\xc5\xd1\x87?'
p3556
tp3557
Rp3558
s(g1880
S'prev-action-4'
p3559
tp3560
g5
(g9
S'K;\x8a\xba\xd9\xe8t?'
p3561
tp3562
Rp3563
sg3408
g5
(g9
S'@\r\xa3f\xc0\t\x8a?'
p3564
tp3565
Rp3566
s(S'diff-x-pos-52'
p3567
S'prev-action-3'
p3568
tp3569
g5
(g9
S'\xc6\x97\x0bQY^q?'
p3570
tp3571
Rp3572
s(g3374
S'prev-action-4'
p3573
tp3574
g5
(g9
S'M\xc1\xfb\xc2\xa6\xf5f?'
p3575
tp3576
Rp3577
s(g387
S'prev-action-4'
p3578
tp3579
g5
(g9
S'\xeb\x07\xe6\x1b\xf5\x00\x8d\xbf'
p3580
tp3581
Rp3582
s(S'diff-x-pos--72'
p3583
S'prev-action-3'
p3584
tp3585
g5
(g9
S'\xf2q\xdf\x14\x9cqr\xbf'
p3586
tp3587
Rp3588
s(S'diff-x-pos--7'
p3589
S'prev-action-3'
p3590
tp3591
g5
(g9
S'\xc9\x83\xaa`i\xf5\x87?'
p3592
tp3593
Rp3594
s(S'diff-x-pos-54'
p3595
S'action-3'
p3596
tp3597
g5
(g9
S'C\x93s\xb8\x08y\x83?'
p3598
tp3599
Rp3600
s(S'diff-x-pos--25'
p3601
S'action-4'
p3602
tp3603
g5
(g9
S'\xa06\x19\xbc\x12\x01d\xbf'
p3604
tp3605
Rp3606
sg717
g5
(g9
S'\x90\xd2%\xf7\x87C=\xbf'
p3607
tp3608
Rp3609
s(g1744
S'action-1'
p3610
tp3611
g5
(g9
S'\x05\xafMw1I\x96?'
p3612
tp3613
Rp3614
s(S'diff-x-pos--86'
p3615
S'action-1'
p3616
tp3617
g5
(g9
S'\xb6\xc5Y\xda\xe7\xdft?'
p3618
tp3619
Rp3620
s(g238
S'prev-action-4'
p3621
tp3622
g5
(g9
S'\x8e\xbd\x088\x8a\xc2x\xbf'
p3623
tp3624
Rp3625
s(g1954
S'action-4'
p3626
tp3627
g5
(g9
S'\x93\x7f\xea\xf0\xe2\xe4\x90?'
p3628
tp3629
Rp3630
s(S'diff-x-pos--84'
p3631
S'prev-action-3'
p3632
tp3633
g5
(g9
S'`\xae\x7f\x99\xa5\xfa6\xbf'
p3634
tp3635
Rp3636
s(S'diff-x-pos-40'
p3637
S'prev-action-3'
p3638
tp3639
g5
(g9
S'\x8eJD\xaf:\r_?'
p3640
tp3641
Rp3642
s(S'diff-x-pos-44'
p3643
S'prev-action-3'
p3644
tp3645
g5
(g9
S'$\x88\xe5\x1a\xc4\x9d\x80?'
p3646
tp3647
Rp3648
s(g1096
S'prev-action-4'
p3649
tp3650
g5
(g9
S'\xfe*\xf8s\xf3ml?'
p3651
tp3652
Rp3653
s(S'diff-x-pos--3'
p3654
S'prev-action-3'
p3655
tp3656
g5
(g9
S'\xce\x8cN;\x9d\xb0x\xbf'
p3657
tp3658
Rp3659
s(g2815
S'action-3'
p3660
tp3661
g5
(g9
S'\xf6x\xaeG\xd4j\x06\xbf'
p3662
tp3663
Rp3664
s(S'diff-x-pos-21'
p3665
S'prev-action-3'
p3666
tp3667
g5
(g9
S'\xff\xcbec|\xb9\x83\xbf'
p3668
tp3669
Rp3670
s(S'diff-x-pos-33'
p3671
S'action-3'
p3672
tp3673
g5
(g9
S'3>\xf7o\xcd\xdcr?'
p3674
tp3675
Rp3676
s(S'diff-x-pos--67'
p3677
g2525
tp3678
g5
(g9
S'\xc1\x08\xf9\x84\xf5\xc9\xc6?'
p3679
tp3680
Rp3681
s(S'diff-x-pos-18'
p3682
S'action-1'
p3683
tp3684
g5
(g9
S"'\xb9\xe3\xbe\tq\x88\xbf"
p3685
tp3686
Rp3687
s(g1024
S'action-3'
p3688
tp3689
g5
(g9
S'F\xca\x11\x04\xf9\xb4Y\xbf'
p3690
tp3691
Rp3692
s(S'diff-x-pos--7'
p3693
S'prev-action-4'
p3694
tp3695
g5
(g9
S'6\x19L&\x9d\xdf\x92\xbf'
p3696
tp3697
Rp3698
s(g2176
S'action-4'
p3699
tp3700
g5
(g9
S'\x84\x17/\xd8\xa9\x91\x87?'
p3701
tp3702
Rp3703
s(S'diff-x-pos-40'
p3704
S'action-4'
p3705
tp3706
g5
(g9
S'$\x8e\xb2r-qn?'
p3707
tp3708
Rp3709
s(g3430
S'action-4'
p3710
tp3711
g5
(g9
S'\xc4x\xec"\x1a\x08\x84?'
p3712
tp3713
Rp3714
s(g2574
S'object-0-x-12'
p3715
tp3716
g5
(g9
S'\x04lT\xaf\xd6\x8a\xa8?'
p3717
tp3718
Rp3719
s(S'diff-x-pos-58'
p3720
S'action-4'
p3721
tp3722
g5
(g9
S'\nW\xee\xf9\xdd\x12#?'
p3723
tp3724
Rp3725
sS'object-0-x-88'
p3726
g5
(g9
S'\x8c\xd5\xba{e\x16\xdc?'
p3727
tp3728
Rp3729
s(g2190
S'prev-action-4'
p3730
tp3731
g5
(g9
S'\xa5v\\\xea_\xa3h?'
p3732
tp3733
Rp3734
s(g357
S'action-4'
p3735
tp3736
g5
(g9
S'\xb4^\xe3\xb3\xc3\xf8\x90\xbf'
p3737
tp3738
Rp3739
s(S'diff-x-pos-23'
p3740
S'prev-action-4'
p3741
tp3742
g5
(g9
S'\x93U\xba?N#o?'
p3743
tp3744
Rp3745
sS'object-0-x-80'
p3746
g5
(g9
S'\xdcb\x90\x1bD\xa3\xde?'
p3747
tp3748
Rp3749
s(S'diff-x-pos--75'
p3750
S'prev-action-3'
p3751
tp3752
g5
(g9
S'\xd0K\xf7x\xa5\x01o?'
p3753
tp3754
Rp3755
s(S'diff-x-pos--81'
p3756
S'action-4'
p3757
tp3758
g5
(g9
S'\x00\x9a\x85\xe8;IN?'
p3759
tp3760
Rp3761
s(S'diff-x-pos--26'
p3762
S'prev-action-4'
p3763
tp3764
g5
(g9
S'P\xa2A\xe4p3U?'
p3765
tp3766
Rp3767
s(g1375
S'action-4'
p3768
tp3769
g5
(g9
S'>\xbd{\xdb\xce\xdcg?'
p3770
tp3771
Rp3772
s(g1881
S'object-1-x-100'
p3773
tp3774
g5
(g9
S'hm\rn\x1du\xac?'
p3775
tp3776
Rp3777
s(S'diff-x-pos--31'
p3778
S'prev-action-1'
p3779
tp3780
g5
(g9
S'+E\xcb@6\xe5_?'
p3781
tp3782
Rp3783
s(S'diff-x-pos--27'
p3784
S'prev-action-3'
p3785
tp3786
g5
(g9
S'\x0e\x90\x03oO\xc8{?'
p3787
tp3788
Rp3789
s(S'diff-x-pos--68'
p3790
S'action-4'
p3791
tp3792
g5
(g9
S'\xde/\xdf?\xc1l\x81?'
p3793
tp3794
Rp3795
s(S'diff-x-pos-63'
p3796
S'prev-action-1'
p3797
tp3798
g5
(g9
S'\xec\x89\xe0H\xd1\xfbR?'
p3799
tp3800
Rp3801
s(S'diff-x-pos--118'
p3802
S'prev-action-4'
p3803
tp3804
g5
(g9
S'\xc3I T>0X?'
p3805
tp3806
Rp3807
s(S'diff-x-pos-48'
p3808
S'action-3'
p3809
tp3810
g5
(g9
S'\x02\xb0l>\x88<{?'
p3811
tp3812
Rp3813
s(S'diff-x-pos--60'
p3814
S'prev-action-3'
p3815
tp3816
g5
(g9
S'\xc4\x1e\x14\x82\xfds\x94?'
p3817
tp3818
Rp3819
s(S'diff-x-pos--30'
p3820
S'prev-action-3'
p3821
tp3822
g5
(g9
S')(\x841\xca2\x8a\xbf'
p3823
tp3824
Rp3825
s(S'action-3'
p3826
S'object-0-x-72'
p3827
tp3828
g5
(g9
S'7\xac\x9b\xd3\xa7\x95\xc6?'
p3829
tp3830
Rp3831
s(S'action-4'
p3832
S'prev-action-0'
p3833
tp3834
g5
(g9
S'\xe6\xe1\x9fz\tC\xe9?'
p3835
tp3836
Rp3837
sS'object-0-x-36'
p3838
g5
(g9
S'\xca\xe5\x06\x8f\x8fM\xd6?'
p3839
tp3840
Rp3841
s(S'diff-x-pos--92'
p3842
S'action-1'
p3843
tp3844
g5
(g9
S'8\xc7\xf9&\xe6*u?'
p3845
tp3846
Rp3847
s(S'diff-x-pos--42'
p3848
S'action-4'
p3849
tp3850
g5
(g9
S'={\x86O\xa8Px?'
p3851
tp3852
Rp3853
s(S'action-3'
p3854
S'object-0-x-0'
p3855
tp3856
g5
(g9
S'\xecU)\x84<\x0bX?'
p3857
tp3858
Rp3859
s(S'diff-x-pos--13'
p3860
S'action-1'
p3861
tp3862
g5
(g9
S'\xbf\xac\xce\x9c\x9e\x19j\xbf'
p3863
tp3864
Rp3865
s(S'diff-x-pos--19'
p3866
S'prev-action-4'
p3867
tp3868
g5
(g9
S'\xadZ`x\x0e\xe8\x91\xbf'
p3869
tp3870
Rp3871
s(S'action-1'
p3872
S'object-1-x-112'
p3873
tp3874
g5
(g9
S'hel\xccs\xde\xa2?'
p3875
tp3876
Rp3877
s(S'action-3'
p3878
S'prev-action-1'
p3879
tp3880
g5
(g9
S'\x19w\xdf\x0c\xf4I\xf2?'
p3881
tp3882
Rp3883
s(g1348
S'action-1'
p3884
tp3885
g5
(g9
S'\xf9\x15\xb7\x0f\xd5O\x86?'
p3886
tp3887
Rp3888
sg2784
g5
(g9
S'r)\xee\x17\xe7[\xc9?'
p3889
tp3890
Rp3891
s(S'diff-x-pos-23'
p3892
S'prev-action-3'
p3893
tp3894
g5
(g9
S'\x01\xf8eX\x11\xd9s\xbf'
p3895
tp3896
Rp3897
s(S'diff-x-pos-61'
p3898
S'prev-action-1'
p3899
tp3900
g5
(g9
S'R\xcc\xa3$\x88\xb4b?'
p3901
tp3902
Rp3903
s(g3457
S'action-3'
p3904
tp3905
g5
(g9
S"\xa2.\x1c\xc3j'\x84?"
p3906
tp3907
Rp3908
s(g1452
S'prev-action-1'
p3909
tp3910
g5
(g9
S'\xc2{\x85\xa5\xbf\xb0\x8b?'
p3911
tp3912
Rp3913
s(g3236
S'prev-action-3'
p3914
tp3915
g5
(g9
S'8\x16\xb2\x00\x07Cd?'
p3916
tp3917
Rp3918
s(S'object-0-dx-1'
p3919
g508
tp3920
g5
(g9
S'\x02Q\x04\tZ\x1a\xb0?'
p3921
tp3922
Rp3923
s(S'diff-x-pos--22'
p3924
S'action-3'
p3925
tp3926
g5
(g9
S'_\xde_\x01\xcf\x92c?'
p3927
tp3928
Rp3929
s(S'diff-x-pos-52'
p3930
S'prev-action-4'
p3931
tp3932
g5
(g9
S'\xe0"\xaa,\x81\xb8q?'
p3933
tp3934
Rp3935
s(S'diff-x-pos--37'
p3936
S'action-1'
p3937
tp3938
g5
(g9
S'\xbb\xf51\xbc\x11\x0b\x88?'
p3939
tp3940
Rp3941
s(S'diff-x-pos--39'
p3942
S'prev-action-1'
p3943
tp3944
g5
(g9
S'u\xa6\xec\xf2T^g\xbf'
p3945
tp3946
Rp3947
s(S'action-1'
p3948
S'object-0-x-92'
p3949
tp3950
g5
(g9
S'O\x0b\\\x90\xc8\x87\xbc?'
p3951
tp3952
Rp3953
s(S'action-4'
p3954
S'object-0-x-32'
p3955
tp3956
g5
(g9
S'#!:^\xe1\xf6\xb5?'
p3957
tp3958
Rp3959
sS'object-0-y-8'
p3960
g5
(g9
S'\xfd\xbc\xd7\xf7T\x9b\xf8?'
p3961
tp3962
Rp3963
s(S'diff-x-pos--15'
p3964
S'prev-action-1'
p3965
tp3966
g5
(g9
S'\xd8\x0c`\x13S\xe6~\xbf'
p3967
tp3968
Rp3969
s(g951
S'action-1'
p3970
tp3971
g5
(g9
S'\x94O\xf4\x87\xaa\xdd\x99?'
p3972
tp3973
Rp3974
sg753
g5
(g9
S'\xdf\x10\xc5\xfai\x17\xc8?'
p3975
tp3976
Rp3977
s(S'diff-x-pos-4'
p3978
S'prev-action-1'
p3979
tp3980
g5
(g9
S'\xda\x81H&\xa48\x8e\xbf'
p3981
tp3982
Rp3983
s(S'diff-x-pos-44'
p3984
S'prev-action-1'
p3985
tp3986
g5
(g9
S'\x9e\xa0?\x89\x1b\x1b\x81?'
p3987
tp3988
Rp3989
s(S'diff-x-pos--47'
p3990
S'prev-action-3'
p3991
tp3992
g5
(g9
S'\xe5\xee2\xcd\xb9\xf1\x94\xbf'
p3993
tp3994
Rp3995
s(g1733
S'object-0-x-92'
p3996
tp3997
g5
(g9
S'\xda\xb4\xa0~?H\xc4?'
p3998
tp3999
Rp4000
sg2367
g5
(g9
S'\x1f\x15\xed\xaf\xd99=\xbf'
p4001
tp4002
Rp4003
s(g920
g1430
tp4004
g5
(g9
S'\xdc\xf7\xd9\xf6\x91\xce\x8a?'
p4005
tp4006
Rp4007
sS'diff-x-pos--111'
p4008
g5
(g9
S')\x0c\xe57lIA\xbf'
p4009
tp4010
Rp4011
sS'diff-x-pos--116'
p4012
g5
(g9
S'\xf6C\xd1\x13O\xc2k\xbf'
p4013
tp4014
Rp4015
sS'diff-x-pos--117'
p4016
g5
(g9
S'\x05\x13i\xcd\xdb\x19u\xbf'
p4017
tp4018
Rp4019
sg798
g5
(g9
S'W\xb7\xdbd\xb5Bu?'
p4020
tp4021
Rp4022
s(S'diff-x-pos--61'
p4023
S'prev-action-4'
p4024
tp4025
g5
(g9
S'|\xd4\x95a \xc7\x92?'
p4026
tp4027
Rp4028
sg3802
g5
(g9
S'\xc3I T>0X?'
p4029
tp4030
Rp4031
s(g1046
S'action-4'
p4032
tp4033
g5
(g9
S'+\xaf\xac\xff\xd5a\x97\xbf'
p4034
tp4035
Rp4036
s(S'diff-x-pos--65'
p4037
g1257
tp4038
g5
(g9
S'\x83\x1c\xfa\xfd\xc48\x8b?'
p4039
tp4040
Rp4041
s(g1536
S'prev-action-1'
p4042
tp4043
g5
(g9
S'\xde\x96a\xb0\xae\x1d\x8e?'
p4044
tp4045
Rp4046
s(g3316
S'prev-action-3'
p4047
tp4048
g5
(g9
S'\xc1)N_\x00\xaev?'
p4049
tp4050
Rp4051
s(S'diff-x-pos--87'
p4052
S'prev-action-4'
p4053
tp4054
g5
(g9
S'\x90\x90p\xf5\xdf08?'
p4055
tp4056
Rp4057
s(g3225
S'prev-action-1'
p4058
tp4059
g5
(g9
S'\x15\xd3\xa9\xe1\x80\x9bh?'
p4060
tp4061
Rp4062
s(S'diff-x-pos--5'
p4063
S'action-4'
p4064
tp4065
g5
(g9
S'\x96\xc8\x13\xf4-\xdd\x9b\xbf'
p4066
tp4067
Rp4068
s(S'diff-x-pos-43'
p4069
S'action-3'
p4070
tp4071
g5
(g9
S'nUM\x90\xe0\xcdg?'
p4072
tp4073
Rp4074
s(S'diff-x-pos-55'
p4075
S'action-1'
p4076
tp4077
g5
(g9
S'\xc0h\xc9H"\x03\x1c\xbf'
p4078
tp4079
Rp4080
s(g3705
S'object-1-x-72'
p4081
tp4082
g5
(g9
S'\xb5\xc5\xeb\xc7\xf0\x8bm\xbf'
p4083
tp4084
Rp4085
s(g3537
S'prev-action-1'
p4086
tp4087
g5
(g9
S'M\x80\xfbG\xaa|\x84?'
p4088
tp4089
Rp4090
sg1245
g5
(g9
S'\xd3\x04?\xeb\n>\xc6?'
p4091
tp4092
Rp4093
s(g3248
S'action-3'
p4094
tp4095
g5
(g9
S'\x02\xa8]\xcb\xdes\x80\xbf'
p4096
tp4097
Rp4098
s(g2461
S'object-0-x-120'
p4099
tp4100
g5
(g9
S'v\x95\x0e@\xf1K\xb6?'
p4101
tp4102
Rp4103
s(g850
S'action-4'
p4104
tp4105
g5
(g9
S';c\xbe\xd7\xb37\x91?'
p4106
tp4107
Rp4108
s(S'diff-x-pos-36'
p4109
S'action-3'
p4110
tp4111
g5
(g9
S'\xccp\xa7:\r\xe4h?'
p4112
tp4113
Rp4114
s(S'diff-x-pos--32'
p4115
S'action-3'
p4116
tp4117
g5
(g9
S'\x8e\x9btW\xd6\x8cu?'
p4118
tp4119
Rp4120
s(S'diff-x-pos-8'
p4121
S'prev-action-4'
p4122
tp4123
g5
(g9
S'\x14\xac\\q\x88\xeev\xbf'
p4124
tp4125
Rp4126
s(g3842
S'prev-action-1'
p4127
tp4128
g5
(g9
S'\x8a\xcb\xbed\x8b\xc7p?'
p4129
tp4130
Rp4131
s(g1090
S'action-1'
p4132
tp4133
g5
(g9
S'\x18\xb4\x9f\xf3\r@;\xbf'
p4134
tp4135
Rp4136
s(S'diff-x-pos-38'
p4137
S'prev-action-1'
p4138
tp4139
g5
(g9
S'\x9bc\xdd5\xa1(l?'
p4140
tp4141
Rp4142
s(S'diff-x-pos--4'
p4143
S'action-3'
p4144
tp4145
g5
(g9
S'\\\xcc\xe1*\xff\xabu\xbf'
p4146
tp4147
Rp4148
s(g2686
S'action-1'
p4149
tp4150
g5
(g9
S'\xae30\xe0\xb9\xb1D?'
p4151
tp4152
Rp4153
s(S'diff-x-pos-0'
p4154
S'action-4'
p4155
tp4156
g5
(g9
S'^\xa9\xfez\xad\xbb\x87\xbf'
p4157
tp4158
Rp4159
s(S'diff-x-pos--93'
p4160
S'prev-action-1'
p4161
tp4162
g5
(g9
S'zb\xecx?\x93|?'
p4163
tp4164
Rp4165
s(S'diff-x-pos--33'
p4166
S'action-3'
p4167
tp4168
g5
(g9
S'R\xc0\x90\xd2\x83\x17~?'
p4169
tp4170
Rp4171
s(g798
S'action-4'
p4172
tp4173
g5
(g9
S'\x9a\x19V&\xc3\xe3H?'
p4174
tp4175
Rp4176
s(g792
S'action-3'
p4177
tp4178
g5
(g9
S'&\x85|u\xd7\x1ej\xbf'
p4179
tp4180
Rp4181
s(g1028
g782
tp4182
g5
(g9
S'\xd8c\xec\x9bs|\x91\xbf'
p4183
tp4184
Rp4185
s(g4160
S'action-4'
p4186
tp4187
g5
(g9
S'\xff\x11\xa3\t\x92\xdbq?'
p4188
tp4189
Rp4190
s(S'diff-x-pos--5'
p4191
S'action-3'
p4192
tp4193
g5
(g9
S'Q\xc3\x1c\xab\xd0if?'
p4194
tp4195
Rp4196
s(S'diff-x-pos--6'
p4197
S'prev-action-4'
p4198
tp4199
g5
(g9
S'\xd3\x0bM\x0e\xae)\x80\xbf'
p4200
tp4201
Rp4202
s(S'diff-x-pos--51'
p4203
S'action-3'
p4204
tp4205
g5
(g9
S'\xd0\xd5i\x9faN\x97?'
p4206
tp4207
Rp4208
s(S'diff-x-pos--66'
p4209
S'action-1'
p4210
tp4211
g5
(g9
S'\xf2Vj\xf4{^\x9d?'
p4212
tp4213
Rp4214
s(S'action-1'
p4215
S'object-0-x-84'
p4216
tp4217
g5
(g9
S'\x86OC5\x99\x9a\xbe?'
p4218
tp4219
Rp4220
s(S'diff-x-pos--82'
p4221
S'prev-action-4'
p4222
tp4223
g5
(g9
S'\x86\x99\x84\n\xf1\x03\x91?'
p4224
tp4225
Rp4226
s(S'diff-x-pos--24'
p4227
S'action-3'
p4228
tp4229
g5
(g9
S'\xfc\xc7^%$\x12\x84?'
p4230
tp4231
Rp4232
s(S'diff-x-pos--85'
p4233
S'prev-action-1'
p4234
tp4235
g5
(g9
S'\xeaU8z\x00\x8a"?'
p4236
tp4237
Rp4238
s(g746
g3948
tp4239
g5
(g9
S'\xd1\x9fPkW\xc98\xbf'
p4240
tp4241
Rp4242
s(S'diff-x-pos--32'
p4243
S'action-1'
p4244
tp4245
g5
(g9
S'Z\xdc\xb1\xdbMN\x8c?'
p4246
tp4247
Rp4248
s(S'diff-x-pos--97'
p4249
S'prev-action-1'
p4250
tp4251
g5
(g9
S'\x01\x88\xbd\xe7\xb1DI\xbf'
p4252
tp4253
Rp4254
s(S'diff-x-pos--17'
p4255
S'prev-action-4'
p4256
tp4257
g5
(g9
S'\x84\xb7{\xe3.\xee\x82\xbf'
p4258
tp4259
Rp4260
s(S'diff-x-pos--74'
p4261
S'prev-action-1'
p4262
tp4263
g5
(g9
S'\xa1\x8d+\xc51Z\x82?'
p4264
tp4265
Rp4266
s(g3402
S'prev-action-4'
p4267
tp4268
g5
(g9
S'\xf0,\x90\xea\x1a1\x97\xbf'
p4269
tp4270
Rp4271
s(S'diff-x-pos-35'
p4272
S'prev-action-3'
p4273
tp4274
g5
(g9
S'\xe5N\x1c\xdb\x93\x8aW?'
p4275
tp4276
Rp4277
s(S'diff-x-pos--77'
p4278
S'prev-action-4'
p4279
tp4280
g5
(g9
S'W\x9e\xc5\x981V\x82?'
p4281
tp4282
Rp4283
s(g1612
S'action-4'
p4284
tp4285
g5
(g9
S's\xbf\x1e%\x97\x10{?'
p4286
tp4287
Rp4288
s(S'diff-x-pos--24'
p4289
S'prev-action-1'
p4290
tp4291
g5
(g9
S'R\t\xa7r\xa5\xb8{\xbf'
p4292
tp4293
Rp4294
s(g700
S'action-4'
p4295
tp4296
g5
(g9
S's\xa2\xcd\x9e!|\x94\xbf'
p4297
tp4298
Rp4299
s(S'diff-x-pos-42'
p4300
S'prev-action-1'
p4301
tp4302
g5
(g9
S'0R\xd6.\x88\xd9\x8c?'
p4303
tp4304
Rp4305
sS'diff-y-pos--9'
p4306
g5
(g9
S'\xb0\xaf3Q\x94\xad\xce?'
p4307
tp4308
Rp4309
sS'diff-y-pos--8'
p4310
g5
(g9
S'\xfb\r\xf8\x91\xd7\xa3\xc9?'
p4311
tp4312
Rp4313
s(g1028
S'prev-action-3'
p4314
tp4315
g5
(g9
S'\x80\x84n\xe7\xfa\xf4\x82\xbf'
p4316
tp4317
Rp4318
sS'diff-y-pos--4'
p4319
g5
(g9
S'\xe0\x00\x9c\xa6\xae_\xc0?'
p4320
tp4321
Rp4322
sS'diff-y-pos--7'
p4323
g5
(g9
S'\xfd\xcc\x1d\x9f\xc4\xb0\xce?'
p4324
tp4325
Rp4326
s(g1046
S'prev-action-1'
p4327
tp4328
g5
(g9
S'\xf9\xa3\x92]F&\x91\xbf'
p4329
tp4330
Rp4331
sS'diff-y-pos--1'
p4332
g5
(g9
S'\x19y\x83\x98\xb2\xa8\xb4?'
p4333
tp4334
Rp4335
sS'diff-y-pos--3'
p4336
g5
(g9
S'~\xcb\x0f I\x16\xac?'
p4337
tp4338
Rp4339
sS'diff-y-pos--2'
p4340
g5
(g9
S'I=\xc6a|\x7f\xbd?'
p4341
tp4342
Rp4343
s(g2221
S'prev-action-4'
p4344
tp4345
g5
(g9
S'?ih\xf2\xbfdt\xbf'
p4346
tp4347
Rp4348
s(S'diff-x-pos--95'
p4349
S'prev-action-4'
p4350
tp4351
g5
(g9
S'\xc8\x1a\xc7\xce\xe2\xfeh?'
p4352
tp4353
Rp4354
s(g3236
S'action-3'
p4355
tp4356
g5
(g9
S'\xfajW\xcd\xb7Z^?'
p4357
tp4358
Rp4359
s(g2034
g1292
tp4360
g5
(g9
S'V\xff\xa5\xe7\x1a\xcc\xb5\xbf'
p4361
tp4362
Rp4363
s(S'diff-x-pos--14'
p4364
S'action-3'
p4365
tp4366
g5
(g9
S'\x0bI~`?\xfa\x88\xbf'
p4367
tp4368
Rp4369
s(S'action-3'
p4370
S'object-0-x-36'
p4371
tp4372
g5
(g9
S'\xf7\x88\xe1GI#\xbb?'
p4373
tp4374
Rp4375
s(S'action-3'
p4376
S'object-0-x-28'
p4377
tp4378
g5
(g9
S'a\xef\xe4E#\xda\xb3?'
p4379
tp4380
Rp4381
s(S'diff-x-pos-49'
p4382
S'action-1'
p4383
tp4384
g5
(g9
S'\xdf}\xf85\xbf\xec\x81?'
p4385
tp4386
Rp4387
s(S'diff-x-pos--4'
p4388
S'prev-action-1'
p4389
tp4390
g5
(g9
S'\xe3J\xef=)\xa6\x83\xbf'
p4391
tp4392
Rp4393
s(S'diff-x-pos--38'
p4394
S'action-3'
p4395
tp4396
g5
(g9
S'\x8e\xbb\x8f\x12\x9dZ\x94?'
p4397
tp4398
Rp4399
s(S'diff-x-pos-38'
p4400
S'action-3'
p4401
tp4402
g5
(g9
S'!\xab\x9b\xc5~\x06^\xbf'
p4403
tp4404
Rp4405
sg251
g5
(g9
S'\xe2\xa9\xa0\xa9\xdc\x08\xb8?'
p4406
tp4407
Rp4408
s(g993
S'action-1'
p4409
tp4410
g5
(g9
S'\xb5L\xc7\xc4{\xd7\x81?'
p4411
tp4412
Rp4413
sg1618
g5
(g9
S'\x81\xc0t\xbf\xbd\x8a}?'
p4414
tp4415
Rp4416
sg3615
g5
(g9
S'\xa9\xae\xb4;#g~?'
p4417
tp4418
Rp4419
sg1096
g5
(g9
S'\xf8$~\xbb\x17\xdev?'
p4420
tp4421
Rp4422
sS'diff-x-pos--84'
p4423
g5
(g9
S',\xf8x\x90=\x0eP?'
p4424
tp4425
Rp4426
sg946
g5
(g9
S'\x0f\xc2\x9dC?\xa4\x84?'
p4427
tp4428
Rp4429
sg2180
g5
(g9
S'\x9cg\xd9`\x86u\x9b?'
p4430
tp4431
Rp4432
sg2333
g5
(g9
S'!\xfa\x1a\xc5\xceXw?'
p4433
tp4434
Rp4435
sS'diff-x-pos--80'
p4436
g5
(g9
S'\x16N>:\t\x1a\xa4?'
p4437
tp4438
Rp4439
s(g660
S'object-0-x-24'
p4440
tp4441
g5
(g9
S'\xdfe\xe7\xc9W\xf6\xb7?'
p4442
tp4443
Rp4444
sg2
g5
(g9
S'\xcap\x17\xba2\x15W\xbf'
p4445
tp4446
Rp4447
sS'diff-x-pos--88'
p4448
g5
(g9
S'K\xa6\xd2i=Te?'
p4449
tp4450
Rp4451
s(S'diff-x-pos--38'
p4452
S'prev-action-3'
p4453
tp4454
g5
(g9
S'G\xcf`\xd3\xdb4\x83?'
p4455
tp4456
Rp4457
s(S'diff-x-pos-55'
p4458
S'prev-action-3'
p4459
tp4460
g5
(g9
S"\xf6'\x11\xc4T\x86>\xbf"
p4461
tp4462
Rp4463
s(S'action-3'
p4464
S'object-1-x-64'
p4465
tp4466
g5
(g9
S'\xf2\x08.\xacp\xc0\xb6?'
p4467
tp4468
Rp4469
s(S'action-1'
p4470
S'object-1-x-120'
p4471
tp4472
g5
(g9
S'\x85\xa9GM\xe2v\xa5?'
p4473
tp4474
Rp4475
s(g4012
S'prev-action-3'
p4476
tp4477
g5
(g9
S'\xf6C\xd1\x13O\xc2k\xbf'
p4478
tp4479
Rp4480
s(S'diff-x-pos-3'
p4481
S'prev-action-3'
p4482
tp4483
g5
(g9
S'\x1b\xe3\x9a\x81`\xd4~\xbf'
p4484
tp4485
Rp4486
s(g3395
S'prev-action-4'
p4487
tp4488
g5
(g9
S'\xb4\xf4mVh\x88v?'
p4489
tp4490
Rp4491
s(g3699
S'object-0-x-60'
p4492
tp4493
g5
(g9
S'8\xdb\xdfg\xf4\x16\xc5?'
p4494
tp4495
Rp4496
s(g2862
S'prev-action-3'
p4497
tp4498
g5
(g9
S'\xe8\x1b\xff\x1b}v\x9c?'
p4499
tp4500
Rp4501
sg1780
g5
(g9
S'\x9c\x01\x95\xc5`q\xa4\xbf'
p4502
tp4503
Rp4504
s(S'action-3'
p4505
S'object-1-x-84'
p4506
tp4507
g5
(g9
S'#g\xc4WwR\xab?'
p4508
tp4509
Rp4510
sS'diff-x-pos--12'
p4511
g5
(g9
S'\xdb\xb7u\xc5FQ\x8f\xbf'
p4512
tp4513
Rp4514
sg232
g5
(g9
S'Y\xdd_\xd9\x8ck\x97\xbf'
p4515
tp4516
Rp4517
sg3220
g5
(g9
S'\xd5\x9c\xf8\x9fv\xff\x92\xbf'
p4518
tp4519
Rp4520
s(S'diff-x-pos-4'
p4521
S'action-3'
p4522
tp4523
g5
(g9
S'\xf7\xca`8R`s\xbf'
p4524
tp4525
Rp4526
sg2051
g5
(g9
S'{\xe2\xb8\xffC\x12|\xbf'
p4527
tp4528
Rp4529
sS'diff-x-pos--17'
p4530
g5
(g9
S'\x98\x14\x1f#E\x12\x8c\xbf'
p4531
tp4532
Rp4533
s(g2163
S'prev-action-4'
p4534
tp4535
g5
(g9
S'\x97\xd0\xcf\x1b\xb4\xb7q?'
p4536
tp4537
Rp4538
sS'diff-x-pos--19'
p4539
g5
(g9
S',\xff\xc2\xca\xcf\xf7\x94\xbf'
p4540
tp4541
Rp4542
s(S'diff-x-pos--55'
p4543
S'prev-action-3'
p4544
tp4545
g5
(g9
S'\x80\xb1\x03\xa9\x86\xad\x97?'
p4546
tp4547
Rp4548
s(S'action-1'
p4549
S'object-0-x-4'
p4550
tp4551
g5
(g9
S'\x9c\xec\xaf\xb6\x93\xd0\xa0?'
p4552
tp4553
Rp4554
s(S'diff-x-pos-42'
p4555
S'action-1'
p4556
tp4557
g5
(g9
S'\xcd\xa2pZ\xd1h\x81?'
p4558
tp4559
Rp4560
s(S'diff-x-pos--62'
p4561
g3833
tp4562
g5
(g9
S'\x08\xfd\xda\x1b\xd6\r\xd0?'
p4563
tp4564
Rp4565
s(g301
S'prev-action-3'
p4566
tp4567
g5
(g9
S'B\xbd\x80P\x95\xe7\x85?'
p4568
tp4569
Rp4570
s(S'diff-x-pos--22'
p4571
S'prev-action-1'
p4572
tp4573
g5
(g9
S'bV\x1b\xf8,\xa0\x85?'
p4574
tp4575
Rp4576
s(g740
S'action-1'
p4577
tp4578
g5
(g9
S'\xf8\xd0J,\x10*]\xbf'
p4579
tp4580
Rp4581
s(S'action-3'
p4582
S'object-0-x-8'
p4583
tp4584
g5
(g9
S'\x1e\r\x8f \xec\x11\xc0?'
p4585
tp4586
Rp4587
s(g3878
S'object-0-x-60'
p4588
tp4589
g5
(g9
S'U\xdcPG\xa9\xed\xc6?'
p4590
tp4591
Rp4592
s(S'diff-x-pos--69'
p4593
S'prev-action-1'
p4594
tp4595
g5
(g9
S'i\x86\xeb\x04\x17\xe1\x96?'
p4596
tp4597
Rp4598
s(g2208
S'action-1'
p4599
tp4600
g5
(g9
S'\xaf6\xaf\xf1O\x16v\xbf'
p4601
tp4602
Rp4603
s(g3324
g2407
tp4604
g5
(g9
S'+=\x92fD\xb2\x8e\xbf'
p4605
tp4606
Rp4607
s(S'diff-x-pos--51'
p4608
g459
tp4609
g5
(g9
S'c9m\xc5l\xfe\x9a?'
p4610
tp4611
Rp4612
s(g2200
g4215
tp4613
g5
(g9
S'6\xc3b\x9a\x03\x12h\xbf'
p4614
tp4615
Rp4616
s(g1887
S'object-0-x-56'
p4617
tp4618
g5
(g9
S'|n\xdb\x80&\xea\xc4?'
p4619
tp4620
Rp4621
s(S'diff-x-pos--33'
p4622
S'prev-action-3'
p4623
tp4624
g5
(g9
S'\x17Z\xbe\xfau]\x8a?'
p4625
tp4626
Rp4627
s(g369
S'action-1'
p4628
tp4629
g5
(g9
S'\xac\xc2\x02\xef\xb8}\x95?'
p4630
tp4631
Rp4632
s(S'diff-x-pos--71'
p4633
S'prev-action-4'
p4634
tp4635
g5
(g9
S'>\xe6[\xb9\xbcF\x93?'
p4636
tp4637
Rp4638
s(S'diff-x-pos-47'
p4639
S'prev-action-4'
p4640
tp4641
g5
(g9
S'\xa7i\x8d\xc7y\x80r?'
p4642
tp4643
Rp4644
sg678
g5
(g9
S'W#\xa0 \xfa\x8d\xc2?'
p4645
tp4646
Rp4647
sg4471
g5
(g9
S'0\xc5v]\xa1\xf0\xbe?'
p4648
tp4649
Rp4650
s(g4154
S'prev-action-4'
p4651
tp4652
g5
(g9
S'\x93\xf2=\xde]\x8f\x91\xbf'
p4653
tp4654
Rp4655
s(S'diff-x-pos--60'
p4656
S'prev-action-1'
p4657
tp4658
g5
(g9
S'=\x1f#\xdb\xda\x93\x9d?'
p4659
tp4660
Rp4661
s(g250
g3746
tp4662
g5
(g9
S'\xcfN\x88\xeb\xd9j\xc6?'
p4663
tp4664
Rp4665
s(S'diff-x-pos-30'
p4666
S'prev-action-1'
p4667
tp4668
g5
(g9
S'TiQ"\xb5\xedm\xbf'
p4669
tp4670
Rp4671
s(S'diff-x-pos--27'
p4672
S'action-1'
p4673
tp4674
g5
(g9
S'\xc5t\xb5`=J\x8a?'
p4675
tp4676
Rp4677
sg2361
g5
(g9
S'\xda;h\xa7yuq?'
p4678
tp4679
Rp4680
sg1392
g5
(g9
S'\xe1G\x18\xc9"\x95W?'
p4681
tp4682
Rp4683
sg1488
g5
(g9
S'\xe1~\xcf_\x96\xb8\x85?'
p4684
tp4685
Rp4686
sg734
g5
(g9
S'\xd7\xf8m-\x05\xe4\x88?'
p4687
tp4688
Rp4689
sS'diff-x-pos--109'
p4690
g5
(g9
S'v\xc7R\xbc\x179a?'
p4691
tp4692
Rp4693
sg428
g5
(g9
S'\xed\xef\xa8\xb8\xe3\xc6Z?'
p4694
tp4695
Rp4696
sg3930
g5
(g9
S'\xaen[\x06(\xc4\x96?'
p4697
tp4698
Rp4699
sg2019
g5
(g9
S"oZ\x9c'[\xd5o?"
p4700
tp4701
Rp4702
sS'diff-x-pos-50'
p4703
g5
(g9
S'5!j\xa4\xbe\xfd\xa1?'
p4704
tp4705
Rp4706
sg2063
g5
(g9
S'`X}\x8c\xd8\x8c\x88?'
p4707
tp4708
Rp4709
s(g3248
S'prev-action-3'
p4710
tp4711
g5
(g9
S'\x18i\x8c\xcc\xbd\xf4\x81\xbf'
p4712
tp4713
Rp4714
sg1612
g5
(g9
S'\x9c\xfc\x95r\x86%\x94?'
p4715
tp4716
Rp4717
s(S'diff-x-pos-45'
p4718
S'action-1'
p4719
tp4720
g5
(g9
S'7\r\x81bl:\x89?'
p4721
tp4722
Rp4723
s(g1393
S'object-0-x-120'
p4724
tp4725
g5
(g9
S'\xe6\x0e>\x81Q\x9d\xb1?'
p4726
tp4727
Rp4728
s(g2229
S'action-4'
p4729
tp4730
g5
(g9
S'\x8a/\x14\xb64\xff\x83?'
p4731
tp4732
Rp4733
s(S'diff-x-pos-43'
p4734
S'prev-action-3'
p4735
tp4736
g5
(g9
S'Vu13\x96\xb7\x0b\xbf'
p4737
tp4738
Rp4739
s(g4063
S'prev-action-4'
p4740
tp4741
g5
(g9
S'$[05\xc0\x88}\xbf'
p4742
tp4743
Rp4744
sg1177
g5
(g9
S'\xac\xf1\xfc\xd7/\xc5z?'
p4745
tp4746
Rp4747
s(S'diff-x-pos--90'
p4748
S'action-1'
p4749
tp4750
g5
(g9
S'\xa8\xf3\x98\x82\x0b\xe6t?'
p4751
tp4752
Rp4753
s(S'action-1'
p4754
S'object-1-x-96'
p4755
tp4756
g5
(g9
S'gj\x15\xaa@9\xb2?'
p4757
tp4758
Rp4759
s(g4023
S'action-4'
p4760
tp4761
g5
(g9
S'\x84\x94[\xd2bB\x92?'
p4762
tp4763
Rp4764
s(g3930
S'action-1'
p4765
tp4766
g5
(g9
S'\xda\x9f\x92\x844\x0f|?'
p4767
tp4768
Rp4769
s(S'diff-x-pos-33'
p4770
S'prev-action-1'
p4771
tp4772
g5
(g9
S'\xea\x00\x1a\xa7\xdejv?'
p4773
tp4774
Rp4775
s(S'diff-x-pos--5'
p4776
S'action-1'
p4777
tp4778
g5
(g9
S'\x16\x8a\rB%\xf9v\xbf'
p4779
tp4780
Rp4781
s(S'diff-x-pos-2'
p4782
S'prev-action-1'
p4783
tp4784
g5
(g9
S'\xc2\x01\x1a\xd1\xe42\x93\xbf'
p4785
tp4786
Rp4787
s(S'diff-x-pos--39'
p4788
S'action-1'
p4789
tp4790
g5
(g9
S'}\x10\xe3"\x84\xb0\x97?'
p4791
tp4792
Rp4793
s(g1207
g15
tp4794
g5
(g9
S'\xb1\x9b\x85\xaaM\x82d?'
p4795
tp4796
Rp4797
s(S'object-0-dx-1'
p4798
g15
tp4799
g5
(g9
S'0\x9f\x8dC$\x1c\xc3?'
p4800
tp4801
Rp4802
s(S'diff-x-pos-14'
p4803
S'prev-action-1'
p4804
tp4805
g5
(g9
S'\x94\xff\xacj\xbfp\x92\xbf'
p4806
tp4807
Rp4808
s(g3430
S'prev-action-4'
p4809
tp4810
g5
(g9
S'  \x977\xe5\xabY?'
p4811
tp4812
Rp4813
s(S'diff-x-pos-37'
p4814
S'prev-action-1'
p4815
tp4816
g5
(g9
S'\xd3X\xd3w\x05q\\?'
p4817
tp4818
Rp4819
s(S'diff-x-pos--105'
p4820
S'action-1'
p4821
tp4822
g5
(g9
S'8\x1bt\xfd\xda\xce3\xbf'
p4823
tp4824
Rp4825
s(g405
S'prev-action-3'
p4826
tp4827
g5
(g9
S'\x02\xf8\xa3\xf4\x9b\x11e?'
p4828
tp4829
Rp4830
s(S'diff-x-pos--13'
p4831
S'prev-action-1'
p4832
tp4833
g5
(g9
S'q\xdd\xf9*\xa2[\x8b\xbf'
p4834
tp4835
Rp4836
s(g3316
S'action-4'
p4837
tp4838
g5
(g9
S'8$\x88]\\\x8c\x8a\xbf'
p4839
tp4840
Rp4841
s(g63
S'prev-action-4'
p4842
tp4843
g5
(g9
S'\x0em\xd7%\x16\x16\x87?'
p4844
tp4845
Rp4846
s(S'diff-x-pos--7'
p4847
S'action-1'
p4848
tp4849
g5
(g9
S's\xfb\xfa\xe7\xff\x90w\xbf'
p4850
tp4851
Rp4852
sg3996
g5
(g9
S'Y\xb7\xc1\xc9N\x94\xd9?'
p4853
tp4854
Rp4855
s(S'diff-x-pos--109'
p4856
S'prev-action-4'
p4857
tp4858
g5
(g9
S'\xa4@\x83d%z ?'
p4859
tp4860
Rp4861
s(g1430
g897
tp4862
g5
(g9
S'\xea\x89{TA.\xf2?'
p4863
tp4864
Rp4865
sS'object-0-x-96'
p4866
g5
(g9
S'\xda\xc9\xf4\x08\xdd\xdb\xd7?'
p4867
tp4868
Rp4869
s(S'diff-x-pos--47'
p4870
S'action-4'
p4871
tp4872
g5
(g9
S'vp\x9d\xa4>$}\xbf'
p4873
tp4874
Rp4875
s(S'diff-x-pos--94'
p4876
S'prev-action-3'
p4877
tp4878
g5
(g9
S'\x8f\x8f\xa4\xf3\xfc\x8aU?'
p4879
tp4880
Rp4881
s(S'diff-x-pos-48'
p4882
S'prev-action-3'
p4883
tp4884
g5
(g9
S'\xbd\xc7c\x08{\xac\x93?'
p4885
tp4886
Rp4887
s(S'diff-x-pos--50'
p4888
S'prev-action-1'
p4889
tp4890
g5
(g9
S'\x08\xae\xb8\xfd\x03\r\x91?'
p4891
tp4892
Rp4893
s(S'diff-x-pos--104'
p4894
S'prev-action-3'
p4895
tp4896
g5
(g9
S'\xb8\xa2s\x15\xc72H?'
p4897
tp4898
Rp4899
s(S'diff-x-pos--115'
p4900
S'prev-action-1'
p4901
tp4902
g5
(g9
S'q\xfbC\xebO.p\xbf'
p4903
tp4904
Rp4905
s(S'diff-x-pos--15'
p4906
S'action-4'
p4907
tp4908
g5
(g9
S'E\x07\x86\xfb\xe5k\x97\xbf'
p4909
tp4910
Rp4911
s(g27
g459
tp4912
g5
(g9
S'F*}\xb9\xd9\x89\xf1?'
p4913
tp4914
Rp4915
s(S'diff-x-pos--56'
p4916
S'prev-action-1'
p4917
tp4918
g5
(g9
S'\xe3f\xa8\x08\xe8\xd5w\xbf'
p4919
tp4920
Rp4921
s(S'diff-x-pos-63'
p4922
S'action-1'
p4923
tp4924
g5
(g9
S'\xc3-m\xc7bbM?'
p4925
tp4926
Rp4927
s(S'diff-x-pos-13'
p4928
S'prev-action-3'
p4929
tp4930
g5
(g9
S'\xbc\xfb\xb4\x9d\xed,\x83\xbf'
p4931
tp4932
Rp4933
s(S'diff-x-pos--103'
p4934
S'prev-action-3'
p4935
tp4936
g5
(g9
S'\xa4\xd0\xa1\x1eq\x9f(\xbf'
p4937
tp4938
Rp4939
s(g3762
S'action-4'
p4940
tp4941
g5
(g9
S'\xd5\x18s0i\x13\x82?'
p4942
tp4943
Rp4944
s(S'diff-x-pos-9'
p4945
S'action-1'
p4946
tp4947
g5
(g9
S'\xb5o\x9cml\x0f\x81\xbf'
p4948
tp4949
Rp4950
s(g3324
S'prev-action-3'
p4951
tp4952
g5
(g9
S'\x86&\x80\x06\x8e\xbd\x87?'
p4953
tp4954
Rp4955
s(g2355
S'action-3'
p4956
tp4957
g5
(g9
S'b\xfaV\xa1z\xe2b?'
p4958
tp4959
Rp4960
s(g1342
g2112
tp4961
g5
(g9
S'\x1f\xed\xf4l\xf7\x7f\x02\xbf'
p4962
tp4963
Rp4964
s(g846
S'prev-action-1'
p4965
tp4966
g5
(g9
S'\x0c\xa8~ei\x8b\x91?'
p4967
tp4968
Rp4969
s(g835
g522
tp4970
g5
(g9
S'H6\xf0\x07C_\x98?'
p4971
tp4972
Rp4973
s(S'action-1'
p4974
S'object-1-x-88'
p4975
tp4976
g5
(g9
S'\xe3\x8a\t(\xdd\x0c\xb1?'
p4977
tp4978
Rp4979
s(S'diff-x-pos-15'
p4980
S'action-1'
p4981
tp4982
g5
(g9
S'c\xbe\xcd\xfb\x024|\xbf'
p4983
tp4984
Rp4985
s(g2136
S'prev-action-1'
p4986
tp4987
g5
(g9
S')\x84\xdd\xd6|\x13[\xbf'
p4988
tp4989
Rp4990
s(S'diff-x-pos--52'
p4991
S'action-3'
p4992
tp4993
g5
(g9
S'\xebD\xecC\x86S\x8e?'
p4994
tp4995
Rp4996
s(g2176
S'prev-action-4'
p4997
tp4998
g5
(g9
S'w\xads\x1f\xeb\x10h?'
p4999
tp5000
Rp5001
sg186
g5
(g9
S'\x9b1\xbf\x11\xf3i\x9d\xbf'
p5002
tp5003
Rp5004
s(g4690
S'prev-action-3'
p5005
tp5006
g5
(g9
S'q\x88\xac\x01\x01\x0fP?'
p5007
tp5008
Rp5009
s(S'diff-x-pos-17'
p5010
S'prev-action-3'
p5011
tp5012
g5
(g9
S'\xa8\xe3q\xb0\x0f\xdcu\xbf'
p5013
tp5014
Rp5015
s(S'action-4'
p5016
g2649
tp5017
g5
(g9
S'\x05\xe0\x81o(C\xb2?'
p5018
tp5019
Rp5020
s(g1520
S'prev-action-4'
p5021
tp5022
g5
(g9
S'\x99\x1b\x96\x16j\x82\x90\xbf'
p5023
tp5024
Rp5025
s(g3552
S'action-4'
p5026
tp5027
g5
(g9
S'0\x91\x0f\xe0\xfa\x9f\x82?'
p5028
tp5029
Rp5030
s(S'diff-x-pos--67'
p5031
S'prev-action-0'
p5032
tp5033
g5
(g9
S'j\x9eg\xab\x8eA\xee?'
p5034
tp5035
Rp5036
s(S'diff-x-pos--31'
p5037
S'action-3'
p5038
tp5039
g5
(g9
S'\x83oV\xb6_f\x89?'
p5040
tp5041
Rp5042
s(g2804
S'prev-action-4'
p5043
tp5044
g5
(g9
S'\x05\x02\xae\x03\xb2Ai\xbf'
p5045
tp5046
Rp5047
s(S'diff-x-pos-1'
p5048
S'action-3'
p5049
tp5050
g5
(g9
S'-\x01\xd5V\xf6<\x87\xbf'
p5051
tp5052
Rp5053
s(S'diff-x-pos-5'
p5054
S'action-4'
p5055
tp5056
g5
(g9
S'\x95\xdeh\xce-T\x8e\xbf'
p5057
tp5058
Rp5059
s(S'diff-x-pos--41'
p5060
S'action-3'
p5061
tp5062
g5
(g9
S'\xc0\xc0\xb2\xcfTU\x90?'
p5063
tp5064
Rp5065
s(g712
g522
tp5066
g5
(g9
S'\x82\x00\xf0\xd9?\xeb\xf1?'
p5067
tp5068
Rp5069
s(g816
g2035
tp5070
g5
(g9
S'>\xe6\x1fH\xea\x98\x8c?'
p5071
tp5072
Rp5073
s(g914
S'action-3'
p5074
tp5075
g5
(g9
S'\xbe\xa3\xc5\xa5Y\xdf\x82\xbf'
p5076
tp5077
Rp5078
s(g1425
S'object-0-x-108'
p5079
tp5080
g5
(g9
S'0\x8c7%\xeb\xd1\xb9?'
p5081
tp5082
Rp5083
s(g1009
S'prev-action-4'
p5084
tp5085
g5
(g9
S'\xbb\xb2,\xe3\xd9\xbb\x94\xbf'
p5086
tp5087
Rp5088
s(g4395
S'object-1-x-76'
p5089
tp5090
g5
(g9
S'\xdfm\xf0\xe8]v\xb2?'
p5091
tp5092
Rp5093
s(S'action-1'
p5094
g105
tp5095
g5
(g9
S'\x8e\xea\xa5\xaf\x96\xc8\x9d\xbf'
p5096
tp5097
Rp5098
s(S'diff-x-pos--26'
p5099
g3021
tp5100
g5
(g9
S'U/t+\x9b\xdb\x82?'
p5101
tp5102
Rp5103
s(g2149
S'prev-action-1'
p5104
tp5105
g5
(g9
S'Z\x8c>RU<}?'
p5106
tp5107
Rp5108
s(S'action-3'
p5109
S'object-0-x-80'
p5110
tp5111
g5
(g9
S'\xa5-\xe4r\xce\xd7\xc2?'
p5112
tp5113
Rp5114
s(S'diff-x-pos--59'
p5115
S'action-1'
p5116
tp5117
g5
(g9
S'w\x9e\xf56Z\xba\x95?'
p5118
tp5119
Rp5120
s(S'diff-x-pos-54'
p5121
S'prev-action-3'
p5122
tp5123
g5
(g9
S'\x90\xce\xab`\xef\xfbZ?'
p5124
tp5125
Rp5126
s(S'diff-x-pos-8'
p5127
S'prev-action-1'
p5128
tp5129
g5
(g9
S'\xda\xa0\x9a\xaf\x02\x10\x8e\xbf'
p5130
tp5131
Rp5132
s(S'diff-x-pos-1'
p5133
S'prev-action-4'
p5134
tp5135
g5
(g9
S'm\xcel\x922\xee\x86\xbf'
p5136
tp5137
Rp5138
s(S'diff-x-pos-24'
p5139
S'action-4'
p5140
tp5141
g5
(g9
S'\xa8\xc5\xfe\xe9\xe6\xc1\x92\xbf'
p5142
tp5143
Rp5144
s(S'diff-x-pos-2'
p5145
S'action-1'
p5146
tp5147
g5
(g9
S'M\xfb%0\xce\x1f\x82\xbf'
p5148
tp5149
Rp5150
s(S'action-4'
p5151
g3838
tp5152
g5
(g9
S'(\xe4\xb4\xe37w\xba?'
p5153
tp5154
Rp5155
s(g3374
S'action-4'
p5156
tp5157
g5
(g9
S'\xc6\xe7\xb1\x8c\xf67e\xbf'
p5158
tp5159
Rp5160
s(S'diff-x-pos--112'
p5161
S'action-4'
p5162
tp5163
g5
(g9
S'gf\xc6PS\x06\xb6\xbe'
p5164
tp5165
Rp5166
s(S'diff-x-pos-12'
p5167
S'action-1'
p5168
tp5169
g5
(g9
S'\xa8sC5F\x90\x8a\xbf'
p5170
tp5171
Rp5172
s(S'diff-x-pos-47'
p5173
S'action-3'
p5174
tp5175
g5
(g9
S'\xd7*\xc6\xa4)Ln?'
p5176
tp5177
Rp5178
s(S'action-4'
p5179
g4866
tp5180
g5
(g9
S'\x11E\xa7W+\x8b\xc1?'
p5181
tp5182
Rp5183
s(S'diff-x-pos--41'
p5184
g752
tp5185
g5
(g9
S'\x08\x03:\x95\tT\\?'
p5186
tp5187
Rp5188
s(g3244
S'action-3'
p5189
tp5190
g5
(g9
S'FK\xfa\x85t\xfeo?'
p5191
tp5192
Rp5193
s(S'diff-x-pos--76'
p5194
S'prev-action-1'
p5195
tp5196
g5
(g9
S'\xc1J\x1b\xad\xdf\xa6\x90?'
p5197
tp5198
Rp5199
s(S'diff-x-pos-27'
p5200
S'prev-action-3'
p5201
tp5202
g5
(g9
S'\x96\x1d\xad\x9e\x1e\x04}\xbf'
p5203
tp5204
Rp5205
s(S'diff-x-pos--16'
p5206
S'action-3'
p5207
tp5208
g5
(g9
S'\xe7\xa0\xef=b4;?'
p5209
tp5210
Rp5211
s(S'diff-x-pos-14'
p5212
S'action-4'
p5213
tp5214
g5
(g9
S'X\x00n\xf6kl\x93\xbf'
p5215
tp5216
Rp5217
s(S'diff-x-pos--18'
p5218
S'action-1'
p5219
tp5220
g5
(g9
S'~\x955S\xd4<^\xbf'
p5221
tp5222
Rp5223
s(S'diff-x-pos--6'
p5224
S'prev-action-1'
p5225
tp5226
g5
(g9
S'\x80$oku\x07\x8c\xbf'
p5227
tp5228
Rp5229
s(S'diff-x-pos--36'
p5230
S'action-3'
p5231
tp5232
g5
(g9
S'\xcb\xac\x98iY\xda\x8a?'
p5233
tp5234
Rp5235
s(S'diff-x-pos-53'
p5236
S'prev-action-3'
p5237
tp5238
g5
(g9
S'\xc8\x1f\xbe\xd4\x80\xc1d?'
p5239
tp5240
Rp5241
s(S'diff-x-pos--70'
p5242
S'action-3'
p5243
tp5244
g5
(g9
S'\xc4\xe9.\xc6*\xd3\x84?'
p5245
tp5246
Rp5247
s(g3306
S'action-4'
p5248
tp5249
g5
(g9
S'\xa6t\x8b>\xbb\x9f\x8e\xbf'
p5250
tp5251
Rp5252
s(S'diff-x-pos--34'
p5253
S'prev-action-1'
p5254
tp5255
g5
(g9
S'\x1e\xc6f\xbd8M\x9c?'
p5256
tp5257
Rp5258
s(S'diff-x-pos--8'
p5259
S'action-3'
p5260
tp5261
g5
(g9
S':\xbc\xa2\xa2\x1b\xbfl\xbf'
p5262
tp5263
Rp5264
s(S'diff-x-pos--77'
p5265
S'action-3'
p5266
tp5267
g5
(g9
S'\xfc\xa5\xb8+*\xf7z?'
p5268
tp5269
Rp5270
sS'diff-y-pos--12'
p5271
g5
(g9
S'\xec,\xaa\x8dx@g?'
p5272
tp5273
Rp5274
s(S'diff-x-pos-67'
p5275
S'action-4'
p5276
tp5277
g5
(g9
S'\x8fx\xd1\xd9\x0c\xe1\x13\xbf'
p5278
tp5279
Rp5280
s(S'diff-x-pos--1'
p5281
S'action-4'
p5282
tp5283
g5
(g9
S'4\xb0\xac\xfaW\x02\x8e\xbf'
p5284
tp5285
Rp5286
s(g987
S'prev-action-4'
p5287
tp5288
g5
(g9
S'\xb8(\xe0U|\x94P\xbf'
p5289
tp5290
Rp5291
s(g4530
S'action-3'
p5292
tp5293
g5
(g9
S'\x1d\xa2\x8c\xban\x1ad\xbf'
p5294
tp5295
Rp5296
s(g2204
S'action-3'
p5297
tp5298
g5
(g9
S'7\x9f\x0c\xe2}\xb2.?'
p5299
tp5300
Rp5301
s(S'diff-x-pos-29'
p5302
S'action-1'
p5303
tp5304
g5
(g9
S'\x94c\x8c&u\xe3u?'
p5305
tp5306
Rp5307
s(g1190
S'object-1-x-72'
p5308
tp5309
g5
(g9
S'\x08\x97h\x11\x0e*\xb7?'
p5310
tp5311
Rp5312
s(g3408
S'prev-action-4'
p5313
tp5314
g5
(g9
S'c\x15\xa9e\x91\xf4r\xbf'
p5315
tp5316
Rp5317
s(S'diff-x-pos--2'
p5318
S'prev-action-1'
p5319
tp5320
g5
(g9
S'\xd3\xeaB\xe0\xcc\x0c\x84\xbf'
p5321
tp5322
Rp5323
s(S'action-4'
p5324
g788
tp5325
g5
(g9
S'I-\xac\xe4\xee\xdd\xbd?'
p5326
tp5327
Rp5328
s(S'diff-x-pos-47'
p5329
S'action-4'
p5330
tp5331
g5
(g9
S"Aj\xdb\x97\x86'Y?"
p5332
tp5333
Rp5334
s(g1768
S'action-4'
p5335
tp5336
g5
(g9
S'\xac*3\xe5m\x10\x9a\xbf'
p5337
tp5338
Rp5339
s(S'object-1-dx--1'
p5340
g568
tp5341
g5
(g9
S'\x8c\xa4g\xbe\nP\x9e\xbf'
p5342
tp5343
Rp5344
s(g3005
S'prev-action-3'
p5345
tp5346
g5
(g9
S'\x10\x99k\x8c\x9b\xc6r?'
p5347
tp5348
Rp5349
s(g3388
S'prev-action-4'
p5350
tp5351
g5
(g9
S'\xb3\xbe\xf0\xda\xf8\x8ac\xbf'
p5352
tp5353
Rp5354
s(g3358
S'prev-action-3'
p5355
tp5356
g5
(g9
S'HT\xb1\xbe\xe28e?'
p5357
tp5358
Rp5359
s(S'diff-x-pos--12'
p5360
S'prev-action-3'
p5361
tp5362
g5
(g9
S'>E\xd0QQ\xe8y?'
p5363
tp5364
Rp5365
s(g2225
S'action-4'
p5366
tp5367
g5
(g9
S'\xe6\xf6\xa1p\xd4!\x81\xbf'
p5368
tp5369
Rp5370
s(S'diff-x-pos-27'
p5371
S'action-3'
p5372
tp5373
g5
(g9
S'\xac\xc0\xe4\xb9\x9cG^?'
p5374
tp5375
Rp5376
s(g2933
S'prev-action-1'
p5377
tp5378
g5
(g9
S'\xb0\xe9M\xd5\xb03\x84\xbf'
p5379
tp5380
Rp5381
sS'object-1-x-88'
p5382
g5
(g9
S'\xfc\x05\x14\xb9\x18\xcf\xbe?'
p5383
tp5384
Rp5385
s(S'diff-x-pos--91'
p5386
S'prev-action-3'
p5387
tp5388
g5
(g9
S'\xa6\xade\x9b\x9f\xae@?'
p5389
tp5390
Rp5391
s(S'diff-x-pos--53'
p5392
S'action-1'
p5393
tp5394
g5
(g9
S'\x1f\xb6\n\xb1\xc3\x84\x9b?'
p5395
tp5396
Rp5397
s(S'diff-x-pos--45'
p5398
S'prev-action-4'
p5399
tp5400
g5
(g9
S'C\x87*\xe9\xbd\xb0\x93?'
p5401
tp5402
Rp5403
s(g1991
S'prev-action-4'
p5404
tp5405
g5
(g9
S'\xc6\t\x9f\xa7\xaa\xd4\x93?'
p5406
tp5407
Rp5408
s(g3220
S'prev-action-4'
p5409
tp5410
g5
(g9
S'Pu\xc9\xdd\xaei\x85\xbf'
p5411
tp5412
Rp5413
sS'object-0-x-112'
p5414
g5
(g9
S'\xad|C\x9a\x06\x7f\xd6?'
p5415
tp5416
Rp5417
s(g1780
g1269
tp5418
g5
(g9
S"'x\x06\x89N\xaas\xbf"
p5419
tp5420
Rp5421
sg3104
g5
(g9
S'\x17\x85\xc0\x17\x15P\xb8?'
p5422
tp5423
Rp5424
s(S'diff-x-pos-20'
p5425
S'action-1'
p5426
tp5427
g5
(g9
S'\x131ffE\x19\x81\xbf'
p5428
tp5429
Rp5430
s(g2811
S'prev-action-1'
p5431
tp5432
g5
(g9
S'|\x94\x90\x9d\x860,\xbf'
p5433
tp5434
Rp5435
s(S'diff-x-pos--40'
p5436
S'action-1'
p5437
tp5438
g5
(g9
S'\xc8\xe7\x1db\x92\x86\x96?'
p5439
tp5440
Rp5441
s(S'diff-x-pos-34'
p5442
S'prev-action-3'
p5443
tp5444
g5
(g9
S'\xc7\xd4\xb2\x93\xb8?s?'
p5445
tp5446
Rp5447
s(g4012
S'action-3'
p5448
tp5449
g5
(g9
S'\xf6C\xd1\x13O\xc2k\xbf'
p5450
tp5451
Rp5452
s(g1005
S'prev-action-4'
p5453
tp5454
g5
(g9
S'M\xd5TQ\x81\xa7\x81\xbf'
p5455
tp5456
Rp5457
s(S'diff-x-pos--83'
p5458
S'action-1'
p5459
tp5460
g5
(g9
S't\xda\xc9O\xc5\xc2\x93?'
p5461
tp5462
Rp5463
s(S'diff-x-pos-16'
p5464
S'action-4'
p5465
tp5466
g5
(g9
S'\xb6\xb4\x82\xe5\x1c0\x99\xbf'
p5467
tp5468
Rp5469
s(S'action-1'
p5470
S'object-0-x-52'
p5471
tp5472
g5
(g9
S'\xba\xa9\x0f\xadLm\xc0?'
p5473
tp5474
Rp5475
s(S'diff-x-pos-39'
p5476
S'prev-action-4'
p5477
tp5478
g5
(g9
S';\xd4\xef\xb0\xfb\xeav?'
p5479
tp5480
Rp5481
sS'object-1-dy-1'
p5482
g5
(g9
S'\xbew\x1c\x8a=+\xc2\xbf'
p5483
tp5484
Rp5485
s(S'diff-x-pos--68'
p5486
g3872
tp5487
g5
(g9
S'\xf0\xb1\xa0\xdcE\xbd\x90?'
p5488
tp5489
Rp5490
s(S'diff-x-pos--22'
p5491
S'prev-action-4'
p5492
tp5493
g5
(g9
S"\xde\x84>W'c\x86\xbf"
p5494
tp5495
Rp5496
s(S'diff-x-pos--53'
p5497
S'prev-action-1'
p5498
tp5499
g5
(g9
S'\xff5$#\x95T\x90?'
p5500
tp5501
Rp5502
s(g1596
S'object-0-x-20'
p5503
tp5504
g5
(g9
S'\xd0\xc2\x94!y\xf2\xb6?'
p5505
tp5506
Rp5507
s(g734
S'prev-action-1'
p5508
tp5509
g5
(g9
S'\t\xba\xc1\x015)y?'
p5510
tp5511
Rp5512
s(S'diff-x-pos-22'
p5513
S'prev-action-3'
p5514
tp5515
g5
(g9
S'\x13\xad\xc6\x07htH\xbf'
p5516
tp5517
Rp5518
s(S'diff-x-pos--66'
p5519
S'prev-action-4'
p5520
tp5521
g5
(g9
S'\xc6\xb0Q\x16\x91\x94\x91?'
p5522
tp5523
Rp5524
s(S'diff-x-pos--57'
p5525
S'prev-action-4'
p5526
tp5527
g5
(g9
S'i*JT\xca\n\x90?'
p5528
tp5529
Rp5530
s(g1645
S'action-4'
p5531
tp5532
g5
(g9
S'\xe1b\x089\n\t4\xbf'
p5533
tp5534
Rp5535
s(g823
S'prev-action-3'
p5536
tp5537
g5
(g9
S'\xf3\x18\x14>4\xed\xb1?'
p5538
tp5539
Rp5540
s(S'diff-x-pos--14'
p5541
S'prev-action-3'
p5542
tp5543
g5
(g9
S'<\xa2\xd0\xfbhY\x86?'
p5544
tp5545
Rp5546
s(g1874
S'object-1-x-60'
p5547
tp5548
g5
(g9
S'\x07\xcf\x01\x13e\xed\xb5?'
p5549
tp5550
Rp5551
s(g942
g459
tp5552
g5
(g9
S')\x86\xaf\x8c\xa9 \x91\xbf'
p5553
tp5554
Rp5555
sg4561
g5
(g9
S'je\xa4\n\x93\x9d\xc8?'
p5556
tp5557
Rp5558
s(S'diff-x-pos-46'
p5559
S'action-1'
p5560
tp5561
g5
(g9
S'V\x08\x98\xeb\xcd\xf8\x7f?'
p5562
tp5563
Rp5564
s(S'diff-x-pos--54'
p5565
S'action-1'
p5566
tp5567
g5
(g9
S'\xca\x00\\\xa9lC\x98?'
p5568
tp5569
Rp5570
s(g2159
g3954
tp5571
g5
(g9
S'\x11\xfe\x81L\xbdN\x9b?'
p5572
tp5573
Rp5574
s(g2999
S'action-4'
p5575
tp5576
g5
(g9
S'\xae\xd2\x04^\xb6\xcfz?'
p5577
tp5578
Rp5579
s(S'diff-x-pos--71'
p5580
S'prev-action-3'
p5581
tp5582
g5
(g9
S'>\x90\xb4\xb9\xff\x12\x9a?'
p5583
tp5584
Rp5585
s(g2704
S'prev-action-1'
p5586
tp5587
g5
(g9
S'\xf0\xff5$Y\xccq?'
p5588
tp5589
Rp5590
s(S'diff-x-pos--64'
p5591
S'action-4'
p5592
tp5593
g5
(g9
S'=Qw\xa1\xeb::\xbf'
p5594
tp5595
Rp5596
s(S'diff-x-pos--66'
p5597
S'action-4'
p5598
tp5599
g5
(g9
S'\x14\xebuG\xdbi\x94?'
p5600
tp5601
Rp5602
s(S'diff-x-pos-0'
p5603
S'prev-action-1'
p5604
tp5605
g5
(g9
S'\xbaK\xf4\xdb\x80\xca\x92\xbf'
p5606
tp5607
Rp5608
s(S'action-1'
p5609
S'object-0-x-0'
p5610
tp5611
g5
(g9
S'\xe2\x90\x06\x98\xbaQl?'
p5612
tp5613
Rp5614
s(S'diff-x-pos-10'
p5615
S'prev-action-1'
p5616
tp5617
g5
(g9
S'\xca\xf2Z\xb2\xe4!\x8d\xbf'
p5618
tp5619
Rp5620
s(S'diff-x-pos-27'
p5621
S'action-1'
p5622
tp5623
g5
(g9
S'\xe8\xf5>V\xe0\xa1\\\xbf'
p5624
tp5625
Rp5626
s(S'diff-x-pos--62'
p5627
S'prev-action-4'
p5628
tp5629
g5
(g9
S'_\x81y@\x9bU\x8a\xbf'
p5630
tp5631
Rp5632
s(S'diff-x-pos--74'
p5633
S'action-1'
p5634
tp5635
g5
(g9
S'\\\x1eoF\xef\x07\x8c?'
p5636
tp5637
Rp5638
s(S'diff-x-pos--32'
p5639
S'prev-action-4'
p5640
tp5641
g5
(g9
S'\xa6\x8a&\xef\xaf\xb9b?'
p5642
tp5643
Rp5644
s(S'diff-x-pos--81'
p5645
S'prev-action-3'
p5646
tp5647
g5
(g9
S'X\xabGRk\xe71?'
p5648
tp5649
Rp5650
s(g3537
S'action-4'
p5651
tp5652
g5
(g9
S'OM\x19x\xa2\xd5`?'
p5653
tp5654
Rp5655
s(g3027
S'action-4'
p5656
tp5657
g5
(g9
S'(\x15/\xac4\x19~?'
p5658
tp5659
Rp5660
sg2304
g5
(g9
S'\x85\x8d\xbc\xa7]\x07d?'
p5661
tp5662
Rp5663
sg3796
g5
(g9
S'\xc3\x93\x13\x04\xde\xdb\\?'
p5664
tp5665
Rp5666
s(g1458
S'prev-action-4'
p5667
tp5668
g5
(g9
S'\x1f\x17\xe2\xf3.\x7fq?'
p5669
tp5670
Rp5671
sg2537
g5
(g9
S'H\xa8\xb3[\x18\xf7H\xbf'
p5672
tp5673
Rp5674
sg1332
g5
(g9
S'\x1ep\x97\xef\xc9ZU\xbf'
p5675
tp5676
Rp5677
sg5275
g5
(g9
S'\x8fx\xd1\xd9\x0c\xe1\x13\xbf'
p5678
tp5679
Rp5680
s(S'diff-x-pos--63'
p5681
S'action-1'
p5682
tp5683
g5
(g9
S';\r\x16\xac x\x95?'
p5684
tp5685
Rp5686
sg1342
g5
(g9
S'\x1f\xed\xf4l\xf7\x7f\x02\xbf'
p5687
tp5688
Rp5689
s(g3225
S'action-4'
p5690
tp5691
g5
(g9
S'\xae\xa8(\xf3\xc4\xf8b?'
p5692
tp5693
Rp5694
s(g27
g1510
tp5695
g5
(g9
S'\xbeR\xd6\xf6\xe8_\xc4?'
p5696
tp5697
Rp5698
s(g3378
g1733
tp5699
g5
(g9
S'\x05\xc6\xea\xdb\x01\xcfo\xbf'
p5700
tp5701
Rp5702
s(S'diff-x-pos-21'
p5703
g5109
tp5704
g5
(g9
S'\x03\rM\x1b\xfd\xcds\xbf'
p5705
tp5706
Rp5707
s(S'object-0-dx--1'
p5708
S'prev-action-4'
p5709
tp5710
g5
(g9
S'\x9c\x8a\xaaw,\x8cU?'
p5711
tp5712
Rp5713
s(S'diff-x-pos--42'
p5714
g2442
tp5715
g5
(g9
S'\x08\xef|/\xa0\xd3\x91?'
p5716
tp5717
Rp5718
s(S'diff-x-pos--88'
p5719
S'prev-action-1'
p5720
tp5721
g5
(g9
S'\x93\x1a\x1c\x10b;L?'
p5722
tp5723
Rp5724
s(S'action-4'
p5725
g331
tp5726
g5
(g9
S'\xb9\xdd\x1e\x9f{Q:\xbf'
p5727
tp5728
Rp5729
s(g5386
S'action-3'
p5730
tp5731
g5
(g9
S'\x8a\x10j\xc8\xfe\xc9`?'
p5732
tp5733
Rp5734
s(S'action-3'
p5735
S'object-1-x-120'
p5736
tp5737
g5
(g9
S'\xc2p\xc9\xea\xc1\x05\xa2?'
p5738
tp5739
Rp5740
s(g544
S'prev-action-4'
p5741
tp5742
g5
(g9
S'\x01O\xf0\xe7\x89\x9bQ\xbf'
p5743
tp5744
Rp5745
s(S'diff-x-pos--85'
p5746
S'action-1'
p5747
tp5748
g5
(g9
S'H\xf1\xf9;v\xf3/\xbf'
p5749
tp5750
Rp5751
s(S'diff-x-pos-51'
p5752
S'prev-action-1'
p5753
tp5754
g5
(g9
S'FQ\xc2;\x9f\xf4r\xbf'
p5755
tp5756
Rp5757
s(g70
S'object-0-x-100'
p5758
tp5759
g5
(g9
S'|\xa6\x01\xfe\xfc\xfc\xb8?'
p5760
tp5761
Rp5762
s(S'diff-x-pos--18'
p5763
S'prev-action-4'
p5764
tp5765
g5
(g9
S'?\x8cW\x8b\x1fov\xbf'
p5766
tp5767
Rp5768
s(S'diff-x-pos--78'
p5769
S'prev-action-3'
p5770
tp5771
g5
(g9
S'\xa1.\x1fs\xaf\xf2W\xbf'
p5772
tp5773
Rp5774
s(S'diff-x-pos--32'
p5775
S'prev-action-3'
p5776
tp5777
g5
(g9
S'D\xdad\xf6\xca#\x9b?'
p5778
tp5779
Rp5780
s(g2784
g712
tp5781
g5
(g9
S'\xfc\xc4\x1e\x07\x0ef\xc7\xbf'
p5782
tp5783
Rp5784
s(g1954
S'prev-action-3'
p5785
tp5786
g5
(g9
S'\xbe\xbd\x9a\x9e(\xd8\x8d?'
p5787
tp5788
Rp5789
s(S'diff-x-pos-7'
p5790
S'prev-action-1'
p5791
tp5792
g5
(g9
S'\xfd\x84\xfbi\xccI\x85\xbf'
p5793
tp5794
Rp5795
s(g452
g3726
tp5796
g5
(g9
S'1\xd3\xb6>4\x08\xc6?'
p5797
tp5798
Rp5799
s(S'diff-x-pos-60'
p5800
S'action-1'
p5801
tp5802
g5
(g9
S'\xe2\xc7]8\xe1nK?'
p5803
tp5804
Rp5805
s(g2750
S'prev-action-4'
p5806
tp5807
g5
(g9
S'\xd5\xb1C\xf0Q7}?'
p5808
tp5809
Rp5810
s(g375
S'prev-action-1'
p5811
tp5812
g5
(g9
S'\xc7i|I\xd0*\x95?'
p5813
tp5814
Rp5815
s(g3302
S'prev-action-3'
p5816
tp5817
g5
(g9
S'|\x0b\xf86\xb8{b\xbf'
p5818
tp5819
Rp5820
s(g3615
S'prev-action-3'
p5821
tp5822
g5
(g9
S'v5\xad\xab\xc0\x1di?'
p5823
tp5824
Rp5825
s(g5769
S'action-3'
p5826
tp5827
g5
(g9
S'\xf55\xeb\xc3o\xf2\x84?'
p5828
tp5829
Rp5830
s(S'diff-x-pos-26'
p5831
S'prev-action-1'
p5832
tp5833
g5
(g9
S'w^\x15\xb6_h\x80\xbf'
p5834
tp5835
Rp5836
s(g3814
S'action-4'
p5837
tp5838
g5
(g9
S'e>7\xf5\x82]\x94?'
p5839
tp5840
Rp5841
s(S'diff-x-pos-31'
p5842
S'prev-action-3'
p5843
tp5844
g5
(g9
S'>M\xe7\xf3\xc5\x15S?'
p5845
tp5846
Rp5847
s(g1968
g671
tp5848
g5
(g9
S'\xf7\x05\xfcLV\xc6\x91?'
p5849
tp5850
Rp5851
s(S'object-0-dx--1'
p5852
g1387
tp5853
g5
(g9
S'\xd2\xcem\xee3Y\xbf?'
p5854
tp5855
Rp5856
s(S'diff-x-pos--65'
p5857
S'action-3'
p5858
tp5859
g5
(g9
S'A\x94K\x8e\xc90\x89?'
p5860
tp5861
Rp5862
sg3173
g5
(g9
S'\x99\xfe\xb3R\xc5\xa1\xdf?'
p5863
tp5864
Rp5865
sS'object-0-x-84'
p5866
g5
(g9
S'Y\xaf\x1c\xb3\xf5i\xdc?'
p5867
tp5868
Rp5869
sg4492
g5
(g9
S'\xf3\x9f\xc8\x9cx\xa3\xdf?'
p5870
tp5871
Rp5872
s(g5031
S'action-3'
p5873
tp5874
g5
(g9
S'\x9a3\xb8\xeeO\x17\xc4?'
p5875
tp5876
Rp5877
s(g3524
S'prev-action-4'
p5878
tp5879
g5
(g9
S'\xae\x87\xf3Iwq@\xbf'
p5880
tp5881
Rp5882
s(g1520
S'action-1'
p5883
tp5884
g5
(g9
S'\xed\xdf\xec\x16o(M?'
p5885
tp5886
Rp5887
sS'object-0-x-68'
p5888
g5
(g9
S'a\xfdz\xfe\x8d\xcd\xdd?'
p5889
tp5890
Rp5891
s(g3796
S'action-4'
p5892
tp5893
g5
(g9
S'\xc2\xf9\xb9@YUL?'
p5894
tp5895
Rp5896
s(S'diff-x-pos--87'
p5897
S'prev-action-1'
p5898
tp5899
g5
(g9
S'`\x08\xbf\x82\xd2/u?'
p5900
tp5901
Rp5902
s(S'diff-x-pos--50'
p5903
S'action-4'
p5904
tp5905
g5
(g9
S'\xd0\x08\xa55?\x81\x8d\xbf'
p5906
tp5907
Rp5908
s(g2367
S'prev-action-3'
p5909
tp5910
g5
(g9
S'\x1f\x15\xed\xaf\xd99=\xbf'
p5911
tp5912
Rp5913
s(S'diff-x-pos--49'
p5914
S'action-1'
p5915
tp5916
g5
(g9
S'he)\xd8N\xdb\x97?'
p5917
tp5918
Rp5919
s(g2361
S'action-3'
p5920
tp5921
g5
(g9
S'\xaf\xebM\xc31\x8c??'
p5922
tp5923
Rp5924
s(S'diff-x-pos--46'
p5925
S'action-3'
p5926
tp5927
g5
(g9
S'\xf4\xfa\xa6m+K\x95?'
p5928
tp5929
Rp5930
s(S'diff-x-pos-56'
p5931
S'action-1'
p5932
tp5933
g5
(g9
S'\xe2\xc5\xb9\xe2\xc4Rr?'
p5934
tp5935
Rp5936
s(S'diff-x-pos-26'
p5937
S'action-1'
p5938
tp5939
g5
(g9
S'\xb4\x7f&\x87\xb4\x1dP?'
p5940
tp5941
Rp5942
s(g2333
g174
tp5943
g5
(g9
S'\xcb\xb2\xab\xe6\xdf\xdfv?'
p5944
tp5945
Rp5946
sS'object-0-x-12'
p5947
g5
(g9
S'\x95B\x86/\x96X\xc2?'
p5948
tp5949
Rp5950
s(S'diff-x-pos-11'
p5951
S'prev-action-4'
p5952
tp5953
g5
(g9
S'\xa9f\x186\x07\xfa\x8a\xbf'
p5954
tp5955
Rp5956
s(S'diff-x-pos-25'
p5957
S'prev-action-1'
p5958
tp5959
g5
(g9
S'~\xad\xe1\x0c\x86.s\xbf'
p5960
tp5961
Rp5962
s(g2436
S'action-4'
p5963
tp5964
g5
(g9
S'\xa6\x07\x87\xf9\x94|r?'
p5965
tp5966
Rp5967
s(S'diff-x-pos--44'
p5968
S'prev-action-3'
p5969
tp5970
g5
(g9
S'\xf8\x9d\xad\xd8x\xf3\x98?'
p5971
tp5972
Rp5973
s(g4561
g3832
tp5974
g5
(g9
S'\x9dj$B\x06q\xb2?'
p5975
tp5976
Rp5977
s(g3378
S'prev-action-4'
p5978
tp5979
g5
(g9
S'u\x81`\xa5y;y\xbf'
p5980
tp5981
Rp5982
s(S'diff-x-pos--34'
p5983
S'action-1'
p5984
tp5985
g5
(g9
S'+\xe9\x00j\xd5\x7f\x95?'
p5986
tp5987
Rp5988
s(S'diff-x-pos-59'
p5989
S'action-3'
p5990
tp5991
g5
(g9
S'{\xa1\xc3}\xe1\xc7W\xbf'
p5992
tp5993
Rp5994
s(S'diff-x-pos-41'
p5995
S'action-3'
p5996
tp5997
g5
(g9
S'\\0*L\x80\xb0{?'
p5998
tp5999
Rp6000
s(g4016
S'prev-action-3'
p6001
tp6002
g5
(g9
S'\x05\x13i\xcd\xdb\x19u\xbf'
p6003
tp6004
Rp6005
s(S'diff-x-pos--29'
p6006
S'prev-action-1'
p6007
tp6008
g5
(g9
S'!\x9c\xfa\xcc\xb2\xdbf\xbf'
p6009
tp6010
Rp6011
s(S'diff-x-pos-5'
p6012
S'action-1'
p6013
tp6014
g5
(g9
S'g\xd4$pE\x0b\x91\xbf'
p6015
tp6016
Rp6017
s(g2815
S'prev-action-4'
p6018
tp6019
g5
(g9
S'\x08\xcfe\xe7\xf0<\x1d?'
p6020
tp6021
Rp6022
s(S'diff-x-pos--30'
p6023
S'prev-action-0'
p6024
tp6025
g5
(g9
S'\x0b\x80\xb2\x98\xc0\xd7\xbe?'
p6026
tp6027
Rp6028
s(S'diff-x-pos--54'
p6029
S'prev-action-1'
p6030
tp6031
g5
(g9
S'\xabz\xcd\xfe\xc9\xe6\x8b?'
p6032
tp6033
Rp6034
s(S'diff-x-pos-46'
p6035
S'prev-action-1'
p6036
tp6037
g5
(g9
S'\x84\x108n\x99\xd7\x80?'
p6038
tp6039
Rp6040
s(g4423
S'action-4'
p6041
tp6042
g5
(g9
S'{1\xc4\x1c\xd6\x10j\xbf'
p6043
tp6044
Rp6045
s(g1016
S'action-1'
p6046
tp6047
g5
(g9
S'G\xd4\xa70\xc2E\x88\xbf'
p6048
tp6049
Rp6050
s(g4448
S'prev-action-3'
p6051
tp6052
g5
(g9
S'\xb4s9\xa7x\x0eU\xbf'
p6053
tp6054
Rp6055
s(S'diff-x-pos--103'
p6056
S'action-1'
p6057
tp6058
g5
(g9
S'R\xae^\xeaq\xc5j?'
p6059
tp6060
Rp6061
s(S'diff-x-pos--75'
p6062
S'action-3'
p6063
tp6064
g5
(g9
S'\xdem\x85\xad\xa2\xc5}?'
p6065
tp6066
Rp6067
s(S'diff-x-pos--56'
p6068
S'action-3'
p6069
tp6070
g5
(g9
S'\x0e\xfb*/\xd4\xcd\xa4?'
p6071
tp6072
Rp6073
s(g4820
S'prev-action-3'
p6074
tp6075
g5
(g9
S'q\xbd\xd1\x96\x0b\x8f-?'
p6076
tp6077
Rp6078
sg1263
g5
(g9
S'C5\xfd\xe9\x1c\x1c\x8b\xbf'
p6079
tp6080
Rp6081
s(g3328
S'prev-action-3'
p6082
tp6083
g5
(g9
S'Z]\xc3\xbf\x01\xc7n?'
p6084
tp6085
Rp6086
s(S'diff-x-pos-22'
p6087
g93
tp6088
g5
(g9
S'7\xdc\xbf8\x86\xfc9?'
p6089
tp6090
Rp6091
s(S'action-1'
p6092
S'object-0-x-116'
p6093
tp6094
g5
(g9
S'W\x9a\xe1\x0bce\xb5?'
p6095
tp6096
Rp6097
s(g3395
g5179
tp6098
g5
(g9
S'\xf5\x15\xc1\xb3-5y?'
p6099
tp6100
Rp6101
s(g3328
g363
tp6102
g5
(g9
S'^h\xa3\x96E\xd4P?'
p6103
tp6104
Rp6105
s(g1815
S'action-3'
p6106
tp6107
g5
(g9
S'\xeb\xadb\x94\xc3\x0be?'
p6108
tp6109
Rp6110
s(g1292
g1500
tp6111
g5
(g9
S'\x7f\x88V\x8c\x0f7\xc4?'
p6112
tp6113
Rp6114
s(S'diff-x-pos--39'
p6115
S'prev-action-0'
p6116
tp6117
g5
(g9
S'\xe2\x8d\x91Q\x93\xfb\xac?'
p6118
tp6119
Rp6120
s(g216
S'action-1'
p6121
tp6122
g5
(g9
S'u\xf6\xd7\x168pX?'
p6123
tp6124
Rp6125
s(S'diff-x-pos--62'
p6126
g1494
tp6127
g5
(g9
S"!\xc7\xab\x96n'\xb3?"
p6128
tp6129
Rp6130
sg5486
g5
(g9
S'\xaa\xd1\x06A\xc9\xd9\x98?'
p6131
tp6132
Rp6133
s(S'diff-x-pos-18'
p6134
S'prev-action-1'
p6135
tp6136
g5
(g9
S'\xd0t\xfa\xa3\xe4\xfa\x9b\xbf'
p6137
tp6138
Rp6139
s(S'diff-x-pos--67'
p6140
S'prev-action-4'
p6141
tp6142
g5
(g9
S'\xe1\x9ej\x07\xbe\xbc\xc1\xbf'
p6143
tp6144
Rp6145
s(g712
g158
tp6146
g5
(g9
S'?\x8e$8\xbbW\xc2?'
p6147
tp6148
Rp6149
s(g1005
S'action-4'
p6150
tp6151
g5
(g9
S"\xf7'\xe6\xce\x82\x1d\x9a\xbf"
p6152
tp6153
Rp6154
s(S'diff-x-pos--64'
p6155
S'prev-action-1'
p6156
tp6157
g5
(g9
S'Sq\xafIL\xee\x89?'
p6158
tp6159
Rp6160
s(g1692
S'prev-action-3'
p6161
tp6162
g5
(g9
S'\xee\xb3\x10\x8b\xa1X\x80\xbf'
p6163
tp6164
Rp6165
s(S'diff-x-pos--89'
p6166
S'prev-action-3'
p6167
tp6168
g5
(g9
S'\x06\x0f\xc7\xb1\xbf7U\xbf'
p6169
tp6170
Rp6171
s(g620
g5866
tp6172
g5
(g9
S'\xc6&\x93i\xad\x9d\xc5?'
p6173
tp6174
Rp6175
s(S'action-3'
p6176
S'object-1-x-72'
p6177
tp6178
g5
(g9
S'7\xb3Ru\xf5\xf0\xb2?'
p6179
tp6180
Rp6181
s(S'diff-x-pos--69'
p6182
S'prev-action-3'
p6183
tp6184
g5
(g9
S'\x96R\x06\x12n\x8fR?'
p6185
tp6186
Rp6187
s(g3631
S'action-3'
p6188
tp6189
g5
(g9
S'\x8a\x9b\xfdfU\xc6=?'
p6190
tp6191
Rp6192
s(g4703
S'prev-action-3'
p6193
tp6194
g5
(g9
S'\xdb\xd8\xf8t_\xb4{?'
p6195
tp6196
Rp6197
s(g1618
S'action-4'
p6198
tp6199
g5
(g9
S'\npm\x92\x9d\x97]?'
p6200
tp6201
Rp6202
s(g823
S'action-4'
p6203
tp6204
g5
(g9
S'(\x0e\x1bK\x0eT\x97?'
p6205
tp6206
Rp6207
sg1880
g5
(g9
S'h\xe6\xece\x07\xa1\xab?'
p6208
tp6209
Rp6210
s(S'diff-x-pos--108'
p6211
S'prev-action-1'
p6212
tp6213
g5
(g9
S'\xe1\xbaU\x0c\x95\x85\x18?'
p6214
tp6215
Rp6216
s(S'diff-x-pos--48'
p6217
S'action-4'
p6218
tp6219
g5
(g9
S'<\xc1@\x0b\x03@t?'
p6220
tp6221
Rp6222
s(S'diff-x-pos-23'
p6223
S'action-3'
p6224
tp6225
g5
(g9
S'7x>\x9a\xda\xc6E?'
p6226
tp6227
Rp6228
s(S'diff-x-pos-6'
p6229
S'prev-action-3'
p6230
tp6231
g5
(g9
S'M<u\xfe\x8c\x0br\xbf'
p6232
tp6233
Rp6234
s(g5904
g5382
tp6235
g5
(g9
S':R\x98\xf53\x1bl?'
p6236
tp6237
Rp6238
s(S'diff-x-pos-3'
p6239
S'prev-action-1'
p6240
tp6241
g5
(g9
S'=\xc06\x84>\x8e\x8a\xbf'
p6242
tp6243
Rp6244
s(g4436
S'prev-action-4'
p6245
tp6246
g5
(g9
S'zmEDi\xd9\xa1?'
p6247
tp6248
Rp6249
s(S'diff-x-pos-19'
p6250
S'prev-action-4'
p6251
tp6252
g5
(g9
S'\xa2\x85\xf1\x03Zf\x7f\xbf'
p6253
tp6254
Rp6255
s(S'diff-x-pos--40'
p6256
S'prev-action-3'
p6257
tp6258
g5
(g9
S's\x9a\x99\x10\xb5s\x88?'
p6259
tp6260
Rp6261
s(S'diff-x-pos--72'
p6262
S'action-3'
p6263
tp6264
g5
(g9
S'\x97\x9e\xe0@\xff#\x82?'
p6265
tp6266
Rp6267
s(g2186
S'action-4'
p6268
tp6269
g5
(g9
S'\xd380\xfb.$r\xbf'
p6270
tp6271
Rp6272
s(S'diff-x-pos--79'
p6273
g4974
tp6274
g5
(g9
S'\xdaPK\x12\x8e\x93m?'
p6275
tp6276
Rp6277
s(g3207
S'prev-action-1'
p6278
tp6279
g5
(g9
S'tunx\x8f\xec@\xbf'
p6280
tp6281
Rp6282
s(g854
S'prev-action-3'
p6283
tp6284
g5
(g9
S'f\xfc\xf4\xb3\xe7\xbfR?'
p6285
tp6286
Rp6287
s(g1921
S'action-3'
p6288
tp6289
g5
(g9
S'\xc78\xd5Ty\xd1T\xbf'
p6290
tp6291
Rp6292
s(S'diff-x-pos-39'
p6293
S'action-3'
p6294
tp6295
g5
(g9
S't\xeaiG\xc7\xe8M\xbf'
p6296
tp6297
Rp6298
s(g4539
S'prev-action-1'
p6299
tp6300
g5
(g9
S'\xcef\x9d\xe8Mz\x9c\xbf'
p6301
tp6302
Rp6303
s(S'diff-x-pos--86'
p6304
S'action-4'
p6305
tp6306
g5
(g9
S'\x11\xce"\xe9!\t_?'
p6307
tp6308
Rp6309
s(S'diff-x-pos--70'
p6310
S'prev-action-3'
p6311
tp6312
g5
(g9
S'\x1a\xf4\xcf\x90a5\x9a?'
p6313
tp6314
Rp6315
s(g3388
S'action-4'
p6316
tp6317
g5
(g9
S'R\xe6\xcf\xc5=\xd1v\xbf'
p6318
tp6319
Rp6320
s(S'diff-x-pos--114'
p6321
S'action-3'
p6322
tp6323
g5
(g9
S'\xf6\xc2q\xce\xb74g?'
p6324
tp6325
Rp6326
s(g1968
S'prev-action-4'
p6327
tp6328
g5
(g9
S'V\xa0\xef\t\xf2\xcd\xa2?'
p6329
tp6330
Rp6331
s(S'diff-x-pos--73'
p6332
S'action-3'
p6333
tp6334
g5
(g9
S'P\xc4\xebX\xca?y?'
p6335
tp6336
Rp6337
s(g2020
S'object-0-x-112'
p6338
tp6339
g5
(g9
S'm\xbc\xbf9\xa3\xc0\xb9?'
p6340
tp6341
Rp6342
s(g4511
S'prev-action-4'
p6343
tp6344
g5
(g9
S'\xe3\xc7\xd8\xbaHsA?'
p6345
tp6346
Rp6347
s(g1991
g4505
tp6348
g5
(g9
S'^\xbb\x80\x84\xb0\x88\x92?'
p6349
tp6350
Rp6351
s(g2180
S'prev-action-3'
p6352
tp6353
g5
(g9
S'\xf0 KB%>\x80?'
p6354
tp6355
Rp6356
s(g1975
S'action-1'
p6357
tp6358
g5
(g9
S'\x9e\x96\xa3fj\x0c\x90?'
p6359
tp6360
Rp6361
s(g5266
S'object-1-x-124'
p6362
tp6363
g5
(g9
S'\x97\x86\x1d\xb0c\x1a\xad?'
p6364
tp6365
Rp6366
sg3955
g5
(g9
S'\xdfs\x03\xce> \xd3?'
p6367
tp6368
Rp6369
s(g4191
S'prev-action-1'
p6370
tp6371
g5
(g9
S'.e\xbf[Q\x90\x93\xbf'
p6372
tp6373
Rp6374
s(g4436
g4470
tp6375
g5
(g9
S'6\xfe\xdb@\xcdU\x8a?'
p6376
tp6377
Rp6378
sg5031
g5
(g9
S'\xa4R\xcc\xf1R\x97\xde?'
p6379
tp6380
Rp6381
s(g850
S'prev-action-3'
p6382
tp6383
g5
(g9
S'\xb6~\xcb\xcb\xa2\x0f\x93?'
p6384
tp6385
Rp6386
s(g1085
S'object-0-x-16'
p6387
tp6388
g5
(g9
S'\x13\xa8\xb9\x0e\xbd\x06\xa5?'
p6389
tp6390
Rp6391
s(g3610
S'object-1-x-76'
p6392
tp6393
g5
(g9
S'(\t\xb9;\x14\x9a\xb5?'
p6394
tp6395
Rp6396
s(g5265
S'prev-action-3'
p6397
tp6398
g5
(g9
S'5\x86f\x08\x08\x90m\xbf'
p6399
tp6400
Rp6401
s(g3320
S'action-4'
p6402
tp6403
g5
(g9
S'T\x81\xc8-8\xcbn\xbf'
p6404
tp6405
Rp6406
s(g1975
S'prev-action-1'
p6407
tp6408
g5
(g9
S'=p1\x18\x85\xcf\x85?'
p6409
tp6410
Rp6411
s(g4008
S'action-4'
p6412
tp6413
g5
(g9
S')\x0c\xe57lIA\xbf'
p6414
tp6415
Rp6416
s(S'diff-x-pos--48'
p6417
S'prev-action-3'
p6418
tp6419
g5
(g9
S'\xa3$(4\x8f\t\x92?'
p6420
tp6421
Rp6422
s(g6304
S'prev-action-4'
p6423
tp6424
g5
(g9
S'\xb36$I\xbcZ\\?'
p6425
tp6426
Rp6427
s(S'diff-x-pos-53'
p6428
g1874
tp6429
g5
(g9
S'\xf0\x04\xf5\x86Z\x1e\x15\xbf'
p6430
tp6431
Rp6432
s(g4837
S'object-0-x-44'
p6433
tp6434
g5
(g9
S'\xcd\xad\x98x\x03.\xb0?'
p6435
tp6436
Rp6437
sg2756
g5
(g9
S'|e^+8+\xc3?'
p6438
tp6439
Rp6440
s(g4382
S'prev-action-1'
p6441
tp6442
g5
(g9
S'\x99\x154 X\xder?'
p6443
tp6444
Rp6445
sg4081
g5
(g9
S'\x17\xf6=\x00R\x97\xc4?'
p6446
tp6447
Rp6448
s(g1774
S'prev-action-3'
p6449
tp6450
g5
(g9
S'\x18\xb7\x16\xf7\x15\xc2\x80?'
p6451
tp6452
Rp6453
s(g1606
S'action-1'
p6454
tp6455
g5
(g9
S'Q\xaf\n4\xb5\x8a\x81?'
p6456
tp6457
Rp6458
s(g3244
S'prev-action-3'
p6459
tp6460
g5
(g9
S'\xf3\x7fU}\xab\xb5t?'
p6461
tp6462
Rp6463
sg5079
g5
(g9
S'P\xb7\xde`\xdf\xc7\xd4?'
p6464
tp6465
Rp6466
s(S'diff-x-pos-32'
p6467
S'action-3'
p6468
tp6469
g5
(g9
S'\xe0\xba\xe5MB\x87\xfe\xbe'
p6470
tp6471
Rp6472
s(S'diff-x-pos-62'
p6473
S'action-3'
p6474
tp6475
g5
(g9
S'g\xc6\xa1\x03X\xac<?'
p6476
tp6477
Rp6478
s(S'action-1'
p6479
S'object-0-x-48'
p6480
tp6481
g5
(g9
S'\x8fq\x821~\xe9\xbe?'
p6482
tp6483
Rp6484
s(g942
g27
tp6485
g5
(g9
S'#\xdd\xb3\x0f\xc3\x90\xb1\xbf'
p6486
tp6487
Rp6488
s(S'diff-x-pos-12'
p6489
S'prev-action-1'
p6490
tp6491
g5
(g9
S'\xe6\xb7\xb4S\x1b=\x84\xbf'
p6492
tp6493
Rp6494
sg2834
g5
(g9
S'%\x88\xbc\xfb\xc8{\xd8?'
p6495
tp6496
Rp6497
sg666
g5
(g9
S'\xcc\x0f\xf9\xfc\x1f^\xd6?'
p6498
tp6499
Rp6500
s(g2686
S'prev-action-4'
p6501
tp6502
g5
(g9
S'{\xd0\x87\xb6\xb6\xa6D?'
p6503
tp6504
Rp6505
s(g5281
S'prev-action-4'
p6506
tp6507
g5
(g9
S'd\x9b`\xce\r\xb7\x8c\xbf'
p6508
tp6509
Rp6510
s(g2825
S'action-3'
p6511
tp6512
g5
(g9
S'\x1f\xafjVc\xb8n?'
p6513
tp6514
Rp6515
s(S'diff-x-pos--111'
p6516
S'prev-action-1'
p6517
tp6518
g5
(g9
S'\xc3\x07!\xe0\x96\x15V?'
p6519
tp6520
Rp6521
s(g827
S'action-1'
p6522
tp6523
g5
(g9
S'\x8d\x85\x90\x18\xbd\xaf\x90?'
p6524
tp6525
Rp6526
s(g3207
S'action-1'
p6527
tp6528
g5
(g9
S'~&\xe5\xc5:\x89P\xbf'
p6529
tp6530
Rp6531
sS'diff-y-pos--5'
p6532
g5
(g9
S'\xbc\xf3\x08\xe0\xd9\xab\xb8?'
p6533
tp6534
Rp6535
s(S'diff-x-pos-36'
p6536
S'prev-action-3'
p6537
tp6538
g5
(g9
S'\x1c~V\x97\xd73w?'
p6539
tp6540
Rp6541
s(g2204
S'prev-action-4'
p6542
tp6543
g5
(g9
S'\xfe}[\xb7"\xbcz?'
p6544
tp6545
Rp6546
s(g5127
S'action-1'
p6547
tp6548
g5
(g9
S'\xde\xa09\x1f\xeb\xb6\x86\xbf'
p6549
tp6550
Rp6551
sg2436
g5
(g9
S'\xf2\xebNM:[\x84?'
p6552
tp6553
Rp6554
s(g5275
S'prev-action-4'
p6555
tp6556
g5
(g9
S'\x8fx\xd1\xd9\x0c\xe1\x13\xbf'
p6557
tp6558
Rp6559
sg2612
g5
(g9
S'\x90\xd0\x11i.\xc1\x86?'
p6560
tp6561
Rp6562
sg2229
g5
(g9
S'(\xd9\xc7N\xe5|\x9e?'
p6563
tp6564
Rp6565
sg2401
g5
(g9
S'\xb0\xe4\x04\xc6qi\x9c?'
p6566
tp6567
Rp6568
sg5580
g5
(g9
S'p>\x8f\xaa\xdc\x7f\xab?'
p6569
tp6570
Rp6571
sg1606
g5
(g9
S'O\x82\x8e\x03\xef\x05\x9c?'
p6572
tp6573
Rp6574
s(g827
S'prev-action-3'
p6575
tp6576
g5
(g9
S'F\xb5\x04\x85\xcf\xda\x82?'
p6577
tp6578
Rp6579
sg4261
g5
(g9
S'N\xa3\xb2\x1fH*\x93?'
p6580
tp6581
Rp6582
sg125
g5
(g9
S'\xfb\x94@\xbf\x7fx\xa6?'
p6583
tp6584
Rp6585
s(g6211
S'action-1'
p6586
tp6587
g5
(g9
S'\xc3\xadj\x15\xe73[?'
p6588
tp6589
Rp6590
s(S'diff-x-pos-16'
p6591
S'prev-action-1'
p6592
tp6593
g5
(g9
S'\x06\xf3IH\x9e\xac\x90\xbf'
p6594
tp6595
Rp6596
s(S'diff-x-pos--56'
p6597
S'prev-action-4'
p6598
tp6599
g5
(g9
S'4Cw\xb7H\x9e\x94?'
p6600
tp6601
Rp6602
s(S'action-1'
p6603
S'object-1-x-80'
p6604
tp6605
g5
(g9
S'\xaf\x87\xdb}\xec\x16\xb3?'
p6606
tp6607
Rp6608
s(g2103
S'prev-action-1'
p6609
tp6610
g5
(g9
S'\x00\x0cR\xa5dGA?'
p6611
tp6612
Rp6613
s(S'diff-x-pos-32'
p6614
S'prev-action-1'
p6615
tp6616
g5
(g9
S'0Z\x95\x91\xa9\xd4p?'
p6617
tp6618
Rp6619
s(g5897
S'action-1'
p6620
tp6621
g5
(g9
S'\x0b\xb9\xcd6\xdb\x0cI\xbf'
p6622
tp6623
Rp6624
s(g1964
S'prev-action-4'
p6625
tp6626
g5
(g9
S'\xa0\x1d\x89~\xc5R\x86?'
p6627
tp6628
Rp6629
s(S'diff-x-pos--54'
p6630
S'action-4'
p6631
tp6632
g5
(g9
S'\xcfi\xd2o$\xe8\x8f?'
p6633
tp6634
Rp6635
s(S'diff-x-pos--41'
p6636
S'prev-action-3'
p6637
tp6638
g5
(g9
S'\x9f\xafK2H\xda~\xbf'
p6639
tp6640
Rp6641
s(S'action-4'
p6642
S'object-1-x-116'
p6643
tp6644
g5
(g9
S"\x84\x8e'!\x87U\xa8\xbf"
p6645
tp6646
Rp6647
s(g2040
S'action-4'
p6648
tp6649
g5
(g9
S'|X\xc3\x06&\xf2^?'
p6650
tp6651
Rp6652
s(S'diff-x-pos--80'
p6653
S'prev-action-1'
p6654
tp6655
g5
(g9
S'N\x00\xf2t~I\x85?'
p6656
tp6657
Rp6658
s(S'diff-x-pos--64'
p6659
S'action-1'
p6660
tp6661
g5
(g9
S'x\x91\x02\xd8cG\x95?'
p6662
tp6663
Rp6664
s(g5682
S'object-1-x-104'
p6665
tp6666
g5
(g9
S'\x80& \xfd\x8a\xe4\xac?'
p6667
tp6668
Rp6669
s(S'action-1'
p6670
S'object-0-x-56'
p6671
tp6672
g5
(g9
S'\x7fH\x92\xdc\xb9\xf3\xc0?'
p6673
tp6674
Rp6675
s(g199
S'object-0-x-20'
p6676
tp6677
g5
(g9
S'x\xbd\xee\xc5\xf5z\xae?'
p6678
tp6679
Rp6680
s(g3552
S'prev-action-4'
p6681
tp6682
g5
(g9
S'\x07\xf0\xa3k\xe1Z\x80?'
p6683
tp6684
Rp6685
s(g2221
S'action-4'
p6686
tp6687
g5
(g9
S'\xd7\xf9X3\x08\xd9\x91\xbf'
p6688
tp6689
Rp6690
s(g1850
S'action-4'
p6691
tp6692
g5
(g9
S'\x14G3\x99@\x05w\xbf'
p6693
tp6694
Rp6695
s(g2058
S'object-0-x-84'
p6696
tp6697
g5
(g9
S'5\x90\x04b\xf1\xe8\xc3?'
p6698
tp6699
Rp6700
s(g4511
S'action-4'
p6701
tp6702
g5
(g9
S'\xb8\xa3i\x13bf\x82\xbf'
p6703
tp6704
Rp6705
s(g3240
S'action-1'
p6706
tp6707
g5
(g9
S'o&\x85n\xffCq?'
p6708
tp6709
Rp6710
s(S'diff-x-pos--52'
p6711
S'prev-action-3'
p6712
tp6713
g5
(g9
S'\xac2\x00\xa9aX\x86?'
p6714
tp6715
Rp6716
s(g3278
S'action-4'
p6717
tp6718
g5
(g9
S'\xbcd\x02$\xbd\xaf\x13?'
p6719
tp6720
Rp6721
s(g4261
S'action-4'
p6722
tp6723
g5
(g9
S'\xcc\xbf\xd0\xf8U#c?'
p6724
tp6725
Rp6726
s(S'diff-x-pos-15'
p6727
S'prev-action-1'
p6728
tp6729
g5
(g9
S':\xaea\n\xaa\xc5\x95\xbf'
p6730
tp6731
Rp6732
sS'diff-y-pos--6'
p6733
g5
(g9
S'/7\xcb\x92\xe0\x8c\xc2?'
p6734
tp6735
Rp6736
s(S'diff-x-pos--82'
p6737
S'action-1'
p6738
tp6739
g5
(g9
S'\xf0\x00WFO\x1b\x8b?'
p6740
tp6741
Rp6742
s(g1326
g4754
tp6743
g5
(g9
S'\xb4\xd5\x0c\xcc\xed\x19\x91?'
p6744
tp6745
Rp6746
s(g416
S'action-3'
p6747
tp6748
g5
(g9
S'6-\xbbx\x08\xcdc?'
p6749
tp6750
Rp6751
sg28
g5
(g9
S'\xff\x07\xef\tjz\xb4?'
p6752
tp6753
Rp6754
s(S'diff-x-pos--103'
p6755
S'prev-action-1'
p6756
tp6757
g5
(g9
S'\x14N\xd8\xfa\\KG?'
p6758
tp6759
Rp6760
sg1258
g5
(g9
S'J5u\xf3!\xf0\xb3?'
p6761
tp6762
Rp6763
sg2761
g5
(g9
S'e5\x0e\x01\xc8s\xba?'
p6764
tp6765
Rp6766
s(S'diff-x-pos--85'
p6767
S'prev-action-3'
p6768
tp6769
g5
(g9
S'\x8f\x99`\xfb\x9b%`?'
p6770
tp6771
Rp6772
s(S'diff-x-pos-13'
p6773
g3826
tp6774
g5
(g9
S'A\xb3\xbaY\xd7}\x86\xbf'
p6775
tp6776
Rp6777
s(S'diff-x-pos--73'
p6778
S'prev-action-1'
p6779
tp6780
g5
(g9
S'\x1b8(\xa0\xcb\xd9\x87?'
p6781
tp6782
Rp6783
s(S'diff-x-pos-31'
p6784
S'prev-action-1'
p6785
tp6786
g5
(g9
S'\x03\xa1\x99\xaa_\xa8\x7f?'
p6787
tp6788
Rp6789
s(S'action-4'
p6790
S'object-0-x-68'
p6791
tp6792
g5
(g9
S'\x15W\xe5\xb2\x00\x87\xc4?'
p6793
tp6794
Rp6795
sg2999
g5
(g9
S'bi[3>\x81\x92?'
p6796
tp6797
Rp6798
s(S'diff-x-pos-5'
p6799
S'prev-action-1'
p6800
tp6801
g5
(g9
S'\xbb\xe2\x8e\xfe*\xef\x84\xbf'
p6802
tp6803
Rp6804
s(g3240
S'prev-action-4'
p6805
tp6806
g5
(g9
S'4sL\x0f\xaba\x80?'
p6807
tp6808
Rp6809
s(g1792
S'action-1'
p6810
tp6811
g5
(g9
S'|\x1b\x13\xfd\xdb0v\xbf'
p6812
tp6813
Rp6814
s(S'diff-x-pos--70'
p6815
g1195
tp6816
g5
(g9
S'\xbe\xd6\x90\xcaT\xf2\x89?'
p6817
tp6818
Rp6819
s(g2846
S'prev-action-4'
p6820
tp6821
g5
(g9
S'\x80Yh9\xa1\xcch?'
p6822
tp6823
Rp6824
s(g3802
S'action-3'
p6825
tp6826
g5
(g9
S'\xc3I T>0X?'
p6827
tp6828
Rp6829
sS'object-0-dy--1'
p6830
g5
(g9
S'\x90\x07r\xa3\xe1\xae\xc4?'
p6831
tp6832
Rp6833
s(g3866
S'action-3'
p6834
tp6835
g5
(g9
S'\xd8\x91\xa0\xabe\x83t?'
p6836
tp6837
Rp6838
s(S'diff-x-pos-41'
p6839
S'prev-action-3'
p6840
tp6841
g5
(g9
S'A<[x\x82\n@\xbf'
p6842
tp6843
Rp6844
s(g6834
S'object-0-x-40'
p6845
tp6846
g5
(g9
S'\t\x14\x84\xdf\x1a\xed\xc2?'
p6847
tp6848
Rp6849
s(g5989
S'prev-action-3'
p6850
tp6851
g5
(g9
S'\x1f\x91\x03Z\x9599?'
p6852
tp6853
Rp6854
s(g4690
S'action-4'
p6855
tp6856
g5
(g9
S'h\xfe\xe8\xde8\x94$\xbf'
p6857
tp6858
Rp6859
s(g6273
S'prev-action-3'
p6860
tp6861
g5
(g9
S'\xe8\xa4\x15N\x00\xd9k\xbf'
p6862
tp6863
Rp6864
s(g1704
S'prev-action-1'
p6865
tp6866
g5
(g9
S'W^\xf5\xd2\xdb\xb7\x8f?'
p6867
tp6868
Rp6869
s(g2612
S'action-4'
p6870
tp6871
g5
(g9
S'\xae\xadq\x12\x8b\x89v\xbf'
p6872
tp6873
Rp6874
s(g2489
S'prev-action-4'
p6875
tp6876
g5
(g9
S"\xb4\xbe)8\xb9'\x82?"
p6877
tp6878
Rp6879
s(g2136
S'action-4'
p6880
tp6881
g5
(g9
S')\x84\xdd\xd6|\x13[\xbf'
p6882
tp6883
Rp6884
s(g1032
S'action-4'
p6885
tp6886
g5
(g9
S'i\xa4FZ\xafF\x8f\xbf'
p6887
tp6888
Rp6889
s(g2081
g5888
tp6890
g5
(g9
S'3\tH\x15\xce\x80\xc6?'
p6891
tp6892
Rp6893
s(g1657
S'prev-action-4'
p6894
tp6895
g5
(g9
S'\xc5;z}u/\x84\xbf'
p6896
tp6897
Rp6898
s(S'diff-x-pos-6'
p6899
S'action-1'
p6900
tp6901
g5
(g9
S'\x90<\xa9+\xaa\xcd\x8a\xbf'
p6902
tp6903
Rp6904
s(S'diff-x-pos--11'
p6905
S'prev-action-3'
p6906
tp6907
g5
(g9
S'\xe2\xa0d\xefz\xe5p\xbf'
p6908
tp6909
Rp6910
sg1308
g5
(g9
S'\xff\xcb\xe0\xc2AQ\xa2\xbf'
p6911
tp6912
Rp6913
s(S'diff-x-pos-50'
p6914
S'action-1'
p6915
tp6916
g5
(g9
S'\xf2\xd9=\xe20#\x90?'
p6917
tp6918
Rp6919
s(g4423
S'prev-action-1'
p6920
tp6921
g5
(g9
S'\xf7M\xcaFz\xbe[?'
p6922
tp6923
Rp6924
s(g6810
S'object-0-x-68'
p6925
tp6926
g5
(g9
S'|\x9a\xc84M\x93\xc0?'
p6927
tp6928
Rp6929
s(S'diff-x-pos-48'
p6930
S'prev-action-4'
p6931
tp6932
g5
(g9
S'\x04\xb6V\x01\xb5@{?'
p6933
tp6934
Rp6935
s(g1750
S'action-1'
p6936
tp6937
g5
(g9
S'\x8e\x9c\xb4\xed\x11\xc2W\xbf'
p6938
tp6939
Rp6940
s(g3278
S'prev-action-4'
p6941
tp6942
g5
(g9
S'>\xc7~\xfc\xf6M\x83?'
p6943
tp6944
Rp6945
sg729
g5
(g9
S'o\xa2\xcc\x9c\xaf\xe3\xc0?'
p6946
tp6947
Rp6948
s(S'diff-x-pos--94'
p6949
S'action-4'
p6950
tp6951
g5
(g9
S'\xb3(\xe4S\xc1\xfek?'
p6952
tp6953
Rp6954
s(g3898
S'action-1'
p6955
tp6956
g5
(g9
S'=?8\xbe\xc9\x8ff?'
p6957
tp6958
Rp6959
s(g1565
S'prev-action-4'
p6960
tp6961
g5
(g9
S'\x10\xef\xc0\xaaY\x92*\xbf'
p6962
tp6963
Rp6964
s(S'diff-x-pos-18'
p6965
S'action-3'
p6966
tp6967
g5
(g9
S'U\xc2@\xcd\xf2\x16o\xbf'
p6968
tp6969
Rp6970
s(S'diff-x-pos--50'
p6971
g4582
tp6972
g5
(g9
S'\xa6\xc8\xe4%\xd6\xd8\xa5?'
p6973
tp6974
Rp6975
s(S'action-3'
p6976
S'object-0-x-104'
p6977
tp6978
g5
(g9
S' P_?\xb9\xf5\xbe?'
p6979
tp6980
Rp6981
sg364
g5
(g9
S' \xf6-GOQ\xdf?'
p6982
tp6983
Rp6984
sg2046
g5
(g9
S'[\xff\x94]{b\xde?'
p6985
tp6986
Rp6987
s(S'diff-x-pos--67'
p6988
g2513
tp6989
g5
(g9
S'\x03i\xe7o`M\xc2?'
p6990
tp6991
Rp6992
s(g3302
g4464
tp6993
g5
(g9
S'\xb5\x8a\xf9\xad\x8b\xfa8\xbf'
p6994
tp6995
Rp6996
s(S'diff-x-pos--66'
p6997
S'prev-action-1'
p6998
tp6999
g5
(g9
S'\x1b\x855\xa9\xd2-\x8f?'
p7000
tp7001
Rp7002
s(g712
g1415
tp7003
g5
(g9
S'a)\x00\x0c4f\x92\xbf'
p7004
tp7005
Rp7006
s(g1488
S'action-4'
p7007
tp7008
g5
(g9
S',|&\xf0W\xbbs?'
p7009
tp7010
Rp7011
s(S'diff-x-pos--75'
p7012
S'prev-action-1'
p7013
tp7014
g5
(g9
S'\x99\xb9\xe8\xbc1%\x88?'
p7015
tp7016
Rp7017
s(S'diff-x-pos--43'
p7018
S'action-3'
p7019
tp7020
g5
(g9
S'~:\xb5\xd7\xbe\xa1\x90?'
p7021
tp7022
Rp7023
s(g2561
S'prev-action-3'
p7024
tp7025
g5
(g9
S'\x84\x82Eu`\x19\x89\xbf'
p7026
tp7027
Rp7028
s(g1275
g6479
tp7029
g5
(g9
S'\t\xbc\x8d\x80\xf24\x82\xbf'
p7030
tp7031
Rp7032
s(S'action-3'
p7033
S'object-0-x-124'
p7034
tp7035
g5
(g9
S'\xac\xd0\xb5C\xdd2\xc9?'
p7036
tp7037
Rp7038
s(S'diff-x-pos-21'
p7039
S'prev-action-4'
p7040
tp7041
g5
(g9
S'.y\x19\x9a\xf0z\x83\xbf'
p7042
tp7043
Rp7044
s(g5714
S'prev-action-1'
p7045
tp7046
g5
(g9
S'\xff\x03+Nc\xc3\x97?'
p7047
tp7048
Rp7049
s(g4016
S'action-1'
p7050
tp7051
g5
(g9
S'\x05\x13i\xcd\xdb\x19u\xbf'
p7052
tp7053
Rp7054
s(g5580
S'action-4'
p7055
tp7056
g5
(g9
S'f\xeb\x86\x12nY\xa1?'
p7057
tp7058
Rp7059
s(g1042
g452
tp7060
g5
(g9
S'\x85\x84\x10e\xcbd\x94\xbf'
p7061
tp7062
Rp7063
s(g2653
S'action-4'
p7064
tp7065
g5
(g9
S'\xe11\xc7\xc6-\x9a\x96\xbf'
p7066
tp7067
Rp7068
s(S'diff-x-pos--92'
p7069
S'action-3'
p7070
tp7071
g5
(g9
S'\xa2O0\xafBkf\xbf'
p7072
tp7073
Rp7074
s(g526
S'action-4'
p7075
tp7076
g5
(g9
S'\xf7\xcc\xfaUS(\x94\xbf'
p7077
tp7078
Rp7079
s(g1020
g2549
tp7080
g5
(g9
S'c\x05\x8fZ\xa8|o?'
p7081
tp7082
Rp7083
s(g4464
g5816
tp7084
g5
(g9
S"N\x17-'5\x18\xf1?"
p7085
tp7086
Rp7087
s(g6755
S'action-4'
p7088
tp7089
g5
(g9
S"\xae'yy\\Z.\xbf"
p7090
tp7091
Rp7092
s(g1036
S'prev-action-3'
p7093
tp7094
g5
(g9
S'2\xae\xd1\xcb\xbdDv\xbf'
p7095
tp7096
Rp7097
s(S'action-3'
p7098
S'object-1-x-116'
p7099
tp7100
g5
(g9
S'\x05?\x1a4\xd9v\x9b\xbf'
p7101
tp7102
Rp7103
s(g2208
S'prev-action-1'
p7104
tp7105
g5
(g9
S'\xe7\xa6\x15\x04\t\x95\x89\xbf'
p7106
tp7107
Rp7108
s(g4593
S'action-1'
p7109
tp7110
g5
(g9
S'e(\x07\x93h\x8c\x9b?'
p7111
tp7112
Rp7113
s(g1470
S'prev-action-1'
p7114
tp7115
g5
(g9
S'\xec\x8e\x96\x03\xb1\x82\x9e?'
p7116
tp7117
Rp7118
s(S'diff-x-pos--49'
p7119
S'prev-action-3'
p7120
tp7121
g5
(g9
S'\xf0IYp\xf0\x8a\x91?'
p7122
tp7123
Rp7124
s(S'diff-x-pos--22'
p7125
S'action-1'
p7126
tp7127
g5
(g9
S'\xb4\xcf\xbb^bv\x00\xbf'
p7128
tp7129
Rp7130
s(S'diff-x-pos--37'
p7131
S'action-3'
p7132
tp7133
g5
(g9
S'\xb87\xe3\x9c;\x9e\x92?'
p7134
tp7135
Rp7136
s(g5708
g1874
tp7137
g5
(g9
S'\x8c\xda\xfb\x1b\x91\\\xcd?'
p7138
tp7139
Rp7140
s(S'diff-x-pos-10'
p7141
S'action-1'
p7142
tp7143
g5
(g9
S'\x89$\n\x05L\x9b\x90\xbf'
p7144
tp7145
Rp7146
s(S'diff-x-pos--21'
p7147
S'prev-action-4'
p7148
tp7149
g5
(g9
S'b\x15\x06\x18\x05xp\xbf'
p7150
tp7151
Rp7152
s(S'diff-x-pos--67'
p7153
S'prev-action-1'
p7154
tp7155
g5
(g9
S'?\xb0\xce\x98\xed\x92\xca\xbf'
p7156
tp7157
Rp7158
s(g4543
S'action-3'
p7159
tp7160
g5
(g9
S'\xf6V\xfe\x163\xf9\x7f?'
p7161
tp7162
Rp7163
s(g2537
S'prev-action-4'
p7164
tp7165
g5
(g9
S'b\xb6\x90;N\xf2h\xbf'
p7166
tp7167
Rp7168
s(g2163
S'action-4'
p7169
tp7170
g5
(g9
S't\x89\xaa\x93\x92\x81b?'
p7171
tp7172
Rp7173
s(g1404
g1425
tp7174
g5
(g9
S'F8\x89\xa0O\xb6w?'
p7175
tp7176
Rp7177
s(g5591
S'prev-action-4'
p7178
tp7179
g5
(g9
S'P\x11\x8d\x1e\xb6m\x86?'
p7180
tp7181
Rp7182
s(g5852
g1233
tp7183
g5
(g9
S'4\xfck\xc1/c\xc0?'
p7184
tp7185
Rp7186
s(S'diff-x-pos--47'
p7187
S'prev-action-1'
p7188
tp7189
g5
(g9
S'0\xee\xd7\x18\xec\xdf]?'
p7190
tp7191
Rp7192
s(S'diff-x-pos--107'
p7193
S'action-1'
p7194
tp7195
g5
(g9
S'\x9a\rP\xbc\xe8%X?'
p7196
tp7197
Rp7198
s(g4633
S'action-3'
p7199
tp7200
g5
(g9
S'\xd4v\xa7\x1f\x0ez\x83?'
p7201
tp7202
Rp7203
s(S'diff-x-pos--28'
p7204
S'action-3'
p7205
tp7206
g5
(g9
S'\x8dj\xc7\xdcx\x16w?'
p7207
tp7208
Rp7209
s(g2159
S'prev-action-4'
p7210
tp7211
g5
(g9
S'\x80vO\x10] \x95\xbf'
p7212
tp7213
Rp7214
sg216
g5
(g9
S'\xfa(\xad\xbb\xfa\xac|?'
p7215
tp7216
Rp7217
s(g6784
S'action-1'
p7218
tp7219
g5
(g9
S'\x82H\xdb\x1fk&c?'
p7220
tp7221
Rp7222
s(S'diff-x-pos--21'
p7223
S'prev-action-1'
p7224
tp7225
g5
(g9
S'R\xa4x-`\xf3m\xbf'
p7226
tp7227
Rp7228
s(S'diff-x-pos--63'
p7229
S'action-4'
p7230
tp7231
g5
(g9
S'\x08\xccQ]w\x01\x85?'
p7232
tp7233
Rp7234
s(g2186
S'prev-action-4'
p7235
tp7236
g5
(g9
S'V\xcdl\x87\xb6[q\xbf'
p7237
tp7238
Rp7239
s(S'action-4'
p7240
g341
tp7241
g5
(g9
S'\xe1m\xb5\x9cN\x18\x94?'
p7242
tp7243
Rp7244
s(g2013
S'prev-action-4'
p7245
tp7246
g5
(g9
S'4\x8b\x19G\x87FK\xbf'
p7247
tp7248
Rp7249
s(S'diff-x-pos--53'
p7250
S'prev-action-4'
p7251
tp7252
g5
(g9
S']}\x7f\xc8m,\x9e?'
p7253
tp7254
Rp7255
s(g2454
S'action-3'
p7256
tp7257
g5
(g9
S'\xa4ae\xfe\xad\xc1}\xbf'
p7258
tp7259
Rp7260
sg3524
g5
(g9
S'gl\x82\xd4~<r\xbf'
p7261
tp7262
Rp7263
s(g4765
g5414
tp7264
g5
(g9
S'\x16X\x17\x07H\xa7\xc0?'
p7265
tp7266
Rp7267
s(S'diff-x-pos-26'
p7268
S'prev-action-3'
p7269
tp7270
g5
(g9
S'\x99W4\xc5\xc6\xf8r?'
p7271
tp7272
Rp7273
s(g5486
S'prev-action-1'
p7274
tp7275
g5
(g9
S')\xd27I\xdd\x85\x8d?'
p7276
tp7277
Rp7278
s(g2556
S'object-0-x-52'
p7279
tp7280
g5
(g9
S'\xa1\x88\xa3>(\xaf\xc1?'
p7281
tp7282
Rp7283
s(S'diff-x-pos--60'
p7284
S'action-3'
p7285
tp7286
g5
(g9
S'\xcaU2\xa2\x0ch\x89?'
p7287
tp7288
Rp7289
s(S'diff-x-pos-51'
p7290
S'action-3'
p7291
tp7292
g5
(g9
S'b\x9f,\x91S0k?'
p7293
tp7294
Rp7295
s(S'diff-x-pos--91'
p7296
S'action-4'
p7297
tp7298
g5
(g9
S'\xdc\n\xb8\x9aT\x11S\xbf'
p7299
tp7300
Rp7301
s(g3358
S'action-4'
p7302
tp7303
g5
(g9
S'\xfa{\x85\xb0v\t}?'
p7304
tp7305
Rp7306
s(g4776
S'prev-action-3'
p7307
tp7308
g5
(g9
S'\xea\xb5@1\xde\xddn\xbf'
p7309
tp7310
Rp7311
s(g6239
S'action-1'
p7312
tp7313
g5
(g9
S'B\xc7\xbeS\xe8m}\xbf'
p7314
tp7315
Rp7316
s(g4448
S'action-3'
p7317
tp7318
g5
(g9
S'\x1e\xdc Y\xb3\xc3=?'
p7319
tp7320
Rp7321
s(g518
S'prev-action-1'
p7322
tp7323
g5
(g9
S'\n\x0b\x0f\xe1E1u\xbf'
p7324
tp7325
Rp7326
s(g2401
S'prev-action-4'
p7327
tp7328
g5
(g9
S'\xcc\xc3/\x15\x9c7v?'
p7329
tp7330
Rp7331
s(g2396
S'prev-action-4'
p7332
tp7333
g5
(g9
S'\xdb\xc5\xde\xd0\x9a\x1ft?'
p7334
tp7335
Rp7336
s(g4539
g5324
tp7337
g5
(g9
S'!#{\xd1f\n\xa2\xbf'
p7338
tp7339
Rp7340
s(S'diff-x-pos-26'
p7341
S'action-3'
p7342
tp7343
g5
(g9
S'\x0e\x06t!M\x19S?'
p7344
tp7345
Rp7346
sg6273
g5
(g9
S'\xca\x86\xb1.\xae\xd6\x80\xbf'
p7347
tp7348
Rp7349
s(S'diff-x-pos-34'
p7350
S'action-3'
p7351
tp7352
g5
(g9
S'\x0c\xc9<1\xf2Ef?'
p7353
tp7354
Rp7355
s(S'action-1'
p7356
S'object-0-x-76'
p7357
tp7358
g5
(g9
S'\x1b\xf2\x16\x8d\xae\x15\xc1?'
p7359
tp7360
Rp7361
s(S'diff-x-pos--1'
p7362
S'action-1'
p7363
tp7364
g5
(g9
S'\xa46]\xd9#\xad\x89\xbf'
p7365
tp7366
Rp7367
s(S'diff-x-pos-19'
p7368
S'action-1'
p7369
tp7370
g5
(g9
S'O\x9er\xc5\xa6\xa0\x84\xbf'
p7371
tp7372
Rp7373
s(S'action-4'
p7374
S'object-0-x-100'
p7375
tp7376
g5
(g9
S'\xb1\x89S\xae\xb6L\xc5?'
p7377
tp7378
Rp7379
s(S'diff-x-pos-14'
p7380
S'action-3'
p7381
tp7382
g5
(g9
S'~\x86/\xdbROw\xbf'
p7383
tp7384
Rp7385
s(g776
S'prev-action-3'
p7386
tp7387
g5
(g9
S'\xc7\xab1M\x84z\x8a\xbf'
p7388
tp7389
Rp7390
s(g7229
S'prev-action-3'
p7391
tp7392
g5
(g9
S'\xb2t.\xe6\xa5\xb7\x7f?'
p7393
tp7394
Rp7395
s(S'diff-x-pos--45'
p7396
S'action-4'
p7397
tp7398
g5
(g9
S'\xe9S\x85\xe0\x837\x91?'
p7399
tp7400
Rp7401
s(S'diff-x-pos-1'
p7402
S'prev-action-3'
p7403
tp7404
g5
(g9
S'\x0e\x1a\xb5\xfb\x00?\x80\xbf'
p7405
tp7406
Rp7407
s(g4272
S'action-3'
p7408
tp7409
g5
(g9
S'G\x8eE\xb8t\xcb6\xbf'
p7410
tp7411
Rp7412
sg712
g5
(g9
S'-\x1b{\xfeJ\x94\x10@'
p7413
tp7414
Rp7415
sg15
g5
(g9
S'SC\x1e\xd9\x7f\x9d\r@'
p7416
tp7417
Rp7418
sg45
g5
(g9
S'WH\xbe\x88\xa4\x91\r@'
p7419
tp7420
Rp7421
s(S'diff-x-pos--17'
p7422
S'action-4'
p7423
tp7424
g5
(g9
S's\x84E\xaa\xda\xc3r\xbf'
p7425
tp7426
Rp7427
s(g5633
S'prev-action-3'
p7428
tp7429
g5
(g9
S'l\xc4P\x07\xce"l\xbf'
p7430
tp7431
Rp7432
s(S'diff-x-pos--100'
p7433
S'prev-action-1'
p7434
tp7435
g5
(g9
S'\x99\xb1\xb3A\xfbWD?'
p7436
tp7437
Rp7438
s(S'action-1'
p7439
g772
tp7440
g5
(g9
S'\xae\x01\x90m}\x0cc?'
p7441
tp7442
Rp7443
s(g1471
g5947
tp7444
g5
(g9
S'\xf4\xdfP\xf1P\x19\xa9?'
p7445
tp7446
Rp7447
s(S'diff-x-pos--20'
p7448
S'action-1'
p7449
tp7450
g5
(g9
S'\x99\x8f\x96\xd6e2h?'
p7451
tp7452
Rp7453
s(S'diff-x-pos--24'
p7454
S'prev-action-3'
p7455
tp7456
g5
(g9
S'?\x07\xb6\xca\x8e\xad\x8c?'
p7457
tp7458
Rp7459
sS'diff-y-pos--11'
p7460
g5
(g9
S'Y\n8g\xc4\x1e\xcc?'
p7461
tp7462
Rp7463
sS'diff-y-pos--10'
p7464
g5
(g9
S'\x14\xaf"\xd2\xe2\x08\xd3?'
p7465
tp7466
Rp7467
sg723
g5
(g9
S'\xc7\x8d\xdaZ\xe0\x1a\x97?'
p7468
tp7469
Rp7470
s(S'diff-x-pos-0'
p7471
S'action-3'
p7472
tp7473
g5
(g9
S'\x1b\x02\x10\xcf<u\x8f\xbf'
p7474
tp7475
Rp7476
s(S'diff-x-pos--83'
p7477
S'prev-action-4'
p7478
tp7479
g5
(g9
S'$\xac6F\x11\x92\x87?'
p7480
tp7481
Rp7482
s(g4197
S'action-4'
p7483
tp7484
g5
(g9
S'Y\xbf\xc6\xa3\xed#\x99\xbf'
p7485
tp7486
Rp7487
s(S'diff-x-pos-44'
p7488
S'action-3'
p7489
tp7490
g5
(g9
S'4\x02\xe8\xfe\xacJ\x81?'
p7491
tp7492
Rp7493
s(S'diff-x-pos--93'
p7494
S'prev-action-4'
p7495
tp7496
g5
(g9
S"'\xc8s\x991\x00k?"
p7497
tp7498
Rp7499
s(S'diff-x-pos--33'
p7500
S'action-4'
p7501
tp7502
g5
(g9
S'\x84v\xbe\x91\xa3\x87J?'
p7503
tp7504
Rp7505
s(g2811
S'action-4'
p7506
tp7507
g5
(g9
S'\\yH\xb7r\xe3Q?'
p7508
tp7509
Rp7510
s(S'diff-x-pos-44'
p7511
g1571
tp7512
g5
(g9
S'\x91+qH\xe8\x93l?'
p7513
tp7514
Rp7515
s(S'diff-x-pos--93'
p7516
S'action-1'
p7517
tp7518
g5
(g9
S'\xecd\x06\xc9\x9b\xc2z?'
p7519
tp7520
Rp7521
s(g2103
S'action-4'
p7522
tp7523
g5
(g9
S'4\xcb\xc9\xb0c\xba%\xbf'
p7524
tp7525
Rp7526
s(g7007
S'object-0-x-116'
p7527
tp7528
g5
(g9
S'\x9d\xee\xc8 \x125V\xbf'
p7529
tp7530
Rp7531
s(S'object-1-dx-1'
p7532
g1233
tp7533
g5
(g9
S'\x13J\xdd\x13\x1d\xc9\x85?'
p7534
tp7535
Rp7536
s(g835
g712
tp7537
g5
(g9
S'\x0e\xc6\xa1\xa7\xeb\x00s?'
p7538
tp7539
Rp7540
sg1234
g5
(g9
S'S \x97\xcb\x11R\xc8?'
p7541
tp7542
Rp7543
s(S'diff-x-pos--14'
p7544
S'action-1'
p7545
tp7546
g5
(g9
S'\x80\x02\x96\x02Wh\x90\xbf'
p7547
tp7548
Rp7549
sg1734
g5
(g9
S'\x9d_\xab_\x9b~\xc7?'
p7550
tp7551
Rp7552
s(S'diff-x-pos--4'
p7553
S'prev-action-3'
p7554
tp7555
g5
(g9
S'\x97\xd3d\xfb\xa2\xf9??'
p7556
tp7557
Rp7558
sg453
g5
(g9
S'\xcb\x11\xf9,;\x03\xc6?'
p7559
tp7560
Rp7561
s(S'diff-x-pos-38'
p7562
g2413
tp7563
g5
(g9
S'\xc4\x03{\xe3\x11\xf6_\xbf'
p7564
tp7565
Rp7566
s(g625
S'prev-action-1'
p7567
tp7568
g5
(g9
S'\xf5\xa1\xd9\x14h^}?'
p7569
tp7570
Rp7571
s(S'diff-x-pos-57'
p7572
S'action-3'
p7573
tp7574
g5
(g9
S'Fa\x93\xaa\xe5]\x0c\xbf'
p7575
tp7576
Rp7577
s(S'diff-x-pos-24'
p7578
S'prev-action-3'
p7579
tp7580
g5
(g9
S'\x99\x1b\xc1\x08\x02\x8c\x9a\xbf'
p7581
tp7582
Rp7583
s(g4121
S'action-4'
p7584
tp7585
g5
(g9
S'N\x0e\x18\x12\xa2\\\x93\xbf'
p7586
tp7587
Rp7588
s(g4530
S'prev-action-3'
p7589
tp7590
g5
(g9
S':u o\x9d\xf3\x85?'
p7591
tp7592
Rp7593
sg4197
g5
(g9
S'\xd6Ti\x02\t\xb5\x9e\xbf'
p7594
tp7595
Rp7596
sg57
g5
(g9
S'\xcf\x88\xcbL\x91U\xa3\xbf'
p7597
tp7598
Rp7599
sg700
g5
(g9
S'\x86\x02\xd6\x00\xe7G\x9c\xbf'
p7600
tp7601
Rp7602
sg4776
g5
(g9
S'\xb1\x923/=\xce\x9e\xbf'
p7603
tp7604
Rp7605
sg3080
g5
(g9
S'z\x03\xb38\x16w\xa4\xbf'
p7606
tp7607
Rp7608
sg492
g5
(g9
S'\x92\xc3G\xd1A[\xa2\xbf'
p7609
tp7610
Rp7611
s(g3306
S'prev-action-4'
p7612
tp7613
g5
(g9
S'\xee\x83cE<hy\xbf'
p7614
tp7615
Rp7616
sg5281
g5
(g9
S'\x9a\xf3\xe0\x1a\xf4r\xa3\xbf'
p7617
tp7618
Rp7619
s(S'diff-x-pos-55'
p7620
S'prev-action-1'
p7621
tp7622
g5
(g9
S'\x9b%d]\xb0wT\xbf'
p7623
tp7624
Rp7625
s(g946
S'prev-action-3'
p7626
tp7627
g5
(g9
S'#\xb76\xec\x94\xc5u?'
p7628
tp7629
Rp7630
sg1565
g5
(g9
S'\x03[_\xfc\xa7\xd0\x94\xbf'
p7631
tp7632
Rp7633
sg4593
g5
(g9
S'\xe51\x9a\xd8!T\xa0?'
p7634
tp7635
Rp7636
s(S'diff-x-pos--15'
p7637
S'action-3'
p7638
tp7639
g5
(g9
S'\xb5\xd7%\x9e\x1c\x8bu?'
p7640
tp7641
Rp7642
s(S'diff-x-pos--36'
p7643
S'prev-action-3'
p7644
tp7645
g5
(g9
S'a\x90\xea\x85\x0e\xe9\x84?'
p7646
tp7647
Rp7648
s(g2200
S'prev-action-4'
p7649
tp7650
g5
(g9
S'#\xb7\x12Y\xffkS?'
p7651
tp7652
Rp7653
s(g6717
g2618
tp7654
g5
(g9
S'\x0feR!\x00\xb6\xb6?'
p7655
tp7656
Rp7657
sg4023
g5
(g9
S'\x1b\xbf9\xb2\r\x1f\xad?'
p7658
tp7659
Rp7660
s(g5212
S'prev-action-4'
p7661
tp7662
g5
(g9
S'\xf4\x07\x84\xd5\xee\xa2\x8d\xbf'
p7663
tp7664
Rp7665
sg381
g5
(g9
S'\x88\nf\x13\x12q\xa4?'
p7666
tp7667
Rp7668
s(S'diff-x-pos--65'
p7669
S'prev-action-4'
p7670
tp7671
g5
(g9
S'\xfa\xbe^\x12\xb2\x94\x8e?'
p7672
tp7673
Rp7674
sg4037
g5
(g9
S'Y@C\xb0\x7f\xfb\xa5?'
p7675
tp7676
Rp7677
sg2107
g5
(g9
S'\x9d\x04\x1d\xcaWY\x9a?'
p7678
tp7679
Rp7680
s(g2075
S'action-3'
p7681
tp7682
g5
(g9
S'\xa4\xf6\x15\xff3\x90S?'
p7683
tp7684
Rp7685
sg1815
g5
(g9
S'\xe3K6\xd7\xe74\xaa?'
p7686
tp7687
Rp7688
s(g2057
S'prev-action-3'
p7689
tp7690
g5
(g9
S'\xe5\x10T\xfb\x02~\x90\xbf'
p7691
tp7692
Rp7693
s(g1595
S'prev-action-4'
p7694
tp7695
g5
(g9
S'"\xfc\x97n\x04\xf8\x91?'
p7696
tp7697
Rp7698
s(g5883
S'object-0-x-44'
p7699
tp7700
g5
(g9
S'71\xb94U\xa0\xc3?'
p7701
tp7702
Rp7703
s(g486
S'action-1'
p7704
tp7705
g5
(g9
S'\xb9\xcc\xb8p\x1c\x7f\x90\xbf'
p7706
tp7707
Rp7708
s(g573
S'action-4'
p7709
tp7710
g5
(g9
S'"\x11x`Ej\x90\xbf'
p7711
tp7712
Rp7713
s(g2543
S'action-1'
p7714
tp7715
g5
(g9
S'\x14\xb4}\xe0\x86\x89l\xbf'
p7716
tp7717
Rp7718
s(S'action-1'
p7719
S'object-0-x-72'
p7720
tp7721
g5
(g9
S'\x00\xa9/\x9a\x9f\xae\xc2?'
p7722
tp7723
Rp7724
s(g4233
S'action-4'
p7725
tp7726
g5
(g9
S'\x1b\xfej\xceh\x8bn?'
p7727
tp7728
Rp7729
s(g5681
S'prev-action-4'
p7730
tp7731
g5
(g9
S'\xc7\x1f8h\xb8\xdc\x91?'
p7732
tp7733
Rp7734
s(g1032
S'prev-action-4'
p7735
tp7736
g5
(g9
S'O0cY(\xac\x84\xbf'
p7737
tp7738
Rp7739
s(g446
S'prev-action-1'
p7740
tp7741
g5
(g9
S"t'f\x90\xfa\xe3\x8c?"
p7742
tp7743
Rp7744
sg4121
g5
(g9
S'p\xf7J\x8e^\xf1\xa1\xbf'
p7745
tp7746
Rp7747
s(g1933
S'prev-action-4'
p7748
tp7749
g5
(g9
S';\xdc\xfa\x8eV\x1fs?'
p7750
tp7751
Rp7752
s(S'diff-x-pos--29'
p7753
S'prev-action-3'
p7754
tp7755
g5
(g9
S'\xb6\x88\xaa <L\x81?'
p7756
tp7757
Rp7758
sg4154
g5
(g9
S'\xcd{\xacK\x1d\x1c\xa1\xbf'
p7759
tp7760
Rp7761
sg526
g5
(g9
S';\xd0\xfe\x0f\xb2\xf2\xa3\xbf'
p7762
tp7763
Rp7764
sg619
g5
(g9
S'"\x7f%\\\x1b\xa7\xa3\xbf'
p7765
tp7766
Rp7767
sg387
g5
(g9
S'l\x8e:\xf8X\xbe\xa1\xbf'
p7768
tp7769
Rp7770
sg357
g5
(g9
S"\x13/ZY\xfa'\xa3\xbf"
p7771
tp7772
Rp7773
sg5054
g5
(g9
S'}\xa7\x8fJ\x15~\xa3\xbf'
p7774
tp7775
Rp7776
sg573
g5
(g9
S'oo\xc9%TV\xa5\xbf'
p7777
tp7778
Rp7779
sg1657
g5
(g9
S'\x14_\x02\xe3d\xc3\xa1\xbf'
p7780
tp7781
Rp7782
s(g1009
S'action-4'
p7783
tp7784
g5
(g9
S'\xe6\xef2\xf5;D\x97\xbf'
p7785
tp7786
Rp7787
s(g4037
S'prev-action-3'
p7788
tp7789
g5
(g9
S'\xe7\x83\xe0\xb7\xf1\xe4\x91?'
p7790
tp7791
Rp7792
s(S'object-1-dx--1'
p7793
g15
tp7794
g5
(g9
S'X\xff\xd3\xa6\xda\xe7\x80\xbf'
p7795
tp7796
Rp7797
s(g4008
S'prev-action-3'
p7798
tp7799
g5
(g9
S'\xd8\x8d\x13\xfcL\xba^\xbf'
p7800
tp7801
Rp7802
s(S'diff-x-pos--30'
p7803
g4376
tp7804
g5
(g9
S';\xbc.\x8c]>\x95?'
p7805
tp7806
Rp7807
s(g4729
g109
tp7808
g5
(g9
S'V\xd1\xb5m\xf3\xd9\xaa\xbf'
p7809
tp7810
Rp7811
s(g5054
S'prev-action-4'
p7812
tp7813
g5
(g9
S'&&y[O\x14\x90\xbf'
p7814
tp7815
Rp7816
s(g2804
S'action-4'
p7817
tp7818
g5
(g9
S'\xbe6\xf8\xe9\x0c\xf7b\xbf'
p7819
tp7820
Rp7821
s(S'diff-x-pos--31'
p7822
S'prev-action-3'
p7823
tp7824
g5
(g9
S'\xb5\x88J\x84F\xc3\x93?'
p7825
tp7826
Rp7827
s(g3080
g6176
tp7828
g5
(g9
S'\n\xf9\xe8o\x86\x18\x83\xbf'
p7829
tp7830
Rp7831
s(g114
S'object-0-x-24'
p7832
tp7833
g5
(g9
S'Go\x8b\x1bO\x9c\xb0?'
p7834
tp7835
Rp7836
s(S'diff-x-pos-49'
p7837
S'action-3'
p7838
tp7839
g5
(g9
S'@\xae\xef\x06\x88\xb7f?'
p7840
tp7841
Rp7842
sg4440
g5
(g9
S'FfyPa\x00\xcf?'
p7843
tp7844
Rp7845
s(S'diff-x-pos--27'
p7846
S'action-3'
p7847
tp7848
g5
(g9
S'ZZ\xbd\xc9\x96\xc8y?'
p7849
tp7850
Rp7851
s(g4703
S'action-4'
p7852
tp7853
g5
(g9
S'l\x99A\xa7\xba\xdb\x89?'
p7854
tp7855
Rp7856
s(g6536
S'action-1'
p7857
tp7858
g5
(g9
S'* _\x9a\xb9\x9do?'
p7859
tp7860
Rp7861
s(g4628
S'object-0-x-28'
p7862
tp7863
g5
(g9
S'\xa2\xb0n\xa4U\xfa\xb9?'
p7864
tp7865
Rp7866
s(S'diff-x-pos--8'
p7867
S'prev-action-1'
p7868
tp7869
g5
(g9
S'z\x90`\xd8\x9e\xb1\x98\xbf'
p7870
tp7871
Rp7872
s(g3740
S'action-4'
p7873
tp7874
g5
(g9
S'\xadY&\xd1\x03\n\x82\xbf'
p7875
tp7876
Rp7877
s(g2190
S'action-4'
p7878
tp7879
g5
(g9
S'Q%\xd0\xaa\x1dgt\xbf'
p7880
tp7881
Rp7882
s(g244
S'prev-action-3'
p7883
tp7884
g5
(g9
S'\xf6h\x8aS\xfav.?'
p7885
tp7886
Rp7887
s(g2149
S'action-4'
p7888
tp7889
g5
(g9
S'V\xcb5\xfb\xee5g\xbf'
p7890
tp7891
Rp7892
s(S'diff-x-pos-9'
p7893
S'prev-action-1'
p7894
tp7895
g5
(g9
S'a\xca#T\x8e\x18\x84\xbf'
p7896
tp7897
Rp7898
s(g2236
S'object-1-x-68'
p7899
tp7900
g5
(g9
S'\x00\xb7\xbd\xbf>\xd0\xb3?'
p7901
tp7902
Rp7903
s(S'diff-x-pos--18'
p7904
S'prev-action-3'
p7905
tp7906
g5
(g9
S'o\xc6}i\x9d\xf9\x80?'
p7907
tp7908
Rp7909
stp7910
Rp7911
.