ccollections
Counter
p0
((dp1
(S'diff-x-pos--89'
p2
S'action-4'
p3
tp4
F6.793023167336111
s(S'diff-x-pos-47'
p5
S'prev-action-1'
p6
tp7
F-0.32582447955794597
s(S'diff-x-pos--94'
p8
S'action-3'
p9
tp10
F-10.878325965049358
s(S'diff-x-pos--1'
p11
S'prev-action-1'
p12
tp13
F0.41045735327667887
s(S'diff-x-pos-2'
p14
S'prev-action-3'
p15
tp16
F0.789465327534989
s(S'diff-x-pos--7'
p17
S'prev-action-1'
p18
tp19
F-1.4507021623633292
s(S'diff-x-pos--27'
p20
S'action-4'
p21
tp22
F-1.0190745207807592
s(S'diff-x-pos-40'
p23
S'action-3'
p24
tp25
F9.237618320141902
s(S'diff-x-pos-54'
p26
S'action-1'
p27
tp28
F-1.3093758694547963
s(S'diff-x-pos--43'
p29
S'prev-action-4'
p30
tp31
F0.6992903161081249
s(S'diff-x-pos--96'
p32
S'prev-action-4'
p33
tp34
F2.1543179994933626
s(S'action-4'
p35
S'object-1-x-60.0'
p36
tp37
F-1.0646541038017667
s(S'diff-x-pos--35'
p38
S'action-3'
p39
tp40
F-0.7776751340114125
s(S'diff-x-pos--25'
p41
S'prev-action-4'
p42
tp43
F-0.23710559872205692
s(S'diff-x-pos--75'
p44
S'prev-action-4'
p45
tp46
F0.23644524695292135
s(S'diff-x-pos-43'
p47
S'prev-action-4'
p48
tp49
F-1.5533908827463885
s(S'diff-x-pos--26'
p50
S'prev-action-1'
p51
tp52
F-2.210961854608507
s(g23
S'prev-action-1'
p53
tp54
F-0.0890104680394665
s(S'diff-x-pos--7'
p55
S'action-3'
p56
tp57
F3.9924803289872095
s(S'diff-x-pos--61'
p58
S'action-3'
p59
tp60
F-1.8011757993513464
s(S'action-4'
p61
S'object-1-x-80.0'
p62
tp63
F2.241379380325279
s(S'diff-x-pos-21'
p64
S'prev-action-1'
p65
tp66
F0.5114547023649322
s(S'diff-x-pos-33'
p67
S'prev-action-4'
p68
tp69
F2.4363798864488766
s(S'diff-x-pos-69'
p70
S'prev-action-4'
p71
tp72
F-1.6322739989759896
s(S'diff-x-pos-17'
p73
S'action-1'
p74
tp75
F-0.9617648866280609
s(S'diff-x-pos-37'
p76
S'action-4'
p77
tp78
F-6.895837822566662
s(S'diff-x-pos--13'
p79
S'action-4'
p80
tp81
F-2.390806937454834
s(S'diff-x-pos-9'
p82
S'action-3'
p83
tp84
F2.832297040785327
s(S'diff-x-pos--98'
p85
S'action-1'
p86
tp87
F0.054892686938475266
s(S'action-3'
p88
S'object-1-x-80.0'
p89
tp90
F-0.6357309321610222
s(S'diff-x-pos--69'
p91
S'action-4'
p92
tp93
F5.703943967071517
s(S'diff-x-pos--46'
p94
S'prev-action-4'
p95
tp96
F-1.8035156517773907
s(S'diff-x-pos--49'
p97
S'prev-action-4'
p98
tp99
F-1.6706488082291084
s(S'diff-x-pos-25'
p100
S'action-4'
p101
tp102
F-9.082573829564044
s(S'diff-x-pos-66'
p103
S'prev-action-3'
p104
tp105
F-0.17023872788893613
s(S'action-4'
p106
S'object-0-x-120.0'
p107
tp108
F9.511621802617999
s(S'diff-x-pos--13'
p109
S'prev-action-4'
p110
tp111
F0.7081654018130382
s(S'diff-x-pos--37'
p112
S'action-4'
p113
tp114
F1.3705615760923537
s(g20
S'prev-action-1'
p115
tp116
F0.05917138707656594
s(S'diff-x-pos-63'
p117
S'prev-action-3'
p118
tp119
F0.466626460036602
s(S'diff-x-pos-52'
p120
S'action-4'
p121
tp122
F-9.007434285822576
s(S'diff-x-pos-59'
p123
S'action-4'
p124
tp125
F-4.0347795774748825
s(S'diff-x-pos--55'
p126
S'action-4'
p127
tp128
F3.562570710935264
s(S'diff-x-pos--31'
p129
S'action-1'
p130
tp131
F-1.2536618430263964
s(S'diff-x-pos-48'
p132
S'action-1'
p133
tp134
F0.6952977800605575
s(S'diff-x-pos-4'
p135
S'prev-action-4'
p136
tp137
F-2.3160779000608316
s(S'diff-x-pos--30'
p138
S'prev-action-1'
p139
tp140
F0.2833039852055883
s(S'diff-x-pos--5'
p141
S'action-3'
p142
tp143
F1.605120060537965
s(S'action-4'
p144
S'object-0-x-50.0'
p145
tp146
F-0.49462647449341635
s(S'diff-x-pos-3'
p147
S'action-4'
p148
tp149
F-5.617964520435201
s(S'diff-x-pos-26'
p150
S'action-4'
p151
tp152
F-7.214508891594377
s(S'diff-x-pos--13'
p153
S'action-3'
p154
tp155
F0.09963718215827519
s(g77
S'object-0-x-130.0'
p156
tp157
F-4.836674163621297
s(S'diff-x-pos--26'
p158
S'action-1'
p159
tp160
F1.183255479303562
s(S'diff-x-pos--75'
p161
S'action-4'
p162
tp163
F5.441132913374045
s(S'diff-x-pos--23'
p164
S'prev-action-4'
p165
tp166
F0.554040977719304
s(S'diff-x-pos-37'
p167
S'action-3'
p168
tp169
F8.412640397060816
s(S'diff-x-pos-55'
p170
S'action-4'
p171
tp172
F-11.014915058412305
s(S'diff-x-pos--105'
p173
S'prev-action-4'
p174
tp175
F1.723106749666318
s(S'diff-x-pos--59'
p176
S'action-3'
p177
tp178
F-5.954914518297213
s(S'object-0-dx-1'
p179
S'prev-action-3'
p180
tp181
F-0.6574780942012378
s(S'diff-x-pos--39'
p182
S'prev-action-3'
p183
tp184
F-0.7598431138652162
s(S'diff-x-pos-2'
p185
S'action-3'
p186
tp187
F4.115382217711457
s(S'diff-x-pos-4'
p188
S'prev-action-3'
p189
tp190
F2.5938666840329994
s(S'action-3'
p191
S'object-0-x-40.0'
p192
tp193
F6.75262355419831
s(S'diff-x-pos--3'
p194
S'action-4'
p195
tp196
F-2.693807693751613
sS'object-1-x-120.0'
p197
F-3.2381588062278692
s(S'diff-x-pos-3'
p198
S'action-3'
p199
tp200
F6.276736430570219
sS'prev-action-1'
p201
F35.27804103392684
s(S'diff-x-pos--90'
p202
S'prev-action-3'
p203
tp204
F-2.1658920201624094
sS'prev-action-3'
p205
F39.21860433892529
s(S'action-3'
p206
S'object-1-x-110.0'
p207
tp208
F-2.798477628432888
s(S'diff-x-pos-1'
p209
S'prev-action-1'
p210
tp211
F0.0466871897678795
s(S'diff-x-pos--36'
p212
S'action-1'
p213
tp214
F-0.9474943292360574
s(g47
S'action-1'
p215
tp216
F-1.7102132507964205
s(S'diff-x-pos--79'
p217
S'action-4'
p218
tp219
F5.8278153236481876
s(g38
S'prev-action-4'
p220
tp221
F2.4208749189623386
s(S'diff-x-pos-55'
p222
S'action-3'
p223
tp224
F14.746997084884288
s(S'diff-x-pos-45'
p225
S'prev-action-3'
p226
tp227
F2.1726214941243596
s(S'diff-x-pos--34'
p228
S'prev-action-3'
p229
tp230
F-0.13568735968808965
s(S'diff-x-pos-6'
p231
S'prev-action-4'
p232
tp233
F-0.31455744119272366
s(S'diff-x-pos--96'
p234
S'action-1'
p235
tp236
F1.4116807891536185
sS'diff-x-pos--103'
p237
F-0.2565798627931955
sS'diff-y-pos-0'
p238
F-4.768760412118073
s(S'diff-x-pos--17'
p239
S'action-1'
p240
tp241
F-0.7368239566432473
s(S'diff-x-pos--100'
p242
S'prev-action-4'
p243
tp244
F0.4577329084280053
sS'object-1-x-100.0'
p245
F0.8564562644358944
s(S'diff-x-pos-2'
p246
S'action-4'
p247
tp248
F-3.4667962559871324
s(S'diff-x-pos-29'
p249
S'action-3'
p250
tp251
F6.567960989496145
s(g195
S'object-1-x-70.0'
p252
tp253
F2.15950445722049
s(S'diff-x-pos-38'
p254
S'prev-action-3'
p255
tp256
F2.2230388880142287
s(S'diff-x-pos--4'
p257
S'action-1'
p258
tp259
F-2.380225559652769
s(S'diff-x-pos--112'
p260
S'action-3'
p261
tp262
F-8.190446578363193
sS'object-1-dx--1'
p263
F-1.086991751169307
s(S'diff-x-pos--95'
p264
S'action-4'
p265
tp266
F8.596592913062238
s(S'diff-x-pos--33'
p267
S'action-1'
p268
tp269
F-0.09522141232800638
s(g39
S'object-0-x-90.0'
p270
tp271
F-2.319649130432974
sS'object-1-dy--1'
p272
F-0.08573213701918603
s(S'diff-x-pos--51'
p273
S'action-1'
p274
tp275
F0.5561948129374633
s(S'diff-x-pos--120'
p276
S'action-4'
p277
tp278
F-1.1854127571727977
s(S'action-3'
p279
S'object-1-x-70.0'
p280
tp281
F-0.6924424737045529
s(S'action-4'
p282
S'object-0-x-60.0'
p283
tp284
F3.961825676618992
s(g257
S'prev-action-4'
p285
tp286
F1.6783263093958296
s(S'diff-x-pos--24'
p287
S'action-1'
p288
tp289
F0.3285777415488087
s(S'diff-x-pos-38'
p290
S'action-4'
p291
tp292
F-4.178007610193236
s(S'diff-x-pos--77'
p293
S'action-4'
p294
tp295
F7.783682370403916
s(S'diff-x-pos-57'
p296
S'action-4'
p297
tp298
F-8.579174467783245
s(S'diff-x-pos-3'
p299
S'prev-action-1'
p300
tp301
F2.1504647590052968
s(S'diff-x-pos--97'
p302
S'prev-action-3'
p303
tp304
F0.5124371879709076
s(g159
S'object-1-x-70.0'
p305
tp306
F-1.455923611971228
s(S'diff-x-pos-35'
p307
S'prev-action-1'
p308
tp309
F1.8427083830443391
s(S'diff-x-pos-42'
p310
S'prev-action-3'
p311
tp312
F0.4045220538607157
s(S'diff-x-pos--10'
p313
S'action-1'
p314
tp315
F-3.294835080903704
s(S'diff-x-pos-14'
p316
S'prev-action-1'
p317
tp318
F-1.4386642602239235
s(S'diff-x-pos-25'
p319
S'action-3'
p320
tp321
F10.315641517805826
s(S'diff-x-pos-19'
p322
S'prev-action-3'
p323
tp324
F1.9380768551967544
s(S'diff-x-pos--114'
p325
S'prev-action-4'
p326
tp327
F-4.296545175427348
s(S'diff-x-pos-34'
p328
S'prev-action-1'
p329
tp330
F-0.07812016743383665
sS'diff-x-pos--54'
p331
F0.4243534953297199
sg126
F-3.6460017542355723
sS'diff-x-pos--56'
p332
F-3.225805459001687
sS'diff-x-pos--57'
p333
F-1.4712539210300597
sS'diff-x-pos--50'
p334
F-0.6661945919535328
sS'diff-x-pos--51'
p335
F-2.262815790178661
sS'diff-x-pos--52'
p336
F0.5217226479183775
sS'diff-x-pos--53'
p337
F-2.9110335915317993
s(S'action-1'
p338
S'object-0-x-60.0'
p339
tp340
F0.35606909862765446
sS'diff-x-pos--58'
p341
F-1.8680644986641346
sS'diff-x-pos--59'
p342
F-0.08928415090878805
s(S'diff-x-pos--102'
p343
S'action-4'
p344
tp345
F8.693397867817625
s(S'diff-x-pos--38'
p346
S'action-1'
p347
tp348
F-1.02581446311528
sS'object-0-y-0.0'
p349
F40.89729076728954
s(g58
S'prev-action-4'
p350
tp351
F0.15751690885679515
s(S'diff-x-pos--68'
p352
S'action-3'
p353
tp354
F-5.555019195547033
s(g176
S'prev-action-4'
p355
tp356
F0.8805204286918814
s(S'diff-x-pos-57'
p357
S'prev-action-3'
p358
tp359
F1.9070450151999974
s(S'action-1'
p360
S'object-0-x-100.0'
p361
tp362
F4.843464079676027
s(S'diff-x-pos--38'
p363
S'prev-action-1'
p364
tp365
F-0.3957525593693125
s(S'diff-x-pos--14'
p366
S'prev-action-1'
p367
tp368
F1.7012976936961783
s(S'object-1-dx-1'
p369
S'prev-action-1'
p370
tp371
F1.70115436019577
s(S'diff-x-pos--19'
p372
g191
tp373
F2.2405481112453614
sS'object-0-x-90.0'
p374
F8.85480273270077
s(S'diff-x-pos--106'
p375
S'prev-action-4'
p376
tp377
F-0.20457399080384187
s(g194
S'prev-action-1'
p378
tp379
F-0.9270749762307738
s(S'diff-x-pos--28'
p380
S'prev-action-1'
p381
tp382
F0.3989388600180923
s(S'diff-x-pos--71'
p383
S'prev-action-1'
p384
tp385
F-1.2443039417368524
s(S'diff-x-pos--107'
p386
S'prev-action-3'
p387
tp388
F0.20129046226267644
sg369
F3.071806657666944
s(S'diff-x-pos--116'
p389
S'prev-action-4'
p390
tp391
F-0.4152087262503682
s(S'diff-x-pos--83'
p392
S'action-4'
p393
tp394
F5.92541493557837
s(S'diff-x-pos--55'
p395
S'prev-action-1'
p396
tp397
F-1.903555979186713
s(g310
S'action-3'
p398
tp399
F9.897918398467217
s(S'diff-x-pos-10'
p400
S'prev-action-3'
p401
tp402
F2.200110880476806
s(S'diff-x-pos--37'
p403
S'prev-action-1'
p404
tp405
F-0.9986376470157348
s(S'diff-x-pos--74'
p406
S'action-3'
p407
tp408
F-4.517268735914935
s(S'diff-x-pos--22'
p409
S'prev-action-3'
p410
tp411
F0.0018962443743650859
s(S'diff-x-pos--97'
p412
S'action-3'
p413
tp414
F-11.841674573825468
s(g296
S'prev-action-4'
p415
tp416
F1.394193256812742
s(S'diff-x-pos--79'
p417
S'prev-action-3'
p418
tp419
F-0.34664530974211605
sS'diff-x-pos-12'
p420
F1.9449845082715895
sS'diff-x-pos-13'
p421
F0.29897387594076574
sS'diff-x-pos-10'
p422
F1.7716513484558085
sS'diff-x-pos-11'
p423
F0.39223559891030624
sS'diff-x-pos-16'
p424
F2.094202073119657
sS'diff-x-pos-17'
p425
F-1.4925957452094083
sS'diff-x-pos-14'
p426
F-1.6335183566215126
sS'diff-x-pos-15'
p427
F2.743241196613121
s(S'diff-x-pos-28'
p428
S'action-1'
p429
tp430
F-1.0729372147257765
sS'diff-x-pos-18'
p431
F0.6604136901154255
sS'diff-x-pos-19'
p432
F2.140994762086146
s(S'diff-x-pos--51'
p433
S'prev-action-1'
p434
tp435
F-2.146852125471133
s(S'diff-x-pos--63'
p436
S'action-3'
p437
tp438
F-6.267544798448502
s(g8
S'prev-action-1'
p439
tp440
F-2.0980349334605126
s(S'diff-x-pos--44'
p441
S'action-3'
p442
tp443
F-2.0183019848402406
s(S'diff-x-pos--33'
p444
S'prev-action-1'
p445
tp446
F0.8195335696705615
s(S'diff-x-pos--42'
p447
S'action-3'
p448
tp449
F-3.772399462889589
s(S'diff-x-pos-30'
p450
S'prev-action-3'
p451
tp452
F2.9989702898128643
s(S'diff-x-pos--85'
p453
S'action-3'
p454
tp455
F-6.258192166612615
s(S'action-4'
p456
S'object-0-x-110.0'
p457
tp458
F9.345431183821644
s(S'diff-x-pos-2'
p459
S'prev-action-4'
p460
tp461
F0.4467196028024635
s(S'diff-x-pos--44'
p462
S'action-4'
p463
tp464
F0.898222838577055
s(S'diff-x-pos--100'
p465
S'action-4'
p466
tp467
F9.008247116526631
s(S'diff-x-pos--32'
p468
S'prev-action-1'
p469
tp470
F-0.11949484559798879
s(S'diff-x-pos--43'
p471
S'prev-action-1'
p472
tp473
F-0.39401814917309586
s(S'diff-x-pos--81'
p474
S'prev-action-4'
p475
tp476
F0.427046241263763
s(g234
S'prev-action-1'
p477
tp478
F-1.8037172853664747
s(S'diff-x-pos--8'
p479
S'action-4'
p480
tp481
F1.1523388005235
s(S'diff-x-pos-45'
p482
S'action-3'
p483
tp484
F11.746203747957704
s(g425
S'prev-action-1'
p485
tp486
F-2.0525593486298
s(S'diff-x-pos--25'
p487
S'prev-action-1'
p488
tp489
F0.21336580595975185
s(S'diff-x-pos-58'
p490
S'prev-action-4'
p491
tp492
F2.738516022291728
s(S'diff-x-pos-43'
p493
S'prev-action-1'
p494
tp495
F0.29078195512280103
s(S'diff-x-pos--63'
p496
S'action-4'
p497
tp498
F4.872501546953594
s(S'diff-x-pos--90'
p499
S'action-3'
p500
tp501
F-8.930553090776355
s(S'diff-x-pos-40'
p502
S'prev-action-4'
p503
tp504
F0.9035433860716849
s(S'diff-x-pos-26'
p505
S'prev-action-3'
p506
tp507
F1.7355905399989904
s(S'diff-x-pos--7'
p508
S'action-4'
p509
tp510
F-2.770542259445533
s(S'diff-x-pos--3'
p511
S'prev-action-4'
p512
tp513
F0.8987983902290997
s(S'action-1'
p514
S'prev-action-4'
p515
tp516
F14.648312175388488
s(S'diff-x-pos--47'
p517
S'action-1'
p518
tp519
F-0.6457307812644526
s(S'object-0-dx--1'
p520
g201
tp521
F0.07419598111366865
s(S'diff-x-pos-33'
p522
S'prev-action-3'
p523
tp524
F1.1851680601317927
s(g231
S'action-1'
p525
tp526
F-0.9819885910602897
s(S'diff-x-pos--15'
p527
S'action-3'
p528
tp529
F2.1258986476829125
s(S'diff-x-pos--11'
p530
S'prev-action-4'
p531
tp532
F0.8331550501896295
s(S'diff-x-pos--39'
p533
g88
tp534
F-0.8950901027645654
s(S'object-0-dx-1'
p535
S'action-3'
p536
tp537
F-0.9275010438646338
s(g97
S'action-3'
p538
tp539
F-3.9333692290449136
s(S'diff-x-pos-9'
p540
S'action-4'
p541
tp542
F-2.2607849771757933
s(S'diff-x-pos--98'
p543
S'action-4'
p544
tp545
F6.673377784201991
s(g341
S'prev-action-4'
p546
tp547
F0.9418594157050315
s(S'diff-x-pos-60'
p548
S'prev-action-4'
p549
tp550
F4.317404176438397
s(g288
S'object-0-x-50.0'
p551
tp552
F3.9105193991503215
s(S'diff-x-pos-37'
p553
S'prev-action-3'
p554
tp555
F1.9165717905763553
s(g79
S'prev-action-3'
p556
tp557
F-0.3557007799191645
s(S'diff-x-pos-26'
p558
S'prev-action-4'
p559
tp560
F0.10062044181960506
s(g441
S'prev-action-1'
p561
tp562
F-1.0389967720585005
s(S'diff-x-pos--92'
p563
S'prev-action-3'
p564
tp565
F-1.5164958663722365
s(S'diff-x-pos-52'
p566
S'action-3'
p567
tp568
F10.554852792369674
s(g360
S'prev-action-3'
p569
tp570
F16.109541947407532
s(S'diff-x-pos-59'
p571
S'action-1'
p572
tp573
F2.7703055501860474
s(S'action-3'
p574
S'object-0-x-10.0'
p575
tp576
F11.655090860005831
s(S'diff-x-pos-41'
p577
S'action-1'
p578
tp579
F-0.18832987583887373
s(S'diff-x-pos-48'
p580
S'prev-action-1'
p581
tp582
F2.3007343656958037
s(S'diff-x-pos--104'
p583
S'prev-action-1'
p584
tp585
F-1.5418993119833262
s(S'diff-x-pos-5'
p586
S'action-3'
p587
tp588
F5.029396827350544
s(S'diff-x-pos--115'
p589
S'prev-action-3'
p590
tp591
F-0.8499865263564879
s(S'action-4'
p592
g201
tp593
F13.285311583032586
s(S'diff-x-pos-63'
p594
S'action-3'
p595
tp596
F2.9024952830356585
s(S'diff-x-pos-68'
p597
S'action-1'
p598
tp599
F1.4321907950830295
s(S'diff-x-pos-13'
p600
S'prev-action-1'
p601
tp602
F1.8108784207100586
s(S'diff-x-pos-25'
p603
S'prev-action-4'
p604
tp605
F0.29999160403148
s(S'diff-x-pos--49'
p606
S'action-4'
p607
tp608
F1.3713571734676457
s(S'diff-x-pos--103'
p609
S'action-3'
p610
tp611
F-10.27675138533201
s(S'diff-x-pos--75'
p612
S'action-1'
p613
tp614
F-0.47446040856993776
s(S'diff-x-pos--46'
p615
S'action-4'
p616
tp617
F-0.7406734673505196
s(S'diff-x-pos--23'
p618
S'prev-action-1'
p619
tp620
F-1.2066168751408377
s(S'diff-x-pos--58'
p621
S'prev-action-3'
p622
tp623
F-3.1302414241699066
s(S'diff-x-pos-56'
p624
S'prev-action-4'
p625
tp626
F1.0445338918799294
s(S'diff-x-pos--105'
p627
S'prev-action-1'
p628
tp629
F-1.4009978661351346
s(S'diff-x-pos--61'
p630
S'prev-action-3'
p631
tp632
F-1.0158981055735508
s(S'diff-x-pos--86'
p633
S'prev-action-1'
p634
tp635
F-2.62130341005726
s(S'diff-x-pos-15'
p636
S'action-3'
p637
tp638
F5.44325534594086
s(g336
S'action-1'
p639
tp640
F3.0334149531986614
s(S'diff-x-pos--110'
p641
S'action-3'
p642
tp643
F-9.356894156040386
s(S'diff-x-pos--62'
p644
S'action-1'
p645
tp646
F-0.7173775933273425
s(S'action-1'
p647
S'object-1-x-120.0'
p648
tp649
F-1.7905588082209936
s(S'diff-x-pos-18'
p650
S'prev-action-3'
p651
tp652
F0.6604996138815222
s(S'diff-x-pos--9'
p653
g61
tp654
F-1.5076381896329138
s(S'diff-x-pos--64'
p655
S'prev-action-3'
p656
tp657
F-0.20596540182238648
s(S'diff-x-pos-21'
p658
S'action-1'
p659
tp660
F-0.3032426522383811
s(S'diff-x-pos--101'
p661
S'prev-action-1'
p662
tp663
F-0.012484055211006206
s(S'diff-x-pos--41'
p664
S'action-1'
p665
tp666
F-0.6295175885756676
s(S'diff-x-pos--3'
p667
S'action-1'
p668
tp669
F1.340425921362006
s(S'diff-x-pos--76'
p670
S'prev-action-4'
p671
tp672
F-0.04671020045777291
s(S'diff-x-pos-46'
p673
S'prev-action-4'
p674
tp675
F0.8443859393617326
s(S'diff-x-pos--87'
p676
S'prev-action-3'
p677
tp678
F0.509930782406909
s(S'diff-x-pos--84'
p679
S'action-1'
p680
tp681
F-0.2057663942199357
s(S'diff-x-pos--70'
p682
S'prev-action-1'
p683
tp684
F-1.6848124333393062
s(S'diff-x-pos--36'
p685
S'action-4'
p686
tp687
F3.1222129268587127
s(g493
S'action-4'
p688
tp689
F-5.557180382180727
s(S'diff-x-pos--35'
p690
S'prev-action-3'
p691
tp692
F-1.369897979307925
s(S'diff-x-pos--108'
p693
S'prev-action-3'
p694
tp695
F-0.9463792635835447
s(S'diff-x-pos--34'
p696
S'prev-action-4'
p697
tp698
F0.8423620112391113
s(S'diff-x-pos-7'
p699
S'action-4'
p700
tp701
F-3.5978545116352505
s(S'diff-x-pos-22'
p702
S'action-4'
p703
tp704
F-4.621484928551036
s(S'diff-x-pos--96'
p705
S'action-4'
p706
tp707
F5.470044979402099
s(S'diff-x-pos-67'
p708
S'action-1'
p709
tp710
F-1.4392359542644653
s(g26
S'prev-action-1'
p711
tp712
F-0.43839302748065945
s(S'diff-x-pos-8'
p713
S'prev-action-3'
p714
tp715
F3.2786591096618043
s(S'diff-x-pos--110'
p716
S'action-4'
p717
tp718
F10.171379238275115
s(S'diff-x-pos--72'
p719
S'action-1'
p720
tp721
F-2.0842424385901186
s(S'diff-x-pos--99'
p722
S'prev-action-3'
p723
tp724
F-2.2434708046515546
s(g343
S'prev-action-1'
p725
tp726
F-1.4455819433723622
s(S'diff-x-pos--19'
p727
S'prev-action-3'
p728
tp729
F-0.3677673537037769
s(S'diff-x-pos--88'
p730
S'action-4'
p731
tp732
F6.342009657979191
s(g420
S'action-3'
p733
tp734
F7.9211580190359525
s(S'diff-x-pos-47'
p735
S'action-1'
p736
tp737
F0.4868627577953113
s(S'diff-x-pos--89'
p738
S'prev-action-4'
p739
tp740
F0.5210403690437351
s(S'diff-x-pos--95'
p741
S'action-1'
p742
tp743
F-1.0193255042813103
s(S'diff-x-pos--76'
p744
S'prev-action-3'
p745
tp746
F-0.44494607593511265
s(S'diff-x-pos--16'
p747
S'action-1'
p748
tp749
F-0.19530182414023384
s(S'diff-x-pos--10'
p750
S'prev-action-4'
p751
tp752
F-0.23709949135468822
s(S'diff-x-pos-50'
p753
S'prev-action-4'
p754
tp755
F-0.3180904253193695
s(S'diff-x-pos--6'
p756
S'prev-action-3'
p757
tp758
F2.8179182163690757
s(S'diff-x-pos--121'
p759
S'prev-action-3'
p760
tp761
F0.180900130753048
s(S'diff-x-pos-53'
p762
S'prev-action-1'
p763
tp764
F-1.869268290516167
s(S'diff-x-pos--48'
p765
S'action-1'
p766
tp767
F0.5971129466514931
s(S'diff-x-pos--45'
p768
S'action-3'
p769
tp770
F-2.4896734785571306
s(S'diff-x-pos--8'
p771
S'action-1'
p772
tp773
F-2.189326171560822
s(S'diff-x-pos--77'
p774
S'action-1'
p775
tp776
F0.5105885679374291
s(S'diff-x-pos--80'
p777
S'prev-action-3'
p778
tp779
F0.711804136957787
s(S'diff-x-pos-36'
p780
S'prev-action-1'
p781
tp782
F2.8326685897566337
s(S'diff-x-pos--109'
p783
S'action-4'
p784
tp785
F9.867842698027703
s(S'action-1'
p786
S'object-0-x-30.0'
p787
tp788
F3.6540778047180256
s(S'diff-x-pos-35'
p789
S'prev-action-4'
p790
tp791
F-0.28116491339312405
s(S'diff-x-pos--99'
p792
S'prev-action-4'
p793
tp794
F0.18377461290579822
s(S'diff-x-pos-27'
p795
S'prev-action-4'
p796
tp797
F-0.02258660605313012
s(S'diff-x-pos--45'
p798
S'prev-action-3'
p799
tp800
F1.9412744162615883
s(g783
S'prev-action-1'
p801
tp802
F-1.4128261975371246
s(S'diff-x-pos--48'
p803
S'prev-action-1'
p804
tp805
F-0.6481433464139904
s(S'action-1'
p806
S'object-0-x-20.0'
p807
tp808
F5.06762383570937
s(S'diff-x-pos--19'
p809
S'prev-action-4'
p810
tp811
F-0.7371112122404497
s(S'diff-x-pos--10'
p812
S'action-4'
p813
tp814
F-1.3120923691620932
s(S'object-1-dx--1'
p815
S'prev-action-1'
p816
tp817
F0.9216475107357847
s(S'diff-x-pos--114'
p818
S'prev-action-1'
p819
tp820
F-0.40033391282132835
s(S'diff-x-pos--40'
p821
S'action-4'
p822
tp823
F0.9267906146427926
s(S'action-4'
p824
S'object-0-x-30.0'
p825
tp826
F-1.6358299392295699
s(S'diff-x-pos--119'
p827
S'prev-action-3'
p828
tp829
F-0.4633632878478058
s(S'diff-x-pos-16'
p830
S'action-1'
p831
tp832
F-0.0018151299159229195
s(S'diff-x-pos-39'
p833
S'prev-action-1'
p834
tp835
F-0.2965395206111209
s(S'diff-x-pos--12'
p836
S'prev-action-1'
p837
tp838
F1.6103765124142697
s(S'diff-x-pos--102'
p839
S'action-1'
p840
tp841
F-1.6734492049572027
s(S'diff-x-pos--38'
p842
S'action-4'
p843
tp844
F1.0391692768685958
s(S'action-3'
p845
S'object-0-x-80.0'
p846
tp847
F0.9845573445982991
sg471
F0.7561927295609631
sS'diff-x-pos--42'
p848
F-0.25660262348336427
sS'diff-x-pos--41'
p849
F-0.6913086179364955
sg821
F-0.30215758452243097
sS'diff-x-pos--47'
p850
F0.4811252276669795
sg615
F-3.605353027758155
sS'diff-x-pos--45'
p851
F0.5283234843918083
sg462
F0.06394284339774291
s(S'diff-x-pos--1'
p852
S'prev-action-3'
p853
tp854
F0.9539714445428548
sg606
F-2.138946825188847
sg765
F-0.09017869888407559
s(S'diff-x-pos-67'
p855
S'prev-action-1'
p856
tp857
F0.9575116400714493
sS'diff-x-pos-69'
p858
F-1.6071834060617902
s(g771
S'prev-action-1'
p859
tp860
F-0.3994682396696452
s(S'diff-x-pos--53'
p861
S'action-3'
p862
tp863
F-6.1739080214158415
s(S'diff-x-pos--57'
p864
S'prev-action-1'
p865
tp866
F-2.38135575464961
s(S'diff-x-pos--111'
p867
S'action-1'
p868
tp869
F-2.8423012452566754
s(S'diff-x-pos--108'
p870
S'action-3'
p871
tp872
F-11.39037649307233
s(S'diff-x-pos-53'
p873
S'action-4'
p874
tp875
F-9.54663242130939
s(g59
S'object-0-x-20.0'
p876
tp877
F7.078329248369722
s(S'diff-x-pos--36'
p878
S'prev-action-4'
p879
tp880
F-0.5074648379268977
s(S'object-1-dx-1'
p881
S'prev-action-4'
p882
tp883
F-0.8037438268222863
s(S'diff-x-pos-62'
p884
S'prev-action-3'
p885
tp886
F1.453843419071317
s(S'diff-x-pos-32'
p887
S'prev-action-3'
p888
tp889
F-2.948215502143098
s(S'diff-x-pos--16'
p890
S'prev-action-4'
p891
tp892
F-0.09465076727679744
s(S'diff-x-pos-20'
p893
S'action-3'
p894
tp895
F7.759905730994367
s(S'diff-x-pos-51'
p896
S'action-4'
p897
tp898
F-9.776547492946186
s(g744
S'action-4'
p899
tp900
F6.611720675868019
s(S'diff-x-pos--106'
p901
S'prev-action-3'
p902
tp903
F0.12708228441850045
s(S'diff-x-pos--40'
p904
S'action-3'
p905
tp906
F-0.9768259922619617
s(S'diff-x-pos-58'
p907
S'prev-action-3'
p908
tp909
F3.158673077077404
s(S'diff-x-pos--28'
p910
S'prev-action-4'
p911
tp912
F1.1810040878149393
s(S'diff-x-pos-49'
p913
S'action-1'
p914
tp915
F1.4246863653258388
s(S'diff-x-pos--107'
p916
S'prev-action-4'
p917
tp918
F-1.512920953651197
sg884
F4.768601157284786
s(S'diff-x-pos--64'
p919
S'action-3'
p920
tp921
F-5.043708217611171
s(S'diff-x-pos--83'
p922
S'action-3'
p923
tp924
F-7.8726806577433575
s(S'diff-x-pos--111'
p925
S'prev-action-4'
p926
tp927
F2.6379608155640897
s(g422
S'prev-action-4'
p928
tp929
F-0.15542246110698843
s(S'diff-x-pos--113'
p930
S'action-3'
p931
tp932
F-7.3042636743323675
s(g644
S'prev-action-1'
p933
tp934
F0.21270261423538406
s(S'diff-x-pos--110'
p935
S'prev-action-3'
p936
tp937
F-1.2480416374920518
sS'diff-x-pos-66'
p938
F2.223413960894391
sg685
F0.42859706328552083
sg403
F-0.2777992756570596
sg228
F-1.351089226196963
sg690
F-0.511618762592043
sS'diff-x-pos--32'
p939
F-0.02121427205739357
sS'diff-x-pos--33'
p940
F-0.6290011993985515
sS'diff-x-pos--30'
p941
F1.2848556756426086
sS'diff-x-pos--31'
p942
F-0.9960820847309227
s(S'diff-x-pos-22'
p943
S'prev-action-1'
p944
tp945
F3.066366100611672
sg842
F-1.2602417315538827
sS'diff-x-pos--39'
p946
F-0.8420997589478862
s(S'diff-x-pos--82'
p947
g206
tp948
F-7.0440480463332795
sS'diff-x-pos-29'
p949
F0.027669937558419122
sg428
F1.695998215578825
s(g609
S'prev-action-3'
p950
tp951
F-1.0435068488236174
sg150
F0.027543621455307754
sg603
F1.7424558315083036
sS'diff-x-pos-24'
p952
F1.4178294387345238
sS'diff-x-pos-23'
p953
F2.5166030244741613
sS'diff-x-pos-22'
p954
F1.0741734566517611
s(S'diff-x-pos-62'
p955
S'prev-action-4'
p956
tp957
F1.8803221340570486
sS'diff-x-pos-20'
p958
F1.7470029286193025
s(g129
S'prev-action-4'
p959
tp960
F0.4654618489996868
s(S'diff-x-pos--73'
p961
S'prev-action-3'
p962
tp963
F1.8293560023117665
s(S'diff-x-pos-46'
p964
S'action-3'
p965
tp966
F10.197906530183094
s(g331
S'action-3'
p967
tp968
F-6.320429579253322
s(S'diff-x-pos--33'
p969
S'prev-action-4'
p970
tp971
F0.09603764048342833
s(g586
S'prev-action-3'
p972
tp973
F-0.8444748786553471
s(S'diff-x-pos--65'
p974
S'action-1'
p975
tp976
F-0.5317621338745088
s(S'diff-x-pos--29'
p977
S'action-3'
p978
tp979
F-1.7780567273276193
s(S'diff-x-pos-0'
p980
S'prev-action-3'
p981
tp982
F-1.1791695770741146
s(S'action-4'
p983
S'object-0-x-40.0'
p984
tp985
F2.133143802963738
s(S'diff-x-pos-41'
p986
S'prev-action-1'
p987
tp988
F-0.1334798091876112
s(S'diff-x-pos-59'
p989
S'prev-action-1'
p990
tp991
F4.306650783477296
s(S'diff-x-pos-64'
p992
S'action-4'
p993
tp994
F-1.8653826368511357
s(S'diff-x-pos--20'
p995
S'prev-action-1'
p996
tp997
F0.17399888442186717
s(g217
S'prev-action-1'
p998
tp999
F-1.551135078206257
s(g858
S'prev-action-1'
p1000
tp1001
F0.02509059291419935
s(S'diff-x-pos--44'
p1002
S'action-1'
p1003
tp1004
F1.184021989660935
s(S'diff-x-pos--52'
p1005
S'prev-action-4'
p1006
tp1007
F-0.15483920175925325
s(S'diff-x-pos--100'
p1008
S'action-1'
p1009
tp1010
F-1.5815124951890496
s(S'diff-x-pos--81'
p1011
S'prev-action-1'
p1012
tp1013
F-1.5510872639590878
s(S'diff-x-pos-6'
p1014
S'action-3'
p1015
tp1016
F4.574922709006934
s(S'diff-x-pos-60'
p1017
S'action-4'
p1018
tp1019
F-3.2932372134160213
s(S'diff-x-pos--58'
p1020
S'action-4'
p1021
tp1022
F3.2276463892507654
s(S'diff-x-pos--98'
p1023
S'prev-action-4'
p1024
tp1025
F-0.1200779056466903
s(S'diff-x-pos-58'
p1026
S'prev-action-1'
p1027
tp1028
F-0.9208783830931507
s(S'diff-x-pos--20'
p1029
S'action-3'
p1030
tp1031
F1.5303227704702986
s(S'diff-x-pos--113'
p1032
S'action-1'
p1033
tp1034
F-1.6904104197890533
s(S'diff-x-pos-50'
p1035
S'action-3'
p1036
tp1037
F8.791957031087891
s(S'diff-x-pos-14'
p1038
S'prev-action-3'
p1039
tp1040
F0.17981519960944214
s(g319
S'prev-action-3'
p1041
tp1042
F1.4298517289614874
s(S'diff-x-pos--73'
p1043
S'prev-action-4'
p1044
tp1045
F-2.326821320718451
s(S'action-1'
p1046
S'object-1-x-100.0'
p1047
tp1048
F-4.13973847286019
s(S'diff-x-pos--89'
p1049
S'action-3'
p1050
tp1051
F-7.960331287192215
sS'object-1-x-80.0'
p1052
F1.4136125626864202
s(S'diff-x-pos-44'
p1053
S'action-4'
p1054
tp1055
F-5.182267143261392
s(S'diff-x-pos--70'
p1056
S'action-4'
p1057
tp1058
F3.325566491290755
s(S'diff-x-pos--88'
p1059
S'prev-action-3'
p1060
tp1061
F-2.237920819380168
s(S'diff-x-pos-61'
p1062
S'action-3'
p1063
tp1064
F6.301734098611616
s(S'action-3'
p1065
S'object-0-x-0.0'
p1066
tp1067
F10.053926851372868
s(S'diff-x-pos--91'
p1068
S'prev-action-4'
p1069
tp1070
F-0.4359757320608624
s(S'diff-x-pos-51'
p1071
S'prev-action-3'
p1072
tp1073
F0.19274724392479148
s(S'diff-x-pos--50'
p1074
S'action-1'
p1075
tp1076
F0.9455055222142706
s(S'diff-x-pos--78'
p1077
S'prev-action-1'
p1078
tp1079
F-1.1863310933073832
s(S'action-3'
p1080
S'object-1-x-120.0'
p1081
tp1082
F-8.130720525688448
s(g487
S'action-1'
p1083
tp1084
F0.6557845269639072
s(S'diff-x-pos-7'
p1085
S'prev-action-3'
p1086
tp1087
F2.5095952003571496
s(S'diff-x-pos-60'
p1088
S'prev-action-3'
p1089
tp1090
F0.3778209141937495
s(S'diff-x-pos-60'
p1091
S'action-3'
p1092
tp1093
F6.884883724853209
s(g471
S'action-1'
p1094
tp1095
F1.4677171319509408
s(S'diff-x-pos-11'
p1096
S'prev-action-1'
p1097
tp1098
F0.902524035200523
s(S'diff-x-pos--84'
p1099
S'prev-action-4'
p1100
tp1101
F-1.4735193211574273
s(g1077
S'action-1'
p1102
tp1103
F-0.4927125711902879
s(g462
S'prev-action-4'
p1104
tp1105
F1.5662411898294315
s(S'diff-x-pos--11'
p1106
S'action-3'
p1107
tp1108
F1.0725115932910843
s(S'diff-x-pos--92'
p1109
S'prev-action-4'
p1110
tp1111
F0.906865247316508
s(S'diff-x-pos--101'
p1112
S'action-4'
p1113
tp1114
F6.709889226067701
s(S'diff-x-pos-48'
p1115
S'prev-action-4'
p1116
tp1117
F-1.119731551486363
s(S'diff-x-pos--42'
p1118
S'prev-action-3'
p1119
tp1120
F-0.8912764873575085
s(S'diff-x-pos--118'
p1121
S'action-1'
p1122
tp1123
F2.5620994016775587
s(S'diff-x-pos-61'
p1124
S'action-4'
p1125
tp1126
F-5.893685049543594
s(S'diff-x-pos--117'
p1127
S'action-3'
p1128
tp1129
F-5.209385003773942
s(S'diff-x-pos--9'
p1130
S'prev-action-3'
p1131
tp1132
F-1.4270729440234353
s(S'diff-x-pos--18'
p1133
S'action-3'
p1134
tp1135
F-0.6409468288940221
s(S'action-1'
p1136
S'object-0-x-90.0'
p1137
tp1138
F4.722046553656057
s(S'diff-x-pos-11'
p1139
S'action-4'
p1140
tp1141
F-6.657502189602225
s(g930
S'prev-action-1'
p1142
tp1143
F-1.5209333993940035
s(S'diff-x-pos-58'
p1144
S'action-1'
p1145
tp1146
F1.850327519830115
s(S'diff-x-pos--46'
p1147
S'action-1'
p1148
tp1149
F-2.122167003509822
s(S'diff-x-pos-69'
p1150
S'action-4'
p1151
tp1152
I-1
s(S'diff-x-pos-28'
p1153
S'prev-action-1'
p1154
tp1155
F-1.0868230064894344
s(S'diff-x-pos-56'
p1156
S'prev-action-1'
p1157
tp1158
F0.14737620519606354
s(S'diff-x-pos-56'
p1159
S'action-3'
p1160
tp1161
F13.045256818949547
s(g615
S'prev-action-3'
p1162
tp1163
F-0.5864366645324206
s(S'diff-x-pos--81'
p1164
S'action-1'
p1165
tp1166
F-1.6210482907504575
s(S'diff-x-pos--72'
p1167
S'prev-action-4'
p1168
tp1169
F-0.6238994669048821
s(S'diff-x-pos--52'
p1170
S'action-4'
p1171
tp1172
F1.4637221368939652
s(g334
S'prev-action-4'
p1173
tp1174
F0.4359299056385896
s(S'diff-x-pos-68'
p1175
S'prev-action-4'
p1176
tp1177
I1
s(g858
S'action-1'
p1178
tp1179
F-0.6071834060617902
s(S'diff-x-pos-63'
p1180
S'prev-action-4'
p1181
tp1182
F2.989254418635402
s(S'diff-x-pos-17'
p1183
S'prev-action-4'
p1184
tp1185
F1.0801824389024266
s(S'diff-x-pos-10'
p1186
S'action-3'
p1187
tp1188
F4.4120189443042745
s(S'diff-x-pos-18'
p1189
S'prev-action-4'
p1190
tp1191
F0.43899896079488426
s(S'diff-x-pos--67'
p1192
S'prev-action-3'
p1193
tp1194
F1.4080882235161853
s(S'diff-x-pos--117'
p1195
S'prev-action-1'
p1196
tp1197
F-0.6592897879577774
s(g1121
S'prev-action-3'
p1198
tp1199
F-1.2079363977138589
s(g848
S'prev-action-4'
p1200
tp1201
F1.281259097266375
s(g64
S'action-4'
p1202
tp1203
F-5.481280969873914
s(g916
S'action-3'
p1204
tp1205
F-8.229359894872555
s(S'diff-x-pos--71'
p1206
S'action-1'
p1207
tp1208
F0.2029100286175542
s(S'diff-x-pos--54'
p1209
S'prev-action-3'
p1210
tp1211
F0.3326275687619374
s(S'diff-x-pos-31'
p1212
S'action-3'
p1213
tp1214
F8.188945035280467
s(S'diff-x-pos-46'
p1215
S'prev-action-3'
p1216
tp1217
F1.437071846452907
s(S'diff-x-pos-11'
p1218
S'action-3'
p1219
tp1220
F3.311834959874506
s(S'action-3'
p1221
S'prev-action-4'
p1222
tp1223
F14.724566141764663
s(S'diff-x-pos--71'
p1224
S'action-4'
p1225
tp1226
F4.660300074905888
s(S'diff-x-pos--56'
p1227
S'action-1'
p1228
tp1229
F-0.5877880570639152
s(S'diff-x-pos--66'
p1230
S'prev-action-3'
p1231
tp1232
F-1.0701419035702924
s(S'diff-x-pos-7'
p1233
S'action-1'
p1234
tp1235
F1.15542617351392
s(g954
S'action-1'
p1236
tp1237
F-3.030036361401043
s(S'object-0-dx-1'
p1238
S'prev-action-4'
p1239
tp1240
F-1.7377219676880309
s(g352
S'prev-action-3'
p1241
tp1242
F-1.5948632718010565
s(S'diff-x-pos--50'
p1243
S'prev-action-3'
p1244
tp1245
F-0.1243111315963703
s(S'diff-x-pos-51'
p1246
S'action-1'
p1247
tp1248
F1.5287224109616226
sg583
F-1.5360688853972047
sg916
F-1.1388699701387803
sg901
F-0.9892076188813937
sS'diff-x-pos--101'
p1249
F-2.421088395677123
sS'diff-x-pos--100'
p1250
F-2.603025310252973
s(g422
S'action-4'
p1251
tp1252
F-4.770358566115052
sg343
F-1.9287655435686384
s(S'diff-x-pos--102'
p1253
S'prev-action-4'
p1254
tp1255
F-1.2912087142719622
sS'diff-x-pos--109'
p1256
F0.5835144317594775
sg693
F-1.9650548674409107
s(g1124
S'prev-action-1'
p1257
tp1258
F-0.6194051473144828
s(g1059
S'action-1'
p1259
tp1260
F-0.6922073727886916
s(g520
g592
tp1261
F-2.846518322366773
s(S'diff-x-pos--107'
p1262
S'action-4'
p1263
tp1264
F7.609732659817056
s(g910
S'action-4'
p1265
tp1266
F2.215665595245892
s(g1049
S'prev-action-1'
p1267
tp1268
F-2.5689050616929654
s(S'diff-x-pos-34'
p1269
S'action-1'
p1270
tp1271
F-0.21071028992871044
s(g890
S'action-4'
p1272
tp1273
F-1.73387167961696
s(S'diff-x-pos--90'
p1274
S'prev-action-4'
p1275
tp1276
F0.5821442324798479
s(g812
S'prev-action-1'
p1277
tp1278
F-0.9282470895341817
s(S'diff-x-pos--21'
p1279
S'action-3'
p1280
tp1281
F-0.6956351883732124
s(S'diff-x-pos-50'
p1282
S'prev-action-1'
p1283
tp1284
F2.0824451977776324
s(S'diff-x-pos--121'
p1285
S'prev-action-4'
p1286
tp1287
F0.0023123869734987257
s(g873
S'prev-action-4'
p1288
tp1289
F1.4441579366526458
s(g482
S'prev-action-4'
p1290
tp1291
F0.79856490968095
s(g861
S'prev-action-3'
p1292
tp1293
F-0.13341680448041082
s(S'diff-x-pos-6'
p1294
S'prev-action-1'
p1295
tp1296
F1.5504587022077279
s(S'diff-x-pos--1'
p1297
S'action-3'
p1298
tp1299
F0.3516097318721616
s(S'diff-x-pos--32'
p1300
S'action-4'
p1301
tp1302
F1.057097153077624
s(S'diff-x-pos--68'
p1303
S'prev-action-4'
p1304
tp1305
F-0.6595787805803658
s(S'diff-x-pos--100'
p1306
S'prev-action-3'
p1307
tp1308
F-2.0042790919880913
s(g766
S'object-1-x-90.0'
p1309
tp1310
F-3.313865391227796
s(S'action-3'
p1311
S'object-1-x-90.0'
p1312
tp1313
F-1.0743647304509052
s(S'diff-x-pos--79'
p1314
S'action-3'
p1315
tp1316
F-4.764289769833754
s(S'diff-x-pos-38'
p1317
S'prev-action-4'
p1318
tp1319
F-2.529272091329306
s(S'diff-x-pos-27'
p1320
S'prev-action-1'
p1321
tp1322
F1.2829050797757702
s(S'diff-x-pos--12'
p1323
S'action-1'
p1324
tp1325
F-1.5862393699589534
s(S'diff-x-pos-39'
p1326
S'action-1'
p1327
tp1328
F-0.9883749269299489
s(S'diff-x-pos-0'
p1329
S'action-1'
p1330
tp1331
F0.8874938744173406
s(S'diff-x-pos--120'
p1332
S'prev-action-4'
p1333
tp1334
F-1.2117749912757154
s(S'action-1'
p1335
S'object-0-x-40.0'
p1336
tp1337
F3.3561728278250014
s(S'diff-x-pos-49'
p1338
S'prev-action-4'
p1339
tp1340
F-1.3907756385417187
s(S'diff-x-pos-64'
p1341
S'action-3'
p1342
tp1343
F1.9590953530167878
s(S'diff-x-pos--119'
p1344
S'action-3'
p1345
tp1346
F-2.6066663275675714
s(S'diff-x-pos--60'
p1347
S'action-1'
p1348
tp1349
F2.8358814727280413
s(S'diff-x-pos--114'
p1350
S'action-1'
p1351
tp1352
F-4.819135291277332
s(g263
g891
tp1353
F-1.9132466887107635
s(S'diff-x-pos--73'
p1354
S'action-1'
p1355
tp1356
F-0.12669581724458234
s(S'diff-x-pos-64'
p1357
S'prev-action-4'
p1358
tp1359
F1.6981827640157214
s(S'action-4'
p1360
S'object-0-x-10.0'
p1361
tp1362
F-2.7004743441818264
s(g1311
S'object-0-x-70.0'
p1363
tp1364
F-0.4322568491389003
s(S'diff-x-pos--82'
p1365
S'prev-action-1'
p1366
tp1367
F1.0334524905867164
s(g333
S'action-4'
p1368
tp1369
F3.1321906365647445
s(S'diff-x-pos--99'
p1370
S'action-4'
p1371
tp1372
F4.741645138786411
s(S'diff-x-pos-64'
p1373
S'prev-action-3'
p1374
tp1375
F-0.3930103047321083
s(S'diff-x-pos-29'
p1376
S'prev-action-3'
p1377
tp1378
F0.6396209432675859
s(g789
S'action-4'
p1379
tp1380
F-8.031820111755374
s(S'diff-x-pos-24'
p1381
S'prev-action-1'
p1382
tp1383
F1.3361731032136068
s(g239
S'prev-action-1'
p1384
tp1385
F2.737330424906678
s(S'diff-x-pos--74'
p1386
S'prev-action-4'
p1387
tp1388
F-2.298390769527945
s(S'diff-x-pos--80'
p1389
S'action-3'
p1390
tp1391
F-8.40045691372391
s(S'diff-x-pos--2'
p1392
S'prev-action-3'
p1393
tp1394
F1.1358022103240741
sS'object-1-x-110.0'
p1395
F3.7808058648515326
s(g293
S'prev-action-1'
p1396
tp1397
F1.9337477089427293
s(S'diff-x-pos--34'
p1398
S'action-3'
p1399
tp1400
F-1.4465202332878344
s(S'diff-x-pos--94'
p1401
S'action-4'
p1402
tp1403
F9.45504341741687
s(S'diff-x-pos-53'
p1404
S'action-1'
p1405
tp1406
F-0.06266637305928491
s(g830
S'prev-action-4'
p1407
tp1408
F-0.4731269301032022
s(g922
S'prev-action-1'
p1409
tp1410
F-0.9432181673824852
s(g685
S'prev-action-1'
p1411
tp1412
F-0.7668618660903568
s(S'diff-x-pos--6'
p1413
S'action-3'
p1414
tp1415
F2.2067723828562023
sS'object-0-x-80.0'
p1416
F9.720664985688346
s(S'diff-x-pos-32'
p1417
S'prev-action-4'
p1418
tp1419
F-0.6809904352829068
s(g913
S'prev-action-3'
p1420
tp1421
F1.2459322935954837
s(S'diff-x-pos--16'
p1422
S'prev-action-1'
p1423
tp1424
F0.4044569812393419
s(S'diff-x-pos--40'
p1425
S'prev-action-1'
p1426
tp1427
F-0.6731107580361569
s(S'diff-x-pos--106'
p1428
S'action-1'
p1429
tp1430
F-1.019169889301915
s(S'diff-x-pos--76'
p1431
S'action-3'
p1432
tp1433
F-7.231699952081365
s(g893
S'prev-action-1'
p1434
tp1435
F-0.02780145197518258
s(S'diff-x-pos--95'
p1436
S'prev-action-1'
p1437
tp1438
F-0.6629114400834982
s(g1417
S'action-1'
p1439
tp1440
F0.22126936973771527
s(g884
S'action-1'
p1441
tp1442
F5.369896712114442
sg543
F-2.1011110724869777
sg722
F-0.9077564448105491
s(S'diff-x-pos-12'
p1443
S'prev-action-3'
p1444
tp1445
F2.887416959077887
sg1332
F-1.7808983133364351
s(g366
S'action-4'
p1446
tp1447
F-0.9973359512519939
sg1274
F-2.338557261936164
sS'diff-x-pos--91'
p1448
F-2.7682891811749886
sg1109
F-0.93792013253606
sS'diff-x-pos--93'
p1449
F-2.6952500325271354
sg8
F-0.6516741299662725
sg741
F-2.5078266890667864
s(S'diff-x-pos--57'
p1450
S'action-3'
p1451
tp1452
F-2.049817986614678
sg412
F-2.9222694698338194
s(g716
S'prev-action-4'
p1453
tp1454
F0.7133791906826765
s(S'diff-x-pos-8'
p1455
S'action-3'
p1456
tp1457
F4.780086860480168
s(g342
S'prev-action-3'
p1458
tp1459
F-1.2552614535383915
s(g954
S'prev-action-4'
p1460
tp1461
F-0.3935945961369924
s(S'diff-x-pos--34'
p1462
S'action-4'
p1463
tp1464
F0.745521142487952
s(S'diff-x-pos--105'
p1465
S'action-4'
p1466
tp1467
F9.601556630662495
s(g222
S'prev-action-4'
p1468
tp1469
F1.2329291341244728
s(S'diff-x-pos-16'
p1470
S'prev-action-3'
p1471
tp1472
F1.1301968889077019
sg487
F2.0477244021934715
sS'diff-x-pos--24'
p1473
F-0.09863354908449673
sg20
F-0.7968725768701629
sg158
F-0.706386184955085
sS'diff-x-pos--21'
p1474
F0.6285545530682832
sg995
F-0.26963962039488143
sg618
F0.4098848060952149
sg409
F-0.11410403427917748
s(S'diff-x-pos--87'
p1475
S'action-3'
p1476
tp1477
F-7.582238718216724
sg977
F-2.0556742088907587
sg910
F1.5702732084175006
s(S'object-1-dx--1'
p1478
g1311
tp1479
F-0.10819040700578864
sS'diff-x-pos-39'
p1480
F-0.44870937765184016
s(S'diff-x-pos--37'
p1481
S'prev-action-4'
p1482
tp1483
F1.5900056249089722
s(g664
S'prev-action-1'
p1484
tp1485
F-0.883509216748052
s(S'action-1'
p1486
S'object-0-x-130.0'
p1487
tp1488
F1.385883294242547
sS'diff-x-pos-30'
p1489
F0.349285176861571
sS'diff-x-pos-31'
p1490
F0.9616547603364797
sg887
F-0.6148441688860699
sg67
F0.9517405019895132
sS'diff-x-pos-34'
p1491
F2.611705528847167
sg789
F0.19286005192551953
sS'diff-x-pos-36'
p1492
F0.3976949445133364
sg76
F3.4384530855081668
s(S'diff-x-pos--2'
p1493
S'action-1'
p1494
tp1495
F-0.5739756085609484
s(S'diff-x-pos-42'
p1496
S'action-4'
p1497
tp1498
F-8.881426669299938
s(g123
S'prev-action-4'
p1499
tp1500
F2.943209220403646
s(S'diff-x-pos--20'
p1501
S'prev-action-4'
p1502
tp1503
F2.6644593103668464
s(g120
S'prev-action-4'
p1504
tp1505
F-0.12105498065200548
s(g336
S'prev-action-1'
p1506
tp1507
F0.3179933708201562
s(g302
S'action-4'
p1508
tp1509
F6.3101083983687385
s(S'diff-x-pos-66'
p1510
S'action-3'
p1511
tp1512
F0.6915351854006944
s(S'diff-x-pos-15'
p1513
S'prev-action-3'
p1514
tp1515
F2.438807669624705
s(S'diff-x-pos--67'
p1516
S'action-3'
p1517
tp1518
F-6.195173786861618
s(S'diff-x-pos--69'
p1519
S'prev-action-4'
p1520
tp1521
F2.4304482446772773
s(S'diff-x-pos--8'
p1522
S'prev-action-3'
p1523
tp1524
F0.9138078713419897
s(g341
S'action-3'
p1525
tp1526
F-2.87267962957134
s(g543
S'prev-action-1'
p1527
tp1528
F-1.9947557970607164
s(g618
S'action-1'
p1529
tp1530
F-1.1807933072275714
s(S'diff-x-pos-9'
p1531
S'prev-action-3'
p1532
tp1533
F3.104500111297096
s(g1285
S'action-1'
p1534
tp1535
F2.0413138418400916
s(S'diff-x-pos--18'
p1536
S'prev-action-1'
p1537
tp1538
F0.05860083884812589
s(S'diff-x-pos--67'
p1539
S'prev-action-1'
p1540
tp1541
F-0.6297284076570488
s(g421
S'action-1'
p1542
tp1543
F-1.8351129259842613
s(S'diff-x-pos--115'
p1544
S'action-3'
p1545
tp1546
F-8.434040124216551
s(g735
S'prev-action-3'
p1547
tp1548
F0.16580021559458769
sg580
F3.4141960865018692
s(S'diff-x-pos--104'
p1549
S'action-1'
p1550
tp1551
F-0.8417929937345715
sg482
F2.8862254807872274
sS'diff-x-pos-44'
p1552
F2.6326095348987177
sg735
F1.1648161509074477
s(g67
S'action-4'
p1553
tp1554
F-7.529120474231382
sg986
F-0.399174523969051
sg23
F2.9960526336478273
s(g727
S'action-1'
p1555
tp1556
F-1.7841778953027205
sg1496
F0.22056854854036323
s(S'diff-x-pos-52'
p1557
S'prev-action-3'
p1558
tp1559
F2.8168102051756834
s(S'diff-x-pos-30'
p1560
S'prev-action-4'
p1561
tp1562
F-1.1217127836391314
s(S'diff-x-pos--65'
p1563
S'prev-action-1'
p1564
tp1565
F-2.832622222439668
s(S'diff-x-pos--72'
p1566
S'prev-action-3'
p1567
tp1568
F-3.1981240515144287
s(S'diff-x-pos--7'
p1569
S'prev-action-3'
p1570
tp1571
F-0.703870391951188
s(S'diff-x-pos-54'
p1572
S'action-3'
p1573
tp1574
F11.961567851811813
s(S'diff-x-pos--25'
p1575
S'action-4'
p1576
tp1577
F0.7709071852216851
s(g497
S'object-0-x-20.0'
p1578
tp1579
F-2.5251985123186187
sS'diff-x-pos--81'
p1580
F-2.745186620215879
sg254
F1.6635511583274587
s(g690
S'action-1'
p1581
tp1582
F-2.861096785112637
s(S'diff-x-pos--86'
p1583
S'action-1'
p1584
tp1585
F0.633768573060357
s(S'diff-x-pos-9'
p1586
S'prev-action-4'
p1587
tp1588
F-1.630581112556981
s(S'diff-x-pos--43'
p1589
S'action-4'
p1590
tp1591
F1.6675745052692021
s(g952
S'action-1'
p1592
tp1593
F-0.03651169048101233
s(S'diff-x-pos--84'
p1594
S'prev-action-3'
p1595
tp1596
F3.1764399196475974
s(S'diff-x-pos-40'
p1597
S'prev-action-3'
p1598
tp1599
F2.181519715615602
sS'object-0-y-20.0'
p1600
F37.8660259034837
s(S'object-0-dx--1'
p1601
g360
tp1602
F-0.0788199493435523
s(S'diff-x-pos--11'
p1603
S'action-4'
p1604
tp1605
F-0.7073895721977238
s(g425
S'action-4'
p1606
tp1607
F-3.3796648311741855
s(S'diff-x-pos--61'
p1608
g647
tp1609
F-2.8379114643787315
s(S'diff-x-pos--101'
p1610
S'action-3'
p1611
tp1612
F-6.945088708372255
s(S'diff-x-pos-21'
p1613
S'prev-action-3'
p1614
tp1615
F0.8035810388788478
s(S'diff-x-pos-33'
p1616
S'action-3'
p1617
tp1618
F4.909713108648317
s(S'diff-x-pos-30'
p1619
S'action-3'
p1620
tp1621
F9.28414557060132
s(S'diff-x-pos--99'
p1622
S'action-3'
p1623
tp1624
F-9.587279262163717
s(S'diff-x-pos--67'
p1625
S'action-4'
p1626
tp1627
F5.17971061168317
s(S'diff-x-pos-18'
p1628
S'action-1'
p1629
tp1630
F-2.919797854587743
s(g1183
S'action-3'
p1631
tp1632
F2.848833972592853
s(g55
S'prev-action-4'
p1633
tp1634
F1.945204580877268
s(g946
S'action-4'
p1635
tp1636
F1.2543847828010133
s(S'diff-x-pos-40'
p1637
S'action-4'
p1638
tp1639
F-6.741372260412184
s(S'diff-x-pos-54'
p1640
S'action-4'
p1641
tp1642
F-8.36532062387526
s(S'diff-x-pos-58'
p1643
S'action-4'
p1644
tp1645
F-3.608238620618213
s(S'diff-x-pos-28'
p1646
S'prev-action-4'
p1647
tp1648
F-0.7891744716291661
s(S'diff-x-pos-4'
p1649
S'action-4'
p1650
tp1651
F-1.9994860558919862
s(S'diff-x-pos-23'
p1652
S'prev-action-4'
p1653
tp1654
F0.23163987662250407
s(S'diff-x-pos--75'
p1655
S'prev-action-3'
p1656
tp1657
F-1.8118809119963704
s(g1011
S'action-4'
p1658
tp1659
F6.505493172536787
s(S'diff-x-pos-70'
p1660
S'action-1'
p1661
tp1662
F-0.9358795349320843
s(S'diff-x-pos--26'
p1663
S'prev-action-4'
p1664
tp1665
F1.0577610023237878
s(g1490
S'action-1'
p1666
tp1667
F0.7688669093261351
s(S'diff-x-pos--31'
p1668
S'prev-action-1'
p1669
tp1670
F-0.47506228220266744
s(S'diff-x-pos--27'
p1671
S'prev-action-3'
p1672
tp1673
F-0.37535902032858237
s(g597
S'prev-action-3'
p1674
tp1675
F0.9895979770146226
s(S'diff-x-pos--68'
p1676
S'action-4'
p1677
tp1678
F4.70523506551155
s(S'diff-x-pos-63'
p1679
S'prev-action-1'
p1680
tp1681
F2.594383537869728
s(g1127
S'prev-action-4'
p1682
tp1683
F2.266411366554082
s(S'diff-x-pos--118'
p1684
S'prev-action-4'
p1685
tp1686
F0.4793114845713844
s(g580
S'action-3'
p1687
tp1688
F12.186145803095242
s(S'diff-x-pos--60'
p1689
S'prev-action-3'
p1690
tp1691
F0.6390054344263532
s(g941
S'prev-action-3'
p1692
tp1693
F0.34199253739848334
s(g558
S'action-3'
p1694
tp1695
F8.245869466825239
s(g1109
S'action-1'
p1696
tp1697
F-0.8314472143073743
s(S'diff-x-pos--42'
p1698
S'action-4'
p1699
tp1700
F0.8953537516906629
s(g1357
S'action-1'
p1701
tp1702
F1.699665893925939
s(S'diff-x-pos--21'
p1703
S'prev-action-4'
p1704
tp1705
F-0.7915408090939056
s(g109
S'action-1'
p1706
tp1707
F2.494098324709326
s(g733
S'prev-action-1'
p1708
tp1709
F15.438478960401344
s(S'diff-x-pos-37'
p1710
S'action-1'
p1711
tp1712
F1.9216505110140072
s(S'diff-x-pos-65'
p1713
S'action-1'
p1714
tp1715
F-2.6522415956110423
s(S'diff-x-pos--72'
p1716
S'prev-action-1'
p1717
tp1718
F-0.08166138841249015
s(g953
S'prev-action-3'
p1719
tp1720
F1.2583325099326153
s(S'diff-x-pos--69'
p1721
S'action-3'
p1722
tp1723
F-5.459457076196025
s(S'diff-x-pos--49'
p1724
S'prev-action-1'
p1725
tp1726
F-0.07206597550531191
s(g1449
S'prev-action-3'
p1727
tp1728
F-1.2165364150113716
s(S'object-0-dx-1'
p1729
S'prev-action-1'
p1730
tp1731
F2.951737650412196
s(S'diff-x-pos--22'
p1732
S'action-3'
p1733
tp1734
F0.5246834587412472
s(S'diff-x-pos--109'
p1735
S'action-1'
p1736
tp1737
F0.29439149656365776
s(g403
S'action-1'
p1738
tp1739
F-1.1492712248852028
s(g946
S'prev-action-1'
p1740
tp1741
F3.3748849382555584
s(g1660
S'prev-action-4'
p1742
tp1743
F-0.9358795349320843
s(S'diff-x-pos--15'
p1744
S'prev-action-1'
p1745
tp1746
F-0.9887928811540608
sS'diff-x-pos--105'
p1747
F-0.9984860726607259
s(S'diff-x-pos--55'
p1748
S'action-1'
p1749
tp1750
F-0.08749224179549847
s(S'diff-x-pos-4'
p1751
S'prev-action-1'
p1752
tp1753
F-0.06505068218519205
s(S'diff-x-pos-44'
p1754
S'prev-action-1'
p1755
tp1756
F0.7636597599286038
s(S'diff-x-pos--47'
p1757
S'prev-action-3'
p1758
tp1759
F0.5289403538733153
sS'diff-x-pos--112'
p1760
F-0.6967435764942764
s(g147
S'prev-action-4'
p1761
tp1762
F-2.2481818772978635
s(S'diff-x-pos--28'
p1763
S'action-1'
p1764
tp1765
F-0.01300054722048094
sg925
F-1.8601108239161324
sS'diff-x-pos--116'
p1766
F-3.356564072544415
sg1127
F0.3151466901468396
sg818
F-2.993579486452207
sS'diff-x-pos--115'
p1767
F-1.7113819485408583
sg1121
F-1.6239631104143715
s(g432
S'action-4'
p1768
tp1769
F-2.0215843371711864
s(g1563
S'action-4'
p1770
tp1771
F4.194434496070229
s(S'diff-x-pos--21'
p1772
S'prev-action-3'
p1773
tp1774
F-0.7323507268210382
s(S'diff-x-pos--87'
p1775
S'prev-action-4'
p1776
tp1777
F-0.9764660401650197
s(g499
S'prev-action-1'
p1778
tp1779
F-0.7548094742535993
s(S'diff-x-pos--5'
p1780
S'action-4'
p1781
tp1782
F-0.25242632097149265
s(S'diff-x-pos-43'
p1783
S'action-3'
p1784
tp1785
F10.154280288091188
s(S'diff-x-pos-55'
p1786
S'action-1'
p1787
tp1788
F-1.3050874162054378
s(S'diff-x-pos-45'
p1789
S'prev-action-1'
p1790
tp1791
F-0.08496092301808167
s(S'diff-x-pos--12'
p1792
S'action-4'
p1793
tp1794
F1.4766407240789665
sS'object-0-dx--1'
p1795
F-1.8434659489878347
s(S'diff-x-pos--96'
p1796
S'action-3'
p1797
tp1798
F-8.349582298962314
s(g342
S'action-4'
p1799
tp1800
F6.21588953281871
s(g1492
S'action-3'
p1801
tp1802
F7.936954466367832
s(g939
S'action-3'
p1803
tp1804
F-0.6460621757761787
s(S'diff-x-pos-8'
p1805
S'prev-action-4'
p1806
tp1807
F-1.1703404006566582
sS'object-1-y-10.0'
p1808
F-4.759049507714788
s(g1490
S'prev-action-4'
p1809
tp1810
F-1.3802600868741637
s(S'diff-x-pos-30'
p1811
S'action-1'
p1812
tp1813
F0.15141420898085756
s(S'diff-x-pos-38'
p1814
S'prev-action-1'
p1815
tp1816
F1.969784361642537
s(S'diff-x-pos--4'
p1817
S'action-3'
p1818
tp1819
F2.772806126987822
s(S'diff-x-pos--112'
p1820
S'action-1'
p1821
tp1822
F-4.008084781397775
s(S'diff-x-pos-0'
p1823
S'action-4'
p1824
tp1825
F-2.717518543520139
s(S'diff-x-pos--120'
p1826
S'prev-action-3'
p1827
tp1828
F0.1310817206751298
s(S'diff-x-pos--93'
p1829
S'prev-action-1'
p1830
tp1831
F0.2737895934259607
sg1059
F-4.413219979123455
s(g940
S'action-3'
p1832
tp1833
F-1.091643160883721
s(g818
g1360
tp1834
F10.533529571925616
s(S'diff-x-pos-19'
p1835
S'action-3'
p1836
tp1837
F5.304451727465051
s(S'diff-x-pos--29'
p1838
S'prev-action-4'
p1839
tp1840
F-1.6333126360096526
s(S'diff-x-pos-14'
p1841
S'action-1'
p1842
tp1843
F1.5893880202332626
s(g1449
S'action-4'
p1844
tp1845
F7.851627439517781
sg257
F-2.234396239247239
s(S'diff-x-pos-1'
p1846
S'prev-action-4'
p1847
tp1848
F-0.6989023856231855
s(S'diff-x-pos--6'
p1849
S'prev-action-4'
p1850
tp1851
F-1.2937282913546666
s(g433
S'action-3'
p1852
tp1853
F-5.193914380535135
s(S'diff-x-pos--66'
p1854
S'action-1'
p1855
tp1856
F-1.019392093341465
sS'object-0-dy-1'
p1857
F0.8004664330107295
s(g947
S'prev-action-4'
p1858
tp1859
F0.4797118011220668
s(S'diff-x-pos--24'
p1860
S'action-3'
p1861
tp1862
F0.8596897713977967
s(S'diff-x-pos--85'
p1863
S'prev-action-1'
p1864
tp1865
F1.3779277203233118
s(S'diff-x-pos-35'
p1866
S'action-1'
p1867
tp1868
F-1.1166636896866677
s(S'diff-x-pos--97'
p1869
S'prev-action-1'
p1870
tp1871
F-0.4531995130486259
s(S'diff-x-pos--17'
p1872
S'prev-action-4'
p1873
tp1874
F-0.39657309620539016
s(g406
S'prev-action-1'
p1875
tp1876
F0.12657867107968857
s(S'diff-x-pos--2'
p1877
S'prev-action-4'
p1878
tp1879
F0.4626056003301873
s(S'diff-x-pos-35'
p1880
S'prev-action-3'
p1881
tp1882
F-1.3686834177257001
s(S'diff-x-pos--77'
p1883
S'prev-action-4'
p1884
tp1885
F1.6864859049958956
s(S'diff-x-pos-46'
p1886
S'action-4'
p1887
tp1888
F-12.109567631763548
s(g1473
S'prev-action-1'
p1889
tp1890
F1.3865114591143743
s(S'diff-x-pos--4'
p1891
S'action-4'
p1892
tp1893
F-2.6269768065822947
s(S'diff-x-pos-42'
p1894
S'prev-action-1'
p1895
tp1896
F-1.4646751188095164
s(g436
S'prev-action-1'
p1897
tp1898
F-1.6809956595904891
s(S'action-1'
p1899
S'object-0-x-10.0'
p1900
tp1901
F5.465088846169306
sS'diff-y-pos--9'
p1902
F0.013193739020358586
sS'diff-y-pos--8'
p1903
F0.8725358263549055
s(S'diff-x-pos--91'
p1904
S'action-1'
p1905
tp1906
F0.5926908979010341
sS'diff-y-pos--4'
p1907
F0.38966565810476317
sS'diff-y-pos--7'
p1908
F0.5489895689044255
s(S'diff-x-pos-19'
p1909
S'prev-action-1'
p1910
tp1911
F0.7287717199324917
sS'diff-y-pos--1'
p1912
F-3.081728651506874
sS'diff-y-pos--3'
p1913
F-1.8948658593980898
sS'diff-y-pos--2'
p1914
F-4.080060680219286
s(g958
S'prev-action-4'
p1915
tp1916
F1.7939184613757537
s(g264
S'prev-action-4'
p1917
tp1918
F0.5674554359854381
s(S'diff-x-pos--93'
p1919
S'action-3'
p1920
tp1921
F-10.47937044112429
s(g369
S'action-3'
p1922
tp1923
F1.6565319303911445
s(g1826
S'action-1'
p1924
tp1925
F-0.7608548492584937
s(S'diff-x-pos--14'
p1926
g1311
tp1927
F3.4447718150998274
s(S'diff-x-pos--112'
p1928
S'prev-action-3'
p1929
tp1930
F1.1494777322079184
s(S'diff-x-pos--4'
p1931
S'prev-action-1'
p1932
tp1933
F-1.789023056575707
s(S'diff-x-pos--38'
p1934
S'action-3'
p1935
tp1936
F-1.273596545307219
s(g1317
S'action-3'
p1937
tp1938
F4.15296268668076
s(S'diff-x-pos-57'
p1939
S'action-1'
p1940
tp1941
F3.7413945203631656
sg1475
F-1.9479412075540234
sS'diff-x-pos--86'
p1942
F-1.637736709991452
sg1863
F0.7565551527206933
sg1594
F-0.6248872317366394
sS'diff-x-pos--83'
p1943
F-2.1723302813208183
sg947
F-0.7664570835785571
sg457
F8.981968059592045
sg777
F-1.3607644979907776
sg1049
F-3.643307167298095
s(g337
S'action-4'
p1944
tp1945
F2.8790937021150125
s(S'diff-x-pos--38'
p1946
S'prev-action-3'
p1947
tp1948
F-1.946717343113298
s(g1474
S'action-1'
p1949
tp1950
F1.347340780077084
s(S'diff-x-pos-55'
p1951
S'prev-action-3'
p1952
tp1953
F2.501220139461034
s(S'diff-x-pos--2'
p1954
S'action-3'
p1955
tp1956
F4.2049124466674295
s(S'diff-x-pos--116'
p1957
S'prev-action-3'
p1958
tp1959
F-0.16915397147278366
s(S'diff-x-pos-3'
p1960
S'prev-action-3'
p1961
tp1962
F-0.3913757501382767
s(g1492
S'prev-action-4'
p1963
tp1964
F-2.2086858263818834
s(S'diff-x-pos--28'
p1965
S'prev-action-3'
p1966
tp1967
F-0.009669739415540002
sg812
F-0.07066665054643528
sS'diff-x-pos--11'
p1968
F1.5572385289843336
sg1323
F0.18732411143117367
sg109
F0.2029285694127565
sg1926
F2.3518091101433836
sg1744
F0.5017057187791077
sg890
F0.4161089508868132
sg239
F1.415240482899734
sS'diff-x-pos--18'
p1969
F-1.7147685554096601
sg372
F-0.23719661728277108
s(S'diff-x-pos--55'
p1970
S'prev-action-3'
p1971
tp1972
F-2.546523150508317
s(S'diff-x-pos-42'
p1973
S'action-1'
p1974
tp1975
F-0.7959231806268976
s(g112
S'prev-action-3'
p1976
tp1977
F-0.8691672535503105
s(S'diff-x-pos--22'
p1978
S'prev-action-1'
p1979
tp1980
F-2.680211196459579
s(g1869
S'action-1'
p1981
tp1982
F2.609296705622903
s(g1721
S'prev-action-1'
p1983
tp1984
F-2.4993241064643557
s(g953
S'action-1'
p1985
tp1986
F-0.1072732106086366
s(g164
S'action-4'
p1987
tp1988
F-0.42578355458965444
s(g273
S'prev-action-3'
p1989
tp1990
F2.0394445495236875
s(g603
S'action-1'
p1991
tp1992
F0.5093881432665384
s(g940
S'prev-action-3'
p1993
tp1994
F-1.5445724095525342
s(S'diff-x-pos--30'
p1995
S'action-1'
p1996
tp1997
F-0.11305116936233706
s(S'diff-x-pos--71'
p1998
S'prev-action-4'
p1999
tp2000
F0.5537931347387344
s(S'diff-x-pos-47'
p2001
S'prev-action-4'
p2002
tp2003
F1.3248404148707995
s(S'action-3'
p2004
S'object-1-x-100.0'
p2005
tp2006
F-0.8555920025374848
s(g126
S'prev-action-4'
p2007
tp2008
F0.8040773754594392
s(g1823
S'prev-action-4'
p2009
tp2010
F1.3724488197684666
s(g1489
S'prev-action-1'
p2011
tp2012
F-1.5279723293121612
s(S'diff-x-pos--27'
p2013
S'action-1'
p2014
tp2015
F-1.1587567021522045
sg490
F4.976310716275982
sg123
F8.0527464510768
sg624
F3.3979115439612153
sg296
F5.607301042957708
sg26
F2.2868713584817586
sg170
F2.4269946102665565
sg1557
F0.6383658023087431
sg873
F3.240578593838542
sg1282
F1.3346039474704738
sS'diff-x-pos-51'
p2016
F3.9606031361571774
s(g1796
S'prev-action-3'
p2017
tp2018
F-1.8184572445334997
sg1215
F0.3436471629518625
s(S'diff-x-pos-45'
p2019
S'action-1'
p2020
tp2021
F2.218940285610407
s(S'diff-x-pos-43'
p2022
S'prev-action-3'
p2023
tp2024
F4.149495582737619
s(S'diff-x-pos--5'
p2025
S'prev-action-4'
p2026
tp2027
F-0.8977884348338815
s(S'diff-x-pos--60'
p2028
S'prev-action-4'
p2029
tp2030
F-0.8930223563735483
s(g1274
S'action-1'
p2031
tp2032
F1.0254169925185117
s(S'action-4'
p2033
S'object-1-x-90.0'
p2034
tp2035
F2.391583623040248
s(S'diff-x-pos--61'
p2036
S'action-4'
p2037
tp2038
F2.7174955698496985
s(g1557
S'action-1'
p2039
tp2040
F-0.9090527042383739
s(g1616
S'prev-action-1'
p2041
tp2042
F-2.669807444591158
s(g1021
g197
tp2043
F6.683120527681983
s(g496
S'prev-action-3'
p2044
tp2045
F2.5031312270516777
s(S'diff-x-pos-2'
p2046
S'prev-action-1'
p2047
tp2048
F0.1502176581217498
s(S'diff-x-pos--39'
p2049
S'action-1'
p2050
tp2051
F-1.2013944389843236
s(g502
g1486
tp2052
F0.4998065739181058
s(S'object-0-dx-1'
p2053
g514
tp2054
F1.6920747783816288
s(g1225
S'object-0-x-0.0'
p2055
tp2056
F0.4037130019063489
sg156
F-2.974928586681719
s(g76
S'prev-action-1'
p2057
tp2058
F1.923287599080851
s(g1747
S'action-1'
p2059
tp2060
F0.45882225063257875
s(g158
S'prev-action-3'
p2061
tp2062
F0.4468146673296031
s(g153
S'prev-action-1'
p2063
tp2064
F-0.14953605248110835
s(g1703
S'action-4'
p2065
tp2066
F-0.02315103863562218
s(S'diff-x-pos--27'
p2067
S'prev-action-4'
p2068
tp2069
F-0.4806849436181229
s(g17
S'action-1'
p2070
tp2071
F-1.431306042978947
s(g1256
S'prev-action-4'
p2072
tp2073
F3.2156263743282825
s(S'action-1'
p2074
g601
tp2075
F6.554250490492499
sg361
F10.179637343353063
s(g850
S'action-4'
p2076
tp2077
F2.436509016527059
s(S'diff-x-pos--94'
p2078
S'prev-action-3'
p2079
tp2080
F1.7041891985065958
s(S'diff-x-pos-48'
p2081
S'prev-action-3'
p2082
tp2083
F2.233193272292438
s(S'diff-x-pos--104'
p2084
S'prev-action-3'
p2085
tp2086
F-0.16565796839247812
s(g1544
S'prev-action-1'
p2087
tp2088
F-2.415592684591095
s(S'diff-x-pos--15'
p2089
S'action-4'
p2090
tp2091
F-0.5845921138694985
s(S'action-4'
p2092
g1444
tp2093
F13.334441601281371
s(S'diff-x-pos--56'
p2094
S'prev-action-1'
p2095
tp2096
F-2.805857674507106
s(g117
S'action-1'
p2097
tp2098
F5.058168705435396
s(g1344
S'prev-action-4'
p2099
tp2100
F-1.5065532643377126
s(g421
S'prev-action-3'
p2101
tp2102
F0.43412476160446994
sS'diff-x-pos-27'
p2103
F0.6928381935100277
sS'object-0-y-10.0'
p2104
F34.78858121027639
s(g1586
S'action-1'
p2105
tp2106
F1.5148958339980814
s(S'diff-x-pos--23'
p2107
S'prev-action-3'
p2108
tp2109
F1.0624607035167268
s(g1023
S'action-3'
p2110
tp2111
F-8.829381543627438
s(S'diff-x-pos-65'
p2112
S'action-4'
p2113
tp2114
F0.9705740171421824
sg107
F-0.8073715250457858
s(S'diff-x-pos--58'
p2115
S'prev-action-1'
p2116
tp2117
F0.32031750980072654
s(g335
S'prev-action-4'
p2118
tp2119
F-2.1554082142310897
s(g1713
S'prev-action-4'
p2120
tp2121
F-1.268236976063517
s(g975
S'object-0-x-0.0'
p2122
tp2123
F0.04890309262207104
s(g427
g1046
tp2124
F-1.2368666433526365
s(S'diff-x-pos-66'
p2125
S'prev-action-1'
p2126
tp2127
F-0.7030108101311101
s(S'diff-x-pos--52'
p2128
S'action-3'
p2129
tp2130
F-3.9754144421742623
s(S'diff-x-pos--39'
p2131
S'prev-action-4'
p2132
tp2133
F-3.4571415833382426
s(S'diff-x-pos--116'
p2134
S'action-1'
p2135
tp2136
F-0.49936852204600757
sg64
F-0.00904879195835595
s(g1735
S'prev-action-3'
p2137
tp2138
F-1.219285745031678
s(S'diff-x-pos-17'
p2139
S'prev-action-3'
p2140
tp2141
F-0.5202188354820402
s(S'diff-x-pos--15'
p2142
S'prev-action-4'
p2143
tp2144
F1.560567157748855
s(g986
S'action-4'
p2145
tp2146
F-8.784871641119976
sg283
F6.950890699437118
s(g1668
S'action-3'
p2147
tp2148
F-0.07466449063418013
s(g1332
S'action-3'
p2149
tp2150
F0.1653692930948557
s(S'diff-x-pos--104'
p2151
S'prev-action-4'
p2152
tp2153
F0.1714883949786027
s(S'diff-x-pos-1'
p2154
S'action-3'
p2155
tp2156
F3.6147543091318477
s(S'diff-x-pos-5'
p2157
S'action-4'
p2158
tp2159
F-3.629367637509226
s(g849
S'action-3'
p2160
tp2161
F-1.3050005416912618
s(g456
S'prev-action-4'
p2162
tp2163
F9.682374191044211
s(S'diff-x-pos--54'
p2164
S'prev-action-4'
p2165
tp2166
F1.2705084593852016
s(S'diff-x-pos--61'
p2167
S'prev-action-1'
p2168
tp2169
F-1.0632104971636585
sg984
F12.24194018498701
s(S'diff-x-pos--65'
p2170
S'action-3'
p2171
tp2172
F-4.2376398128312465
s(S'diff-x-pos-13'
p2173
S'prev-action-4'
p2174
tp2175
F-1.9460293063737746
s(g1475
S'prev-action-1'
p2176
tp2177
F-1.481405949795914
s(S'diff-x-pos--26'
p2178
S'action-3'
p2179
tp2180
F-0.9740334501133663
s(S'diff-x-pos--35'
p2181
S'prev-action-1'
p2182
tp2183
F-1.56259570224645
sS'object-0-x-70.0'
p2184
F9.01784776830391
s(S'diff-x-pos-54'
p2185
S'prev-action-3'
p2186
tp2187
F1.7757702737726309
s(g1455
S'prev-action-1'
p2188
tp2189
F-0.9309366709092555
s(S'diff-x-pos-24'
p2190
S'action-4'
p2191
tp2192
F-4.8467274740175466
s(S'diff-x-pos--62'
p2193
S'action-3'
p2194
tp2195
F-5.421209088876469
s(g2046
S'action-1'
p2196
tp2197
F0.7378166267348595
s(g1489
S'action-4'
p2198
tp2199
F-9.086274602720604
s(g1760
S'action-4'
p2200
tp2201
F11.501787783266694
s(S'diff-x-pos-12'
p2202
S'action-1'
p2203
tp2204
F-1.9448611301931298
s(S'diff-x-pos--26'
p2205
S'action-4'
p2206
tp2207
F-0.9156082141453081
s(S'diff-x-pos--41'
p2208
S'action-4'
p2209
tp2210
F1.2432095123304125
s(S'diff-x-pos--95'
p2211
S'action-3'
p2212
tp2213
F-10.085094097847705
s(S'diff-x-pos--76'
p2214
S'prev-action-1'
p2215
tp2216
F-2.381930809617941
s(g1501
g1335
tp2217
F0.5211906080024326
s(S'diff-x-pos--16'
p2218
S'action-3'
p2219
tp2220
F2.3452824546440065
s(S'diff-x-pos-14'
p2221
S'action-4'
p2222
tp2223
F-6.247792148476088
s(g1046
S'object-0-x-120.0'
p2224
tp2225
F-1.9579571601112462
s(S'diff-x-pos--18'
p2226
S'action-1'
p2227
tp2228
F-1.2023768915638116
s(S'diff-x-pos--6'
p2229
S'prev-action-1'
p2230
tp2231
F-1.3423498164126886
s(S'diff-x-pos--36'
p2232
S'action-3'
p2233
tp2234
F-1.7461215343371457
s(S'diff-x-pos-53'
p2235
S'prev-action-3'
p2236
tp2237
F3.6656889477020633
s(S'diff-x-pos--70'
p2238
S'action-3'
p2239
tp2240
F-4.507191787213696
s(g1473
S'action-4'
p2241
tp2242
F-1.2869010620311097
s(S'diff-x-pos--34'
p2243
S'prev-action-1'
p2244
tp2245
F-2.057763877747973
s(S'diff-x-pos--8'
p2246
S'action-3'
p2247
tp2248
F1.6724355180808368
s(S'diff-x-pos--77'
p2249
S'action-3'
p2250
tp2251
F-6.821813061332762
sg1796
F-1.4678565304066078
s(S'diff-x-pos--80'
p2252
S'prev-action-1'
p2253
tp2254
F-0.9818419761727063
s(g412
S'prev-action-4'
p2255
tp2256
F-2.9815071447561023
s(S'diff-x-pos--17'
p2257
S'action-3'
p2258
tp2259
F3.9257063083182713
s(S'diff-x-pos-24'
p2260
S'action-3'
p2261
tp2262
F6.301068603233075
s(S'diff-x-pos-29'
p2263
S'action-1'
p2264
tp2265
F-0.1877872299344648
s(g1496
S'prev-action-4'
p2266
tp2267
F1.2807216134891757
s(S'diff-x-pos--2'
p2268
S'prev-action-1'
p2269
tp2270
F0.7033948488516348
s(S'diff-x-pos-47'
p2271
S'action-4'
p2272
tp2273
F-9.4536476632912
s(S'diff-x-pos--85'
p2274
S'prev-action-4'
p2275
tp2276
F0.879664580527522
s(S'object-1-dx--1'
p2277
S'prev-action-3'
p2278
tp2279
F-0.09539257319420735
s(S'diff-x-pos--114'
p2280
S'prev-action-3'
p2281
tp2282
F1.7032996017964732
s(g667
S'prev-action-3'
p2283
tp2284
F0.7385392322453436
s(S'diff-x-pos-39'
p2285
S'prev-action-3'
p2286
tp2287
F0.31795275498558606
s(g1323
g2278
tp2288
F1.440977155376209
s(g1035
S'prev-action-3'
p2289
tp2290
F-0.42975082498778416
s(S'diff-x-pos-27'
p2291
S'action-3'
p2292
tp2293
F8.046251177747203
s(g777
S'action-4'
p2294
tp2295
F7.187822454093659
s(S'diff-x-pos--91'
p2296
S'prev-action-3'
p2297
tp2298
F-0.5916019413373083
s(S'diff-x-pos--53'
p2299
S'action-1'
p2300
tp2301
F0.38378072776903616
s(S'diff-x-pos--45'
p2302
S'prev-action-4'
p2303
tp2304
F-1.2632146034362841
s(g765
S'prev-action-4'
p2305
tp2306
F-0.7162627279278538
s(g1221
S'object-0-x-110.0'
p2307
tp2308
F-1.042181193336637
s(g1926
S'prev-action-4'
p2309
tp2310
F-0.800372758874929
s(S'diff-x-pos--10'
p2311
S'action-3'
p2312
tp2313
F4.536260799519335
s(g958
S'action-1'
p2314
tp2315
F1.0327315251716471
s(S'diff-x-pos--106'
p2316
S'prev-action-1'
p2317
tp2318
F-0.91171591249605
s(S'diff-x-pos--40'
p2319
S'action-1'
p2320
tp2321
F-0.2521222069032678
s(g1491
S'prev-action-3'
p2322
tp2323
F2.3369595871819344
s(S'diff-x-pos--116'
p2324
S'action-3'
p2325
tp2326
F-8.802477959605389
s(S'diff-x-pos-12'
p2327
S'prev-action-4'
p2328
tp2329
F-1.9711486616521179
s(g1943
g806
tp2330
F-0.22506455915575807
s(g424
S'action-4'
p2331
tp2332
F-1.5407871894377039
sg1192
F0.24108820647360085
s(g1480
S'prev-action-4'
p2333
tp2334
F-0.4701226120263027
sS'object-1-dy-1'
p2335
F2.0705470435171636
sS'diff-x-pos-49'
p2336
F0.9086548791930777
s(S'diff-x-pos--68'
p2337
S'action-1'
p2338
tp2339
F-2.543206968044166
s(S'diff-x-pos--22'
p2340
S'prev-action-4'
p2341
tp2342
F2.5642109178060455
s(S'diff-x-pos--94'
p2343
S'action-1'
p2344
tp2345
F0.7716084176662203
s(S'diff-x-pos-57'
p2346
S'prev-action-1'
p2347
tp2348
F2.306062770944966
s(g702
S'prev-action-3'
p2349
tp2350
F-1.5985980478229171
s(g1014
S'prev-action-3'
p2351
tp2352
F0.9837865298205503
s(g333
S'prev-action-4'
p2353
tp2354
F-1.3628931201226475
s(g693
S'action-4'
p2355
tp2356
F5.3397312288238945
s(S'diff-x-pos--56'
p2357
S'prev-action-3'
p2358
tp2359
F0.6737260689158582
s(S'diff-x-pos--14'
p2360
S'prev-action-3'
p2361
tp2362
F1.4508841753221218
s(S'object-1-dx-1'
p2363
g714
tp2364
F2.174396124293554
s(g1215
S'action-1'
p2365
tp2366
F2.255308264532319
s(g1209
S'action-1'
p2367
tp2368
F1.685265160041655
s(g941
S'action-4'
p2369
tp2370
F1.6521953897742843
s(g2336
S'action-4'
p2371
tp2372
F-8.834489692435355
s(S'diff-x-pos--71'
p2373
S'prev-action-3'
p2374
tp2375
F-1.2721450521142097
s(g592
S'object-0-x-100.0'
p2376
tp2377
F4.282072645160699
s(S'diff-x-pos--64'
p2378
S'action-4'
p2379
tp2380
F4.476822607096707
s(S'diff-x-pos--29'
p2381
S'action-1'
p2382
tp2383
F1.05580884607005
s(S'diff-x-pos-0'
p2384
S'prev-action-1'
p2385
tp2386
F2.2646083769836816
s(S'diff-x-pos--80'
p2387
S'prev-action-4'
p2388
tp2389
F-1.0907266587758708
s(S'action-3'
p2390
S'object-0-x-130.0'
p2391
tp2392
F0.4758622826970327
s(S'diff-x-pos-10'
p2393
S'prev-action-1'
p2394
tp2395
F-0.2730370709140151
s(S'diff-x-pos--20'
p2396
S'prev-action-3'
p2397
tp2398
F-3.1080978151836027
s(S'diff-x-pos--62'
p2399
S'prev-action-4'
p2400
tp2401
F-2.960052298346329
s(g1250
S'action-3'
p2402
tp2403
F-10.029759931590544
s(S'diff-x-pos--74'
p2404
S'action-1'
p2405
tp2406
F-1.92386050150022
s(S'diff-x-pos--32'
p2407
S'prev-action-4'
p2408
tp2409
F0.7910720032967496
s(g1580
S'prev-action-3'
p2410
tp2411
F-1.6211455975205709
s(S'diff-x-pos-45'
p2412
S'action-4'
p2413
tp2414
F-11.078918552780895
s(g1365
S'action-4'
p2415
tp2416
F5.750223530604867
s(S'diff-x-pos-28'
p2417
S'action-3'
p2418
tp2419
F6.6269357746011615
sg597
F0.33311230151556964
sg117
F6.050264416541732
s(g237
S'prev-action-4'
p2420
tp2421
F1.1010604358263185
sS'diff-x-pos-61'
p2422
F2.691656209469941
sg1091
F7.381721290761061
sg855
F-1.399632975176985
s(S'diff-x-pos--63'
p2423
S'action-1'
p2424
tp2425
F0.05105325127977556
sg1713
F-1.2744738287541666
sg1357
F1.7933786100915912
s(S'diff-x-pos--90'
p2426
S'action-4'
p2427
tp2428
F5.566578836321666
s(g1766
S'action-4'
p2429
tp2430
F5.945282409106979
s(S'diff-x-pos-21'
p2431
S'action-3'
p2432
tp2433
F5.7754748301539305
s(g1767
S'action-4'
p2434
tp2435
F8.100526804291624
s(g1795
g1222
tp2436
F-2.2744099905394095
s(g848
S'action-1'
p2437
tp2438
F2.620443087715549
s(S'diff-x-pos--88'
p2439
S'prev-action-1'
p2440
tp2441
F-1.3863234106958575
s(S'diff-x-pos--79'
p2442
S'action-1'
p2443
tp2444
F-1.0440271669654475
s(g2442
S'prev-action-4'
p2445
tp2446
F1.9172787747973654
s(g1968
S'prev-action-1'
p2447
tp2448
F0.5291107853304415
s(S'diff-x-pos-51'
p2449
S'prev-action-1'
p2450
tp2451
F3.7067433498937965
s(g1969
S'prev-action-4'
p2452
tp2453
F-0.6908749347852134
s(S'diff-x-pos--78'
p2454
S'prev-action-3'
p2455
tp2456
F0.8680921675108908
s(g939
S'prev-action-3'
p2457
tp2458
F-0.6927914297561693
s(g1238
S'action-4'
p2459
tp2460
F-0.20803614599418352
s(g1589
S'prev-action-3'
p2461
tp2462
F0.4509205626259145
s(S'diff-x-pos-7'
p2463
S'prev-action-1'
p2464
tp2465
F-0.23468278326853398
s(g1091
S'prev-action-1'
p2466
tp2467
F2.686496200128913
s(S'diff-x-pos-60'
p2468
S'action-1'
p2469
tp2470
F3.7900747793238727
s(S'diff-x-pos-37'
p2471
S'prev-action-4'
p2472
tp2473
F-0.40140630414903544
s(S'diff-x-pos--3'
p2474
S'action-3'
p2475
tp2476
F2.0636444186332463
s(S'diff-x-pos--25'
p2477
S'prev-action-3'
p2478
tp2479
F2.0714641949557673
s(g1942
S'prev-action-3'
p2480
tp2481
F0.48327822313890956
s(S'diff-x-pos--78'
p2482
S'action-3'
p2483
tp2484
F-3.17246524003596
s(g150
S'prev-action-1'
p2485
tp2486
F-1.80866736036329
s(g1689
S'action-4'
p2487
tp2488
F5.363544006754637
s(S'diff-x-pos-31'
p2489
S'prev-action-3'
p2490
tp2491
F2.473617094170722
s(S'diff-x-pos--47'
p2492
S'action-3'
p2493
tp2494
F-1.309653007595628
s(S'object-0-dx--1'
p2495
g205
tp2496
F0.3567480604377562
s(S'diff-x-pos--118'
p2497
S'action-3'
p2498
tp2499
F-4.383098109035419
s(g653
g816
tp2500
F-0.13052069257531662
s(g1767
S'prev-action-4'
p2501
tp2502
F1.554197262406722
s(g1744
S'action-1'
p2503
tp2504
F-1.0396008150343374
s(g1679
S'action-4'
p2505
tp2506
F-1.9103995719293225
s(S'diff-x-pos-68'
p2507
S'action-4'
p2508
tp2509
F-1.0990784935674598
s(g334
S'action-4'
p2510
tp2511
F0.7858036168868362
sg2034
F-1.996646498638436
s(g1032
S'prev-action-3'
p2512
tp2513
F-2.355166265887601
s(S'diff-x-pos--49'
p2514
S'action-1'
p2515
tp2516
F0.42306523038844634
s(g490
S'action-3'
p2517
tp2518
F6.734221817064079
s(g94
S'action-3'
p2519
tp2520
F-0.742512556897772
s(S'diff-x-pos-56'
p2521
S'action-1'
p2522
tp2523
F-1.9924548310160275
s(S'diff-x-pos-26'
p2524
S'action-1'
p2525
tp2526
F-1.0038169537755774
s(S'diff-x-pos-65'
p2527
S'prev-action-1'
p2528
tp2529
F-0.0062368526906497745
sg252
F0.011138371544793357
s(g1580
S'action-3'
p2530
tp2531
F-7.629631502002191
s(g938
S'prev-action-4'
p2532
tp2533
F3.096663498914437
sg1780
F4.075976724916225
s(g423
S'prev-action-4'
p2534
tp2535
F-0.9957115503086131
s(S'diff-x-pos-25'
p2536
S'prev-action-1'
p2537
tp2538
F0.012612498515337842
s(S'diff-x-pos--78'
p2539
S'action-4'
p2540
tp2541
F2.1615742619754332
s(S'diff-x-pos--44'
p2542
S'prev-action-3'
p2543
tp2544
F-0.46330157437321273
s(S'diff-x-pos--62'
p2545
S'action-4'
p2546
tp2547
F4.9167453657096845
s(S'diff-x-pos--92'
p2548
S'prev-action-1'
p2549
tp2550
F-0.32828951348032676
sg194
F0.7102626462436595
s(S'diff-x-pos-59'
p2551
S'action-3'
p2552
tp2553
F9.317220478365636
s(S'diff-x-pos-41'
p2554
S'action-3'
p2555
tp2556
F8.574026992989785
s(S'diff-x-pos--117'
p2557
S'prev-action-3'
p2558
tp2559
F-1.2919748884494682
s(g1491
S'action-4'
p2560
tp2561
F-6.845995993475454
s(g806
g1395
tp2562
F-0.7751936620654041
s(S'diff-x-pos--29'
p2563
S'prev-action-1'
p2564
tp2565
F1.284849137223064
s(S'diff-x-pos--118'
p2566
S'action-4'
p2567
tp2568
F0.1970355969434916
s(g2557
S'action-4'
p2569
tp2570
F4.667446182433887
s(S'diff-x-pos-5'
p2571
S'action-1'
p2572
tp2573
F-0.6005289322979985
s(g1249
S'prev-action-4'
p2574
tp2575
F-0.06143970880792793
s(g331
S'prev-action-1'
p2576
tp2577
F-1.1787825328174106
s(g964
S'prev-action-1'
p2578
tp2579
F-1.9378106228627816
s(g1594
S'action-4'
p2580
tp2581
F7.014533707354497
s(g423
S'action-1'
p2582
tp2583
F3.7379028286380414
s(S'diff-x-pos--113'
p2584
S'prev-action-4'
p2585
tp2586
F1.4790761208515448
s(g2103
S'action-1'
p2587
tp2588
F-0.6841978409398763
s(g237
S'action-1'
p2589
tp2590
F1.5414231014819313
s(g1655
S'action-3'
p2591
tp2592
F-6.4098753206339945
s(g332
g2004
tp2593
F-6.431528915494934
s(g1747
S'prev-action-3'
p2594
tp2595
F-1.3205949561919108
sg771
F0.6354481470434928
s(S'diff-x-pos-22'
p2596
S'action-3'
p2597
tp2598
F8.725694746603825
s(g1572
S'prev-action-4'
p2599
tp2600
F0.9494941121897831
s(g409
g144
tp2601
F0.27677004021190443
s(S'diff-x-pos--50'
p2602
S'prev-action-1'
p2603
tp2604
F-0.9778133659957366
s(S'diff-x-pos--110'
p2605
S'action-1'
p2606
tp2607
F-2.2521771836513045
sS'object-1-y-0.0'
p2608
F2.2615055309547767
s(g431
S'prev-action-1'
p2609
tp2610
F-0.43908488456097683
s(g1625
S'prev-action-4'
p2611
tp2612
F-0.5372716093855332
s(g2422
S'prev-action-3'
p2613
tp2614
F1.353334664945538
s(g1443
g2092
tp2615
F-4.031312380571209
s(S'diff-x-pos--64'
p2616
S'prev-action-1'
p2617
tp2618
F-1.0179558128758237
s(S'diff-x-pos--101'
p2619
S'prev-action-3'
p2620
tp2621
F-2.3471646316581896
s(S'diff-x-pos--89'
p2622
S'prev-action-3'
p2623
tp2624
F-1.5954424746488596
s(S'diff-x-pos--59'
p2625
S'action-1'
p2626
tp2627
F-0.3502591654302723
s(g1099
S'action-3'
p2628
tp2629
F-7.433654544871201
s(g1969
g2033
tp2630
F0.1285551650481761
sg58
F-1.9215916938803952
s(g2357
S'action-4'
p2631
tp2632
F3.793511513557147
sg1689
F-1.2758447469212053
s(g1863
S'action-1'
p2633
tp2634
F1.0889781128938143
s(S'diff-x-pos--108'
p2635
S'prev-action-1'
p2636
tp2637
F0.2592401538204852
s(S'diff-x-pos--48'
p2638
S'action-4'
p2639
tp2640
F3.410050596081193
s(S'diff-x-pos--53'
p2641
S'prev-action-1'
p2642
tp2643
F-3.315510502232968
s(g1854
S'prev-action-4'
p2644
tp2645
F0.23212020570853464
s(g188
S'action-3'
p2646
tp2647
F2.6797241721854124
s(g2170
S'prev-action-4'
p2648
tp2649
F0.8716135125209356
s(S'diff-x-pos-67'
p2650
S'action-3'
p2651
tp2652
I1
s(S'diff-x-pos--1'
p2653
S'action-1'
p2654
tp2655
F1.940290884989484
sg2170
F-0.5749674506355374
sg919
F-2.688868152539979
s(g1716
S'action-3'
p2656
tp2657
F-4.772173306128874
s(g949
S'action-4'
p2658
tp2659
F-6.352503822003232
s(S'diff-x-pos--91'
p2660
S'action-3'
p2661
tp2662
F-10.160095625954506
s(S'diff-x-pos--99'
p2663
S'prev-action-1'
p2664
tp2665
F1.151939746935195
s(g839
S'prev-action-3'
p2666
tp2667
F0.8080251140756799
s(g836
S'action-3'
p2668
tp2669
F0.29692275731114015
s(g2285
S'action-3'
p2670
tp2671
F8.902937392335952
s(g372
S'prev-action-1'
p2672
tp2673
F0.8676819486614121
s(g1942
S'action-4'
p2674
tp2675
F9.708760683182843
s(g2238
S'prev-action-3'
p2676
tp2677
F-0.5836263727351083
s(S'diff-x-pos--119'
p2678
S'action-1'
p2679
tp2680
F-0.7418586100881939
s(S'diff-x-pos--114'
p2681
S'action-3'
p2682
tp2683
F-8.707973767100492
s(g91
S'prev-action-3'
p2684
tp2685
F-0.9327278061954203
s(S'diff-x-pos--47'
p2686
S'prev-action-4'
p2687
tp2688
F-0.06926598519146868
s(g961
S'action-3'
p2689
tp2690
F-7.532889649147643
s(S'diff-x-pos--121'
p2691
S'prev-action-1'
p2692
tp2693
F-0.5614455114649552
s(S'diff-x-pos--12'
p2694
S'prev-action-4'
p2695
tp2696
F-2.86402955635932
s(g803
S'action-3'
p2697
tp2698
F-4.097342241616752
s(S'diff-x-pos--82'
p2699
S'prev-action-3'
p2700
tp2701
F-2.279621375287355
s(g851
S'action-1'
p2702
tp2703
F-0.9014802615502981
s(S'diff-x-pos--5'
p2704
S'prev-action-1'
p2705
tp2706
F1.2646394584796674
s(g2387
S'action-1'
p2707
tp2708
F-0.14813003836052624
s(g708
S'prev-action-4'
p2709
tp2710
F-2.4392359542644653
s(g2249
S'prev-action-3'
p2711
tp2712
F-2.147775736930048
s(g995
g983
tp2713
F-2.3211529988676167
sg36
F-4.079762133210885
s(g925
S'action-4'
p2714
tp2715
F10.065735577635577
s(S'diff-x-pos--48'
p2716
S'prev-action-3'
p2717
tp2718
F1.274227375457765
s(g1583
S'prev-action-4'
p2719
tp2720
F0.500288476926896
s(S'diff-x-pos-53'
p2721
S'action-3'
p2722
tp2723
F12.849877388207195
s(S'diff-x-pos-31'
p2724
S'action-4'
p2725
tp2726
F-7.996157184270139
s(g2336
S'prev-action-1'
p2727
tp2728
F1.0534982241393103
s(S'diff-x-pos--16'
p2729
S'prev-action-3'
p2730
tp2731
F0.10630273692425085
s(g670
S'action-1'
p2732
tp2733
F-2.253607809797474
s(g741
S'prev-action-3'
p2734
tp2735
F-2.4123706849687157
s(g887
S'action-3'
p2736
tp2737
F7.597785137028933
s(S'diff-x-pos-62'
p2738
S'action-3'
p2739
tp2740
F4.582916671944
s(S'object-1-dx-1'
p2741
g541
tp2742
F2.07816665916892
s(g420
g1708
tp2743
F1.0287162108458325
s(S'diff-x-pos-23'
p2744
S'action-3'
p2745
tp2746
F7.580290440695202
s(S'diff-x-pos-16'
p2747
S'action-3'
p2748
tp2749
F3.6368043924732936
s(g1760
S'prev-action-4'
p2750
tp2751
F-0.572011003468188
s(S'diff-x-pos--1'
p2752
S'prev-action-4'
p2753
tp2754
F-1.2499907590860695
s(g1253
S'action-3'
p2755
tp2756
F-8.948714206429061
s(S'diff-x-pos--111'
p2757
S'prev-action-1'
p2758
tp2759
F-1.8514708881611999
s(S'diff-x-pos--57'
p2760
S'action-1'
p2761
tp2762
F-2.5536265709801347
s(g722
S'action-1'
p2763
tp2764
F3.9378776785667533
sS'diff-y-pos--5'
p2765
F1.0076567336818167
s(S'diff-x-pos-29'
p2766
S'prev-action-4'
p2767
tp2768
F0.07781948651182208
s(S'diff-x-pos-24'
p2769
S'prev-action-4'
p2770
tp2771
F0.5865205762711151
s(g514
S'object-0-x-110.0'
p2772
tp2773
F0.6787180691069625
s(g713
S'action-1'
p2774
tp2775
F-2.158743448868471
sg1077
F-1.5036035492508057
sg2442
F0.01949838684898131
s(S'diff-x-pos-67'
p2776
S'prev-action-3'
p2777
tp2778
F0.08209133901603138
sg1716
F-3.9036849068317956
sg961
F-2.879206326043737
sg2238
F-2.4262017235034783
sg2373
F-1.9626558591123262
sg670
F-2.873587086010824
s(g2760
S'prev-action-3'
p2779
tp2780
F2.272994953742202
s(S'diff-x-pos--111'
p2781
S'action-3'
p2782
tp2783
F-9.08354515629505
sg1655
F-1.4432028158298993
s(S'diff-x-pos--108'
p2784
S'action-1'
p2785
tp2786
F4.085590396807529
s(S'diff-x-pos-47'
p2787
S'action-3'
p2788
tp2789
F10.131601056403346
s(g424
S'prev-action-1'
p2790
tp2791
F1.4371321143151503
s(g332
S'prev-action-4'
p2792
tp2793
F-1.0936738534104467
s(S'action-1'
p2794
g1416
tp2795
F3.4599919489278537
s(S'diff-x-pos-62'
p2796
S'prev-action-1'
p2797
tp2798
F1.4344356041564248
s(S'diff-x-pos-32'
p2799
S'prev-action-1'
p2800
tp2801
F3.0143617685399406
s(g676
S'action-1'
p2802
tp2803
F-0.6526718639854291
s(g821
S'prev-action-4'
p2804
tp2805
F0.7006843954824318
s(S'diff-x-pos--54'
p2806
S'action-4'
p2807
tp2808
F5.059517914541377
s(g849
S'prev-action-3'
p2809
tp2810
F-2.108994276557564
s(g851
S'prev-action-1'
p2811
tp2812
F-0.1497363284334952
s(S'diff-x-pos-32'
p2813
S'action-4'
p2814
tp2815
F-8.43389867565268
s(g655
S'action-1'
p2816
tp2817
F-2.121982542025453
s(g577
S'prev-action-4'
p2818
tp2819
F-0.5079554769678466
s(S'diff-x-pos-20'
p2820
S'action-4'
p2821
tp2822
F-7.0456343275467095
s(g795
S'action-4'
p2823
tp2824
F-6.669215143297314
s(g2193
S'prev-action-3'
p2825
tp2826
F1.5255083676168388
s(S'diff-x-pos--110'
p2827
S'prev-action-1'
p2828
tp2829
F-0.9030296546071743
s(g1170
S'prev-action-3'
p2830
tp2831
F0.3585684788574632
s(S'diff-x-pos--29'
p2832
S'action-4'
p2833
tp2834
F-1.3334263276331857
s(S'diff-x-pos--74'
p2835
S'action-4'
p2836
tp2837
F4.551975661728827
s(g427
S'prev-action-1'
p2838
tp2839
F-0.3126251637333917
sS'diff-y-pos--6'
p2840
F2.364914838682486
s(g173
S'action-3'
p2841
tp2842
F-11.058864953955814
s(g2699
S'action-1'
p2843
tp2844
F0.527367432149848
s(g621
S'action-1'
p2845
tp2846
F-2.2230312583435974
s(S'diff-x-pos--23'
p2847
S'action-3'
p2848
tp2849
F2.0164616679124294
s(S'diff-x-pos--103'
p2850
S'prev-action-1'
p2851
tp2852
F-0.31413344979590696
s(S'diff-x-pos--121'
p2853
S'action-3'
p2854
tp2855
F-1.8741413341977016
s(g2584
S'action-4'
p2856
tp2857
F6.59765054969136
s(g453
S'prev-action-3'
p2858
tp2859
F-1.5010371481301463
s(S'diff-x-pos-13'
p2860
S'action-3'
p2861
tp2862
F6.201622029745121
s(S'diff-x-pos--73'
p2863
S'prev-action-1'
p2864
tp2865
F-2.381741007637052
s(g1368
g245
tp2866
F5.851786739833584
s(g2724
S'prev-action-1'
p2867
tp2868
F-0.1317022469600796
s(g263
g1272
tp2869
F-2.3314745722943466
sg1660
F-0.9358795349320843
s(g589
S'action-1'
p2870
tp2871
F-1.3778686286159314
s(S'diff-x-pos-5'
p2872
S'prev-action-1'
p2873
tp2874
F1.2387673173289364
s(S'diff-x-pos--94'
p2875
S'prev-action-4'
p2876
tp2877
F-0.2578283950123576
s(g1849
S'action-1'
p2878
tp2879
F3.1963214435136
s(S'diff-x-pos--104'
p2880
S'action-3'
p2881
tp2882
F-10.098686305688638
s(S'diff-x-pos--70'
p2883
S'action-1'
p2884
tp2885
F-1.2445764275805722
s(S'diff-x-pos--88'
p2886
S'prev-action-4'
p2887
tp2888
F-0.7889757490474185
sS'object-0-dy--1'
p2889
F-2.0873947934758945
s(g1877
S'action-4'
p2890
tp2891
F-1.3291341786006137
s(S'diff-x-pos-41'
p2892
S'prev-action-3'
p2893
tp2894
F0.2422607621863997
s(S'diff-x-pos-59'
p2895
S'prev-action-3'
p2896
tp2897
F0.8028864471958584
s(S'diff-x-pos-52'
p2898
S'prev-action-1'
p2899
tp2900
F-2.057389422214943
s(g1448
S'prev-action-1'
p2901
tp2902
F-1.740711507776819
s(g2016
S'prev-action-4'
p2903
tp2904
F0.06111254233858643
s(g1167
S'action-4'
p2905
tp2906
F2.9527308378871857
s(S'diff-x-pos--78'
p2907
S'prev-action-4'
p2908
tp2909
F-1.1853646234543262
s(S'diff-x-pos-66'
p2910
S'action-4'
p2911
tp2912
F-0.7719000472580562
sg1285
F-0.3782329937384077
s(S'diff-x-pos-15'
p2913
S'action-4'
p2914
tp2915
F-1.46314750597509
s(g699
S'prev-action-4'
p2916
tp2917
F-0.32866308652510845
s(g2246
S'prev-action-4'
p2918
tp2919
F0.1211085153711261
s(g1106
S'prev-action-3'
p2920
tp2921
F0.19497269346423718
s(g842
S'prev-action-4'
p2922
tp2923
F1.0822281709287258
s(g2691
S'action-4'
p2924
tp2925
F-0.5454055013807979
s(g1282
S'action-1'
p2926
tp2927
F2.1297018595303774
sg2122
F10.50654294590129
s(S'diff-x-pos--84'
p2928
S'prev-action-1'
p2929
tp2930
F-2.327807830226812
s(g1324
S'object-0-x-70.0'
p2931
tp2932
F2.3215029229677513
s(g1249
S'action-1'
p2933
tp2934
F-2.1858889133725508
s(g522
S'action-1'
p2935
tp2936
F3.571147867572536
s(g2422
S'action-1'
p2937
tp2938
F2.283607160401921
s(S'action-3'
p2939
S'object-0-x-60.0'
p2940
tp2941
F2.632995924190459
s(S'diff-x-pos--9'
p2942
S'prev-action-4'
p2943
tp2944
F1.6753979243430097
s(g650
S'action-3'
p2945
tp2946
F6.7797973329995855
sg2162
F39.05525250819728
sg1846
F0.02741185057668638
s(S'diff-x-pos--50'
p2947
S'action-3'
p2948
tp2949
F-2.397503731054628
s(S'action-4'
p2950
g374
tp2951
F6.452405309477431
s(g1192
S'action-1'
p2952
tp2953
F1.2565513816520695
s(S'diff-x-pos--25'
p2954
S'action-3'
p2955
tp2956
F0.6210326900078553
s(S'diff-x-pos--66'
p2957
S'prev-action-1'
p2958
tp2959
F-0.9295383981148826
sg2157
F0.7995002575433652
s(g624
S'action-4'
p2960
tp2961
F-7.654890443972302
s(S'diff-x-pos--75'
p2962
S'prev-action-1'
p2963
tp2964
F0.13223284921355455
s(S'diff-x-pos--43'
p2965
S'action-3'
p2966
tp2967
F-2.379098907659176
s(S'diff-x-pos-11'
p2968
S'prev-action-3'
p2969
tp2970
F0.485423114018397
s(g2507
S'prev-action-1'
p2971
tp2972
F-1.656485675499053
s(g1968
S'action-1'
p2973
tp2974
F1.192116507890998
s(g2033
g2184
tp2975
F7.128601694474758
s(g855
S'action-4'
p2976
tp2977
F-0.9603970209125193
s(g658
S'prev-action-4'
p2978
tp2979
F-1.3240845332021416
s(S'diff-x-pos--42'
p2980
S'prev-action-1'
p2981
tp2982
F-0.6465852333922444
s(S'diff-x-pos--117'
p2983
S'action-1'
p2984
tp2985
F0.8570855114868983
s(g2752
S'action-4'
p2986
tp2987
F-2.1774625781281847
s(g431
S'action-4'
p2988
tp2989
F-3.199585788296406
s(S'diff-x-pos-36'
p2990
S'prev-action-3'
p2991
tp2992
F-0.22628781886141303
s(S'diff-x-pos--92'
p2993
S'action-3'
p2994
tp2995
F-7.190657126924757
s(g1846
S'action-4'
p2996
tp2997
F-3.6467424256146175
s(S'action-3'
p2998
g205
tp2999
F9.77462079023625
s(S'diff-x-pos--103'
p3000
S'action-4'
p3001
tp3002
F8.47874842105689
s(g2527
g2390
tp3003
F0.40719374971469335
s(g428
S'prev-action-3'
p3004
tp3005
F3.571995693697446
s(S'diff-x-pos-56'
p3006
S'prev-action-3'
p3007
tp3008
F2.206001446885225
s(g2744
S'prev-action-1'
p3009
tp3010
F1.026630637919051
s(S'diff-x-pos--69'
p3011
S'action-1'
p3012
tp3013
F-1.2460905588579925
s(S'diff-x-pos--46'
p3014
S'prev-action-1'
p3015
tp3016
F-1.215400711448306
s(g606
S'prev-action-3'
p3017
tp3018
F-0.39623204145444174
s(g1978
S'action-1'
p3019
tp3020
F-0.91555753323231
s(S'diff-x-pos--37'
p3021
S'action-3'
p3022
tp3023
F-0.4990896268641953
s(g1795
g1221
tp3024
F1.0818723227225173
s(g2582
S'object-1-x-60.0'
p3025
tp3026
F-3.4127322575845875
s(g2393
S'action-1'
p3027
tp3028
F2.129990970266567
s(g2089
S'prev-action-3'
p3029
tp3030
F-0.07006855781570387
s(g1130
S'action-3'
p3031
tp3032
F3.9298258941289053
s(S'diff-x-pos--55'
p3033
S'action-3'
p3034
tp3035
F-7.12108022337534
s(g1062
S'prev-action-4'
p3036
tp3037
F1.9577266918388871
s(S'diff-x-pos--118'
p3038
S'prev-action-1'
p3039
tp3040
F-0.8953381972718977
s(g942
S'action-4'
p3041
tp3042
F0.3322442489296448
s(S'diff-x-pos-48'
p3043
S'action-4'
p3044
tp3045
F-9.467247496653915
s(g919
S'prev-action-4'
p3046
tp3047
F-1.4649469378417392
s(g1552
S'prev-action-3'
p3048
tp3049
F2.7849361317592196
s(g850
S'prev-action-1'
p3050
tp3051
F0.02145085898514676
s(S'diff-x-pos--107'
p3052
S'action-1'
p3053
tp3054
F-0.5192427350832934
s(g2373
S'action-3'
p3055
tp3056
F-6.825865962635753
sg2584
F-2.3970235444300614
s(S'diff-x-pos--28'
p3057
g279
tp3058
F-0.6323918396079133
s(g1995
S'prev-action-4'
p3059
tp3060
F0.6595591530385165
sg1238
F0.5565375885230059
sg716
F-1.4376921014165465
s(S'diff-x-pos--92'
p3061
S'action-4'
p3062
tp3063
F7.0841842086961
s(g1474
S'prev-action-1'
p3064
tp3065
F2.1524460889832073
s(S'diff-x-pos-1'
p3066
S'action-1'
p3067
tp3068
F0.05939996705945527
s(g1324
g1052
tp3069
F-0.1920358854779125
s(S'action-3'
p3070
S'object-0-x-120.0'
p3071
tp3072
F-8.36103616755214
s(g2784
S'prev-action-4'
p3073
tp3074
F-1.277915757677855
s(g1269
S'prev-action-4'
p3075
tp3076
F0.3528661090990743
s(g337
S'prev-action-4'
p3077
tp3078
F0.5378937151815864
sg876
F9.62075457176042
s(S'diff-x-pos-7'
p3079
S'action-3'
p3080
tp3081
F4.3886776686848314
s(g1341
S'prev-action-1'
p3082
tp3083
F0.4882061508079778
s(S'diff-x-pos--32'
p3084
S'action-1'
p3085
tp3086
F-0.43224924935884257
s(S'diff-x-pos--68'
p3087
S'prev-action-1'
p3088
tp3089
F-1.1385490456982164
s(S'diff-x-pos--60'
p3090
S'action-3'
p3091
tp3092
F-9.475270226403879
s(g2016
S'action-3'
p3093
tp3094
F12.20842821814178
s(g1448
S'action-4'
p3095
tp3096
F6.799115546878477
sg2249
F1.4724578770085743
sg493
F2.886886655114033
s(S'diff-x-pos-36'
p3097
S'action-4'
p3098
tp3099
F-6.603204333071182
sg827
F-2.3635704876606187
s(g1480
S'action-4'
p3100
tp3101
F-8.363271843057841
s(g1780
S'prev-action-3'
p3102
tp3103
F3.709125701270433
sg551
F6.2603682991513905
s(S'diff-x-pos-3'
p3104
S'action-1'
p3105
tp3106
F-1.1478647785658531
s(S'diff-x-pos--88'
p3107
S'action-3'
p3108
tp3109
F-10.063022264313934
s(S'diff-x-pos--120'
p3110
S'prev-action-1'
p3111
tp3112
F-0.7002050427358502
s(g2883
S'prev-action-4'
p3113
tp3114
F-0.1577629174290659
s(S'diff-x-pos-44'
p3115
S'prev-action-4'
p3116
tp3117
F-0.9159863567891201
s(S'diff-x-pos--60'
p3118
S'prev-action-1'
p3119
tp3120
F-1.0218278249740118
s(S'diff-x-pos-34'
p3121
S'action-3'
p3122
tp3123
F9.66841181225133
s(S'diff-x-pos-19'
p3124
S'action-1'
p3125
tp3126
F-1.141872628207709
s(S'diff-x-pos--73'
p3127
S'action-4'
p3128
tp3129
F4.780379140348474
sS'object-0-x-30.0'
p3130
F10.579075039907725
s(g426
S'action-3'
p3131
tp3132
F3.0248857716213173
s(g313
S'prev-action-3'
p3133
tp3134
F1.0946799303424137
s(S'diff-x-pos--5'
p3135
S'action-1'
p3136
tp3137
F2.723282985349736
s(S'diff-x-pos--45'
p3138
S'action-4'
p3139
tp3140
F3.9194772244992215
s(g3066
S'prev-action-3'
p3141
tp3142
F0.6796270464319784
s(g1880
S'action-3'
p3143
tp3144
F9.341343853367572
sg456
F36.302127375359234
sg360
F37.31210461328728
sg1221
F39.937665892403
s(g1872
S'action-4'
p3145
tp3146
F-1.7736418687752893
s(g2835
S'prev-action-3'
p3147
tp3148
F0.282658522761944
s(g1250
S'prev-action-1'
p3149
tp3150
F-1.0564791266928806
sS'object-1-y-20.0'
p3151
F-0.7550103977981624
s(g2103
S'prev-action-3'
p3152
tp3153
F-0.5674802802126045
s(g1860
S'prev-action-3'
p3154
tp3155
F-0.7248244805980493
sS'diff-y-pos--11'
p3156
F1.618658622107299
sS'diff-y-pos--10'
p3157
F1.239301069527159
sS'diff-y-pos--12'
p3158
F2.517945172301717
s(S'diff-x-pos-0'
p3159
S'action-3'
p3160
tp3161
F4.287912288780859
s(g392
S'prev-action-4'
p3162
tp3163
F-0.4400646804762183
sg2835
F-1.8891535756863087
s(S'action-3'
p3164
g3130
tp3165
F8.560827174419323
s(g2229
S'action-4'
p3166
tp3167
F-5.221253717768093
s(g1552
S'action-3'
p3168
tp3169
F9.774319594935593
s(S'diff-x-pos--93'
p3170
S'prev-action-4'
p3171
tp3172
F-1.7525032109417333
s(S'diff-x-pos--33'
p3173
S'action-4'
p3174
tp3175
F0.5578633738131623
s(g2316
S'action-4'
p3176
tp3177
F9.566525658037277
s(g1754
S'action-1'
p3178
tp3179
F-1.959442916775529
s(g733
S'object-1-x-60.0'
p3180
tp3181
F0.39762422817547205
s(g1829
S'action-1'
p3182
tp3183
F-0.06750703092063243
s(g2796
S'action-4'
p3184
tp3185
F-5.184212226773651
s(S'action-4'
p3186
S'object-0-x-80.0'
p3187
tp3188
F5.276115692161993
s(g881
S'action-1'
p3189
tp3190
F-0.6628919318931006
s(g335
S'action-4'
p3191
tp3192
F2.3749037774189525
s(S'diff-x-pos--14'
p3193
S'action-1'
p3194
tp3195
F-0.0956267537044706
s(S'diff-x-pos--112'
p3196
S'prev-action-1'
p3197
tp3198
F-1.2742103052340081
s(S'diff-x-pos--4'
p3199
S'prev-action-3'
p3200
tp3201
F-2.1236994920673666
s(g254
S'action-1'
p3202
tp3203
F1.688596081839912
s(g949
S'prev-action-1'
p3204
tp3205
F-0.6897704922209889
s(S'diff-x-pos--119'
p3206
S'prev-action-1'
p3207
tp3208
F-0.39365393547510075
s(S'diff-x-pos-57'
p3209
S'action-3'
p3210
tp3211
F10.44508099037779
s(g952
S'prev-action-3'
p3212
tp3213
F-0.5048642407502071
s(g1805
g35
tp3214
F-1.4439613735158212
s(S'diff-x-pos--17'
p3215
S'prev-action-3'
p3216
tp3217
F-0.9255168458015575
sg1849
F0.18184010860173927
sg55
F-0.20936797343727187
s(g528
S'object-0-x-100.0'
p3218
tp3219
F1.0541006185162531
s(g2622
S'action-1'
p3220
tp3221
F-2.4759990474419906
sg1877
F2.30180265950588
s(g228
S'action-1'
p3222
tp3223
F-0.6500901353970724
s(g287
S'prev-action-4'
p3224
tp3225
F-0.7603205276008286
sg2752
F0.11443803873346636
s(g170
S'prev-action-1'
p3226
tp3227
F-1.3071546633189512
s(g827
S'action-4'
p3228
tp3229
F0.9849544499951464
s(g1943
S'prev-action-3'
p3230
tp3231
F-0.789047433462167
sg653
F0.11780428774424112
sg91
F-1.0016036679824916
sg352
F-3.3929910980796256
s(S'diff-x-pos--36'
p3232
S'prev-action-3'
p3233
tp3234
F1.7029237673027655
s(g1766
S'prev-action-1'
p3235
tp3236
F-2.772201374821263
s(S'diff-x-pos--87'
p3237
S'action-4'
p3238
tp3239
F6.286969374648136
s(g426
S'prev-action-4'
p3240
tp3241
F-0.37466929600703913
sg496
F-1.3439900002150904
sg2193
F-1.221841316494107
s(g432
S'prev-action-4'
p3242
tp3243
F-0.5258538130431085
s(S'diff-x-pos--40'
p3244
S'prev-action-3'
p3245
tp3246
F-0.32973122196868404
s(g901
S'action-3'
p3247
tp3248
F-9.536563387616756
sg2957
F-1.7675600959766573
s(g2820
S'prev-action-3'
p3249
tp3250
F-0.019114080781263365
s(S'diff-x-pos--41'
p3251
S'prev-action-4'
p3252
tp3253
F2.3011948753691063
s(g135
S'action-1'
p3254
tp3255
F-0.46750001450645506
s(g2957
g1065
tp3256
F-5.62937966076421
s(g2942
S'action-1'
p3257
tp3258
F-2.3043834167517314
s(S'diff-x-pos--85'
p3259
S'action-4'
p3260
tp3261
F5.925769206439474
s(S'diff-x-pos--63'
p3262
S'prev-action-4'
p3263
tp3264
F-2.1661255676762954
s(g2913
S'prev-action-4'
p3265
tp3266
F0.6170586907218176
s(S'diff-x-pos--59'
p3267
S'prev-action-1'
p3268
tp3269
F0.28545687393774527
sg1805
F1.1773820380958826
sg540
F2.0864078976076383
s(g977
S'prev-action-3'
p3270
tp3271
F-1.707210710104162
sg1823
F2.457887619678033
s(g633
S'action-3'
p3272
tp3273
F-11.980265966234636
sg2046
F1.386402588459203
sg147
F-0.4890928684308431
sg188
F0.21273810178699537
s(g2848
S'object-0-x-50.0'
p3274
tp3275
F2.844475374494243
sg1014
F2.2196877908355646
sg699
F1.9462493305635018
sg1900
F14.419705361993346
s(S'diff-x-pos-13'
p3276
S'action-4'
p3277
tp3278
F-4.06753522782014
s(S'diff-x-pos--65'
p3279
S'prev-action-3'
p3280
tp3281
F1.3860412592832043
s(g2277
g1324
tp3282
F1.3526732281314597
s(g2781
S'prev-action-3'
p3283
tp3284
F-2.646600751319025
s(S'diff-x-pos--30'
p3285
S'action-3'
p3286
tp3287
F-0.2542885447693788
s(g2157
S'prev-action-4'
p3288
tp3289
F0.40520781886977114
s(g583
S'action-4'
p3290
tp3291
F9.404410414025998
s(g942
S'prev-action-3'
p3292
tp3293
F-0.9864816515279302
s(S'diff-x-pos--19'
p3294
S'action-4'
p3295
tp3296
F-0.6935668332254419
s(S'diff-x-pos-49'
p3297
S'action-3'
p3298
tp3299
F8.318458206302601
s(S'diff-x-pos--107'
p3300
S'prev-action-1'
p3301
tp3302
F0.17276052124973706
s(g1256
S'action-3'
p3303
tp3304
F-9.578719762831897
s(S'diff-x-pos--27'
p3305
S'action-3'
p3306
tp3307
F1.3809586460628278
s(S'diff-x-pos--18'
p3308
S'prev-action-3'
p3309
tp3310
F-1.0824944594725947
s(g2990
S'action-1'
p3311
tp3312
F-0.936055188783313
s(g938
S'action-1'
p3313
tp3314
F2.3037788227517524
s(g1294
S'action-4'
p3315
tp3316
F-1.3732463271110809
s(S'diff-x-pos-23'
p3317
S'action-4'
p3318
tp3319
F-4.956414205612416
s(g1646
S'action-4'
p3320
tp3321
F-3.8580003442965616
s(S'diff-x-pos--98'
p3322
S'prev-action-3'
p3323
tp3324
F0.01372263022043331
s(g2181
S'action-4'
p3325
tp3326
F3.127153156532017
s(g540
S'prev-action-1'
p3327
tp3328
F0.6124888988675017
s(S'diff-x-pos-50'
p3329
S'action-4'
p3330
tp3331
F-9.587054943147795
s(g2580
S'object-1-x-110.0'
p3332
tp3333
F7.354477155349739
s(S'diff-x-pos--66'
p3334
S'action-4'
p3335
tp3336
F4.88121165812899
stp3337
Rp3338
.