ccollections
Counter
p0
((dp1
S'object-2-y'
p2
cnumpy.core.multiarray
scalar
p3
(cnumpy
dtype
p4
(S'f8'
p5
I0
I1
tp6
Rp7
(I3
S'<'
p8
NNNI-1
I-1
I0
tp9
bS'\x9b\x9d\x87o\xbaqI?'
p10
tp11
Rp12
sS'object-2-x'
p13
g3
(g7
S'`\x1c\xe7\xd4\xfb\x94\x81?'
p14
tp15
Rp16
sS'object-1-x'
p17
g3
(g7
S'j\xaf[\xc1\xf7\x87\x86?'
p18
tp19
Rp20
sS'object-1-y'
p21
g3
(g7
S'\x82e=/\x8c\xddO?'
p22
tp23
Rp24
sS'action-15'
p25
g3
(g7
S'\x16!\xa3\xa4\x85BW?'
p26
tp27
Rp28
sS'action-14'
p29
g3
(g7
S'A\x1a\xf0^\x9b.X?'
p30
tp31
Rp32
sS'action-17'
p33
g3
(g7
S'\xa3\x91\xda\x93{$S?'
p34
tp35
Rp36
sS'action-16'
p37
g3
(g7
S'\x91v\x82\xec\x97zT?'
p38
tp39
Rp40
sS'action-11'
p41
g3
(g7
S'l,e\xcc\xd5=^?'
p42
tp43
Rp44
sS'action-10'
p45
g3
(g7
S'\xca\x07\xee\xa9Rta?'
p46
tp47
Rp48
sS'action-13'
p49
g3
(g7
S'\xe9\xa16\x89!L[?'
p50
tp51
Rp52
sS'action-12'
p53
g3
(g7
S'U\x04,>W\xf9\\?'
p54
tp55
Rp56
sS'action-9'
p57
g3
(g7
S'ewT\xe2r\x14d?'
p58
tp59
Rp60
sS'action-8'
p61
g3
(g7
S'B!\xe4g\xb3\xf3f?'
p62
tp63
Rp64
sS'action-5'
p65
g3
(g7
S'g$iu\x8fXr?'
p66
tp67
Rp68
sS'action-4'
p69
g3
(g7
S'\xd9F\xf0\x105\xf6v?'
p70
tp71
Rp72
sS'action-7'
p73
g3
(g7
S'\x9fC\xf5\xe4o>j?'
p74
tp75
Rp76
sS'action-6'
p77
g3
(g7
S'4Zi%\x7f\x87n?'
p78
tp79
Rp80
sS'action-1'
p81
g3
(g7
S'\xe1w\x1e5\x87,`?'
p82
tp83
Rp84
sS'action-0'
p85
g3
(g7
S'\x00\x00\x00\x00\x00\x00\x00\x00'
p86
tp87
Rp88
sS'action-3'
p89
g3
(g7
S'\xb4\xf5\x8d\xea\x95\xd1x?'
p90
tp91
Rp92
sS'action-2'
p93
g3
(g7
S'\xdc\xada\x9f\xb2<w?'
p94
tp95
Rp96
stp97
Rp98
.