ccollections
Counter
p0
((dp1
(S'object-1-y-10.0'
p2
S'object-1-dy--1'
p3
(S'diff-y-pos--1'
p4
I1
tp5
S'action-4'
p6
tp7
F7.395506519760094
s(S'object-0-x-100.0'
p8
S'object-0-dx--1'
p9
(S'diff-y-pos--1'
p10
I1
tp11
S'action-1'
p12
tp13
F19.119613887871335
s(S'object-1-y-10.0'
p14
S'object-1-dx-1'
p15
(S'diff-x-pos-1'
p16
I1
tp17
S'action-3'
p18
tp19
F10.857141439854376
s(g14
g15
(S'diff-y-pos--1'
p20
I1
tp21
g18
tp22
F-5.0638047835484725
s(S'object-0-y-0.0'
p23
S'object-1-dx--1'
p24
(S'diff-x-pos-1'
p25
I1
tp26
S'action-1'
p27
tp28
F0.18318922794721537
s(S'object-0-x-90.0'
p29
S'object-1-dy-1'
p30
(S'diff-x-pos--1'
p31
I1
tp32
S'action-4'
p33
tp34
F7.531413512696121
s(S'object-0-x-110.0'
p35
S'object-1-dy--1'
p36
(S'diff-x-pos--1'
p37
I1
tp38
S'action-1'
p39
tp40
F17.422882126564087
s(S'object-0-x-60.0'
p41
S'object-0-dx-1'
p42
(S'diff-x-pos--1'
p43
I1
tp44
S'action-4'
p45
tp46
F18.123177316037097
s(S'object-0-x-100.0'
p47
S'object-1-dx--1'
p48
(S'diff-y-pos--1'
p49
I1
tp50
S'action-3'
p51
tp52
F-6.761714022866265
s(S'object-0-x-100.0'
p53
S'object-0-dx--1'
p54
(S'diff-x-pos--1'
p55
I1
tp56
S'action-1'
p57
tp58
F11.038032475731322
s(S'object-0-x-40.0'
p59
S'object-0-dy--1'
p60
(S'diff-y-pos--1'
p61
I1
tp62
S'action-1'
p63
tp64
F2.832730180788251
s(S'object-0-x-80.0'
p65
S'object-1-dx-1'
p66
(S'diff-y-pos--1'
p67
I1
tp68
S'action-3'
p69
tp70
F8.967093731038348
s(S'object-0-x-120.0'
p71
S'object-1-dx-1'
p72
(S'diff-y-pos--1'
p73
I1
tp74
S'action-4'
p75
tp76
F-1.5565361093206773
s(S'object-0-x-100.0'
p77
S'object-1-dy-1'
p78
(S'diff-x-pos-1'
p79
I1
tp80
S'action-3'
p81
tp82
F-18.973889968058554
s(S'object-0-y-10.0'
p83
S'object-1-dy-1'
p84
(S'diff-x-pos-1'
p85
I1
tp86
S'action-4'
p87
tp88
F2.2259561356729813
s(S'object-0-y-0.0'
p89
S'object-0-dx--1'
p90
(S'diff-x-pos--1'
p91
I1
tp92
S'action-1'
p93
tp94
F-25.860730027499955
s(S'object-0-y-20.0'
p95
S'prev-action-1'
p96
tp97
F17.697427155005645
s(S'object-1-x-110.0'
p98
S'object-0-dy-1'
p99
(S'diff-y-pos--1'
p100
I1
tp101
S'action-3'
p102
tp103
F-12.542161193984576
s(S'object-1-x-90.0'
p104
g9
(S'diff-x-pos-1'
p105
I1
tp106
g12
tp107
F-10.22643927000464
s(S'object-1-x-80.0'
p108
S'object-1-dx--1'
p109
(S'diff-y-pos--1'
p110
I1
tp111
S'action-3'
p112
tp113
F9.554696804143033
s(S'object-0-x-100.0'
p114
S'object-1-dy--1'
p115
(S'diff-x-pos-1'
p116
I1
tp117
S'action-4'
p118
tp119
F-8.8918896956894
s(S'object-1-x-80.0'
p120
S'object-1-dx--1'
p121
(S'diff-x-pos-1'
p122
I1
tp123
S'action-4'
p124
tp125
F8.414185816056657
s(S'object-0-x-50.0'
p126
g3
(S'diff-x-pos--1'
p127
I1
tp128
g6
tp129
F4.740591013685602
s(S'object-1-x-80.0'
p130
S'object-0-dy--1'
p131
(S'diff-y-pos--1'
p132
I1
tp133
S'action-1'
p134
tp135
F-0.6899686114931431
s(S'object-1-x-60.0'
p136
g15
g17
g18
tp137
F25.23096638199499
s(g23
S'object-0-dx-1'
p138
g26
g27
tp139
F-4.174350247219407
s(S'object-1-x-60.0'
p140
S'object-0-dy--1'
p141
(S'diff-x-pos-1'
p142
I1
tp143
S'action-3'
p144
tp145
F12.535079346799797
s(S'object-0-y-10.0'
p146
S'object-0-dx--1'
p147
(S'diff-x-pos--1'
p148
I1
tp149
S'action-3'
p150
tp151
F-6.024227709923498
s(S'object-0-x-130.0'
p152
S'object-1-dx--1'
p153
(S'diff-y-pos--1'
p154
I1
tp155
S'action-3'
p156
tp157
I0
s(S'object-0-x-80.0'
p158
S'object-0-dy-1'
p159
(S'diff-y-pos--1'
p160
I1
tp161
S'action-3'
p162
tp163
F8.38569025610192
s(g104
S'object-0-dy-1'
p164
g106
g12
tp165
F5.0019291828923995
s(S'object-1-x-60.0'
p166
S'object-0-dy--1'
p167
(S'diff-x-pos--1'
p168
I1
tp169
S'action-3'
p170
tp171
F7.5528114448270145
s(S'object-1-y-0.0'
p172
S'object-0-dx--1'
p173
(S'diff-x-pos-1'
p174
I1
tp175
S'action-1'
p176
tp177
I-1
s(S'object-0-x-90.0'
p178
S'object-1-dy--1'
p179
(S'diff-x-pos--1'
p180
I1
tp181
S'action-1'
p182
tp183
F2.6299528374451504
s(S'object-1-x-60.0'
p184
S'object-1-dy-1'
p185
(S'diff-x-pos-1'
p186
I1
tp187
S'action-4'
p188
tp189
F4.606516799221648
s(g8
g164
g106
g12
tp190
F0.8060245754139079
s(S'object-1-x-70.0'
p191
S'object-0-dx-1'
p192
(S'diff-y-pos--1'
p193
I1
tp194
S'action-3'
p195
tp196
F8.668702164976962
s(S'object-0-y-0.0'
p197
S'object-0-dx-1'
p198
(S'diff-y-pos--1'
p199
I1
tp200
S'action-4'
p201
tp202
F-11.818691213662898
s(S'object-0-x-30.0'
p203
S'object-1-dx-1'
p204
(S'diff-y-pos--1'
p205
I1
tp206
S'action-4'
p207
tp208
F-8.320681729260768
s(S'object-0-x-110.0'
p209
S'object-0-dx--1'
p210
(S'diff-x-pos-1'
p211
I1
tp212
S'action-3'
p213
tp214
F5.921413418740276
s(S'object-0-x-70.0'
p215
S'object-0-dx--1'
p216
(S'diff-x-pos-1'
p217
I1
tp218
S'action-1'
p219
tp220
F11.506999870210624
s(S'object-0-x-70.0'
p221
S'object-0-dy-1'
p222
(S'diff-y-pos--1'
p223
I1
tp224
S'action-3'
p225
tp226
F13.703513791867621
s(g35
S'object-0-dy-1'
p227
g38
g39
tp228
F13.909667834219851
s(g65
S'object-1-dy-1'
p229
g68
g69
tp230
F20.236079116959882
s(S'object-1-x-80.0'
p231
S'object-0-dx-1'
p232
g128
g6
tp233
F0.5196022629468326
s(S'object-0-x-10.0'
p234
S'object-0-dx--1'
p235
(S'diff-x-pos--1'
p236
I1
tp237
S'action-3'
p238
tp239
F5.3865097770008665
s(S'object-0-x-110.0'
p240
S'object-1-dx-1'
p241
(S'diff-x-pos-1'
p242
I1
tp243
S'action-1'
p244
tp245
F1.5587854506633843
s(S'object-0-y-0.0'
p246
S'object-0-dy-1'
p247
(S'diff-x-pos-1'
p248
I1
tp249
S'action-1'
p250
tp251
F-8.404053965925339
s(S'object-0-x-0.0'
p252
S'object-1-dx-1'
p253
(S'diff-y-pos--1'
p254
I1
tp255
S'action-3'
p256
tp257
I-1
s(S'object-1-x-70.0'
p258
S'object-0-dy--1'
p259
(S'diff-y-pos--1'
p260
I1
tp261
S'action-3'
p262
tp263
F4.328535853927164
s(S'object-0-y-0.0'
p264
S'object-1-dy-1'
p265
(S'diff-y-pos--1'
p266
I1
tp267
g213
tp268
F-31.48304269439506
s(S'object-0-x-60.0'
p269
S'object-0-dx-1'
p270
(S'diff-y-pos--1'
p271
I1
tp272
S'action-1'
p273
tp274
F6.076491986092014
s(S'object-0-x-90.0'
p275
S'object-0-dx--1'
p276
(S'diff-x-pos-1'
p277
I1
tp278
S'action-4'
p279
tp280
F-2.8212710704462194
s(S'object-0-x-0.0'
p281
S'object-0-dx--1'
p282
(S'diff-x-pos--1'
p283
I1
tp284
S'action-3'
p285
tp286
F1.6405758111911384
s(S'object-0-y-0.0'
p287
g141
g143
g144
tp288
F3.5310924369291357
s(S'object-0-y-10.0'
p289
S'object-1-dy--1'
p290
(S'diff-x-pos--1'
p291
I1
tp292
S'action-3'
p293
tp294
F8.074115795050187
s(S'object-0-x-60.0'
p295
S'object-1-dy-1'
p296
(S'diff-x-pos--1'
p297
I1
tp298
S'action-3'
p299
tp300
F-6.885948103885307
s(S'object-1-x-110.0'
p301
S'object-1-dy--1'
p302
(S'diff-y-pos--1'
p303
I1
tp304
S'action-4'
p305
tp306
F16.311048804213698
s(S'object-0-x-20.0'
p307
S'object-0-dy-1'
p308
(S'diff-x-pos--1'
p309
I1
tp310
S'action-4'
p311
tp312
F-12.149201760831769
s(g8
S'object-1-dx-1'
p313
g106
g12
tp314
F-14.605782582759891
s(S'object-1-x-60.0'
p315
S'object-0-dy--1'
p316
(S'diff-y-pos--1'
p317
I1
tp318
S'action-4'
p319
tp320
F-35.56298633566844
s(S'object-0-x-30.0'
p321
S'object-1-dy--1'
p322
(S'diff-y-pos--1'
p323
I1
tp324
S'action-3'
p325
tp326
F-14.119663571016957
s(S'object-0-x-20.0'
p327
S'prev-action-3'
p328
tp329
F-1.373082481774349
s(g140
S'object-0-dx-1'
p330
(S'diff-y-pos--1'
p331
I1
tp332
g144
tp333
F-8.57955934744268
s(S'object-0-x-20.0'
p334
S'object-0-dy--1'
p335
(S'diff-x-pos--1'
p336
I1
tp337
g305
tp338
F-9.99553775931027
s(S'object-1-y-10.0'
p339
S'object-1-dy-1'
p340
(S'diff-x-pos-1'
p341
I1
tp342
S'action-1'
p343
tp344
F4.907473569393907
s(g29
S'object-0-dx-1'
p345
g32
g33
tp346
F-5.847614051762421
s(S'object-1-x-70.0'
p347
S'prev-action-3'
p348
tp349
F9.768039274298182
s(S'object-0-y-0.0'
p350
S'object-0-dy--1'
p351
(S'diff-x-pos--1'
p352
I1
tp353
g112
tp354
F-20.09468823382976
s(S'object-0-x-110.0'
p355
S'object-1-dy-1'
p356
(S'diff-y-pos--1'
p357
I1
tp358
S'action-4'
p359
tp360
F-11.162781780532583
s(S'object-0-x-80.0'
p361
S'object-0-dy--1'
p362
(S'diff-y-pos--1'
p363
I1
tp364
S'action-4'
p365
tp366
F6.829846167953953
s(S'object-1-x-80.0'
p367
S'object-1-dx-1'
p368
(S'diff-x-pos-1'
p369
I1
tp370
S'action-1'
p371
tp372
F-9.655924370523106
s(S'object-1-x-110.0'
p373
S'object-1-dy-1'
p374
(S'diff-x-pos--1'
p375
I1
tp376
S'action-4'
p377
tp378
F7.955553376922532
s(S'object-1-x-80.0'
p379
S'object-0-dx--1'
p380
(S'diff-x-pos-1'
p381
I1
tp382
S'action-3'
p383
tp384
F-0.3425120126415582
s(g59
S'object-1-dy--1'
p385
g62
g63
tp386
F23.13845954700646
s(g59
S'object-0-dx-1'
p387
g62
g63
tp388
F-0.7563418712288232
s(g178
S'object-0-dy--1'
p389
g181
g182
tp390
F6.23598388522907
s(S'object-0-x-120.0'
p391
S'object-1-dx--1'
p392
(S'diff-x-pos--1'
p393
I1
tp394
S'action-3'
p395
tp396
I1
s(S'object-1-x-90.0'
p397
S'object-0-dy-1'
p398
(S'diff-y-pos--1'
p399
I1
tp400
S'action-1'
p401
tp402
F-13.492139249472597
s(S'object-0-dx-1'
p403
S'prev-action-4'
p404
tp405
F25.040615337716062
s(S'object-1-x-110.0'
p406
g241
g243
g244
tp407
I-9
s(g23
S'object-1-dy--1'
p408
g26
g27
tp409
F-2.5916094784186816
s(g203
S'object-1-dy-1'
p410
g206
g207
tp411
F-0.653995131477612
s(S'object-0-y-0.0'
p412
S'object-1-dx-1'
p413
(S'diff-x-pos--1'
p414
I1
tp415
S'action-4'
p416
tp417
F-24.44481413208305
s(S'object-1-x-60.0'
p418
g24
g26
g27
tp419
F-15.985946425361824
s(S'object-0-x-30.0'
p420
S'object-0-dy--1'
p421
(S'diff-x-pos--1'
p422
I1
tp423
S'action-1'
p424
tp425
F-5.760877784190788
s(S'object-1-x-90.0'
p426
S'object-0-dy--1'
p427
g200
g201
tp428
F20.943113680977977
s(S'object-1-x-120.0'
p429
g36
(S'diff-y-pos--1'
p430
I1
tp431
g39
tp432
F-23.92549995135927
s(g198
S'prev-action-3'
p433
tp434
F17.09488880121644
s(S'object-1-x-90.0'
p435
S'object-1-dx-1'
p436
(S'diff-y-pos--1'
p437
I1
tp438
S'action-3'
p439
tp440
F-6.168066510965754
s(S'object-1-x-60.0'
p441
S'object-1-dx-1'
p442
(S'diff-x-pos--1'
p443
I1
tp444
S'action-4'
p445
tp446
F-2.0346911415636235
s(S'object-1-x-120.0'
p447
S'object-1-dy-1'
p448
(S'diff-y-pos--1'
p449
I1
tp450
S'action-3'
p451
tp452
F9.61064193300059
sS'object-0-dy-1'
p453
F10.82646288465301
s(S'object-0-x-40.0'
p454
g259
g261
g262
tp455
F-17.952497783597853
s(S'object-1-x-60.0'
p456
S'object-0-dx--1'
p457
(S'diff-y-pos--1'
p458
I1
tp459
S'action-4'
p460
tp461
F-20.539699957851965
s(S'object-0-x-20.0'
p462
S'object-1-dx--1'
p463
(S'diff-y-pos--1'
p464
I1
tp465
S'action-1'
p466
tp467
F-13.7843129960985
s(S'object-1-x-100.0'
p468
S'object-1-dy--1'
p469
(S'diff-x-pos-1'
p470
I1
tp471
S'action-3'
p472
tp473
F-0.5502294750421006
s(S'object-0-x-60.0'
p474
S'object-0-dx-1'
p475
(S'diff-x-pos-1'
p476
I1
tp477
S'action-4'
p478
tp479
F12.23889958041125
s(g420
S'object-0-dx-1'
p480
(S'diff-y-pos--1'
p481
I1
tp482
g424
tp483
F-13.355792833524363
s(S'object-0-x-50.0'
p484
S'object-1-dy-1'
p485
(S'diff-y-pos--1'
p486
I1
tp487
S'action-3'
p488
tp489
F-6.601247807490264
s(S'object-0-y-0.0'
p490
g3
g5
g6
tp491
F-1.7875158023422824
s(S'object-0-y-10.0'
p492
S'object-1-dx-1'
p493
(S'diff-y-pos--1'
p494
I1
tp495
S'action-4'
p496
tp497
F18.455595987105443
s(S'object-0-y-10.0'
p498
S'prev-action-4'
p499
tp500
F6.009225431050906
s(S'object-1-x-60.0'
p501
g265
g267
g213
tp502
F3.7835121527029463
s(S'object-0-x-0.0'
p503
S'object-1-dy--1'
p504
(S'diff-x-pos--1'
p505
I1
tp506
S'action-3'
p507
tp508
F-0.6916073676116525
s(g456
g457
(S'diff-x-pos-1'
p509
I1
tp510
g460
tp511
F-6.043772523063254
sg429
F39.411961016880625
s(g152
S'object-0-dy--1'
p512
(S'diff-x-pos-1'
p513
I1
tp514
g156
tp515
I0
s(g215
g216
(S'diff-y-pos--1'
p516
I1
tp517
g219
tp518
F4.911394199957365
sS'prev-action-1'
p519
F38.60417371665862
s(S'object-1-x-100.0'
p520
S'object-1-dx--1'
p521
(S'diff-x-pos-1'
p522
I1
tp523
S'action-1'
p524
tp525
F-4.775086700228835
s(S'object-1-x-110.0'
p526
S'object-1-dy--1'
p527
(S'diff-x-pos-1'
p528
I1
tp529
S'action-4'
p530
tp531
F-5.940024865140948
s(S'object-1-y-10.0'
p532
S'object-1-dx--1'
p533
(S'diff-x-pos--1'
p534
I1
tp535
g63
tp536
F2.9979827707468862
s(S'object-1-y-20.0'
p537
S'object-1-dx-1'
p538
(S'diff-y-pos--1'
p539
I1
tp540
S'action-4'
p541
tp542
I-1
s(g456
S'object-0-dy-1'
p543
g459
g460
tp544
F-3.993785898818339
s(S'object-0-x-90.0'
p545
S'object-1-dy-1'
p546
(S'diff-x-pos-1'
p547
I1
tp548
S'action-1'
p549
tp550
F8.587459299943186
s(g209
S'object-0-dy--1'
p551
g212
g213
tp552
F-16.853107204700688
s(g89
S'object-0-dy-1'
p553
(S'diff-y-pos--1'
p554
I1
tp555
g93
tp556
F-19.87052850103494
s(g367
S'object-1-dy--1'
p557
g370
g371
tp558
F-13.559978708060285
s(S'object-0-x-20.0'
p559
S'object-1-dx-1'
p560
(S'diff-x-pos--1'
p561
I1
tp562
S'action-1'
p563
tp564
F18.667184887952132
s(S'object-0-x-100.0'
p565
S'object-1-dy--1'
p566
g17
g18
tp567
F4.954161739772233
s(S'object-1-x-100.0'
p568
S'object-1-dy--1'
p569
(S'diff-y-pos--1'
p570
I1
tp571
S'action-1'
p572
tp573
F-0.3319019198855031
sS'object-1-x-100.0'
p574
F25.38186348771046
s(g420
S'prev-action-3'
p575
tp576
F-16.787182264563423
s(S'object-0-x-40.0'
p577
g403
(S'diff-x-pos--1'
p578
I1
tp579
S'action-3'
p580
tp581
F-5.979911905484252
s(S'object-0-x-120.0'
p582
S'prev-action-3'
p583
tp584
F-12.789860750054563
s(g59
g387
g535
g63
tp585
F-0.7563418712288232
s(g391
S'object-0-dx-1'
p586
g394
g395
tp587
I1
sS'object-1-dx--1'
p588
F0.21278537090395844
s(g454
S'object-0-dx--1'
p589
(S'diff-x-pos--1'
p590
I1
tp591
g262
tp592
F0.22575365883438892
s(g397
S'object-1-dy-1'
p593
g400
g401
tp594
F5.947058366871814
s(S'object-0-x-90.0'
p595
S'object-1-dy--1'
p596
(S'diff-y-pos--1'
p597
I1
tp598
S'action-1'
p599
tp600
F-10.214630655781903
s(S'object-0-y-10.0'
p601
S'object-0-dx-1'
p602
(S'diff-x-pos-1'
p603
I1
tp604
S'action-1'
p605
tp606
F-5.549261464508542
s(S'object-0-x-10.0'
p607
S'object-0-dy-1'
p608
(S'diff-y-pos--1'
p609
I1
tp610
S'action-1'
p611
tp612
F0.09369024629767253
s(S'object-0-x-130.0'
p613
S'object-1-dx--1'
p614
(S'diff-x-pos-1'
p615
I1
tp616
S'action-1'
p617
tp618
F0.3502017431139848
s(S'object-1-x-110.0'
p619
S'object-1-dx--1'
p620
(S'diff-y-pos--1'
p621
I1
tp622
S'action-3'
p623
tp624
F-10.090346495925163
s(S'object-0-y-0.0'
p625
g588
g579
g580
tp626
F-10.095241913236086
s(g595
S'object-1-dx--1'
p627
g598
g599
tp628
F-12.581517689444674
s(g252
S'object-0-dy--1'
p629
(S'diff-x-pos--1'
p630
I1
tp631
g256
tp632
F-2.6916073676116525
s(S'object-1-x-70.0'
p633
S'object-1-dy-1'
p634
(S'diff-y-pos--1'
p635
I1
tp636
S'action-3'
p637
tp638
F-0.5500031994935894
s(S'object-1-x-110.0'
p639
S'object-0-dy-1'
p640
(S'diff-x-pos--1'
p641
I1
tp642
S'action-1'
p643
tp644
F-3.4137527295924985
s(S'object-0-x-130.0'
p645
S'prev-action-1'
p646
tp647
I1
s(g619
S'prev-action-1'
p648
tp649
F-3.190702825213414
s(S'object-0-x-100.0'
p650
S'object-1-dx--1'
p651
(S'diff-x-pos-1'
p652
I1
tp653
S'action-1'
p654
tp655
F6.81240755528655
s(S'object-0-y-0.0'
p656
g533
g535
g63
tp657
F11.129465886748198
s(S'object-0-x-20.0'
p658
S'object-1-dx-1'
p659
(S'diff-y-pos--1'
p660
I1
tp661
S'action-3'
p662
tp663
F13.130781825684805
s(g114
S'object-0-dx-1'
p664
(S'diff-y-pos--1'
p665
I1
tp666
g118
tp667
F-9.740924209730103
s(g429
g36
g38
g39
tp668
F-23.92549995135927
s(g367
S'object-0-dy--1'
p669
g370
g371
tp670
F-5.298397296618729
s(S'object-1-x-90.0'
p671
S'object-0-dy-1'
p672
(S'diff-y-pos--1'
p673
I1
tp674
S'action-4'
p675
tp676
F-5.1216775318570145
s(S'object-0-y-10.0'
p677
S'object-1-dy-1'
p678
(S'diff-x-pos-1'
p679
I1
tp680
S'action-1'
p681
tp682
F10.25654624719507
s(S'object-1-x-120.0'
p683
S'object-0-dx--1'
p684
(S'diff-x-pos--1'
p685
I1
tp686
S'action-4'
p687
tp688
F-12.133372286089672
s(g537
S'object-1-dy-1'
p689
(S'diff-x-pos--1'
p690
I1
tp691
g541
tp692
I-1
s(S'object-1-x-80.0'
p693
S'object-1-dx--1'
p694
(S'diff-x-pos-1'
p695
I1
tp696
S'action-1'
p697
tp698
F2.055648225601779
s(S'object-0-x-80.0'
p699
S'object-1-dx-1'
p700
(S'diff-y-pos--1'
p701
I1
tp702
S'action-4'
p703
tp704
F10.83664922488283
s(S'object-1-x-70.0'
p705
S'object-1-dy--1'
p706
(S'diff-x-pos--1'
p707
I1
tp708
S'action-1'
p709
tp710
F4.014674429024695
s(S'object-1-x-120.0'
p711
S'object-0-dy--1'
p712
(S'diff-y-pos--1'
p713
I1
tp714
S'action-3'
p715
tp716
F-25.045870711294775
s(S'object-1-x-90.0'
p717
S'object-0-dy-1'
p718
(S'diff-x-pos-1'
p719
I1
tp720
S'action-4'
p721
tp722
F-6.692417787535851
s(g650
S'object-0-dx-1'
p723
(S'diff-y-pos--1'
p724
I1
tp725
g654
tp726
F-9.56828674119113
s(S'object-1-x-90.0'
p727
S'object-1-dy-1'
p728
(S'diff-x-pos--1'
p729
I1
tp730
S'action-3'
p731
tp732
F0.5720578850741553
s(S'object-0-x-90.0'
p733
S'object-1-dy--1'
p734
(S'diff-x-pos--1'
p735
I1
tp736
S'action-4'
p737
tp738
F-15.530980472414932
s(g456
g543
g510
g460
tp739
F-3.7551146101265687
s(S'object-1-x-110.0'
p740
S'object-0-dx--1'
p741
(S'diff-x-pos-1'
p742
I1
tp743
S'action-3'
p744
tp745
F2.751903199044088
s(S'object-0-x-80.0'
p746
S'object-0-dx-1'
p747
(S'diff-x-pos-1'
p748
I1
tp749
S'action-3'
p750
tp751
F6.845379739454209
s(S'object-0-x-100.0'
p752
S'object-1-dx--1'
p753
(S'diff-y-pos--1'
p754
I1
tp755
S'action-4'
p756
tp757
F12.44299188769278
s(S'object-0-x-10.0'
p758
S'object-0-dy--1'
p759
(S'diff-x-pos--1'
p760
I1
tp761
S'action-4'
p762
tp763
F-12.80741326284128
sS'object-0-y-0.0'
p764
F50.350322837963745
s(S'object-0-y-10.0'
p765
g229
g68
g69
tp766
F8.257696054419192
s(S'object-0-y-0.0'
p767
S'object-1-dx-1'
p768
(S'diff-y-pos--1'
p769
I1
tp770
S'action-4'
p771
tp772
F-8.25467995704281
s(g108
S'object-0-dx-1'
p773
g353
g112
tp774
F1.217706065869736
s(g625
g403
(S'diff-y-pos--1'
p775
I1
tp776
g580
tp777
F-4.080682410526185
s(S'object-1-x-80.0'
p778
S'object-1-dx-1'
p779
(S'diff-x-pos--1'
p780
I1
tp781
S'action-3'
p782
tp783
F-11.170418640639193
s(S'object-1-x-70.0'
p784
S'object-0-dy--1'
p785
(S'diff-y-pos--1'
p786
I1
tp787
S'action-4'
p788
tp789
F-7.417621266275889
s(S'object-0-x-10.0'
p790
S'prev-action-4'
p791
tp792
F-17.08218173133918
s(S'object-1-x-100.0'
p793
S'object-0-dy--1'
p794
(S'diff-y-pos--1'
p795
I1
tp796
S'action-4'
p797
tp798
F9.219483148395485
s(g252
g629
g255
g256
tp799
F-2.6916073676116525
s(g108
S'object-1-dy--1'
p800
g111
g112
tp801
F5.542594310338184
s(S'object-0-y-10.0'
p802
S'object-1-dy--1'
p803
(S'diff-x-pos--1'
p804
I1
tp805
S'action-4'
p806
tp807
F17.865676699144
s(g108
g109
g353
g112
tp808
F7.6098287419476165
s(S'object-0-x-40.0'
p809
S'prev-action-4'
p810
tp811
F28.69521100170924
s(S'object-1-dx-1'
p812
S'prev-action-1'
p813
tp814
F28.27453994951155
s(S'object-1-x-120.0'
p815
S'object-1-dx--1'
p816
(S'diff-x-pos--1'
p817
I1
tp818
S'action-3'
p819
tp820
F-51.731481525149256
s(g537
S'object-0-dy--1'
p821
g540
g541
tp822
I-1
s(S'object-0-x-90.0'
p823
S'object-0-dx--1'
p824
(S'diff-x-pos-1'
p825
I1
tp826
S'action-3'
p827
tp828
F3.726748467129542
s(S'object-1-x-120.0'
p829
S'object-0-dy--1'
p830
(S'diff-x-pos--1'
p831
I1
tp832
S'action-1'
p833
tp834
F-17.499088058762595
s(S'object-0-x-90.0'
p835
S'object-1-dy-1'
p836
(S'diff-y-pos--1'
p837
I1
tp838
S'action-4'
p839
tp840
F9.308312777639916
s(S'object-0-x-30.0'
p841
S'object-1-dy--1'
p842
(S'diff-y-pos--1'
p843
I1
tp844
S'action-4'
p845
tp846
F1.3960734565163904
s(g776
g404
tp847
F6.5917094512076915
s(g258
g589
g261
g262
tp848
F0.7369481103929658
s(S'object-0-x-10.0'
p849
S'object-0-dx-1'
p850
(S'diff-y-pos--1'
p851
I1
tp852
S'action-1'
p853
tp854
F-3.35597632736505
s(S'object-1-y-10.0'
p855
g185
g187
g188
tp856
F4.7963798606524755
s(S'object-0-x-90.0'
p857
S'object-0-dx-1'
p858
(S'diff-x-pos--1'
p859
I1
tp860
S'action-3'
p861
tp862
F-8.460910223795192
s(S'object-1-x-80.0'
p863
S'object-1-dy-1'
p864
(S'diff-x-pos-1'
p865
I1
tp866
S'action-4'
p867
tp868
F2.521363416441339
s(g172
S'object-0-dy--1'
p869
(S'diff-y-pos--1'
p870
I1
tp871
g176
tp872
I-1
sg768
F8.083665581120563
s(g234
g235
(S'diff-y-pos--1'
p873
I1
tp874
g238
tp875
F5.3865097770008665
s(g765
g66
(S'diff-x-pos-1'
p876
I1
tp877
g69
tp878
F12.018988986205297
s(S'object-0-x-110.0'
p879
S'object-1-dy-1'
p880
(S'diff-y-pos--1'
p881
I1
tp882
S'action-1'
p883
tp884
F0.09556576499994418
s(g281
S'prev-action-1'
p885
tp886
F4.332135234734255
s(g619
S'object-0-dx-1'
p887
(S'diff-x-pos--1'
p888
I1
tp889
g623
tp890
F12.090107492904197
s(S'object-0-x-40.0'
p891
g413
(S'diff-y-pos--1'
p892
I1
tp893
g416
tp894
F-11.818576887116384
s(g77
g78
(S'diff-y-pos--1'
p895
I1
tp896
g81
tp897
F-24.073259820793215
s(S'object-0-y-0.0'
p898
S'object-1-dx-1'
p899
(S'diff-x-pos-1'
p900
I1
tp901
S'action-1'
p902
tp903
F-8.123871384167064
s(S'object-0-x-100.0'
p904
S'object-0-dy--1'
p905
(S'diff-x-pos--1'
p906
I1
tp907
S'action-3'
p908
tp909
F2.465152751043071
s(S'object-0-y-10.0'
p910
S'object-1-dy--1'
p911
(S'diff-x-pos-1'
p912
I1
tp913
S'action-4'
p914
tp915
F-8.682654377041583
s(g104
g313
g106
g12
tp916
F1.9510977744539701
s(g264
g210
g212
g213
tp917
F-6.650716551963363
s(g568
S'object-1-dx--1'
p918
g571
g572
tp919
F-3.9985962005094007
s(g130
S'object-0-dx-1'
p920
g133
g134
tp921
F-5.514274427360233
s(g619
S'object-1-dy--1'
p922
g889
g623
tp923
F-8.199103398248273
s(S'object-1-x-110.0'
p924
S'object-1-dx-1'
p925
(S'diff-x-pos-1'
p926
I1
tp927
S'action-4'
p928
tp929
I-8
s(S'object-0-x-40.0'
p930
g198
g200
g201
tp931
F-0.010573044408688226
s(S'object-0-x-130.0'
p932
S'object-1-dy-1'
p933
(S'diff-x-pos-1'
p934
I1
tp935
S'action-1'
p936
tp937
I1
s(g639
S'object-0-dx--1'
p938
(S'diff-y-pos--1'
p939
I1
tp940
g643
tp941
F7.987366742862394
s(S'object-0-y-10.0'
p942
g216
g218
g219
tp943
F15.530117009394376
s(g650
S'object-0-dy--1'
p944
g725
g654
tp945
F2.0362650154784023
s(S'object-0-x-60.0'
p946
S'object-0-dy-1'
p947
(S'diff-x-pos-1'
p948
I1
tp949
S'action-3'
p950
tp951
F-4.104258571081869
s(S'object-1-x-60.0'
p952
S'object-1-dy-1'
p953
(S'diff-x-pos--1'
p954
I1
tp955
S'action-1'
p956
tp957
F20.379844255248706
s(g952
S'object-1-dx-1'
p958
g955
g956
tp959
F-11.32173503635719
s(S'object-1-x-120.0'
p960
S'object-1-dy-1'
p961
(S'diff-y-pos--1'
p962
I1
tp963
S'action-4'
p964
tp965
F0.3081591716886707
s(g650
S'prev-action-3'
p966
tp967
F21.026973566559963
s(g200
g433
tp968
F11.086332698789711
s(S'object-1-x-60.0'
p969
S'object-0-dx--1'
p970
g882
g883
tp971
F19.878583630981797
s(g613
S'object-0-dy--1'
p972
(S'diff-y-pos--1'
p973
I1
tp974
g617
tp975
F0.3502017431139848
s(S'object-0-x-110.0'
p976
S'object-1-dx-1'
p977
(S'diff-y-pos--1'
p978
I1
tp979
S'action-4'
p980
tp981
F-2.065956782931157
s(S'object-0-x-40.0'
p982
S'object-1-dx-1'
p983
(S'diff-x-pos--1'
p984
I1
tp985
S'action-3'
p986
tp987
F10.435453707998693
s(S'object-0-x-120.0'
p988
S'object-0-dy--1'
p989
(S'diff-x-pos-1'
p990
I1
tp991
S'action-1'
p992
tp993
F0.17152864405478097
s(S'object-0-x-30.0'
p994
S'object-0-dx-1'
p995
(S'diff-x-pos--1'
p996
I1
tp997
S'action-4'
p998
tp999
F-20.379682980856362
s(S'object-1-x-90.0'
p1000
S'object-1-dx-1'
p1001
(S'diff-y-pos--1'
p1002
I1
tp1003
S'action-4'
p1004
tp1005
F-2.059591102961738
s(S'object-1-x-100.0'
p1006
g403
g776
g580
tp1007
F-5.429340166513069
s(g930
S'object-1-dy-1'
p1008
(S'diff-x-pos--1'
p1009
I1
tp1010
g201
tp1011
F-4.79754646508124
s(g625
S'object-1-dy--1'
p1012
g776
g580
tp1013
F3.498119812349991
s(g234
S'object-1-dy--1'
p1014
g874
g238
tp1015
F-12.068310170203972
s(S'object-1-x-90.0'
p1016
g533
g535
g63
tp1017
F2.9659628282568917
s(g758
S'object-0-dx-1'
p1018
g761
g762
tp1019
F-11.732113589836613
s(S'object-1-x-110.0'
p1020
S'object-1-dx--1'
p1021
g310
g311
tp1022
F20.60184671409979
s(S'object-0-x-60.0'
p1023
S'object-1-dy-1'
p1024
(S'diff-y-pos--1'
p1025
I1
tp1026
S'action-4'
p1027
tp1028
F6.9191159082346765
s(S'object-0-x-40.0'
p1029
g553
g92
g93
tp1030
F3.4797065871558432
s(g315
S'object-1-dy-1'
p1031
g318
g319
tp1032
F-6.80997225358878
s(S'object-1-y-10.0'
p1033
g265
g267
g213
tp1034
F-23.225346639975836
s(S'object-1-x-70.0'
p1035
S'object-1-dx-1'
p1036
g92
g93
tp1037
F-8.56890972927541
s(g746
g747
(S'diff-y-pos--1'
p1038
I1
tp1039
g750
tp1040
F11.90982669008122
s(S'object-1-x-70.0'
p1041
S'object-1-dy--1'
p1042
(S'diff-x-pos-1'
p1043
I1
tp1044
S'action-3'
p1045
tp1046
F-2.173740672679603
s(S'object-0-x-50.0'
p1047
S'object-1-dy-1'
p1048
(S'diff-y-pos--1'
p1049
I1
tp1050
S'action-4'
p1051
tp1052
F2.8091081890087812
s(S'object-0-x-50.0'
p1053
S'prev-action-3'
p1054
tp1055
F-5.8016664778438924
s(S'object-0-x-110.0'
p1056
g499
tp1057
F-1.8806677229863755
s(g595
S'object-0-dx-1'
p1058
(S'diff-x-pos-1'
p1059
I1
tp1060
g599
tp1061
F-1.7512845150279817
s(g295
S'object-0-dy-1'
p1062
(S'diff-y-pos--1'
p1063
I1
tp1064
g299
tp1065
F-3.0850286997822387
s(g645
S'object-0-dy--1'
p1066
(S'diff-x-pos-1'
p1067
I1
tp1068
S'action-4'
p1069
tp1070
F-3.3665506770595357
s(S'object-1-x-70.0'
p1071
S'object-0-dx-1'
p1072
(S'diff-x-pos-1'
p1073
I1
tp1074
S'action-1'
p1075
tp1076
F4.976115486736991
s(g1047
S'object-0-dy--1'
p1077
(S'diff-x-pos--1'
p1078
I1
tp1079
g1051
tp1080
F7.408703622533171
s(g520
S'object-1-dy-1'
p1081
g523
g524
tp1082
I1
s(g120
S'object-1-dy--1'
p1083
g123
g124
tp1084
F5.790817780253751
s(S'object-1-x-120.0'
p1085
S'prev-action-3'
p1086
tp1087
F49.195902598157794
s(g1047
g1077
g1050
g1051
tp1088
F7.408703622533171
s(g537
g821
g691
g541
tp1089
I-1
s(S'object-0-x-60.0'
p1090
S'object-1-dx--1'
p1091
(S'diff-x-pos-1'
p1092
I1
tp1093
S'action-1'
p1094
tp1095
F10.393315931216291
s(S'object-0-x-80.0'
p1096
S'object-0-dy-1'
p1097
(S'diff-x-pos-1'
p1098
I1
tp1099
S'action-1'
p1100
tp1101
F9.485889985831365
s(S'object-0-x-100.0'
p1102
S'prev-action-4'
p1103
tp1104
F1.5346175635291903
s(S'object-1-y-10.0'
p1105
S'object-0-dy-1'
p1106
g218
g219
tp1107
F1.5768015789604894
s(g295
S'object-0-dx--1'
p1108
g298
g299
tp1109
F-1.0689750310697252
s(S'object-0-y-10.0'
p1110
S'object-1-dx--1'
p1111
g224
g225
tp1112
F-5.036771568381692
s(S'object-1-x-100.0'
p1113
S'object-0-dx--1'
p1114
(S'diff-x-pos-1'
p1115
I1
tp1116
S'action-1'
p1117
tp1118
F2.527647343913713
s(S'object-0-y-0.0'
p1119
S'prev-action-1'
p1120
tp1121
F-0.36711800027686436
s(S'object-0-dx--1'
p1122
g519
tp1123
F0.17517729363623324
s(S'object-1-x-90.0'
p1124
S'object-1-dx-1'
p1125
(S'diff-x-pos--1'
p1126
I1
tp1127
S'action-1'
p1128
tp1129
F2.3735109756961936
s(S'object-1-x-120.0'
p1130
S'object-1-dy-1'
p1131
(S'diff-x-pos--1'
p1132
I1
tp1133
S'action-1'
p1134
tp1135
F-0.23550518972375167
s(S'object-0-x-70.0'
p1136
S'object-0-dx-1'
p1137
(S'diff-x-pos--1'
p1138
I1
tp1139
S'action-4'
p1140
tp1141
F8.875151699854596
s(S'object-0-x-120.0'
p1142
g1114
(S'diff-y-pos--1'
p1143
I1
tp1144
g1117
tp1145
F-6.388681076564955
s(g373
g374
(S'diff-y-pos--1'
p1146
I1
tp1147
g377
tp1148
F5.955553376922525
s(g656
g533
g62
g63
tp1149
F11.312655114695358
s(S'object-1-x-100.0'
p1150
S'object-1-dy-1'
p1151
(S'diff-x-pos--1'
p1152
I1
tp1153
S'action-1'
p1154
tp1155
F-8.285981008486004
s(S'object-1-x-110.0'
p1156
S'object-1-dx--1'
p1157
(S'diff-x-pos-1'
p1158
I1
tp1159
S'action-1'
p1160
tp1161
F14.841124146465903
s(S'object-0-x-30.0'
p1162
S'object-0-dy-1'
p1163
(S'diff-y-pos--1'
p1164
I1
tp1165
S'action-1'
p1166
tp1167
F-6.1552635563586175
s(g435
g436
(S'diff-x-pos--1'
p1168
I1
tp1169
g439
tp1170
F-7.725280893142027
s(g532
g387
g535
g63
tp1171
F14.431122608938704
s(g1048
S'prev-action-1'
p1172
tp1173
F-7.0382774375905495
s(S'object-0-x-10.0'
p1174
S'object-0-dy-1'
p1175
(S'diff-y-pos--1'
p1176
I1
tp1177
S'action-4'
p1178
tp1179
F1.4243158468997978
s(S'object-0-x-0.0'
p1180
S'object-1-dx-1'
p1181
(S'diff-y-pos--1'
p1182
I1
tp1183
S'action-1'
p1184
tp1185
I-4
s(S'object-0-x-110.0'
p1186
g457
g459
g460
tp1187
F-16.705631183043348
s(g281
S'object-0-dy-1'
p1188
g284
g285
tp1189
I3
s(S'object-0-x-90.0'
p1190
S'object-1-dx--1'
p1191
(S'diff-y-pos--1'
p1192
I1
tp1193
S'action-4'
p1194
tp1195
F-4.636019423008678
s(S'object-0-x-50.0'
p1196
S'object-1-dy--1'
p1197
(S'diff-y-pos--1'
p1198
I1
tp1199
S'action-1'
p1200
tp1201
F8.091667263979966
s(S'object-0-x-110.0'
p1202
S'object-0-dy--1'
p1203
(S'diff-y-pos--1'
p1204
I1
tp1205
S'action-1'
p1206
tp1207
F0.6057342130162298
s(g1020
g308
g310
g311
tp1208
F11.73620665286272
s(g784
S'object-1-dy--1'
p1209
g787
g788
tp1210
F23.535131407504718
s(S'object-1-y-10.0'
p1211
g899
g901
g902
tp1212
F-6.716715639833522
s(g727
S'object-0-dx-1'
p1213
g730
g731
tp1214
F-6.566276364718345
s(S'object-1-y-10.0'
p1215
g1036
g555
g93
tp1216
F-3.116194851234044
s(S'object-0-x-120.0'
p1217
S'object-0-dx-1'
p1218
(S'diff-y-pos--1'
p1219
I1
tp1220
S'action-3'
p1221
tp1222
F10.066755259295562
s(S'object-1-y-10.0'
p1223
g810
tp1224
F74.82290015014235
s(g287
S'object-1-dx--1'
p1225
g143
g144
tp1226
F2.5741850718315327
s(g334
S'object-1-dx-1'
p1227
g304
g305
tp1228
F-0.6819241143442647
s(S'object-0-x-50.0'
p1229
g773
g111
g112
tp1230
F-14.717794813173466
s(S'object-1-x-90.0'
p1231
S'object-0-dy-1'
p1232
(S'diff-x-pos--1'
p1233
I1
tp1234
S'action-3'
p1235
tp1236
F-19.25052346737343
s(S'object-0-x-80.0'
p1237
S'object-0-dy-1'
p1238
g149
g150
tp1239
F3.2169632443928524
s(g683
S'object-1-dy--1'
p1240
g686
g687
tp1241
F-3.6652080832042557
s(S'object-0-y-0.0'
p1242
S'object-1-dy-1'
p1243
(S'diff-x-pos--1'
p1244
I1
tp1245
g134
tp1246
F-2.3579605198289713
sg776
F33.185803808097006
s(S'object-0-x-100.0'
p1247
S'object-0-dx--1'
p1248
(S'diff-x-pos--1'
p1249
I1
tp1250
S'action-3'
p1251
tp1252
F-18.09377607570334
s(g59
g385
g535
g63
tp1253
F23.13845954700646
s(S'object-0-x-80.0'
p1254
S'object-1-dx-1'
p1255
(S'diff-y-pos--1'
p1256
I1
tp1257
g1075
tp1258
F3.6132835090594986
s(g746
S'object-1-dy--1'
p1259
g749
g750
tp1260
F-3.1379004176349787
s(g1215
g553
g555
g93
tp1261
F5.952710161233334
s(g397
S'object-0-dx--1'
p1262
g400
g401
tp1263
F-12.306255036460122
s(S'object-1-x-110.0'
p1264
S'object-1-dy-1'
p1265
(S'diff-x-pos-1'
p1266
I1
tp1267
S'action-4'
p1268
tp1269
I-2
s(S'object-1-x-90.0'
p1270
S'object-0-dx--1'
p1271
(S'diff-x-pos-1'
p1272
I1
tp1273
S'action-3'
p1274
tp1275
F3.3892256231486977
s(g426
g1008
g1010
g201
tp1276
F-6.567127687492068
s(S'object-0-x-100.0'
p1277
S'object-0-dy-1'
p1278
(S'diff-x-pos--1'
p1279
I1
tp1280
S'action-3'
p1281
tp1282
F-5.934756992437314
s(S'object-0-x-110.0'
p1283
g712
(S'diff-x-pos--1'
p1284
I1
tp1285
g715
tp1286
F15.93243962863923
s(S'object-0-y-10.0'
p1287
g1262
(S'diff-x-pos--1'
p1288
I1
tp1289
g401
tp1290
F18.02811097790767
s(g361
S'object-0-dx-1'
p1291
(S'diff-x-pos-1'
p1292
I1
tp1293
g365
tp1294
F0.16552436917142277
s(S'object-1-x-90.0'
p1295
S'object-0-dy-1'
p1296
(S'diff-x-pos-1'
p1297
I1
tp1298
S'action-3'
p1299
tp1300
F6.489663154342566
s(S'object-1-x-60.0'
p1301
S'object-0-dy--1'
p1302
(S'diff-x-pos--1'
p1303
I1
tp1304
S'action-1'
p1305
tp1306
F15.839210530879413
s(S'object-0-x-90.0'
p1307
S'object-0-dy-1'
p1308
(S'diff-y-pos--1'
p1309
I1
tp1310
S'action-1'
p1311
tp1312
F-4.734140637909366
s(S'object-0-x-120.0'
p1313
S'object-0-dy-1'
p1314
(S'diff-x-pos-1'
p1315
I1
tp1316
S'action-4'
p1317
tp1318
F-0.8437875119583169
s(S'object-0-x-100.0'
p1319
S'object-1-dy--1'
p1320
(S'diff-x-pos--1'
p1321
I1
tp1322
S'action-4'
p1323
tp1324
F17.38035817956027
s(g857
S'object-1-dy--1'
p1325
g860
g861
tp1326
F9.251781963233306
s(g35
S'object-0-dx-1'
p1327
g38
g39
tp1328
F13.619180144776902
s(g1217
S'object-0-dy--1'
p1329
(S'diff-x-pos-1'
p1330
I1
tp1331
g1221
tp1332
F10.122197805400262
s(S'object-0-x-70.0'
p1333
g185
g187
g188
tp1334
F-9.241287212189278
s(g705
S'object-0-dx-1'
p1335
(S'diff-y-pos--1'
p1336
I1
tp1337
g709
tp1338
F7.785706125255433
s(g565
S'object-0-dy--1'
p1339
g21
g18
tp1340
F4.44542452275675
s(S'object-0-x-130.0'
p1341
S'object-0-dx--1'
p1342
(S'diff-x-pos-1'
p1343
I1
tp1344
S'action-1'
p1345
tp1346
I-1
s(g269
S'object-0-dy--1'
p1347
g272
g273
tp1348
F23.077883762640095
s(g879
g970
(S'diff-x-pos-1'
p1349
I1
tp1350
g883
tp1351
F-20.556600954326708
s(S'object-1-x-100.0'
p1352
S'object-0-dy--1'
p1353
(S'diff-y-pos--1'
p1354
I1
tp1355
S'action-3'
p1356
tp1357
F-28.709565711686228
s(g215
g1106
g517
g219
tp1358
F-8.243893917898989
s(S'object-0-x-110.0'
p1359
S'object-0-dy-1'
p1360
(S'diff-x-pos--1'
p1361
I1
tp1362
S'action-3'
p1363
tp1364
F4.559930963936097
s(S'object-1-x-100.0'
p1365
S'object-0-dx-1'
p1366
(S'diff-x-pos-1'
p1367
I1
tp1368
S'action-4'
p1369
tp1370
F10.818412767044945
s(S'object-0-x-80.0'
p1371
S'object-1-dy-1'
p1372
(S'diff-y-pos--1'
p1373
I1
tp1374
S'action-1'
p1375
tp1376
F8.044681637557408
s(g607
S'object-0-dx--1'
p1377
(S'diff-x-pos--1'
p1378
I1
tp1379
g611
tp1380
F-10.18796674826278
s(g209
S'object-1-dx-1'
p1381
g212
g213
tp1382
F-15.838110246692047
s(S'object-0-x-110.0'
p1383
S'object-1-dy-1'
p1384
(S'diff-x-pos--1'
p1385
I1
tp1386
S'action-3'
p1387
tp1388
F-5.041928167313957
s(g613
S'object-1-dy--1'
p1389
g974
g617
tp1390
F-0.6497982568860152
s(S'object-0-y-0.0'
p1391
S'object-0-dy-1'
p1392
(S'diff-x-pos-1'
p1393
I1
tp1394
S'action-3'
p1395
tp1396
F-2.118754911448529
s(g397
g398
g1289
g401
tp1397
F-18.494068432364998
s(g924
S'object-0-dy--1'
p1398
g927
g928
tp1399
F-10.940024865140948
s(g503
S'object-0-dx-1'
p1400
(S'diff-y-pos--1'
p1401
I1
tp1402
g507
tp1403
F-1.3321831788027907
s(g231
g3
g5
g6
tp1404
F-2.774350151285615
s(g231
S'object-1-dx--1'
p1405
g128
g6
tp1406
F-7.768582028904611
s(g269
S'object-1-dy-1'
p1407
(S'diff-x-pos--1'
p1408
I1
tp1409
g273
tp1410
F9.294689200346966
s(S'object-0-x-70.0'
p1411
S'prev-action-1'
p1412
tp1413
F-7.0143708223952
s(g607
S'prev-action-3'
p1414
tp1415
F11.430417944985548
s(S'object-0-y-10.0'
p1416
S'object-1-dy-1'
p1417
(S'diff-x-pos--1'
p1418
I1
tp1419
S'action-4'
p1420
tp1421
F19.177654803196454
s(S'object-0-y-0.0'
p1422
g970
g882
g883
tp1423
F-29.62706193650036
s(S'object-0-x-90.0'
p1424
S'object-0-dy-1'
p1425
(S'diff-x-pos--1'
p1426
I1
tp1427
S'action-3'
p1428
tp1429
F-1.4860344211235317
s(g373
S'object-0-dx--1'
p1430
g376
g377
tp1431
F24.476831876790467
s(g418
g138
(S'diff-y-pos--1'
p1432
I1
tp1433
g27
tp1434
F4.975806141048391
s(S'object-0-x-30.0'
p1435
S'object-1-dy-1'
p1436
(S'diff-x-pos--1'
p1437
I1
tp1438
S'action-3'
p1439
tp1440
F13.299764986651255
s(S'object-0-x-70.0'
p1441
S'object-0-dy--1'
p1442
(S'diff-x-pos--1'
p1443
I1
tp1444
S'action-4'
p1445
tp1446
F11.586401704231927
s(S'object-0-x-60.0'
p1447
S'prev-action-1'
p1448
tp1449
F8.945335207317086
s(S'object-0-x-0.0'
p1450
S'object-1-dy--1'
p1451
(S'diff-y-pos--1'
p1452
I1
tp1453
S'action-4'
p1454
tp1455
F-0.5178976837658581
s(g321
S'object-1-dx--1'
p1456
(S'diff-x-pos--1'
p1457
I1
tp1458
g325
tp1459
F7.200808684694209
s(S'object-1-x-100.0'
p1460
S'object-0-dx--1'
p1461
(S'diff-y-pos--1'
p1462
I1
tp1463
S'action-4'
p1464
tp1465
F15.266084480661561
s(g140
g1225
g143
g144
tp1466
F-0.6240174713334987
s(g1460
S'object-0-dy-1'
p1467
(S'diff-x-pos--1'
p1468
I1
tp1469
g1464
tp1470
F14.081440051813289
s(g717
S'object-1-dx-1'
p1471
g720
g721
tp1472
F1.2734666731126252
s(S'object-0-y-0.0'
p1473
g457
g510
g460
tp1474
F4.392200845451185
s(S'object-1-x-100.0'
p1475
S'object-1-dx--1'
p1476
(S'diff-y-pos--1'
p1477
I1
tp1478
S'action-4'
p1479
tp1480
F1.5224115787727523
s(S'object-1-x-80.0'
p1481
S'object-1-dy-1'
p1482
(S'diff-x-pos-1'
p1483
I1
tp1484
S'action-3'
p1485
tp1486
F8.101087750976845
s(g857
S'object-0-dy--1'
p1487
g860
g861
tp1488
F6.9378300701211195
s(S'object-1-y-10.0'
p1489
g970
g882
g883
tp1490
F4.931166050801615
s(S'object-0-x-130.0'
p1491
S'object-1-dy-1'
p1492
(S'diff-x-pos-1'
p1493
I1
tp1494
S'action-4'
p1495
tp1496
I-1
s(g373
g1430
g1147
g377
tp1497
F20.53680701164955
s(S'object-0-x-120.0'
p1498
S'object-1-dx--1'
p1499
(S'diff-x-pos--1'
p1500
I1
tp1501
S'action-1'
p1502
tp1503
I-1
s(S'object-1-x-80.0'
p1504
g1238
g149
g150
tp1505
F-6.988889034563575
s(g1270
S'object-1-dy-1'
p1506
g1273
g1274
tp1507
F0.1275617376545224
s(S'object-0-x-60.0'
p1508
S'object-1-dy--1'
p1509
(S'diff-x-pos--1'
p1510
I1
tp1511
S'action-3'
p1512
tp1513
F7.345290065067391
s(g577
g403
g776
g580
tp1514
F-5.979911905484252
s(S'object-1-x-80.0'
p1515
S'object-1-dy-1'
p1516
(S'diff-y-pos--1'
p1517
I1
tp1518
S'action-4'
p1519
tp1520
F6.084253395182516
s(g645
g1066
(S'diff-y-pos--1'
p1521
I1
tp1522
g1069
tp1523
F-3.3665506770595357
s(S'object-0-x-70.0'
p1524
S'object-0-dy-1'
p1525
g913
g914
tp1526
F1.7151671095151073
s(g315
S'prev-action-1'
p1527
tp1528
F45.72712645918779
s(g1124
g1125
(S'diff-y-pos--1'
p1529
I1
tp1530
g1128
tp1531
F4.324608750150166
s(S'object-0-x-10.0'
p1532
S'object-1-dy-1'
p1533
(S'diff-x-pos--1'
p1534
I1
tp1535
S'action-1'
p1536
tp1537
F-10.19670564815359
s(g863
S'object-0-dx-1'
p1538
g866
g867
tp1539
F3.4487357191333654
s(S'object-1-x-100.0'
p1540
S'object-1-dx-1'
p1541
(S'diff-y-pos--1'
p1542
I1
tp1543
S'action-1'
p1544
tp1545
F-3.619286727862125
s(g426
S'object-1-dx--1'
p1546
g1010
g201
tp1547
F10.31361821901353
s(g790
S'object-0-dx-1'
p1548
(S'diff-x-pos--1'
p1549
I1
tp1550
S'action-3'
p1551
tp1552
F-12.415588945674513
s(g1481
S'object-0-dy-1'
p1553
g1484
g1485
tp1554
F-8.543390806405933
s(S'object-1-x-110.0'
p1555
S'prev-action-4'
p1556
tp1557
F-14.25250423061794
s(S'object-1-x-70.0'
p1558
g413
g415
g416
tp1559
F5.360957207099613
s(S'object-0-x-110.0'
p1560
S'object-1-dx--1'
p1561
(S'diff-x-pos-1'
p1562
I1
tp1563
S'action-3'
p1564
tp1565
F-6.052745170899078
s(S'object-1-x-100.0'
p1566
S'object-1-dy--1'
p1567
g991
g992
tp1568
F-10.779890918551798
s(S'object-0-x-50.0'
p1569
g1243
g133
g134
tp1570
F-3.5456681541360355
s(g1174
S'object-1-dy--1'
p1571
g1177
g1178
tp1572
F-0.3460985634103572
s(g1237
S'object-1-dx--1'
p1573
g149
g150
tp1574
F0.24333164533682172
s(S'object-1-y-10.0'
p1575
g1008
g200
g201
tp1576
F4.661562463568327
s(g1202
S'object-1-dx--1'
p1577
(S'diff-x-pos-1'
p1578
I1
tp1579
g1206
tp1580
F-11.270599244441533
s(g942
S'object-1-dy--1'
p1581
g517
g219
tp1582
F-2.419156364277634
s(g976
S'prev-action-3'
p1583
tp1584
F-1.7295729505354869
s(g1569
g131
g1245
g134
tp1585
F3.527025105834576
s(g765
g229
g877
g69
tp1586
F5.676605606944917
s(S'object-0-x-100.0'
p1587
S'object-0-dx--1'
p1588
g720
g721
tp1589
F7.6046457949658635
s(g468
S'object-1-dx--1'
p1590
g471
g472
tp1591
F-23.699720414801664
s(g537
g689
g540
g541
tp1592
I-1
s(g1301
S'object-0-dx--1'
p1593
g1304
g1305
tp1594
F10.034793207351816
s(S'object-0-x-120.0'
p1595
S'object-1-dy--1'
p1596
g1368
g1369
tp1597
F0.9999454244661479
s(g474
S'object-1-dx--1'
p1598
g477
g478
tp1599
F-6.6574687432363415
s(g1006
g1012
g776
g580
tp1600
F2.346624512671146
s(S'object-0-x-60.0'
p1601
S'object-0-dy-1'
p1602
(S'diff-y-pos--1'
p1603
I1
tp1604
S'action-4'
p1605
tp1606
F-5.055251238787567
s(g1174
S'object-0-dx--1'
p1607
g1177
g1178
tp1608
F0.3490161738951265
s(S'object-1-x-100.0'
p1609
S'object-0-dx--1'
p1610
(S'diff-x-pos--1'
p1611
I1
tp1612
S'action-3'
p1613
tp1614
F7.918547726985903
s(g910
S'object-1-dx--1'
p1615
(S'diff-y-pos--1'
p1616
I1
tp1617
g914
tp1618
F12.131037273866419
s(S'object-1-x-100.0'
p1619
S'object-0-dx--1'
p1620
(S'diff-x-pos-1'
p1621
I1
tp1622
S'action-4'
p1623
tp1624
F-4.277023041415608
s(g120
S'object-0-dx--1'
p1625
(S'diff-y-pos--1'
p1626
I1
tp1627
g124
tp1628
F-0.6584347381832996
s(S'object-0-x-70.0'
p1629
g593
g1289
g401
tp1630
F1.364291605121415
s(g1000
S'object-1-dy--1'
p1631
(S'diff-x-pos--1'
p1632
I1
tp1633
g1004
tp1634
F13.547688130431244
s(g1242
g1243
g133
g134
tp1635
F-7.707033197630138
s(S'object-1-x-110.0'
p1636
S'object-1-dy-1'
p1637
(S'diff-y-pos--1'
p1638
I1
tp1639
S'action-3'
p1640
tp1641
F-13.283715691093736
s(g1587
g1588
(S'diff-y-pos--1'
p1642
I1
tp1643
g721
tp1644
F17.516438021368632
s(g172
S'object-1-dx--1'
p1645
g175
g176
tp1646
I-1
s(g8
g313
g11
g12
tp1647
F3.227776208334651
s(S'object-0-x-0.0'
p1648
S'object-0-dy-1'
p1649
(S'diff-y-pos--1'
p1650
I1
tp1651
S'action-4'
p1652
tp1653
I2
s(g1307
S'object-1-dy-1'
p1654
(S'diff-x-pos--1'
p1655
I1
tp1656
g1311
tp1657
F-0.5036158932575381
s(S'object-0-x-10.0'
p1658
S'object-1-dx--1'
p1659
(S'diff-x-pos--1'
p1660
I1
tp1661
S'action-3'
p1662
tp1663
F-8.277374953736123
s(g1450
S'object-0-dx--1'
p1664
g1453
g1454
tp1665
F-4.61155532160434
s(g1575
g198
g1010
g201
tp1666
F7.144747514595981
s(S'object-1-x-70.0'
p1667
S'object-1-dy-1'
p1668
(S'diff-x-pos-1'
p1669
I1
tp1670
S'action-1'
p1671
tp1672
F9.27328907737664
s(g1190
S'object-0-dy--1'
p1673
(S'diff-x-pos-1'
p1674
I1
tp1675
g1194
tp1676
F1.1070766883438328
s(g1313
g1314
(S'diff-y-pos--1'
p1677
I1
tp1678
g1317
tp1679
F-0.8437875119583169
s(g1180
S'object-1-dy--1'
p1680
g1183
g1184
tp1681
F-9.667864765265744
s(S'object-1-x-80.0'
p1682
S'object-0-dx--1'
p1683
(S'diff-x-pos-1'
p1684
I1
tp1685
S'action-1'
p1686
tp1687
F2.7642344488357047
s(g645
S'object-0-dx-1'
p1688
g1522
g1069
tp1689
F-2.3665506770595357
s(g307
g1021
g310
g311
tp1690
F-21.46281540579779
s(g1619
S'object-0-dy--1'
p1691
g1622
g1623
tp1692
F16.541389725629344
s(S'object-0-y-10.0'
p1693
S'object-0-dx-1'
p1694
(S'diff-x-pos-1'
p1695
I1
tp1696
S'action-3'
p1697
tp1698
F-12.906490173443313
s(g355
S'object-0-dy--1'
p1699
g358
g359
tp1700
F5.724342642390468
s(g930
g433
tp1701
F-11.033115213985253
s(g768
S'prev-action-4'
p1702
tp1703
F15.091827005694952
s(g537
g538
g691
g541
tp1704
I-1
s(S'object-0-x-10.0'
p1705
S'object-0-dy-1'
p1706
(S'diff-y-pos--1'
p1707
I1
tp1708
S'action-3'
p1709
tp1710
F-7.979436157283498
s(g152
g153
g514
g156
tp1711
I0
s(S'object-0-x-100.0'
p1712
S'object-0-dy--1'
p1713
(S'diff-x-pos--1'
p1714
I1
tp1715
S'action-4'
p1716
tp1717
F6.994137927890105
s(S'object-0-x-30.0'
p1718
S'object-0-dx-1'
p1719
(S'diff-x-pos--1'
p1720
I1
tp1721
S'action-3'
p1722
tp1723
F-3.3248538433785813
s(S'object-0-x-90.0'
p1724
S'object-1-dx--1'
p1725
(S'diff-y-pos--1'
p1726
I1
tp1727
S'action-3'
p1728
tp1729
F11.486085266154113
s(g559
S'prev-action-1'
p1730
tp1731
F-3.2068892772537225
s(g65
g66
g877
g69
tp1732
F10.311040014041362
s(g1575
g1546
g200
g201
tp1733
F0.8561529532657648
s(S'object-0-x-100.0'
p1734
S'object-0-dx--1'
p1735
(S'diff-x-pos--1'
p1736
I1
tp1737
S'action-4'
p1738
tp1739
F9.911792226402776
s(S'object-0-x-0.0'
p1740
S'object-0-dx-1'
p1741
(S'diff-y-pos--1'
p1742
I1
tp1743
S'action-1'
p1744
tp1745
I3
s(g1174
S'object-1-dx-1'
p1746
g1177
g1178
tp1747
F7.764327327181679
s(S'object-1-x-90.0'
p1748
g48
(S'diff-x-pos-1'
p1749
I1
tp1750
g51
tp1751
F2.130363620643033
s(g1000
S'object-0-dx--1'
p1752
g1003
g1004
tp1753
F13.441083789340036
s(S'object-0-x-30.0'
p1754
S'object-0-dy--1'
p1755
(S'diff-x-pos--1'
p1756
I1
tp1757
S'action-4'
p1758
tp1759
F-15.331944235818192
s(g559
S'object-1-dy-1'
p1760
(S'diff-y-pos--1'
p1761
I1
tp1762
g563
tp1763
F-3.030433104721711
s(S'object-1-x-90.0'
p1764
S'object-0-dx-1'
p1765
(S'diff-x-pos-1'
p1766
I1
tp1767
S'action-1'
p1768
tp1769
F9.325779877034929
s(g412
S'object-0-dx--1'
p1770
g415
g416
tp1771
F-12.103073909431615
s(g379
S'object-1-dx--1'
p1772
g382
g383
tp1773
F1.9448680621954209
s(g1196
g1197
(S'diff-x-pos--1'
p1774
I1
tp1775
g1200
tp1776
F8.091667263979966
s(g361
S'object-1-dy--1'
p1777
g1293
g365
tp1778
F10.564785671139102
s(g71
g72
(S'diff-x-pos-1'
p1779
I1
tp1780
g75
tp1781
F-1.5565361093206773
s(S'object-0-x-20.0'
p1782
S'object-1-dy--1'
p1783
(S'diff-x-pos--1'
p1784
I1
tp1785
S'action-3'
p1786
tp1787
F-6.529438618494804
s(S'object-0-x-60.0'
p1788
S'object-1-dx-1'
p1789
(S'diff-y-pos--1'
p1790
I1
tp1791
S'action-4'
p1792
tp1793
F26.6582406696225
s(S'object-1-y-20.0'
p1794
S'prev-action-3'
p1795
tp1796
I-2
s(g275
S'object-0-dy-1'
p1797
(S'diff-y-pos--1'
p1798
I1
tp1799
g279
tp1800
F-4.199284389575206
s(g942
g1581
g218
g219
tp1801
F-0.2756907023092392
s(S'object-1-x-60.0'
p1802
g340
g342
g343
tp1803
F-2.57750563178415
s(g1006
g588
g579
g580
tp1804
F19.734524360937993
s(S'object-0-x-110.0'
p1805
S'object-0-dy--1'
p1806
g686
g687
tp1807
F2.479731495285136
s(g633
S'object-1-dx--1'
p1808
(S'diff-x-pos-1'
p1809
I1
tp1810
g637
tp1811
F12.758657516729603
s(S'object-1-x-100.0'
p1812
S'object-1-dy-1'
p1813
(S'diff-y-pos--1'
p1814
I1
tp1815
S'action-3'
p1816
tp1817
F-11.773727365490092
s(S'object-0-x-30.0'
p1818
S'object-1-dx-1'
p1819
(S'diff-y-pos--1'
p1820
I1
tp1821
S'action-1'
p1822
tp1823
F-0.4607933350368798
s(g1190
S'prev-action-4'
p1824
tp1825
F5.320650827573764
s(S'object-0-x-0.0'
p1826
S'object-1-dy-1'
p1827
(S'diff-y-pos--1'
p1828
I1
tp1829
S'action-1'
p1830
tp1831
I3
s(g1524
g1525
g1617
g914
tp1832
F5.5870507165664165
s(S'object-0-x-110.0'
p1833
S'object-0-dy-1'
p1834
(S'diff-x-pos--1'
p1835
I1
tp1836
S'action-4'
p1837
tp1838
F2.570150276619552
s(g677
g678
(S'diff-y-pos--1'
p1839
I1
tp1840
g681
tp1841
F28.242395026545907
s(g130
g920
g1245
g134
tp1842
F4.850236166396797
s(g1174
g1607
(S'diff-x-pos--1'
p1843
I1
tp1844
g1178
tp1845
F0.3490161738951265
s(g976
g977
(S'diff-x-pos-1'
p1846
I1
tp1847
g980
tp1848
F-11.53822745212501
s(g1190
g1191
g1675
g1194
tp1849
F0.21784534449395787
s(S'object-1-x-110.0'
p1850
S'object-0-dx-1'
p1851
(S'diff-x-pos-1'
p1852
I1
tp1853
S'action-1'
p1854
tp1855
F7.768065249696107
s(g197
g1008
g200
g201
tp1856
F-17.742048475301104
s(S'object-0-x-70.0'
p1857
g768
(S'diff-x-pos-1'
p1858
I1
tp1859
g771
tp1860
F0.0594489203669859
s(S'object-0-y-0.0'
p1861
S'object-0-dy--1'
p1862
g477
g478
tp1863
F3.89556220561154
s(g1734
S'object-0-dy-1'
p1864
g1737
g1738
tp1865
F1.5851871208325186
s(g130
S'object-1-dx--1'
p1866
g1245
g134
tp1867
F-16.8447474969087
s(S'object-0-x-110.0'
p1868
S'prev-action-1'
p1869
tp1870
F46.740211872764185
s(g420
g421
g482
g424
tp1871
F-5.760877784190788
s(g1277
S'object-1-dx--1'
p1872
g1280
g1281
tp1873
F3.750745006904029
s(g418
S'object-0-dy--1'
p1874
g1433
g27
tp1875
F12.498416092667508
s(g1287
g593
g1289
g401
tp1876
F17.98584877935083
s(g639
g938
g642
g643
tp1877
F9.91430784609261
s(g367
S'object-0-dx-1'
p1878
g370
g371
tp1879
F-10.364510593757034
s(g295
S'object-1-dx--1'
p1880
g1064
g299
tp1881
F-13.863050585237358
s(g1035
g90
g555
g93
tp1882
F2.881679782018336
s(g790
g1548
(S'diff-y-pos--1'
p1883
I1
tp1884
g1551
tp1885
F-12.415588945674513
s(g178
S'object-0-dx-1'
p1886
g181
g182
tp1887
F6.774494811922688
s(g841
S'object-1-dx--1'
p1888
(S'diff-x-pos--1'
p1889
I1
tp1890
g845
tp1891
F9.062760054299552
s(g568
S'object-0-dx--1'
p1892
g571
g572
tp1893
F0.9660521497434291
s(S'object-1-x-110.0'
p1894
S'object-0-dy--1'
p1895
(S'diff-y-pos--1'
p1896
I1
tp1897
S'action-1'
p1898
tp1899
F6.59024831671653
s(g1186
g543
g459
g460
tp1900
F-3.1720863793982748
s(S'object-1-x-100.0'
p1901
S'object-0-dy-1'
p1902
(S'diff-x-pos--1'
p1903
I1
tp1904
S'action-1'
p1905
tp1906
F12.678392248989095
s(g733
S'object-0-dy-1'
p1907
g736
g737
tp1908
F-0.5753489507990972
s(S'object-1-x-110.0'
p1909
S'object-0-dx-1'
p1910
(S'diff-x-pos--1'
p1911
I1
tp1912
g466
tp1913
F-7.578936405434527
s(S'object-0-x-90.0'
p1914
S'prev-action-3'
p1915
tp1916
F10.16819422560209
s(S'object-1-y-10.0'
p1917
g403
g776
g580
tp1918
F-0.3077386315215387
sg231
F28.414073519057254
s(g1569
g1243
g1245
g134
tp1919
F-3.5456681541360355
s(g29
S'object-0-dy--1'
p1920
g32
g33
tp1921
F-7.424218008919731
s(S'object-1-x-60.0'
p1922
g1598
g477
g478
tp1923
F-21.026374937596678
s(S'object-1-x-110.0'
p1924
S'object-1-dx-1'
p1925
(S'diff-x-pos-1'
p1926
I1
tp1927
S'action-3'
p1928
tp1929
F-0.2147574158204577
s(g234
S'object-1-dx-1'
p1930
g874
g238
tp1931
F1.2482957850624743
s(S'object-0-x-60.0'
p1932
S'object-1-dx-1'
p1933
(S'diff-x-pos-1'
p1934
I1
tp1935
S'action-3'
p1936
tp1937
F3.493808422454029
s(g1006
g588
g776
g580
tp1938
F-3.965196053863685
s(g108
g773
g111
g112
tp1939
F-1.048271804789625
s(S'object-0-x-100.0'
p1940
S'object-0-dy-1'
p1941
(S'diff-y-pos--1'
p1942
I1
tp1943
S'action-3'
p1944
tp1945
F-21.934756992437315
s(S'object-1-y-10.0'
p1946
g408
g26
g27
tp1947
F-1.8673001807278755
s(S'object-0-x-120.0'
p1948
S'object-0-dy-1'
p1949
(S'diff-y-pos--1'
p1950
I1
tp1951
S'action-3'
p1952
tp1953
F3.9445574538952997
s(g418
g408
g26
g27
tp1954
F3.2997725864406764
s(S'object-0-x-60.0'
p1955
S'object-0-dy-1'
p1956
(S'diff-x-pos-1'
p1957
I1
tp1958
S'action-4'
p1959
tp1960
F-10.781497378275503
s(g1861
S'object-1-dy--1'
p1961
g477
g478
tp1962
F2.626794285458794
s(g1435
g1436
(S'diff-y-pos--1'
p1963
I1
tp1964
g1439
tp1965
F13.299764986651255
s(g89
g1036
g92
g93
tp1966
F-20.373345444784235
s(S'object-0-x-120.0'
p1967
S'object-1-dy-1'
p1968
(S'diff-x-pos-1'
p1969
I1
tp1970
S'action-3'
p1971
tp1972
I-1
s(S'object-1-x-110.0'
p1973
S'object-0-dx--1'
p1974
(S'diff-y-pos--1'
p1975
I1
tp1976
S'action-3'
p1977
tp1978
F-25.05771192864617
s(g1110
S'object-0-dx--1'
p1979
(S'diff-x-pos-1'
p1980
I1
tp1981
g225
tp1982
F12.614573619629098
s(g746
S'object-0-dy--1'
p1983
g749
g750
tp1984
F9.529241050628958
s(g215
g1106
g218
g219
tp1985
F-5.268586039775135
s(S'object-0-x-60.0'
p1986
S'object-0-dy-1'
p1987
(S'diff-x-pos-1'
p1988
I1
tp1989
S'action-1'
p1990
tp1991
F3.8938202346903106
s(S'object-1-x-90.0'
p1992
S'object-1-dy--1'
p1993
(S'diff-y-pos--1'
p1994
I1
tp1995
S'action-3'
p1996
tp1997
F-4.409290375967569
s(g815
g816
(S'diff-y-pos--1'
p1998
I1
tp1999
g819
tp2000
F-51.731481525149256
s(g1085
g1360
g1362
g1363
tp2001
F-8.349721055811974
s(g41
S'object-1-dy--1'
p2002
g44
g45
tp2003
F20.503188780425365
s(g1411
S'object-0-dy--1'
p2004
(S'diff-y-pos--1'
p2005
I1
tp2006
S'action-4'
p2007
tp2008
F-0.1299442829258619
s(g307
g1021
(S'diff-y-pos--1'
p2009
I1
tp2010
g311
tp2011
F-21.46281540579779
s(S'object-1-x-90.0'
p2012
S'object-0-dy--1'
p2013
(S'diff-x-pos-1'
p2014
I1
tp2015
S'action-4'
p2016
tp2017
F15.533293493717643
s(S'object-0-x-110.0'
p2018
S'object-1-dy--1'
p2019
(S'diff-x-pos-1'
p2020
I1
tp2021
S'action-4'
p2022
tp2023
F6.739204387765455
s(S'object-1-y-10.0'
p2024
g1120
tp2025
F122.88683483018528
s(g301
g1227
g304
g305
tp2026
F1.6047803321773886
s(g645
S'object-1-dy--1'
p2027
g1068
g1069
tp2028
F-2.3665506770595357
s(g942
g1106
g517
g219
tp2029
F25.82323866226825
s(g656
g385
g62
g63
tp2030
F-9.477528516625767
s(g607
S'object-1-dy--1'
p2031
g610
g611
tp2032
F-3.347237427474231
s(S'object-0-x-60.0'
p2033
g706
g708
g709
tp2034
F-3.6051859540313647
s(S'object-1-y-10.0'
p2035
g1243
g133
g134
tp2036
F20.535361828915764
s(S'object-0-y-10.0'
p2037
S'prev-action-3'
p2038
tp2039
F9.746782438622805
s(S'object-1-y-10.0'
p2040
g351
g111
g112
tp2041
F-16.563595796900543
s(g1575
g1546
g1010
g201
tp2042
F-4.967324514202609
s(g904
S'object-1-dy-1'
p2043
g907
g908
tp2044
F-5.099369852734663
s(g1450
S'object-1-dx--1'
p2045
(S'diff-x-pos--1'
p2046
I1
tp2047
g1454
tp2048
F-2.6115553216043397
s(g1724
S'object-0-dx-1'
p2049
(S'diff-x-pos-1'
p2050
I1
tp2051
g1728
tp2052
F-0.766996830705593
s(S'object-0-x-60.0'
p2053
S'object-0-dy-1'
p2054
(S'diff-y-pos--1'
p2055
I1
tp2056
S'action-1'
p2057
tp2058
F-9.196258882856888
s(S'object-1-y-0.0'
p2059
S'prev-action-4'
p2060
tp2061
F-6.093635435040267
s(S'object-1-x-80.0'
p2062
S'object-0-dx--1'
p2063
(S'diff-y-pos--1'
p2064
I1
tp2065
S'action-1'
p2066
tp2067
F-2.205246232584097
s(g1016
g385
g535
g63
tp2068
F-7.355597002256243
s(g355
S'object-1-dx--1'
p2069
g358
g359
tp2070
F4.618213045923371
s(g468
S'object-0-dx--1'
p2071
g471
g472
tp2072
F-11.916310413291786
s(g35
S'object-1-dx-1'
p2073
g431
g39
tp2074
F-3.402130262159032
s(S'object-1-x-80.0'
p2075
S'object-0-dy-1'
p2076
(S'diff-y-pos--1'
p2077
I1
tp2078
S'action-1'
p2079
tp2080
F-7.029552048451189
s(g2033
g706
g1337
g709
tp2081
F9.586935679436266
s(g1948
S'object-0-dx--1'
p2082
g1951
g1952
tp2083
I5
s(g1475
S'object-0-dx-1'
p2084
g1478
g1479
tp2085
F-1.9651612804527936
s(g1812
g1813
(S'diff-x-pos--1'
p2086
I1
tp2087
g1816
tp2088
F6.537536211605719
s(S'object-1-x-90.0'
p2089
S'object-0-dy--1'
p2090
(S'diff-x-pos-1'
p2091
I1
tp2092
S'action-1'
p2093
tp2094
F-5.902588575862108
s(S'object-0-x-40.0'
p2095
S'object-1-dy-1'
p2096
(S'diff-x-pos--1'
p2097
I1
tp2098
S'action-1'
p2099
tp2100
F-16.82602277906229
s(g1033
g210
g212
g213
tp2101
F5.9638570676657086
s(S'object-0-x-130.0'
p2102
S'object-1-dx--1'
p2103
(S'diff-x-pos-1'
p2104
I1
tp2105
S'action-4'
p2106
tp2107
F-1.3665506770595357
s(g625
S'object-0-dy-1'
p2108
g579
g580
tp2109
F-9.302572173695815
s(g209
g551
g267
g213
tp2110
F-0.9206675760614349
s(S'object-0-x-20.0'
p2111
g1430
g376
g377
tp2112
F-18.64367944559512
s(g746
g1259
g1039
g750
tp2113
F-6.638725692288052
s(S'object-1-x-80.0'
p2114
S'object-1-dx-1'
p2115
(S'diff-x-pos-1'
p2116
I1
tp2117
S'action-3'
p2118
tp2119
F-4.553357945496333
s(S'object-1-dy--1'
p2120
g1054
tp2121
F21.307327914266732
s(S'object-0-x-50.0'
p2122
S'object-1-dx-1'
p2123
(S'diff-y-pos--1'
p2124
I1
tp2125
S'action-4'
p2126
tp2127
F2.87359458972338
s(g426
g433
tp2128
F12.296230303440298
s(g532
g385
g535
g63
tp2129
F-9.029384700175463
s(g1558
g1770
g415
g416
tp2130
F-6.989967535515746
s(g41
S'prev-action-4'
p2131
tp2132
F-7.709676805332689
s(g295
g1108
g1064
g299
tp2133
F-14.429347024281979
s(g1047
S'object-1-dx--1'
p2134
g1050
g1051
tp2135
F4.676104612971024
s(S'object-1-x-80.0'
p2136
S'object-0-dy--1'
p2137
(S'diff-x-pos-1'
p2138
I1
tp2139
S'action-4'
p2140
tp2141
F8.66093930904937
s(g1231
g1232
(S'diff-y-pos--1'
p2142
I1
tp2143
g1235
tp2144
F-12.760860313030864
s(g2111
g374
g1147
g377
tp2145
F-3.2455512090717296
s(g613
g614
g974
g617
tp2146
F0.3502017431139848
s(g849
g850
(S'diff-x-pos--1'
p2147
I1
tp2148
g853
tp2149
F-3.35597632736505
s(g577
g1012
g579
g580
tp2150
F-4.940446750246251
s(g891
g1770
g893
g416
tp2151
F-6.629046457456374
s(S'object-0-x-80.0'
p2152
S'object-1-dy--1'
p2153
(S'diff-x-pos-1'
p2154
I1
tp2155
S'action-1'
p2156
tp2157
F14.457113736037545
s(g1217
S'object-1-dx-1'
p2158
g1331
g1221
tp2159
F5.867171966070249
s(g252
g253
g631
g256
tp2160
I-1
s(g1992
S'object-0-dx--1'
p2161
g1995
g1996
tp2162
F2.558253231808858
sg1012
F4.4101403419912835
s(g1718
g1719
(S'diff-y-pos--1'
p2163
I1
tp2164
g1722
tp2165
F-3.3248538433785813
s(S'object-0-x-110.0'
p2166
S'object-0-dy--1'
p2167
(S'diff-x-pos--1'
p2168
I1
tp2169
S'action-1'
p2170
tp2171
F4.6016945264623
s(g231
S'prev-action-4'
p2172
tp2173
F16.14262220330957
s(g823
S'object-0-dy-1'
p2174
(S'diff-y-pos--1'
p2175
I1
tp2176
g827
tp2177
F2.172629961760527
s(S'object-0-y-10.0'
p2178
S'object-1-dx--1'
p2179
(S'diff-x-pos--1'
p2180
I1
tp2181
S'action-4'
p2182
tp2183
F-4.6853563582039435
s(g83
g84
(S'diff-y-pos--1'
p2184
I1
tp2185
g87
tp2186
F21.403610938869427
s(g1475
g1476
(S'diff-x-pos--1'
p2187
I1
tp2188
g1479
tp2189
F-5.132381155320324
s(g711
S'object-0-dx-1'
p2190
g714
g715
tp2191
F5.472079410875871
s(S'object-0-x-70.0'
p2192
g24
g1433
g27
tp2193
F20.750403072196445
s(g595
g627
g1060
g599
tp2194
F-10.88623644431351
s(g1217
g2158
g1220
g1221
tp2195
F5.867171966070249
s(g2192
g138
g1433
g27
tp2196
F-8.124025720419139
s(g568
S'object-0-dy--1'
p2197
g571
g572
tp2198
F-17.374739937882563
s(S'object-0-x-70.0'
p2199
g899
g901
g902
tp2200
F5.094486464056375
s(S'object-0-x-110.0'
p2201
S'object-1-dy-1'
p2202
(S'diff-x-pos--1'
p2203
I1
tp2204
S'action-1'
p2205
tp2206
F1.0884802341180788
s(g420
S'object-1-dx--1'
p2207
g482
g424
tp2208
F-11.455348005512525
s(S'object-0-x-50.0'
p2209
S'object-0-dy-1'
p2210
(S'diff-y-pos--1'
p2211
I1
tp2212
S'action-1'
p2213
tp2214
F1.0189740040093445
s(g1754
g1755
(S'diff-y-pos--1'
p2215
I1
tp2216
g1758
tp2217
F-15.331944235818192
s(g683
g1240
(S'diff-y-pos--1'
p2218
I1
tp2219
g687
tp2220
F-3.6652080832042557
s(S'object-0-x-130.0'
p2221
S'object-1-dy--1'
p2222
(S'diff-y-pos--1'
p2223
I1
tp2224
S'action-3'
p2225
tp2226
I1
s(g683
g1806
g686
g687
tp2227
F5.987986741347621
s(g361
S'prev-action-1'
p2228
tp2229
F-2.9030508042837173
s(g172
g1645
g871
g176
tp2230
I-1
s(g1558
g1770
g893
g416
tp2231
F-8.97844053090956
s(g758
g1018
(S'diff-y-pos--1'
p2232
I1
tp2233
g762
tp2234
F-11.732113589836613
s(g281
g1188
(S'diff-y-pos--1'
p2235
I1
tp2236
g285
tp2237
I3
s(S'object-0-x-80.0'
p2238
S'object-1-dx-1'
p2239
(S'diff-x-pos--1'
p2240
I1
tp2241
S'action-1'
p2242
tp2243
F1.8054064341338574
s(S'object-1-x-80.0'
p2244
S'object-1-dy-1'
p2245
(S'diff-x-pos-1'
p2246
I1
tp2247
S'action-1'
p2248
tp2249
F5.95970256313894
s(g588
g404
tp2250
F-11.795972280091192
s(g426
g427
g1010
g201
tp2251
F5.409820187260338
s(g264
g210
g267
g213
tp2252
F-23.904240471518815
s(g1307
g1308
g1656
g1311
tp2253
F-4.109646941041433
s(g1857
g768
g770
g771
tp2254
F0.5775618885879847
s(g420
S'object-1-dy-1'
p2255
g423
g424
tp2256
F8.230899914736348
s(S'object-1-x-80.0'
p2257
g1054
tp2258
F10.38750350230375
s(g1283
S'object-1-dx-1'
p2259
g1285
g715
tp2260
F9.909749717376052
s(g1047
g1048
g1079
g1051
tp2261
F2.8091081890087812
s(g334
g302
g304
g305
tp2262
F-18.899188311070322
s(g503
g504
g1402
g507
tp2263
F-0.6916073676116525
s(g418
g408
g1433
g27
tp2264
F7.052051148565592
s(g1946
g138
g26
g27
tp2265
F-9.723611711727989
s(g1180
g1680
(S'diff-x-pos--1'
p2266
I1
tp2267
g1184
tp2268
F-9.667864765265744
s(g231
g232
g5
g6
tp2269
F3.968337982080209
s(g203
g204
(S'diff-x-pos--1'
p2270
I1
tp2271
g207
tp2272
F-8.320681729260768
s(g1110
S'object-1-dy--1'
p2273
g224
g225
tp2274
F2.1055936342910506
s(g1575
g427
g1010
g201
tp2275
F-8.126354699383551
s(g1922
g1961
g477
g478
tp2276
F-33.957400578866526
s(g1033
g210
g267
g213
tp2277
F-17.313894561813317
s(g1826
S'object-0-dy--1'
p2278
(S'diff-x-pos--1'
p2279
I1
tp2280
g1830
tp2281
F-3.667864765265745
sg639
F-2.192961668289378
s(g355
S'object-0-dx-1'
p2282
(S'diff-x-pos-1'
p2283
I1
tp2284
g359
tp2285
F3.563800138307343
s(g910
S'object-0-dx--1'
p2286
g913
g914
tp2287
F-2.6299747764973516
s(g1283
g2190
g714
g715
tp2288
F-4.322955866586805
s(g1047
S'object-0-dx-1'
p2289
g1050
g1051
tp2290
F-6.430155418763885
s(g2075
g2076
(S'diff-x-pos--1'
p2291
I1
tp2292
g2079
tp2293
F-4.727673200148587
s(g355
g356
g2284
g359
tp2294
F-9.23682989667796
s(S'object-1-x-90.0'
p2295
S'object-1-dy-1'
p2296
(S'diff-x-pos-1'
p2297
I1
tp2298
S'action-1'
p2299
tp2300
F-6.74801243933752
s(g613
g972
g616
g617
tp2301
F0.3502017431139848
s(S'object-0-x-120.0'
p2302
S'object-0-dy--1'
p2303
(S'diff-x-pos--1'
p2304
I1
tp2305
S'action-4'
p2306
tp2307
I-2
s(g1010
g433
tp2308
F-9.492172253848238
s(S'object-0-x-120.0'
p2309
S'object-1-dy-1'
p2310
(S'diff-x-pos-1'
p2311
I1
tp2312
S'action-4'
p2313
tp2314
I-1
s(g1922
g475
g477
g478
tp2315
F-23.30711125658163
s(S'object-1-x-90.0'
p2316
S'object-0-dy--1'
p2317
(S'diff-x-pos-1'
p2318
I1
tp2319
S'action-3'
p2320
tp2321
F-2.8020851515232703
s(g301
S'object-0-dx-1'
p2322
g304
g305
tp2323
F1.7297951694866873
s(g1658
S'object-1-dy-1'
p2324
g1661
g1662
tp2325
F5.039231001530323
s(S'object-0-x-40.0'
p2326
S'object-1-dy-1'
p2327
(S'diff-x-pos--1'
p2328
I1
tp2329
S'action-3'
p2330
tp2331
F-0.8137114964036201
s(g2221
g2222
(S'diff-x-pos-1'
p2332
I1
tp2333
g2225
tp2334
I1
s(g1174
g1746
g1844
g1178
tp2335
F7.764327327181679
s(S'object-0-x-80.0'
p2336
S'object-0-dy--1'
p2337
(S'diff-x-pos--1'
p2338
I1
tp2339
S'action-4'
p2340
tp2341
F2.208265556032213
s(g1917
g1012
g579
g580
tp2342
F2.0788908833317805
s(g269
g1407
g272
g273
tp2343
F4.294689200346969
sg433
F49.639119839330725
s(g1150
S'object-0-dx-1'
p2344
(S'diff-y-pos--1'
p2345
I1
tp2346
g1154
tp2347
F-8.583935078114964
s(g841
g842
g1890
g845
tp2348
F1.3960734565163904
s(S'object-0-x-70.0'
p2349
g1225
g332
g144
tp2350
F4.228803035280492
s(g2349
g330
g332
g144
tp2351
F19.939696154022215
sg499
F44.93969188921362
s(S'object-0-x-80.0'
p2352
S'object-1-dx--1'
p2353
(S'diff-x-pos--1'
p2354
I1
tp2355
S'action-1'
p2356
tp2357
F-11.891524894362506
s(g1071
g1255
g1074
g1075
tp2358
F-1.7152982054597548
s(g1740
S'object-1-dx--1'
p2359
(S'diff-x-pos--1'
p2360
I1
tp2361
g1744
tp2362
F-2.667864765265745
s(S'object-1-x-70.0'
p2363
S'object-0-dx-1'
p2364
(S'diff-x-pos-1'
p2365
I1
tp2366
S'action-4'
p2367
tp2368
F14.325454780743105
s(g1229
g351
g353
g112
tp2369
F-6.122854613907923
s(S'object-0-x-20.0'
p2370
g1556
tp2371
F5.863850478250479
s(g418
g1874
g26
g27
tp2372
F-3.3407944382118773
s(S'object-0-dy-1'
p2373
S'prev-action-3'
p2374
tp2375
F11.783300497353792
s(g1712
S'object-1-dy-1'
p2376
g1715
g1716
tp2377
F-8.80103313083766
s(g758
g759
g2233
g762
tp2378
F-12.80741326284128
s(S'object-1-y-10.0'
p2379
g543
g510
g460
tp2380
F-5.155042436541866
s(g568
g1892
(S'diff-x-pos--1'
p2381
I1
tp2382
g572
tp2383
F-1.5615951941702733
s(S'object-0-dx--1'
p2384
g2038
tp2385
F-10.751693305621842
s(g1712
S'object-0-dx-1'
p2386
g1715
g1716
tp2387
F-1.3324671776801604
s(S'object-1-x-70.0'
p2388
S'object-1-dy-1'
p2389
(S'diff-x-pos--1'
p2390
I1
tp2391
S'action-3'
p2392
tp2393
F0.5187499367610431
s(g120
S'object-0-dy-1'
p2394
g1627
g124
tp2395
F9.24106723471927
s(g1508
g1509
(S'diff-y-pos--1'
p2396
I1
tp2397
g1512
tp2398
F3.938713946458626
s(g269
S'object-1-dx--1'
p2399
g1409
g273
tp2400
F10.073928338451104
s(g1190
g1673
g1193
g1194
tp2401
F-6.3171413205758675
s(S'object-0-x-70.0'
p2402
S'object-0-dx-1'
p2403
(S'diff-x-pos--1'
p2404
I1
tp2405
S'action-1'
p2406
tp2407
F-3.0050356237093077
s(g41
g2002
(S'diff-y-pos--1'
p2408
I1
tp2409
g45
tp2410
F12.455483259050226
s(g1000
g1752
g1633
g1004
tp2411
F0.2930097729343082
s(S'object-1-dx--1'
p2412
g1120
tp2413
F-20.52065912046229
s(g1967
S'object-1-dx--1'
p2414
g1970
g1971
tp2415
F8.199583293225313
s(g166
S'object-0-dx--1'
p2416
g169
g170
tp2417
F39.203727945361656
s(g197
g1546
g200
g201
tp2418
F-11.274884320600671
s(g565
g15
g21
g18
tp2419
F-10.727618446814272
s(S'object-0-x-50.0'
p2420
S'object-0-dx--1'
p2421
(S'diff-y-pos--1'
p2422
I1
tp2423
S'action-3'
p2424
tp2425
F-0.6030034485708331
s(S'object-0-x-90.0'
p2426
S'object-1-dy-1'
p2427
(S'diff-x-pos--1'
p2428
I1
tp2429
S'action-3'
p2430
tp2431
F-3.7999863142357118
s(g234
g1014
g237
g238
tp2432
F-12.068310170203972
s(g1229
g773
g353
g112
tp2433
F-14.717794813173466
s(g114
g115
g666
g118
tp2434
F8.48846848387086
sg403
F20.942492219395344
s(g633
g634
g1810
g637
tp2435
F-1.068753136254637
s(g126
g3
g5
g6
tp2436
F4.740591013685602
s(g1016
g385
g62
g63
tp2437
F-1.5082439558884424
s(g1560
g1561
(S'diff-y-pos--1'
p2438
I1
tp2439
g1564
tp2440
F4.529875704300192
s(g361
S'object-1-dx--1'
p2441
g364
g365
tp2442
F16.949106961219492
s(S'object-1-y-10.0'
p2443
g768
g1859
g771
tp2444
F-7.082957698398728
s(S'object-1-x-70.0'
p2445
g1602
(S'diff-x-pos--1'
p2446
I1
tp2447
g1605
tp2448
F-5.951601452231081
s(g1035
g90
g92
g93
tp2449
F-5.899813475231058
s(g1254
g1255
g1074
g1075
tp2450
F1.8078770749256412
s(g650
g944
g653
g654
tp2451
F-8.59939960288727
s(g2166
S'object-1-dx--1'
p2452
g2169
g2170
tp2453
F23.472278073504604
s(g477
S'prev-action-4'
p2454
tp2455
F7.045754051358713
s(S'object-0-x-80.0'
p2456
S'object-0-dy-1'
p2457
(S'diff-x-pos-1'
p2458
I1
tp2459
S'action-4'
p2460
tp2461
F14.847616581677073
s(g891
S'object-1-dy--1'
p2462
g415
g416
tp2463
F-1.842073036783865
s(g2379
g543
g459
g460
tp2464
F16.287861477100442
s(g1946
g24
g26
g27
tp2465
F9.756889028499572
s(g658
S'object-1-dy-1'
p2466
g661
g662
tp2467
F-0.5522173256872018
s(g2316
S'object-0-dx-1'
p2468
g2319
g2320
tp2469
F0.298352379670602
s(g1215
g1036
g92
g93
tp2470
F3.6005207885994768
s(g1229
g800
g353
g112
tp2471
F-8.719550454254048
s(g1648
S'object-1-dx-1'
p2472
(S'diff-x-pos--1'
p2473
I1
tp2474
g1652
tp2475
F-1.5178976837658582
s(g197
g1546
g1010
g201
tp2476
F-0.2819681559986815
s(g802
S'object-0-dx--1'
p2477
g805
g806
tp2478
F17.274875609094494
sg498
F37.02987243160294
s(g315
g316
(S'diff-x-pos--1'
p2479
I1
tp2480
g319
tp2481
F-9.967217166149998
s(S'object-0-x-120.0'
p2482
S'object-0-dy-1'
p2483
(S'diff-x-pos-1'
p2484
I1
tp2485
S'action-1'
p2486
tp2487
I-1
s(S'object-0-y-20.0'
p2488
S'prev-action-3'
p2489
tp2490
F20.76481211453184
s(g501
g265
g212
g213
tp2491
F14.510277087632197
s(g1595
S'object-0-dy--1'
p2492
g1368
g1369
tp2493
F0.8437329364244652
s(g2199
S'object-1-dy-1'
p2494
g901
g902
tp2495
F9.997162270359297
s(g1909
g463
g1912
g466
tp2496
F-2.6262049273406722
s(g1150
g1151
g2346
g1154
tp2497
F-7.285981008486008
s(g1435
S'object-1-dx-1'
p2498
g1964
g1439
tp2499
F-8.020707269059912
s(g281
S'object-1-dy-1'
p2500
g2236
g285
tp2501
I1
s(S'object-0-x-90.0'
p2502
S'object-1-dx-1'
p2503
(S'diff-y-pos--1'
p2504
I1
tp2505
S'action-3'
p2506
tp2507
F-3.0745379807325808
s(g1566
S'object-0-dx-1'
p2508
g991
g992
tp2509
F-12.307538262465508
s(S'object-0-x-110.0'
p2510
S'object-1-dy-1'
p2511
(S'diff-x-pos--1'
p2512
I1
tp2513
S'action-4'
p2514
tp2515
F-1.925951883854617
s(S'object-0-x-120.0'
p2516
g521
g523
g524
tp2517
F4.171528644054781
s(g426
g1546
g200
g201
tp2518
F17.881027252082685
s(S'object-0-x-0.0'
p2519
S'object-0-dx-1'
p2520
(S'diff-y-pos--1'
p2521
I1
tp2522
S'action-4'
p2523
tp2524
F0.4821023162341418
s(S'object-0-x-110.0'
p2525
S'object-0-dx-1'
p2526
(S'diff-x-pos--1'
p2527
I1
tp2528
S'action-4'
p2529
tp2530
F15.69408730772821
s(g1450
g2045
g1453
g1454
tp2531
F-2.6115553216043397
s(g705
g706
g1337
g709
tp2532
F8.498994095634435
s(g574
g810
tp2533
F22.34275914514494
s(g420
g2207
g423
g424
tp2534
F-11.455348005512525
s(g705
g1335
g708
g709
tp2535
F2.809590638518447
s(g1023
g1024
(S'diff-x-pos--1'
p2536
I1
tp2537
g1027
tp2538
F0.41400818472379974
s(g1909
S'object-1-dy-1'
p2539
g465
g466
tp2540
F0.42705617350794434
s(g2336
S'object-1-dx-1'
p2541
g2339
g2340
tp2542
F0.44188027423304277
s(g1718
S'object-0-dy--1'
p2543
g2164
g1722
tp2544
F-8.24868631652107
s(g1041
S'object-0-dy-1'
p2545
g1044
g1045
tp2546
F-1.4288133770611031
s(g140
g141
g332
g144
tp2547
F20.087890791626794
s(g146
S'object-1-dy-1'
p2548
g149
g150
tp2549
F2.581090447474274
s(S'object-1-x-80.0'
p2550
S'object-0-dx-1'
p2551
(S'diff-x-pos-1'
p2552
I1
tp2553
S'action-3'
p2554
tp2555
F-2.2659778706593547
s(g203
g410
g2271
g207
tp2556
F-0.653995131477612
s(S'object-1-y-0.0'
p2557
S'prev-action-1'
p2558
tp2559
F-10.694974330231393
s(g1609
g1610
(S'diff-y-pos--1'
p2560
I1
tp2561
g1613
tp2562
F-3.997762686305885
s(g802
S'object-0-dy-1'
p2563
g805
g806
tp2564
F38.04333150234046
s(g1658
g2324
(S'diff-y-pos--1'
p2565
I1
tp2566
g1662
tp2567
F5.039231001530323
s(S'object-1-y-10.0'
p2568
g475
g477
g478
tp2569
F-3.021706299884137
s(g802
S'object-1-dx-1'
p2570
g805
g806
tp2571
F41.7286878605444
s(g484
g485
(S'diff-x-pos--1'
p2572
I1
tp2573
g488
tp2574
F-6.601247807490264
s(g2379
g457
g459
g460
tp2575
F7.93402776861652
s(g607
S'object-1-dx-1'
p2576
g610
g611
tp2577
F2.192554497099489
s(g1569
g920
g133
g134
tp2578
F8.20902166139582
s(g8
g164
g11
g12
tp2579
F7.5150621312017964
s(g1967
g1968
(S'diff-y-pos--1'
p2580
I1
tp2581
g1971
tp2582
I-1
s(S'object-1-x-60.0'
p2583
g222
g1981
g225
tp2584
F12.071869563861725
s(g140
S'object-1-dy--1'
p2585
g143
g144
tp2586
F10.096671823029299
s(g1575
g198
g200
g201
tp2587
F4.123041214711859
s(S'object-1-x-120.0'
p2588
S'object-0-dx-1'
p2589
(S'diff-x-pos--1'
p2590
I1
tp2591
S'action-4'
p2592
tp2593
F8.776323374574051
s(S'object-0-y-0.0'
p2594
g983
g985
g986
tp2595
F-19.30201849428949
s(g2516
g1081
g523
g524
tp2596
I-5
s(g140
g330
g143
g144
tp2597
F11.375818989900893
s(g355
g2282
g358
g359
tp2598
F19.257887446035546
s(S'object-1-x-120.0'
p2599
g1834
g1836
g1837
tp2600
F-9.34503565286324
s(S'object-1-y-10.0'
p2601
g141
g143
g144
tp2602
F3.5310924369291357
s(g209
g265
g212
g213
tp2603
F-7.0783894090069115
s(g29
S'object-1-dx-1'
p2604
g32
g33
tp2605
F-3.1457021922161807
s(g2062
S'object-1-dy--1'
p2606
(S'diff-x-pos--1'
p2607
I1
tp2608
g2066
tp2609
F4.128454996474076
s(g1196
S'object-1-dx-1'
p2610
g1775
g1200
tp2611
F6.24349138411566
s(S'object-0-dy--1'
p2612
S'prev-action-4'
p2613
tp2614
F2.626971849908667
s(g607
g2576
g1379
g611
tp2615
F2.192554497099489
s(g1475
g2084
g2188
g1479
tp2616
F-12.783574047497728
s(g321
g322
g1458
g325
tp2617
F-14.119663571016957
s(g281
g282
g2236
g285
tp2618
F1.6405758111911384
s(g429
g2073
g431
g39
tp2619
F-1.9549422618094434
s(g1705
g1706
(S'diff-x-pos--1'
p2620
I1
tp2621
g1709
tp2622
F-7.979436157283498
s(g1110
g222
g224
g225
tp2623
F10.363289688710253
s(S'object-0-dx-1'
p2624
g1120
tp2625
F-0.2505197001428172
s(S'object-0-dy-1'
p2626
S'prev-action-1'
p2627
tp2628
F2.5699398532586564
s(g2426
S'object-1-dx--1'
p2629
g2429
g2430
tp2630
F11.074037197941415
s(g65
g229
g877
g69
tp2631
F17.835868479973
sg809
F-46.33071752787818
s(g1508
S'object-1-dx-1'
p2632
g1511
g1512
tp2633
F4.897430540542161
s(g841
S'object-0-dy-1'
p2634
g844
g845
tp2635
F16.07402256085698
s(g1450
S'prev-action-4'
p2636
tp2637
F1.8705469946298021
s(g532
g60
g62
g63
tp2638
F3.685966786779015
s(g41
S'object-0-dy--1'
p2639
g44
g45
tp2640
F15.190950825661226
s(g1595
g1366
g1368
g1369
tp2641
F-1.5997309542548575
s(g1229
g109
g353
g112
tp2642
F10.162552566892757
s(S'object-0-x-100.0'
p2643
g1131
g1133
g1134
tp2644
F13.950802119999377
s(g234
S'object-0-dy--1'
p2645
g874
g238
tp2646
F0.9503569886098464
s(g350
g351
g111
g112
tp2647
F-16.563595796900543
s(S'object-0-x-120.0'
p2648
S'object-0-dx--1'
p2649
(S'diff-y-pos--1'
p2650
I1
tp2651
S'action-4'
p2652
tp2653
F0.5996763787210062
s(g1734
S'object-1-dx-1'
p2654
g1737
g1738
tp2655
F0.15510078236143454
s(g1202
S'object-1-dy--1'
p2656
g1205
g1206
tp2657
F8.703982801904113
s(g1460
g1461
g1469
g1464
tp2658
F19.543107522077154
s(g2199
g899
(S'diff-y-pos--1'
p2659
I1
tp2660
g902
tp2661
F-23.963034592658165
s(S'object-0-x-100.0'
p2662
S'object-0-dx-1'
p2663
(S'diff-x-pos--1'
p2664
I1
tp2665
S'action-1'
p2666
tp2667
F6.306669698422224
s(S'object-1-y-10.0'
p2668
g1770
g415
g416
tp2669
F6.171801699662835
s(g23
g1874
g26
g27
tp2670
F0.4633718097055275
s(g379
g380
(S'diff-y-pos--1'
p2671
I1
tp2672
g383
tp2673
F-5.120807977202851
s(g41
S'object-1-dx--1'
p2674
g44
g45
tp2675
F-0.6261727591012693
s(S'object-0-x-70.0'
p2676
S'object-1-dx--1'
p2677
(S'diff-x-pos--1'
p2678
I1
tp2679
S'action-4'
p2680
tp2681
F14.940172343062182
s(g595
g596
g1060
g599
tp2682
F-12.844583493227066
s(g1992
g1993
(S'diff-x-pos--1'
p2683
I1
tp2684
g1996
tp2685
F-7.969306641132341
s(g321
S'object-0-dx--1'
p2686
g324
g325
tp2687
F2.5049552590128856
s(g114
g812
g666
g118
tp2688
F-4.66747807605425
s(g1481
g1553
(S'diff-y-pos--1'
p2689
I1
tp2690
g1485
tp2691
F-15.532279840969508
s(S'object-0-x-90.0'
p2692
S'object-1-dx-1'
p2693
(S'diff-x-pos--1'
p2694
I1
tp2695
S'action-1'
p2696
tp2697
F3.8216181893187837
s(g418
g24
g1433
g27
tp2698
F19.467911428368996
s(S'object-0-x-80.0'
p2699
S'object-0-dx-1'
p2700
(S'diff-x-pos--1'
p2701
I1
tp2702
S'action-3'
p2703
tp2704
F5.064446950627005
s(S'object-1-x-70.0'
p2705
S'object-1-dy-1'
p2706
(S'diff-x-pos-1'
p2707
I1
tp2708
S'action-4'
p2709
tp2710
F-12.056273729666207
s(g1029
g553
g555
g93
tp2711
F3.4797065871558432
sg1223
F270.8388884726
s(g152
S'object-0-dx-1'
p2712
g155
g156
tp2713
I0
s(g462
g463
g1912
g466
tp2714
F-13.7843129960985
s(g1041
g2545
(S'diff-y-pos--1'
p2715
I1
tp2716
g1045
tp2717
F5.0771144214427695
s(g577
g588
g579
g580
tp2718
F-16.18961195464857
s(g2152
S'object-1-dx--1'
p2719
(S'diff-y-pos--1'
p2720
I1
tp2721
g2156
tp2722
F-3.998777360224018
s(g1411
S'object-1-dx--1'
p2723
g2006
g2007
tp2724
F4.879544545052622
s(g656
g387
g535
g63
tp2725
F16.616850469463863
s(g1450
S'object-0-dy--1'
p2726
g2047
g1454
tp2727
F-6.129453005370197
s(g699
g700
(S'diff-x-pos-1'
p2728
I1
tp2729
g703
tp2730
F10.394768950649793
s(g114
S'object-0-dy--1'
p2731
g117
g118
tp2732
F-0.07744209437777272
s(g2152
g2153
g2721
g2156
tp2733
F-8.430175488721929
s(g1922
g1961
(S'diff-y-pos--1'
p2734
I1
tp2735
g478
tp2736
F-32.74679998089787
s(g930
g1546
g1010
g201
tp2737
F5.178957385251355
s(g841
S'object-0-dx--1'
p2738
g1890
g845
tp2739
F21.121761305895152
s(g532
g533
g62
g63
tp2740
F12.754871799246466
s(S'object-0-x-50.0'
p2741
S'object-0-dx--1'
p2742
(S'diff-x-pos--1'
p2743
I1
tp2744
S'action-4'
p2745
tp2746
F13.979854621458273
s(g1435
g2498
g1438
g1439
tp2747
F-8.020707269059912
s(S'object-0-x-60.0'
p2748
g2063
g2065
g2066
tp2749
F7.805132893691191
s(g784
g785
(S'diff-x-pos--1'
p2750
I1
tp2751
g788
tp2752
F-7.113354978150346
s(g334
g335
g304
g305
tp2753
F-9.99553775931027
s(g2012
S'object-0-dx-1'
p2754
g2015
g2016
tp2755
F-4.307198310223935
s(g158
g159
(S'diff-x-pos-1'
p2756
I1
tp2757
g162
tp2758
F5.168727011709072
s(S'object-0-x-50.0'
p2759
g436
g438
g439
tp2760
F-25.48335082863706
s(g301
g335
g337
g305
tp2761
F18.470420393414436
s(g988
S'object-1-dx-1'
p2762
g991
g992
tp2763
I-5
s(g1498
S'object-0-dx-1'
p2764
g1501
g1502
tp2765
I-1
s(S'object-0-x-110.0'
p2766
S'object-0-dx--1'
p2767
(S'diff-x-pos--1'
p2768
I1
tp2769
S'action-1'
p2770
tp2771
F4.892182215905242
s(g595
g1058
g598
g599
tp2772
F5.023210296894731
s(g841
S'prev-action-4'
p2773
tp2774
F28.596772175272548
s(g474
g1961
g477
g478
tp2775
F-8.047705521375134
s(g2519
g2520
(S'diff-x-pos--1'
p2776
I1
tp2777
g2523
tp2778
F0.4821023162341418
s(S'object-0-y-0.0'
p2779
S'object-0-dy-1'
p2780
g2188
g1479
tp2781
F-16.600427588698146
s(S'object-1-x-70.0'
p2782
S'object-1-dx--1'
p2783
(S'diff-x-pos-1'
p2784
I1
tp2785
S'action-4'
p2786
tp2787
F4.153489686987125
s(S'object-1-x-70.0'
p2788
S'object-1-dx--1'
p2789
(S'diff-x-pos-1'
p2790
I1
tp2791
S'action-1'
p2792
tp2793
F15.472906949446124
s(g1782
S'object-0-dx-1'
p2794
(S'diff-y-pos--1'
p2795
I1
tp2796
g1786
tp2797
F-3.8910394277148366
s(g315
S'object-0-dx-1'
p2798
g2480
g319
tp2799
F4.290038979946914
s(g2519
S'object-1-dy-1'
p2800
g2522
g2523
tp2801
F-3.6115553216043397
s(g650
S'object-1-dy--1'
p2802
g653
g654
tp2803
F-8.865630622656345
s(g2601
g2585
g143
g144
tp2804
F3.5248225633092085
s(S'object-0-x-60.0'
p2805
S'object-1-dy-1'
p2806
(S'diff-x-pos-1'
p2807
I1
tp2808
S'action-1'
p2809
tp2810
I-5
s(g429
g1327
g431
g39
tp2811
F-10.889990155322959
s(g2336
S'object-1-dy--1'
p2812
g2339
g2340
tp2813
F-6.405147778954838
s(g1142
g1114
g1116
g1117
tp2814
F-6.388681076564955
s(g1724
g1725
g2051
g1728
tp2815
F0.4120480682126946
s(S'object-1-x-110.0'
p2816
S'object-0-dx-1'
p2817
(S'diff-x-pos-1'
p2818
I1
tp2819
S'action-4'
p2820
tp2821
I-4
s(g1016
g533
g62
g63
tp2822
F0.11420566083319272
s(g462
S'object-0-dy-1'
p2823
g1912
g466
tp2824
F11.69731376968316
s(g705
S'object-1-dx--1'
p2825
g708
g709
tp2826
F5.478686892562802
s(g234
g2645
g237
g238
tp2827
F0.9503569886098464
s(S'object-0-x-70.0'
p2828
S'object-1-dx-1'
p2829
(S'diff-x-pos-1'
p2830
I1
tp2831
S'action-3'
p2832
tp2833
F7.982796914285515
s(g1035
g1036
g555
g93
tp2834
F-10.284207934735157
s(g1861
g475
g477
g478
tp2835
F0.8050171649871256
s(g426
g198
g200
g201
tp2836
F2.380352359780922
s(g53
S'object-0-dy-1'
p2837
g56
g57
tp2838
F6.709037555787887
s(S'object-1-x-100.0'
p2839
S'object-1-dx-1'
p2840
(S'diff-x-pos-1'
p2841
I1
tp2842
S'action-3'
p2843
tp2844
F4.838227362663739
s(g1411
S'object-0-dx-1'
p2845
(S'diff-x-pos-1'
p2846
I1
tp2847
g2007
tp2848
F-6.91960404442376
s(S'object-1-x-100.0'
p2849
S'object-0-dy-1'
p2850
(S'diff-x-pos-1'
p2851
I1
tp2852
S'action-1'
p2853
tp2854
F-2.9215352394780894
s(g2420
S'object-0-dy-1'
p2855
g2423
g2424
tp2856
F-9.197943647836416
s(S'object-0-x-20.0'
p2857
S'object-0-dy-1'
p2858
(S'diff-x-pos--1'
p2859
I1
tp2860
S'action-3'
p2861
tp2862
F-9.216573382869106
s(g1283
g2190
g1285
g715
tp2863
F23.489312969744624
s(g1508
S'object-0-dy--1'
p2864
g2397
g1512
tp2865
F-2.386782922458938
sg1056
F43.129971199242235
s(g910
g2286
g1617
g914
tp2866
F14.644900832597148
s(S'object-0-x-80.0'
p2867
S'object-1-dx-1'
p2868
(S'diff-x-pos--1'
p2869
I1
tp2870
g1977
tp2871
F-1.3439462830030093
s(g656
g385
g535
g63
tp2872
F-6.8859190382070885
s(g301
g335
g304
g305
tp2873
F7.530395528273501
s(g146
g1238
g149
g150
tp2874
F10.655206242524468
s(S'object-1-x-60.0'
p2875
S'object-0-dy-1'
p2876
g1419
g1420
tp2877
F-0.23867128869177723
s(g301
g2322
g337
g305
tp2878
F5.729795169486683
s(g35
g2073
g38
g39
tp2879
F-4.96091571282242
s(g942
S'object-1-dx-1'
p2880
g517
g219
tp2881
F25.38102197771721
s(S'object-0-x-10.0'
p2882
S'object-1-dx--1'
p2883
(S'diff-x-pos--1'
p2884
I1
tp2885
S'action-1'
p2886
tp2887
F-15.73649757272732
s(g114
g812
g117
g118
tp2888
F-4.8225788584156835
s(g1569
g1866
g133
g134
tp2889
F-1.697492274271764
s(S'object-1-x-90.0'
p2890
S'object-1-dx--1'
p2891
(S'diff-x-pos-1'
p2892
I1
tp2893
S'action-1'
p2894
tp2895
F-2.8517571674236812
s(S'object-1-x-70.0'
p2896
g1024
g2537
g1027
tp2897
F-12.206832322870643
s(g140
g2585
g332
g144
tp2898
F40.07178636597663
s(g2601
g330
g143
g144
tp2899
F-4.843436095999326
s(g2326
g2327
(S'diff-y-pos--1'
p2900
I1
tp2901
g2330
tp2902
F-0.8137114964036201
s(g1180
S'prev-action-3'
p2903
tp2904
F-6.6916073676116525
s(g315
S'object-1-dx--1'
p2905
g2480
g319
tp2906
F-8.171197313278155
s(g705
S'object-0-dy--1'
p2907
g708
g709
tp2908
F-19.79223832792868
s(g532
g387
g62
g63
tp2909
F4.707510897210722
s(g492
g493
(S'diff-x-pos-1'
p2910
I1
tp2911
g496
tp2912
F-23.273091873438954
s(S'object-0-x-60.0'
p2913
S'object-1-dx-1'
p2914
(S'diff-x-pos-1'
p2915
I1
tp2916
S'action-1'
p2917
tp2918
F-2.201194297748657
s(g2136
S'object-1-dx-1'
p2919
g2139
g2140
tp2920
F-0.1020046193615709
s(g1202
S'object-0-dx-1'
p2921
g1205
g1206
tp2922
F24.46396730532549
s(g429
g227
g38
g39
tp2923
F-6.661917082320475
s(g717
S'object-1-dy--1'
p2924
g720
g721
tp2925
F-6.924393356973205
s(g59
g533
g62
g63
tp2926
F10.412074966349724
s(g683
S'object-1-dx--1'
p2927
g2219
g687
tp2928
F3.6152846876682494
s(g231
g3
g128
g6
tp2929
F-8.565167931539358
s(S'object-0-x-10.0'
p2930
S'prev-action-1'
p2931
tp2932
F12.688414843207745
s(g2192
g1874
g1433
g27
tp2933
F5.031262397437295
sg607
F7.036651056854135
s(g209
g1381
g267
g213
tp2934
F-5.928360529315996
s(g1202
g2656
g1579
g1206
tp2935
F-8.71889932466
s(S'object-1-x-120.0'
p2936
S'object-1-dx-1'
p2937
(S'diff-y-pos--1'
p2938
I1
tp2939
S'action-4'
p2940
tp2941
F-6.972333599183845
s(g2568
g1862
g477
g478
tp2942
F3.89556220561154
s(g613
g1389
g616
g617
tp2943
F-0.6497982568860152
s(g910
g1525
g1617
g914
tp2944
F31.58663326097185
s(S'object-0-y-10.0'
p2945
S'object-1-dx--1'
p2946
(S'diff-x-pos-1'
p2947
I1
tp2948
S'action-1'
p2949
tp2950
F8.573699800552296
s(g295
g296
g1064
g299
tp2951
F-9.410525568699814
s(g1237
g147
g149
g150
tp2952
F-6.165061588293192
s((S'diff-y-pos--1'
p2953
I1
tp2954
g1120
tp2955
F15.507761658100108
s(g197
g1008
g1010
g201
tp2956
F-20.312472200280645
s(S'object-0-x-120.0'
p2957
S'object-0-dx--1'
p2958
(S'diff-x-pos--1'
p2959
I1
tp2960
S'action-4'
p2961
tp2962
I-1
s(g1174
g1175
g1844
g1178
tp2963
F1.4243158468997978
s(g1473
g543
g459
g460
tp2964
F-15.298771783871413
s(g1575
g427
g200
g201
tp2965
F-4.230792493772054
s(g1508
g2864
g1511
g1512
tp2966
F-0.5598879101175702
s(S'object-0-x-10.0'
p2967
S'object-1-dx--1'
p2968
(S'diff-y-pos--1'
p2969
I1
tp2970
S'action-4'
p2971
tp2972
F-19.14742474312315
s(S'object-0-x-90.0'
p2973
S'object-1-dx--1'
p2974
(S'diff-x-pos--1'
p2975
I1
tp2976
S'action-4'
p2977
tp2978
F-4.8538647675026425
sg2152
F19.451374806401592
s(g281
S'object-1-dx--1'
p2979
g284
g285
tp2980
F1.3083926323883475
s(S'object-0-x-100.0'
p2981
S'object-1-dx-1'
p2982
(S'diff-x-pos--1'
p2983
I1
tp2984
S'action-3'
p2985
tp2986
F-7.220349248298286
s(S'object-1-y-10.0'
p2987
g589
g591
g262
tp2988
F-23.277751629479003
s(g361
g362
g1293
g365
tp2989
F4.621580611921742
s(g1515
g1516
(S'diff-x-pos--1'
p2990
I1
tp2991
g1519
tp2992
F3.562889978741177
s(g1629
S'object-1-dx--1'
p2993
g1289
g401
tp2994
F19.45687976275199
s(g197
g427
g200
g201
tp2995
F-4.230792493772054
s(g2152
g2719
g2155
g2156
tp2996
F7.892747534138447
s(g474
g1862
g477
g478
tp2997
F9.238899580411246
s(g1202
g1577
g1205
g1206
tp2998
F12.20167882906309
s(S'object-0-x-130.0'
p2999
S'object-0-dx--1'
p3000
(S'diff-y-pos--1'
p3001
I1
tp3002
S'action-4'
p3003
tp3004
I-1
s(g1035
g553
g92
g93
tp3005
F16.702015491216052
sg477
F30.41782607043487
s(g126
g2172
tp3006
F4.715259173918763
s(g2502
g2503
(S'diff-x-pos-1'
p3007
I1
tp3008
g2506
tp3009
F2.5477035682112485
s(g295
g1880
g298
g299
tp3010
F-4.4380885793600795
s(g427
g433
tp3011
F-5.440105001757765
s(g2363
S'object-0-dy--1'
p3012
g2366
g2367
tp3013
F-0.3042662881255733
s(S'object-0-x-70.0'
p3014
S'object-0-dx-1'
p3015
(S'diff-x-pos--1'
p3016
I1
tp3017
S'action-3'
p3018
tp3019
F8.951731055568944
s(g315
g2905
g318
g319
tp3020
F-29.1975722508749
s(g952
g958
(S'diff-y-pos--1'
p3021
I1
tp3022
g956
tp3023
F5.386478343661142
s(g1569
g920
g1245
g134
tp3024
F8.20902166139582
s(g705
g2825
g1337
g709
tp3025
F20.951593842008933
s(g625
g403
g579
g580
tp3026
F-12.14373648797018
s(g1917
g1012
g776
g580
tp3027
F5.603713446641229
s(g361
g1777
g364
g365
tp3028
F4.159637892184254
s(g334
g2322
g337
g305
tp3029
F-3.501060074546934
s(g1196
g2610
g1199
g1200
tp3030
F6.24349138411566
s(g1085
S'object-0-dx--1'
p3031
(S'diff-y-pos--1'
p3032
I1
tp3033
g1363
tp3034
F-38.86767117798225
s(g1008
g433
tp3035
F-15.764161564873437
s(g568
g2197
g2382
g572
tp3036
F-10.516384258808827
s(g258
g589
g591
g262
tp3037
F1.886527359747328
s(g2420
g2421
(S'diff-x-pos--1'
p3038
I1
tp3039
g2424
tp3040
F-0.6030034485708331
s(g565
g1339
g17
g18
tp3041
F1.9802717717136806
sg645
F-3.016348933945551
s(S'object-0-x-60.0'
p3042
S'object-0-dx--1'
p3043
(S'diff-y-pos--1'
p3044
I1
tp3045
S'action-4'
p3046
tp3047
F-10.987477729163446
s(g258
g259
g591
g262
tp3048
F6.142216285800311
s(g559
S'object-0-dy--1'
p3049
g1762
g563
tp3050
F-6.814441877829541
s(S'object-0-x-110.0'
p3051
g816
g818
g819
tp3052
F10.582620875199272
s(g1805
g684
g686
g687
tp3053
F-10.644205535823504
s(g1110
g1111
g1981
g225
tp3054
F-12.310905540019512
s(g1029
g90
g555
g93
tp3055
F7.0687786391729475
s(g1217
g1329
g1220
g1221
tp3056
F11.122197805400262
s(g2601
g1225
g143
g144
tp3057
F-9.73672046818798
s(g2302
S'object-0-dx-1'
p3058
g2305
g2306
tp3059
I-1
s(S'object-1-y-10.0'
p3060
g983
g985
g986
tp3061
F-15.920946223402874
s(S'object-1-x-110.0'
p3062
S'object-0-dy-1'
p3063
(S'diff-x-pos-1'
p3064
I1
tp3065
S'action-1'
p3066
tp3067
I5
s(S'object-0-x-20.0'
p3068
S'object-1-dy--1'
p3069
(S'diff-x-pos--1'
p3070
I1
tp3071
S'action-1'
p3072
tp3073
F7.913304996575333
sg1102
F29.15178609899259
s(g1090
S'object-1-dy--1'
p3074
g1093
g1094
tp3075
F13.192121633467636
s(g764
g810
tp3076
F31.589915552064333
s(g565
S'object-0-dx-1'
p3077
g21
g18
tp3078
F4.030682898354731
s(g2035
g1243
g1245
g134
tp3079
F15.627888259521853
s(g969
g970
g1350
g883
tp3080
F9.843790423629983
s(g1724
S'object-1-dy--1'
p3081
g2051
g1728
tp3082
F7.096395121108016
s(g2102
g2103
(S'diff-y-pos--1'
p3083
I1
tp3084
g2106
tp3085
F-1.3665506770595357
s(g172
S'object-1-dy--1'
p3086
g175
g176
tp3087
I-1
s(S'object-1-x-60.0'
p3088
g768
g1859
g771
tp3089
F-8.32450884204818
s(S'object-0-x-90.0'
p3090
S'object-1-dy-1'
p3091
(S'diff-y-pos--1'
p3092
I1
tp3093
S'action-3'
p3094
tp3095
F-7.936629798919789
s(g1287
g2993
g1289
g401
tp3096
F-8.131483116001228
s(g1595
g1596
(S'diff-y-pos--1'
p3097
I1
tp3098
g1369
tp3099
F-5.457553385124214e-05
s(g1901
g1902
(S'diff-y-pos--1'
p3100
I1
tp3101
g1905
tp3102
F9.756857009511005
s(S'object-0-x-70.0'
p3103
S'object-1-dy-1'
p3104
(S'diff-x-pos-1'
p3105
I1
tp3106
S'action-3'
p3107
tp3108
F14.473230254948213
s(g942
g1106
g218
g219
tp3109
F9.980855544885834
s(S'object-0-x-80.0'
p3110
S'object-1-dy--1'
p3111
(S'diff-x-pos--1'
p3112
I1
tp3113
S'action-1'
p3114
tp3115
F-22.8872892247595
s(S'object-1-x-120.0'
p3116
g54
g56
g57
tp3117
F-13.271014985760168
s(g89
g553
g92
g93
tp3118
F-11.466474535109603
s(g2199
g2494
g2660
g902
tp3119
F11.361453875480716
s(g2692
g2693
(S'diff-y-pos--1'
p3120
I1
tp3121
g2696
tp3122
F10.450730440348407
s(g1498
S'object-0-dy--1'
p3123
g1501
g1502
tp3124
I-1
s(g2839
S'object-0-dx-1'
p3125
g2842
g2843
tp3126
F-6.945182638846136
s(g784
g1209
g2751
g788
tp3127
F-0.8581241075107853
s(g2349
g330
g143
g144
tp3128
F10.987965098453262
s(S'object-0-y-10.0'
p3129
S'object-0-dx-1'
p3130
g3101
g1905
tp3131
F-7.734989325033766
s(g3103
g3104
(S'diff-y-pos--1'
p3132
I1
tp3133
g3107
tp3134
F0.7074876491974598
s(g784
S'object-1-dx--1'
p3135
g2751
g788
tp3136
F-18.425913637481035
s(g711
S'object-1-dy--1'
p3137
g714
g715
tp3138
F-43.00623370010734
s(g41
g2639
g2409
g45
tp3139
F24.429850406072482
s(g258
S'object-1-dy--1'
p3140
g261
g262
tp3141
F9.955653474863514
s(g639
S'object-1-dx-1'
p3142
g642
g643
tp3143
F4.961576367998788
s(g784
S'prev-action-1'
p3144
tp3145
F22.936430879363616
s(S'object-1-x-100.0'
p3146
S'object-1-dx-1'
p3147
(S'diff-x-pos-1'
p3148
I1
tp3149
S'action-4'
p3150
tp3151
F-0.1134030084637423
s(g191
g192
(S'diff-x-pos--1'
p3152
I1
tp3153
g195
tp3154
F10.761616724556859
s(S'object-0-y-0.0'
p3155
g2327
g2329
g2330
tp3156
F-23.402035495807326
s(g2788
S'object-0-dy-1'
p3157
g2791
g2792
tp3158
F-7.264774909019662
s(g1016
g60
g535
g63
tp3159
F23.8335422363181
s(S'object-1-x-60.0'
p3160
S'object-0-dy-1'
p3161
(S'diff-x-pos--1'
p3162
I1
tp3163
S'action-1'
p3164
tp3165
F8.292912286494252
s(S'object-0-x-70.0'
p3166
g2563
g805
g806
tp3167
F3.8718836070513127
s(g1948
g1949
(S'diff-x-pos-1'
p3168
I1
tp3169
g1952
tp3170
F3.9445574538952997
s(g146
g1573
g149
g150
tp3171
F7.274133971637827
s(g3068
g3069
(S'diff-y-pos--1'
p3172
I1
tp3173
g3072
tp3174
F7.913304996575333
s(g2012
S'object-1-dx--1'
p3175
g2015
g2016
tp3176
F7.567409033069161
s(S'object-0-x-70.0'
p3177
S'prev-action-3'
p3178
tp3179
F20.63083523315359
s(g1532
g1533
(S'diff-y-pos--1'
p3180
I1
tp3181
g1536
tp3182
F-10.19670564815359
s(g607
g2031
g1379
g611
tp3183
F-3.347237427474231
s(g746
g1983
g1039
g750
tp3184
F5.21166316856991
s(S'object-0-x-60.0'
p3185
S'object-1-dx-1'
p3186
(S'diff-y-pos--1'
p3187
I1
tp3188
S'action-1'
p3189
tp3190
F-6.5856193898841635
s(g619
g620
g889
g623
tp3191
F-7.8434747143042625
s(g727
g728
(S'diff-y-pos--1'
p3192
I1
tp3193
g731
tp3194
F0.699619622728676
s(g568
g918
g2382
g572
tp3195
F0.7764904997194342
s(g2040
g351
g353
g112
tp3196
F-20.09468823382976
s(g1301
S'object-1-dx--1'
p3197
g1304
g1305
tp3198
F35.45385785373077
s(S'object-0-x-60.0'
p3199
g2038
tp3200
F17.048843224528905
s(g1359
g1360
g3033
g1363
tp3201
F-0.47781724895434063
s(S'object-0-x-60.0'
p3202
S'object-1-dx-1'
p3203
(S'diff-x-pos-1'
p3204
I1
tp3205
S'action-4'
p3206
tp3207
F5.114870945372081
s(g2192
g1874
g26
g27
tp3208
F11.656595813275988
s(g104
S'object-1-dy--1'
p3209
g106
g12
tp3210
F5.847353046367816
s(g2516
g1081
(S'diff-y-pos--1'
p3211
I1
tp3212
g524
tp3213
I-5
sS'object-1-y-20.0'
p3214
I-4
s(g2012
S'object-1-dy-1'
p3215
g2015
g2016
tp3216
F15.765269063154989
s(S'object-1-x-60.0'
p3217
g1106
g218
g219
tp3218
F4.063061392868452
s(g41
g2674
g2409
g45
tp3219
F-7.283641502337623
s(S'object-1-x-70.0'
p3220
g2096
g2098
g2099
tp3221
F-7.104897265737304
s(g1524
g2286
g913
g914
tp3222
F-3.0815748332188333
s(g418
g138
g26
g27
tp3223
F-9.121523468973457
s(g727
S'object-0-dy--1'
p3224
g3193
g731
tp3225
F9.051189559791968
s(g1946
g1874
g26
g27
tp3226
F1.4633718097055683
s(g1909
g1910
g465
g466
tp3227
F0.18912884426157994
s(g108
g800
g353
g112
tp3228
F16.252171944615924
s(g2759
g436
g1169
g439
tp3229
F-25.48335082863706
s(g2075
S'object-1-dx-1'
p3230
g2292
g2079
tp3231
F16.725502981885704
s(g234
g1930
g237
g238
tp3232
F1.2482957850624743
s(S'object-0-x-80.0'
p3233
S'object-0-dy--1'
p3234
(S'diff-x-pos--1'
p3235
I1
tp3236
S'action-1'
p3237
tp3238
F-6.883934538418828
s(g2519
g2800
g2777
g2523
tp3239
F-3.6115553216043397
s(g778
g779
(S'diff-y-pos--1'
p3240
I1
tp3241
g782
tp3242
F-15.723776586135523
s(g1162
g1163
(S'diff-x-pos--1'
p3243
I1
tp3244
g1166
tp3245
F-6.1552635563586175
s(g420
g2255
g482
g424
tp3246
F8.230899914736348
s(g1180
S'object-0-dx--1'
p3247
g1183
g1184
tp3248
F-9.667864765265744
s(g2349
g1225
g143
g144
tp3249
F3.2548863286240213
s(g711
g2259
g714
g715
tp3250
F18.335889758042413
s(g2192
g408
g26
g27
tp3251
F-3.6091524968584645
s(g1504
g147
g149
g150
tp3252
F-4.778295964561295
s(S'object-0-x-60.0'
p3253
S'object-0-dx-1'
p3254
(S'diff-x-pos-1'
p3255
I1
tp3256
S'action-3'
p3257
tp3258
F7.429218409789009
s(g607
g608
g1379
g611
tp3259
F0.09369024629767253
s(S'object-1-x-60.0'
p3260
g3178
tp3261
F1.3697660351565162
s(g765
g66
g68
g69
tp3262
F15.400061257091938
s(g178
S'object-1-dx--1'
p3263
g181
g182
tp3264
F-1.6952812451311576
s(S'object-0-x-80.0'
p3265
S'object-0-dx--1'
p3266
(S'diff-x-pos--1'
p3267
I1
tp3268
S'action-4'
p3269
tp3270
F-5.887336220093454
s(g1371
g1372
(S'diff-x-pos-1'
p3271
I1
tp3272
g1375
tp3273
F-4.756489126973434
s(g1029
g90
g92
g93
tp3274
F7.0687786391729475
sg1190
F36.87499438882782
s(g2152
S'object-0-dy--1'
p3275
g2721
g2156
tp3276
F-6.6691999151861
s(g1922
g1862
g477
g478
tp3277
F-25.595769169518285
s(g526
S'object-1-dx--1'
p3278
g529
g530
tp3279
F0.05997513485905159
s(g1658
g1659
g2566
g1662
tp3280
F-8.277374953736123
s(g1569
g1866
g1245
g134
tp3281
F-1.697492274271764
s(g849
S'object-0-dy--1'
p3282
g852
g853
tp3283
F-13.637633321925506
s(S'object-1-x-70.0'
p3284
g2855
g3039
g2424
tp3285
F6.505927798503876
s(g203
S'prev-action-1'
p3286
tp3287
F-5.803551510585441
s(g361
g2441
g1293
g365
tp3288
F9.074428242949017
sS'object-0-y-20.0'
p3289
F45.80279017563571
s(g1277
S'object-0-dx-1'
p3290
g1280
g1281
tp3291
F14.624171834309088
s(g740
S'object-0-dy--1'
p3292
g743
g744
tp3293
F3.538370802558641
s(g1648
g2472
g1651
g1652
tp3294
F-1.5178976837658582
s(g1085
g1360
g3033
g1363
tp3295
F-8.349721055811974
s(g1180
g1181
g2267
g1184
tp3296
I-4
s(g2482
g2483
(S'diff-y-pos--1'
p3297
I1
tp3298
g2486
tp3299
I-1
s(g3088
g768
g770
g771
tp3300
F-10.359199983611806
s(g462
g2823
g465
g466
tp3301
F11.69731376968316
s(g1546
g433
tp3302
F32.74220214235988
s(S'object-0-y-10.0'
p3303
S'object-1-dx-1'
p3304
g3163
g3164
tp3305
F23.973866233383674
s(g835
S'object-1-dx-1'
p3306
(S'diff-x-pos-1'
p3307
I1
tp3308
g839
tp3309
F-2.734704094926223
s(g1629
g1262
g1289
g401
tp3310
F-6.595605670253178
s(g1047
g2289
g1079
g1051
tp3311
F-6.430155418763885
s(g650
g2802
g725
g654
tp3312
F-5.471730568502184
s(g108
g351
g353
g112
tp3313
F3.428299135872008
s(g2152
S'prev-action-3'
p3314
tp3315
F29.539943150868872
s(g2828
g2829
(S'diff-y-pos--1'
p3316
I1
tp3317
g2832
tp3318
F1.130734292160553
s(g577
g2108
g776
g580
tp3319
F12.198339536948069
s(g275
g276
g1799
g279
tp3320
F-4.973223978402619
s(g1782
S'object-1-dx--1'
p3321
g1785
g1786
tp3322
F-20.212437769866817
s(S'object-0-x-130.0'
p3323
S'prev-action-3'
p3324
tp3325
I-4
s(g1041
S'object-0-dx--1'
p3326
g1044
g1045
tp3327
F-1.1495792493543524
s(g3289
S'prev-action-4'
p3328
tp3329
F7.34055090609821
s(g671
g672
(S'diff-x-pos--1'
p3330
I1
tp3331
g675
tp3332
F1.5707402556788344
s(g59
g533
g535
g63
tp3333
F10.412074966349724
s(g746
S'object-1-dx--1'
p3334
g1039
g750
tp3335
F4.630259693633499
s(g559
S'object-0-dx-1'
p3336
g562
g563
tp3337
F4.5424624991939035
s(S'object-1-x-110.0'
p3338
S'object-0-dx-1'
p3339
(S'diff-x-pos-1'
p3340
I1
tp3341
S'action-3'
p3342
tp3343
F-5.213532396485448
s(g197
g198
g1010
g201
tp3344
F-12.623708378650019
s(g2896
g1024
g1026
g1027
tp3345
F-24.26310605253684
s(g287
g330
g143
g144
tp3346
F8.063054077443995
s(g453
g1103
tp3347
F7.299685418693688
s(g2352
S'object-1-dy-1'
p3348
g2355
g2356
tp3349
F12.80117076453084
s(g1805
g2927
g686
g687
tp3350
F-4.422388897289144
s(S'object-0-x-40.0'
p3351
g1120
tp3352
F-63.99281331560246
s(g683
g684
g2219
g687
tp3353
F-12.133372286089672
s(g2209
g2210
(S'diff-x-pos--1'
p3354
I1
tp3355
g2213
tp3356
F1.0189740040093445
s(g1917
g588
g776
g580
tp3357
F-12.55782840978629
s(g1818
g1819
(S'diff-x-pos--1'
p3358
I1
tp3359
g1822
tp3360
F-0.4607933350368798
s(g275
g1797
g278
g279
tp3361
F-3.6239354387761065
s(g2568
g1598
g477
g478
tp3362
F5.823477467468434
s(g221
g1979
g224
g225
tp3363
F-14.580158826581183
s(g367
g557
(S'diff-y-pos--1'
p3364
I1
tp3365
g371
tp3366
F-9.431523711586195
s(g2668
g413
g415
g416
tp3367
F18.283873728461344
s(g526
S'object-0-dy-1'
p3368
g529
g530
tp3369
I3
s(g625
g2108
g776
g580
tp3370
F-11.421327085144348
s(g1595
g2492
g3098
g1369
tp3371
F-1.1562670635755348
s(g1558
g413
g893
g416
tp3372
F13.544449305461761
s(g1237
g2548
g149
g150
tp3373
F2.4002106369868823
s(g1359
g3031
g1362
g1363
tp3374
F-2.996942377169293
sg1008
F3.886310610033078
s(g258
g3140
g591
g262
tp3375
F12.129394147543149
s(g1724
g2049
g1727
g1728
tp3376
F-9.2279070545008
s(g683
g1806
g2219
g687
tp3377
F5.987986741347621
s(g1217
S'object-1-dy--1'
p3378
g1220
g1221
tp3379
F16.06675525929556
s(g1460
g1467
g1463
g1464
tp3380
F4.081440051813287
s(g793
S'object-1-dy-1'
p3381
g796
g797
tp3382
F13.188533450237324
s(g2349
g141
g143
g144
tp3383
F1.278296772688421
s(g1411
S'object-1-dy--1'
p3384
g2847
g2007
tp3385
F-0.7598916654533872
s(g559
g3336
g1762
g563
tp3386
F4.5424624991939035
s(g835
g3306
g838
g839
tp3387
F-5.880406287142406
s(S'object-0-x-50.0'
p3388
g2876
(S'diff-y-pos--1'
p3389
I1
tp3390
g1420
tp3391
F0.14099558016120284
s(S'object-0-x-60.0'
p3392
S'object-1-dy-1'
p3393
(S'diff-x-pos-1'
p3394
I1
tp3395
S'action-3'
p3396
tp3397
F-2.5245774648145023
s(S'object-0-y-0.0'
p3398
g15
g21
g18
tp3399
F-20.463866040640397
s(g977
g1583
tp3400
F-27.199035792965635
s(g946
S'object-0-dx--1'
p3401
g949
g950
tp3402
F-13.360371993212254
s(g1948
g2082
g3169
g1952
tp3403
I5
s(S'object-0-x-90.0'
p3404
S'object-0-dx--1'
p3405
(S'diff-x-pos--1'
p3406
I1
tp3407
S'action-3'
p3408
tp3409
F13.912705872792786
s(g2516
g521
g3212
g524
tp3410
F3.1715286440547796
s(g727
S'object-1-dx--1'
p3411
g3193
g731
tp3412
F2.4583957577268647
s(S'object-0-y-10.0'
p3413
S'object-0-dx-1'
p3414
(S'diff-y-pos--1'
p3415
I1
tp3416
S'action-4'
p3417
tp3418
F15.941732428374715
s(g740
S'object-1-dx--1'
p3419
g743
g744
tp3420
F-2.2468717816209027
s(g53
S'object-1-dx--1'
p3421
g56
g57
tp3422
F-0.4888566169409887
s(g2456
S'object-0-dx--1'
p3423
g2459
g2460
tp3424
F19.303672824427384
s(g1450
g2726
g1453
g1454
tp3425
F-6.129453005370197
s(S'object-1-x-70.0'
p3426
g983
(S'diff-y-pos--1'
p3427
I1
tp3428
g986
tp3429
F-18.10090297285999
s(g114
g2731
g666
g118
tp3430
F6.916695833512314
s(g301
g1227
g337
g305
tp3431
F9.604780332177379
s(g537
S'object-0-dx--1'
p3432
g691
g541
tp3433
I-1
s(g258
S'object-1-dx--1'
p3434
g591
g262
tp3435
F14.747895731500332
s(g1917
g2108
g776
g580
tp3436
F-1.0580373964341057
s(g1566
g2762
g991
g992
tp3437
F-5.0048042183229615
s(g784
S'object-0-dx-1'
p3438
g2751
g788
tp3439
F-6.074988894865662
sg41
F18.284501626513247
s(g2705
S'object-0-dy-1'
p3440
g2708
g2709
tp3441
F12.641248073474845
s(g59
g60
g535
g63
tp3442
F2.832730180788251
s(g1629
g398
g1289
g401
tp3443
F-2.97530787812385
s(g645
S'object-1-dx-1'
p3444
g1522
g1069
tp3445
I-2
s(g625
g1012
g579
g580
tp3446
F-5.995224911718361
s(g1460
S'object-1-dx-1'
p3447
g1469
g1464
tp3448
F11.891914629899759
s(g1020
g308
g2010
g311
tp3449
F14.73620665286272
s(g1287
g398
g1289
g401
tp3450
F15.842383117382436
s(S'object-0-x-70.0'
p3451
S'object-1-dy-1'
p3452
g781
g782
tp3453
F-13.765742605750745
s(g1174
g1571
g1844
g1178
tp3454
F-0.3460985634103572
s(g3451
g779
g781
g782
tp3455
F-6.852062622124965
s(g982
g983
g3428
g986
tp3456
F10.435453707998693
s(g1047
g1172
tp3457
F7.861307354719145
s(g1973
g1974
g2870
g1977
tp3458
F-27.80961512769025
s(S'object-0-x-30.0'
p3459
S'object-1-dy--1'
p3460
(S'diff-x-pos--1'
p3461
I1
tp3462
S'action-1'
p3463
tp3464
F-20.147041255285743
s(g711
g2259
g1285
g715
tp3465
F18.335889758042413
s(S'object-0-y-10.0'
p3466
g821
g540
g541
tp3467
I-1
s(g1229
g351
g111
g112
tp3468
F-6.122854613907923
s(g1110
g2273
g1981
g225
tp3469
F-5.968522160759134
s(g2095
g2096
(S'diff-y-pos--1'
p3470
I1
tp3471
g2099
tp3472
F-16.82602277906229
s(S'object-0-x-100.0'
p3473
g519
tp3474
F6.590194968903513
s(g1718
g2543
g1721
g1722
tp3475
F-8.24868631652107
s((S'diff-x-pos-1'
p3476
I1
tp3477
g3178
tp3478
F20.57850495263628
s(S'object-1-y-10.0'
p3479
g2563
g805
g806
tp3480
F21.44290391364231
s(g2309
g2310
(S'diff-y-pos--1'
p3481
I1
tp3482
g2313
tp3483
I-2
s(S'object-0-x-90.0'
p3484
S'prev-action-1'
p3485
tp3486
F21.38614933565199
s(g269
g2399
g272
g273
tp3487
F20.4672442696674
s(g429
g1327
g38
g39
tp3488
F-10.889990155322959
s(S'object-0-dx--1'
p3489
g2613
tp3490
F-15.113958069115188
s(g2352
S'object-0-dy-1'
p3491
g2355
g2356
tp3492
F-3.2021839218098194
s(g2420
g2855
g3039
g2424
tp3493
F-9.197943647836416
s(g537
g3432
g540
g541
tp3494
I-1
s(g321
g2686
g1458
g325
tp3495
F2.5049552590128856
s(g577
g588
g776
g580
tp3496
F-16.18961195464857
s(g429
S'prev-action-4'
p3497
tp3498
F-10.445731278021729
s(g315
g2798
g318
g319
tp3499
F-19.01707227663475
s(g2122
g2123
(S'diff-x-pos--1'
p3500
I1
tp3501
g2126
tp3502
F2.87359458972338
s(g613
S'object-0-dx-1'
p3503
g616
g617
tp3504
F1.3502017431139848
s(g2349
g141
g332
g144
tp3505
F-8.343976464426596
s(g1489
g970
g1350
g883
tp3506
F12.763785100393935
sg579
F2.767977737667181
s(g1243
S'prev-action-4'
p3507
tp3508
F30.57506022252973
s(g891
g413
g415
g416
tp3509
F-11.818576887116384
s(g1560
S'object-1-dy--1'
p3510
g1563
g1564
tp3511
F-14.81246600858421
s(g355
g2069
g2284
g359
tp3512
F9.040601943212504
s(S'object-0-y-10.0'
p3513
S'object-0-dx-1'
p3514
g1234
g1235
tp3515
F16.679433952447962
s(g619
S'object-0-dy--1'
p3516
g622
g623
tp3517
F-5.63897563824286
s(g1186
g543
g510
g460
tp3518
F-5.742236656017827
s(g3110
S'object-0-dx--1'
p3519
g3113
g3114
tp3520
F0.029644244627599292
s(g1940
g1941
(S'diff-x-pos-1'
p3521
I1
tp3522
g1944
tp3523
I-16
s(g1411
g2723
g2847
g2007
tp3524
F-10.060627798009607
s(g711
S'prev-action-1'
p3525
tp3526
F0.6617896967447381
s(g361
g1291
g364
g365
tp3527
F14.369419581768431
s(g1788
g1789
(S'diff-x-pos--1'
p3528
I1
tp3529
g1792
tp3530
F21.543369724250425
s(g166
S'object-1-dy--1'
p3531
g169
g170
tp3532
F29.975114542947324
s(g269
g1347
g1409
g273
tp3533
F18.779582363862787
s(g1217
g1218
g1331
g1221
tp3534
F9.066755259295562
s(g1006
g2108
g579
g580
tp3535
F24.282462858867255
s(g658
S'object-0-dy--1'
p3536
(S'diff-x-pos--1'
p3537
I1
tp3538
g662
tp3539
F2.13491743868709
s(S'object-0-x-100.0'
p3540
S'object-1-dx-1'
p3541
(S'diff-x-pos--1'
p3542
I1
tp3543
S'action-1'
p3544
tp3545
F17.833558791094543
s(g2018
g2019
(S'diff-y-pos--1'
p3546
I1
tp3547
g2022
tp3548
F13.715038043524777
s(g3451
S'object-0-dy--1'
p3549
g781
g782
tp3550
F-9.622273237115007
s(g197
g433
tp3551
F19.12752528617584
s(g1352
S'object-1-dx-1'
p3552
g1355
g1356
tp3553
F-5.46190679895527
s(S'object-0-x-50.0'
p3554
S'object-0-dx--1'
p3555
(S'diff-y-pos--1'
p3556
I1
tp3557
S'action-1'
p3558
tp3559
F-3.6630225515519115
s(g1215
g90
g92
g93
tp3560
F-7.83261904959233
s(S'object-0-y-10.0'
p3561
g519
tp3562
F21.2738645619293
s(g1411
g3384
g2006
g2007
tp3563
F6.236815706342757
s(g209
g265
g267
g213
tp3564
F-12.120317576320872
s(S'object-0-x-70.0'
p3565
S'object-1-dx--1'
p3566
(S'diff-x-pos--1'
p3567
I1
tp3568
S'action-3'
p3569
tp3570
F0.973916706656413
s(g746
g3334
g749
g750
tp3571
F4.386928048296672
s(g1498
S'object-1-dy--1'
p3572
g1501
g1502
tp3573
I-1
s(g2111
g374
g376
g377
tp3574
F-3.2455512090717296
sg426
F40.842585254962415
s(S'object-0-x-90.0'
p3575
S'object-1-dx-1'
p3576
(S'diff-x-pos-1'
p3577
I1
tp3578
S'action-1'
p3579
tp3580
F6.629112251029625
s(g3166
g2477
g805
g806
tp3581
F6.583133611428584
s(g231
S'object-0-dy--1'
p3582
g128
g6
tp3583
F-14.592103299871743
s(g136
g15
g21
g18
tp3584
F30.145748663627902
s(S'object-0-x-40.0'
p3585
S'object-0-dy-1'
p3586
(S'diff-y-pos--1'
p3587
I1
tp3588
S'action-4'
p3589
tp3590
F-5.3336399431074355
s(g1601
g1602
g2447
g1605
tp3591
F5.72624613948793
sg784
F52.34506153761157
s(g1441
S'object-1-dy-1'
p3592
g1444
g1445
tp3593
F8.461577939487096
s(g841
g2738
g844
g845
tp3594
F21.121761305895152
s(g1724
S'object-0-dy--1'
p3595
g2051
g1728
tp3596
F-0.698912746460115
s(g209
g210
g267
g213
tp3597
F2.9244710415709863
s(g1035
g553
g555
g93
tp3598
F9.437240582196386
s(g2896
S'prev-action-4'
p3599
tp3600
F19.640591383949815
s(g2705
S'object-0-dx--1'
p3601
g2708
g2709
tp3602
F-1.9884729953938285
s(g532
g385
g62
g63
tp3603
F-10.89668488090326
s(g281
g2979
g2236
g285
tp3604
F1.3083926323883475
s(g1460
S'object-1-dy--1'
p3605
g1463
g1464
tp3606
F0.11238974997143991
s(g849
g3282
g2148
g853
tp3607
F-13.637633321925506
s(g3116
g54
(S'diff-y-pos--1'
p3608
I1
tp3609
g57
tp3610
F-13.271014985760168
s(g3459
S'object-0-dx--1'
p3611
g3462
g3463
tp3612
F1.4396514929749635
s(g264
g265
g212
g213
tp3613
F-8.081007198587745
s(g1352
g1353
(S'diff-x-pos--1'
p3614
I1
tp3615
g1356
tp3616
F-14.848072659548265
s(g1861
g1598
g477
g478
tp3617
F-10.992916164601937
s(g3554
g3555
(S'diff-x-pos--1'
p3618
I1
tp3619
g3558
tp3620
F-3.6630225515519115
s(S'object-0-x-90.0'
p3621
S'object-0-dy-1'
p3622
(S'diff-x-pos-1'
p3623
I1
tp3624
S'action-1'
p3625
tp3626
F-0.6244936968679311
s(g1805
g1240
g686
g687
tp3627
F6.975833655759326
s(g269
g270
g1409
g273
tp3628
F3.5682031539109347
s(g1229
g109
g111
g112
tp3629
F10.162552566892757
s(g658
g3536
g661
g662
tp3630
F2.13491743868709
s(g532
g60
g535
g63
tp3631
F2.2225949770735496
s(g2192
S'prev-action-4'
p3632
tp3633
F5.581534555094937
s(g1508
g2632
g2397
g1512
tp3634
F8.391238962996184
s(g2967
g2968
(S'diff-x-pos--1'
p3635
I1
tp3636
g2971
tp3637
F-19.14742474312315
s(g1894
g1895
(S'diff-x-pos--1'
p3638
I1
tp3639
g1898
tp3640
F5.749124170250613
s(S'object-1-x-90.0'
p3641
g1120
tp3642
F12.99563052523413
s(g454
g589
g261
g262
tp3643
F0.22575365883438892
s(g988
g989
(S'diff-y-pos--1'
p3644
I1
tp3645
g992
tp3646
F-0.828471355945219
s(g258
g3434
g261
g262
tp3647
F27.506553248229928
s(g1524
g2286
g1617
g914
tp3648
F3.5015587782097537
s(g752
S'object-1-dy-1'
p3649
(S'diff-x-pos-1'
p3650
I1
tp3651
g756
tp3652
F8.088078458605324
s(g1924
S'object-1-dy-1'
p3653
g1927
g1928
tp3654
F-5.763311454555935
s(g1740
g2359
g1743
g1744
tp3655
F-2.667864765265745
s(S'object-0-x-100.0'
p3656
g830
g832
g833
tp3657
F10.635664618365658
s(g1190
S'object-0-dx-1'
p3658
g1193
g1194
tp3659
F-5.543201731748464
s(S'object-1-x-110.0'
p3660
S'object-0-dy-1'
p3661
(S'diff-x-pos-1'
p3662
I1
tp3663
S'action-3'
p3664
tp3665
I-6
s(g3014
S'object-1-dy--1'
p3666
g3017
g3018
tp3667
F7.8875966902822245
s(g891
g2462
g893
g416
tp3668
F-1.842073036783865
s(g3253
S'object-1-dy--1'
p3669
g3256
g3257
tp3670
F-3.4065761186087453
s(g1740
g1741
g2361
g1744
tp3671
I3
s(g231
g3582
g5
g6
tp3672
F-5.93116399082237
sg2557
F-16.78860976527166
s(g1085
g3031
g1362
g1363
tp3673
F-38.86767117798225
s(g650
g651
g725
g654
tp3674
F6.323550938345572
s(g2456
g2457
(S'diff-y-pos--1'
p3675
I1
tp3676
g2460
tp3677
F20.955910018148387
s(g334
g2322
g304
g305
tp3678
F-3.501060074546934
s(S'object-1-x-60.0'
p3679
S'object-0-dx-1'
p3680
(S'diff-x-pos--1'
p3681
I1
tp3682
S'action-1'
p3683
tp3684
F14.097329610021827
s(g1307
g1654
g1310
g1311
tp3685
F8.08384340668565
s(g1277
S'object-1-dy--1'
p3686
g1280
g1281
tp3687
F1.6297656113404093
s(S'object-0-x-60.0'
p3688
S'object-1-dy-1'
p3689
(S'diff-x-pos-1'
p3690
I1
tp3691
S'action-4'
p3692
tp3693
F6.505107723510878
s(g1006
g2108
g776
g580
tp3694
F19.282462858867255
s(g1110
g222
g1981
g225
tp3695
F-0.29191655381421633
s(g2867
S'object-1-dy--1'
p3696
g2870
g1977
tp3697
F-3.5008252746530557
s(g2648
g2649
(S'diff-x-pos-1'
p3698
I1
tp3699
g2652
tp3700
F1.5996763787210062
s(g1000
g1001
g1633
g1004
tp3701
F-3.3330577760743623
s(g2349
g2585
g143
g144
tp3702
F-3.2355470120386585
s(S'object-1-x-80.0'
p3703
S'prev-action-1'
p3704
tp3705
F1.8839478134438536
s(g1096
S'object-0-dx--1'
p3706
g1099
g1100
tp3707
F16.942492725904273
s(g391
S'object-0-dy--1'
p3708
g394
g395
tp3709
I1
sg2192
F19.19799896585313
s(g1012
g404
tp3710
F-27.279205496925883
s(g1016
g387
g62
g63
tp3711
F16.74506944744351
s(g1955
S'object-0-dx--1'
p3712
g1958
g1959
tp3713
F-13.781497378275503
s(g1922
g2454
tp3714
F18.750803065049478
s(g1473
g543
g510
g460
tp3715
F1.301655804826737
s(g2192
g138
g26
g27
tp3716
F-5.118990096709847
s(g1917
g2108
g579
g580
tp3717
F1.3526340688286451
s(g3513
g3514
g2143
g1235
tp3718
F3.7729437790046463
s(g41
g42
g2409
g45
tp3719
F30.362076896448347
s(g645
g2027
g1522
g1069
tp3720
F-2.3665506770595357
s(g35
g227
g431
g39
tp3721
F8.193814353887827
s(g942
g216
g517
g219
tp3722
F33.558227987302025
s(g2316
S'object-1-dy--1'
p3723
g2319
g2320
tp3724
F3.560016265164778
s(g98
S'object-1-dx-1'
p3725
(S'diff-x-pos--1'
p3726
I1
tp3727
g102
tp3728
F-7.876032920481805
s(g619
g922
g622
g623
tp3729
F-4.897421141133698
s(g1215
g553
g92
g93
tp3730
F4.375908582272835
s(g1587
g718
g1643
g721
tp3731
F0.8588179781262291
s(g490
g3
g128
g6
tp3732
F-4.414310087801089
s(g1540
g1541
(S'diff-x-pos--1'
p3733
I1
tp3734
g1544
tp3735
F1.3855174904608374
s(S'object-1-x-100.0'
p3736
S'object-0-dy-1'
p3737
(S'diff-x-pos-1'
p3738
I1
tp3739
S'action-3'
p3740
tp3741
I-5
s(g727
g3224
g730
g731
tp3742
F11.853274711315233
s(S'object-1-x-60.0'
p3743
S'object-0-dy-1'
p3744
(S'diff-x-pos--1'
p3745
I1
tp3746
S'action-3'
p3747
tp3748
F11.695538163191067
s(g910
g1615
g913
g914
tp3749
F16.81639363207035
s(g120
g2394
g123
g124
tp3750
F-0.3487581123542891
s(S'object-0-x-80.0'
p3751
S'prev-action-4'
p3752
tp3753
F-7.185517540183582
s(S'object-0-x-110.0'
p3754
S'object-1-dx-1'
p3755
(S'diff-x-pos--1'
p3756
I1
tp3757
S'action-4'
p3758
tp3759
F9.472270669193845
s(g98
g3725
g101
g102
tp3760
F-8.090790336302263
s(g1782
g1783
g2796
g1786
tp3761
F-6.529438618494804
s(g3166
g2570
g805
g806
tp3762
F0.5181129682210059
s(g595
S'object-0-dy--1'
p3763
g1060
g599
tp3764
F-3.6326304964159597
s(g1096
g3706
(S'diff-y-pos--1'
p3765
I1
tp3766
g1100
tp3767
F16.972136970531874
s(g1909
g2539
g1912
g466
tp3768
F2.4270561735079363
s(g930
g1008
g200
g201
tp3769
F-4.79754646508124
s(S'object-0-x-110.0'
p3770
S'object-0-dx-1'
p3771
(S'diff-x-pos-1'
p3772
I1
tp3773
S'action-3'
p3774
tp3775
F-27.812268836331416
s(g1000
g1631
g1003
g1004
tp3776
F6.623294773458026
s(g166
S'object-1-dx--1'
p3777
g169
g170
tp3778
F14.333567326385175
s(g2936
g2937
(S'diff-x-pos--1'
p3779
I1
tp3780
g2940
tp3781
F-6.972333599183845
sg582
F-4.173118267551512
s(g942
g2880
g218
g219
tp3782
F1.4071557443335396
s(g3265
S'object-0-dy-1'
p3783
g3268
g3269
tp3784
F6.108293436471314
s(g1460
S'prev-action-3'
p3785
tp3786
F-27.13853360862677
s(g1202
g2921
g1579
g1206
tp3787
F10.844787160548584
s(g930
g1546
g200
g201
tp3788
F5.178957385251355
s(g152
S'object-1-dy-1'
p3789
g155
g156
tp3790
I-1
s(g221
g222
g1981
g225
tp3791
F9.959386470221133
s(g1481
g1482
g2690
g1485
tp3792
F-11.71167409233065
s(g1016
g60
g62
g63
tp3793
F17.930953660455998
s(g619
g887
g622
g623
tp3794
F6.876575096418746
sg315
F65.84769555939374
s(g2699
S'object-0-dy--1'
p3795
g2702
g2703
tp3796
F-4.317577882059047
s(g367
g368
g3365
g371
tp3797
F7.069578611362596
s(g658
S'object-0-dx--1'
p3798
g3538
g662
tp3799
F-3.1906165164671747
s((S'diff-x-pos--1'
p3800
I1
tp3801
g1120
tp3802
F12.714194591661084
s(g1411
g2845
g2006
g2007
tp3803
F1.955547655430836
s(g2192
g24
g26
g27
tp3804
F1.2935233094444856
s(g645
g1688
g1068
g1069
tp3805
F-2.3665506770595357
s(g2062
g2063
g2608
g2066
tp3806
F-4.969480681419782
s(g1090
S'object-0-dx-1'
p3807
g1093
g1094
tp3808
F2.508288832181085
s(S'object-0-x-120.0'
p3809
S'object-1-dy-1'
p3810
(S'diff-x-pos--1'
p3811
I1
tp3812
S'action-4'
p3813
tp3814
I-1
s(S'object-1-x-80.0'
p3815
g2563
g805
g806
tp3816
F9.58982534707356
s(g841
g1888
g844
g845
tp3817
F9.062760054299552
s(g172
g3086
g871
g176
tp3818
I-1
s(g879
g880
g1350
g883
tp3819
F-0.9929144691181324
s(g568
g569
g2382
g572
tp3820
F10.447988998666283
s(g281
g2500
g284
g285
tp3821
I1
s(g1940
S'object-0-dx--1'
p3822
g3522
g1944
tp3823
F-3.426239292331962
s(g2152
g3275
g2155
g2156
tp3824
F0.21473462323274806
s(g130
g1243
g1245
g134
tp3825
F-4.247699511497068
s(g3466
g821
g691
g541
tp3826
I-1
s(g2583
g222
g224
g225
tp3827
F23.76740772705279
s(g1217
g3378
g1331
g1221
tp3828
F15.066755259295562
s(g3116
g3421
g3609
g57
tp3829
F-22.206062879273663
s(g1090
S'object-0-dy--1'
p3830
g1093
g1094
tp3831
F4.2983013987773315
s(g835
g836
g3308
g839
tp3832
F1.7768992649437996
s(g355
g1699
g2284
g359
tp3833
F3.2446111471053225
s(g406
S'object-0-dy--1'
p3834
g243
g244
tp3835
F0.841124146465904
s(g559
g1760
g562
g563
tp3836
F-3.030433104721711
s(g429
g227
g431
g39
tp3837
F-6.661917082320475
s(g334
g1227
g337
g305
tp3838
F-0.6819241143442647
s(g988
g2508
g991
g992
tp3839
F5.560209720619736
s(g2588
g2589
(S'diff-y-pos--1'
p3840
I1
tp3841
g2592
tp3842
F8.776323374574051
s(g1071
S'object-0-dy--1'
p3843
g1074
g1075
tp3844
F21.02238365300607
s(g172
g869
g175
g176
tp3845
I-1
s(g988
g2762
g3645
g992
tp3846
I-5
s(g289
S'object-1-dx-1'
p3847
g292
g293
tp3848
F3.3810722708866336
s(g1006
g403
g579
g580
tp3849
F1.515842472333067
s(g3451
S'object-0-dx--1'
p3850
g781
g782
tp3851
F-14.829876971037482
s(g3323
S'object-1-dx-1'
p3852
(S'diff-x-pos-1'
p3853
I1
tp3854
S'action-1'
p3855
tp3856
I0
s(g565
g566
g21
g18
tp3857
F6.583927351112644
s(S'object-0-x-100.0'
p3858
g340
(S'diff-y-pos--1'
p3859
I1
tp3860
g343
tp3861
F15.023057715182375
s(g565
g3077
g17
g18
tp3862
F-10.593488935954358
s(g295
g1062
g298
g299
tp3863
F1.0192298712996308
s(g426
g1008
g200
g201
tp3864
F9.198141375662924
s(g468
S'object-0-dy--1'
p3865
g471
g472
tp3866
F-13.861493052137924
s(g2788
S'object-0-dx--1'
p3867
g2791
g2792
tp3868
F8.781493257249407
s(g1940
g3822
g1943
g1944
tp3869
F-21.520015368035306
s(g1575
g1008
g1010
g201
tp3870
F-0.13481739708417528
s(g1782
g2794
g1785
g1786
tp3871
F-3.8910394277148366
s(g2379
g457
g510
g460
tp3872
F1.7622260689538862
s(g1020
g1021
g2010
g311
tp3873
F20.661821848958837
s(g793
g794
(S'diff-x-pos--1'
p3874
I1
tp3875
g797
tp3876
F-7.32190657723386
s(g1283
g3137
g1285
g715
tp3877
F25.534298759889282
s(g2568
g1961
g477
g478
tp3878
F-6.055860091582801
s(g565
g15
g17
g18
tp3879
F-3.507269198515984
s(S'object-0-y-0.0'
p3880
g185
g187
g188
tp3881
F2.570423724979503
s(g752
g753
g3651
g756
tp3882
F4.018767621331605
s(g1619
S'object-1-dy--1'
p3883
g1622
g1623
tp3884
F10.58188541412863
s(g2370
S'object-0-dx--1'
p3885
(S'diff-x-pos--1'
p3886
I1
tp3887
S'action-1'
p3888
tp3889
F0.3404093926597165
s(S'object-1-y-20.0'
p3890
S'prev-action-1'
p3891
tp3892
I-1
s(g3858
g340
g342
g343
tp3893
F1.0722555951830017
s(S'object-0-y-0.0'
p3894
g589
g591
g262
tp3895
F-17.253523919555363
s(g639
g640
g940
g643
tp3896
F1.5862472704075001
s(g130
g1866
g133
g134
tp3897
F-14.789099271306934
s(g321
S'object-0-dy-1'
p3898
g1458
g325
tp3899
F7.428787732155367
s(g108
g351
g111
g112
tp3900
F9.363200058977027
s(S'object-1-x-60.0'
p3901
g899
g901
g902
tp3902
F16.70821338001833
s(g784
g3135
g787
g788
tp3903
F-14.27242395049391
s(g1190
S'object-1-dy--1'
p3904
g1675
g1194
tp3905
F-4.293758015376066
s(g1333
g185
(S'diff-y-pos--1'
p3906
I1
tp3907
g188
tp3908
F-0.7797092727021679
s(g1096
g1097
g3766
g1100
tp3909
F6.283706064021546
s(S'object-0-x-80.0'
p3910
S'object-1-dx--1'
p3911
(S'diff-x-pos--1'
p3912
I1
tp3913
S'action-4'
p3914
tp3915
F7.874678718270488
sg2612
F-2.7292077058076387
s(g988
g1567
g3645
g992
tp3916
F3.1715286440547814
s(g526
S'object-0-dx--1'
p3917
g529
g530
tp3918
F-3.9400248651409484
s(g221
g1979
g1981
g225
tp3919
F0.24971814445629548
s(g3413
g3414
(S'diff-x-pos--1'
p3920
I1
tp3921
g3417
tp3922
F19.76845589324596
s(g89
g1036
g555
g93
tp3923
F-28.497216828951267
s(g1986
S'object-0-dx--1'
p3924
g1989
g1990
tp3925
F5.683832801286547
s(S'object-0-x-90.0'
p3926
S'object-0-dx--1'
p3927
(S'diff-x-pos--1'
p3928
I1
tp3929
S'action-1'
p3930
tp3931
F-4.6481578677350495
s(g1967
g2414
g2581
g1971
tp3932
F9.199583293225313
s(g3815
g2570
g805
g806
tp3933
F2.7663040761064224
s(g705
g2907
g1337
g709
tp3934
F1.2301453250774186
s(g1508
S'object-0-dx-1'
p3935
g2397
g1512
tp3936
F8.95753540204079
s(g1180
g3247
g2267
g1184
tp3937
F-9.667864765265744
sg1450
F-0.4889251382475952
s(g2363
S'object-1-dx-1'
p3938
g2366
g2367
tp3939
F8.18349209836215
s(g1450
g1451
g2047
g1454
tp3940
F-0.5178976837658581
s(S'object-0-x-110.0'
p3941
g1296
g1298
g1299
tp3942
F-5.0377482128904365
s(g683
g2927
g686
g687
tp3943
F3.6152846876682494
s(g1712
S'object-1-dx--1'
p3944
g1715
g1716
tp3945
F8.424224266361191
s(g454
g259
g591
g262
tp3946
F-17.952497783597853
s(g3459
g3460
(S'diff-y-pos--1'
p3947
I1
tp3948
g3463
tp3949
F-20.147041255285743
s(S'object-0-x-70.0'
p3950
S'object-0-dy-1'
p3951
(S'diff-x-pos--1'
p3952
I1
tp3953
S'action-3'
p3954
tp3955
F3.744127321646495
s(S'object-1-x-80.0'
p3956
S'object-0-dy-1'
p3957
(S'diff-x-pos-1'
p3958
I1
tp3959
S'action-1'
p3960
tp3961
F-2.3018788483026014
s(g1033
g265
g212
g213
tp3962
F-2.4044015916428148
s(S'object-0-x-110.0'
p3963
S'object-0-dy-1'
p3964
(S'diff-x-pos-1'
p3965
I1
tp3966
S'action-1'
p3967
tp3968
F-5.715853480332026
s(g656
g60
g535
g63
tp3969
F2.2225949770735496
s(g758
S'object-1-dy-1'
p3970
g2233
g762
tp3971
F-11.036998852531127
s(S'object-0-x-70.0'
p3972
S'object-1-dx-1'
p3973
(S'diff-x-pos--1'
p3974
I1
tp3975
S'action-1'
p3976
tp3977
F-29.05752105671454
s(g2456
g3423
g3676
g2460
tp3978
F13.41633660433393
s(g1029
g1036
g555
g93
tp3979
F-4.099638198405643
s(g420
g480
g423
g424
tp3980
F-13.355792833524363
s(g1587
g718
g720
g721
tp3981
F-0.7263691427062895
s(g577
g1012
g776
g580
tp3982
F-4.940446750246251
s(g767
g768
g1859
g771
tp3983
F16.190134175040214
s(S'object-1-y-0.0'
p3984
S'prev-action-3'
p3985
tp3986
I0
s(g429
g2073
g38
g39
tp3987
F-1.9549422618094434
s(g1569
g131
g133
g134
tp3988
F3.527025105834576
s(g960
g961
(S'diff-x-pos--1'
p3989
I1
tp3990
g964
tp3991
F0.3081591716886707
s(g426
g198
g1010
g201
tp3992
F6.6875506700048675
s(g1411
g2004
g2847
g2007
tp3993
F-11.716345987157709
s(g301
g302
g337
g305
tp3994
F22.251073669354653
s(g406
S'object-1-dy--1'
p3995
g243
g244
tp3996
F7.841124146465903
s(g334
g302
g337
g305
tp3997
F-18.899188311070322
s(S'object-1-x-100.0'
p3998
S'object-0-dy-1'
p3999
(S'diff-x-pos-1'
p4000
I1
tp4001
S'action-4'
p4002
tp4003
I-10
s(g287
g2585
g143
g144
tp4004
F9.493344724068349
s(g711
g2190
g1285
g715
tp4005
F5.472079410875871
s(g1575
g433
tp4006
F73.12915349227147
s(g501
g210
g212
g213
tp4007
F13.231129920760619
s(g3185
g3186
(S'diff-x-pos--1'
p4008
I1
tp4009
g3189
tp4010
F-4.38442509213551
s(g1491
g1492
(S'diff-y-pos--1'
p4011
I1
tp4012
g1495
tp4013
I-1
s(g315
g1031
g2480
g319
tp4014
F-11.416489052810434
s(g1130
g1131
(S'diff-y-pos--1'
p4015
I1
tp4016
g1134
tp4017
F-0.23550518972375167
s(g645
g3444
g1068
g1069
tp4018
I-2
s(g152
g2712
g514
g156
tp4019
I0
s(g1782
g3321
g2796
g1786
tp4020
F-20.212437769866817
s(g1826
g1827
g2280
g1830
tp4021
I3
s(g2136
g2919
(S'diff-y-pos--1'
p4022
I1
tp4023
g2140
tp4024
F2.6642994567448515
s(g841
g2634
g1890
g845
tp4025
F16.07402256085698
s(g1352
S'prev-action-1'
p4026
tp4027
F30.17763795119236
s(g910
g911
g1617
g914
tp4028
F9.18302232210242
s(g3129
g3130
g1904
g1905
tp4029
F-2.185727860525227
s(S'object-1-x-60.0'
p4030
S'object-0-dx--1'
p4031
(S'diff-x-pos--1'
p4032
I1
tp4033
S'action-4'
p4034
tp4035
F-14.495927434788697
s(g2882
g2883
(S'diff-y-pos--1'
p4036
I1
tp4037
g2886
tp4038
F-15.73649757272732
s(g988
g2508
g3645
g992
tp4039
F4.560209720619736
s(g321
g1456
g324
g325
tp4040
F7.200808684694209
s(g633
S'object-0-dx-1'
p4041
g1810
g637
tp4042
F-2.0929145595799
s(g3585
g3586
(S'diff-x-pos--1'
p4043
I1
tp4044
g3589
tp4045
F-5.3336399431074355
s(g1802
g340
g3860
g343
tp4046
F17.80233862346456
s(g3751
S'object-1-dy-1'
p4047
(S'diff-x-pos-1'
p4048
I1
tp4049
S'action-4'
p4050
tp4051
F8.904411522459721
s(g1460
g3605
g1469
g1464
tp4052
F-10.46949566415719
s(g1180
S'object-0-dy-1'
p4053
g1183
g1184
tp4054
I-3
s(g2363
S'object-1-dy--1'
p4055
g2366
g2367
tp4056
F24.393255515015472
s(g1016
S'prev-action-4'
p4057
tp4058
F15.550724426287918
s(g1301
S'object-1-dy--1'
p4059
g1304
g1305
tp4060
F3.7522785621249364
s(g2741
g2742
(S'diff-y-pos--1'
p4061
I1
tp4062
g2745
tp4063
F13.979854621458273
s(g1917
g588
g579
g580
tp4064
F-2.821107941598223
s(g1047
g2134
g1079
g1051
tp4065
F4.676104612971024
s(g595
g3763
g598
g599
tp4066
F2.603353388813123
s(g1190
g3658
g1675
g1194
tp4067
F0.3044123200139528
s(g3090
g3091
(S'diff-x-pos-1'
p4068
I1
tp4069
g3094
tp4070
F-4.136643484684074
s(g1202
g1203
g1579
g1206
tp4071
F-3.9959603134461092
s(g930
g427
g1010
g201
tp4072
F-1.305979558757602
s(S'object-1-x-100.0'
p4073
S'object-1-dy-1'
p4074
(S'diff-x-pos-1'
p4075
I1
tp4076
S'action-4'
p4077
tp4078
F-4.040495688499291
s(g379
S'object-1-dy--1'
p4079
g382
g383
tp4080
F-10.709577634277753
s(S'object-0-x-90.0'
p4081
S'object-0-dx--1'
p4082
(S'diff-y-pos--1'
p4083
I1
tp4084
S'action-1'
p4085
tp4086
F-7.153997545990947
s(g2599
g1834
(S'diff-y-pos--1'
p4087
I1
tp4088
g1837
tp4089
F-9.34503565286324
s(g658
g659
g3538
g662
tp4090
F13.130781825684805
s(g2192
g408
g1433
g27
tp4091
F-14.57408539594243
s(g656
g60
g62
g63
tp4092
F2.685966786778992
s(g391
S'object-1-dy--1'
p4093
g394
g395
tp4094
I1
s(g3042
g3043
(S'diff-x-pos--1'
p4095
I1
tp4096
g3046
tp4097
F2.7940196491120552
s(g307
g308
g2010
g311
tp4098
F-12.149201760831769
s(g1560
g3510
g2439
g1564
tp4099
F10.721832751305062
s(g2336
S'object-0-dx-1'
p4100
g2339
g2340
tp4101
F14.20389521259699
s(g752
g3649
g755
g756
tp4102
F-0.7129546722323337
s(g3815
g2477
g805
g806
tp4103
F-5.521880215745025
s(g793
g3381
g3875
g797
tp4104
F17.229029138736617
s(g823
g824
g2176
g827
tp4105
F17.639454339922327
s(S'object-1-dy--1'
p4106
g1120
tp4107
F14.792158266640735
s(g1724
g3081
g1727
g1728
tp4108
F16.348177084341305
s(g2111
g1430
g1147
g377
tp4109
F-18.64367944559512
sg327
F1.2838787192223982
s(g1909
g463
g465
g466
tp4110
F12.214919219125246
s(g114
g664
g117
g118
tp4111
F-8.408457032049947
s(g879
g970
g882
g883
tp4112
F-15.664418738421439
s(g1648
g1649
g2474
g1652
tp4113
I2
s(g3220
g2096
g3471
g2099
tp4114
F2.168391811639334
s(g658
g2466
g3538
g662
tp4115
F-0.5522173256872018
s(S'object-1-y-10.0'
p4116
g2327
g2329
g2330
tp4117
F-20.82094504833303
s(g98
g99
g3727
g102
tp4118
F-6.542161193984578
s(S'object-0-x-80.0'
p4119
S'object-1-dy-1'
p4120
(S'diff-x-pos--1'
p4121
I1
tp4122
S'action-4'
p4123
tp4124
F14.721706771458374
s(g2443
g768
g770
g771
tp4125
F11.200916030062634
s(g3388
g2876
g1419
g1420
tp4126
F0.14099558016120284
s(S'object-0-y-0.0'
p4127
g340
g342
g343
tp4128
F-5.349072677801158
s(g47
g48
g1750
g51
tp4129
F-10.512459029770337
s(g559
g560
g1762
g563
tp4130
F18.667184887952132
sg1047
F6.774900050793944
s(g823
g2174
g826
g827
tp4131
F3.6586643828840577
s(g1508
g3935
g1511
g1512
tp4132
F1.5283169922517796
s(g711
g3137
g1285
g715
tp4133
F-43.00623370010734
s(g379
S'object-0-dy--1'
p4134
g382
g383
tp4135
F5.9349009231050225
s(g1992
g2161
g2684
g1996
tp4136
F-0.8309723913398408
s(g619
g3516
g889
g623
tp4137
F-9.177346440801484
s(g231
g1405
g5
g6
tp4138
F0.6456037871520426
s(g930
g427
g200
g201
tp4139
F-1.305979558757602
sg841
F6.006038400123693
s(S'object-1-y-10.0'
p4140
g222
g1981
g225
tp4141
F-2.4106714652627437
s(g910
g1525
g913
g914
tp4142
F-6.456698241368599
s(S'object-1-x-110.0'
p4143
S'object-1-dy-1'
p4144
(S'diff-x-pos-1'
p4145
I1
tp4146
S'action-1'
p4147
tp4148
I-2
s(g397
g1262
g1289
g401
tp4149
F-2.0798157664554786
s(g829
g830
(S'diff-y-pos--1'
p4150
I1
tp4151
g833
tp4152
F-17.499088058762595
s(g2402
S'object-1-dy--1'
p4153
g2405
g2406
tp4154
F-10.964932899083959
s(g717
g1588
g720
g721
tp4155
F13.14807401640572
s(g397
g593
g1289
g401
tp4156
F12.695070806209333
s(g503
g1400
g506
g507
tp4157
F-1.3321831788027907
sS'action-4'
p4158
F20.453689760794422
s(g197
g427
g1010
g201
tp4159
F-8.126354699383551
s(g406
S'object-0-dx--1'
p4160
g243
g244
tp4161
F-1.9269411032302028
sS'action-1'
p4162
F60.51327625149038
sg580
F52.21601943291737
s(g2152
S'object-0-dx-1'
p4163
g2155
g2156
tp4164
F-7.241868116840157
s(S'object-1-x-60.0'
p4165
S'object-0-dx-1'
p4166
(S'diff-x-pos--1'
p4167
I1
tp4168
S'action-3'
p4169
tp4170
F-19.95537833734357
s(g53
S'object-1-dy--1'
p4171
g56
g57
tp4172
F3.3939000541541704
s(g2857
g2858
(S'diff-y-pos--1'
p4173
I1
tp4174
g2861
tp4175
F-9.216573382869106
s(S'object-0-x-120.0'
p4176
S'prev-action-4'
p4177
tp4178
F-3.364358146977712
s(g784
g3438
g787
g788
tp4179
F8.250465885877432
s(g656
g387
g62
g63
tp4180
F12.44250022224456
s(g2999
g3000
(S'diff-x-pos-1'
p4181
I1
tp4182
g3003
tp4183
I-1
s(g733
S'object-0-dx--1'
p4184
g736
g737
tp4185
F-2.151952907956396
s(g1595
S'object-1-dx--1'
p4186
g3098
g1369
tp4187
F-0.4435184662131739
s(g1595
g1366
g3098
g1369
tp4188
F-2.5997309542548575
s(g1186
g457
g510
g460
tp4189
F-6.061425647219835
s(g579
g404
tp4190
F-0.45404460015244297
s(g158
S'object-0-dx--1'
p4191
g2757
g162
tp4192
F7.852588322883824
s(g1826
g2278
g1829
g1830
tp4193
F-3.667864765265745
s(g1450
g1664
g2047
g1454
tp4194
F-4.61155532160434
s(g3751
g4047
(S'diff-y-pos--1'
p4195
I1
tp4196
g4050
tp4197
F23.626118293918097
s(g3459
g3611
g3948
g3463
tp4198
F1.4396514929749635
s(g727
g1213
g3193
g731
tp4199
F-6.26792398504775
s(g3303
S'object-1-dy--1'
p4200
g3163
g3164
tp4201
F-2.1434656619683894
s(g3116
g3421
g56
g57
tp4202
F-22.206062879273663
s(g4081
g4082
(S'diff-x-pos-1'
p4203
I1
tp4204
g4085
tp4205
F-2.5058396782559025
s(g711
g712
g1285
g715
tp4206
F-25.045870711294775
s(g1110
g1979
g224
g225
tp4207
F6.5903459097055865
s(g3166
g803
g805
g806
tp4208
F6.996707371796082
s(g3323
g3852
(S'diff-y-pos--1'
p4209
I1
tp4210
g3855
tp4211
I0
s(g639
g3142
g940
g643
tp4212
F-4.03842363200121
s(g639
S'object-1-dy--1'
p4213
g940
g643
tp4214
F7.749439413616056
s(S'object-0-x-130.0'
p4215
S'prev-action-4'
p4216
tp4217
F-0.016348933945550925
s(g1352
g3552
g3615
g1356
tp4218
F-10.30013416161901
s(g607
g1377
g610
g611
tp4219
F-10.18796674826278
s(g140
g1225
g332
g144
tp4220
F13.709549855051721
s(g1041
S'object-1-dx-1'
p4221
g1044
g1045
tp4222
F-16.001151325663844
s(g1473
g457
g459
g460
tp4223
F-7.710873063980513
s(g120
g1625
g123
g124
tp4224
F4.863445477561722
s(g559
g3049
g562
g563
tp4225
F-6.814441877829541
s(g2402
S'object-0-dy--1'
p4226
g2405
g2406
tp4227
F-6.625333415838764
s(g3398
g15
g17
g18
tp4228
F-1.161847546350919
sg3489
F-12.845237040549664
s(g447
g448
(S'diff-x-pos--1'
p4229
I1
tp4230
g451
tp4231
F9.61064193300059
s(g158
g4191
g161
g162
tp4232
F1.6875267345906284
s(g1636
g1637
(S'diff-x-pos--1'
p4233
I1
tp4234
g1640
tp4235
F-7.520404236537795
s(g2316
S'object-1-dx-1'
p4236
g2319
g2320
tp4237
F1.5572143821762658
s(g1422
g970
g1350
g883
tp4238
F-3.766331909000412
s(g639
g4213
g642
g643
tp4239
F-0.09168473284983847
s(g857
S'object-1-dx-1'
p4240
g860
g861
tp4241
F-5.622241548943835
s(g130
g131
g1245
g134
tp4242
F4.608428685125597
s(g152
g3789
g514
g156
tp4243
I-1
s(g625
g588
g776
g580
tp4244
F-7.521056841404569
s(g2705
g3440
(S'diff-y-pos--1'
p4245
I1
tp4246
g2709
tp4247
F6.689646621243764
s(g2302
S'object-1-dx--1'
p4248
g2305
g2306
tp4249
I-2
s(g932
g933
(S'diff-y-pos--1'
p4250
I1
tp4251
g936
tp4252
I1
s(S'object-1-x-60.0'
p4253
g2327
g2329
g2330
tp4254
F-10.726764934929246
s(S'object-1-x-60.0'
p4255
S'object-1-dx-1'
p4256
(S'diff-x-pos--1'
p4257
I1
tp4258
S'action-3'
p4259
tp4260
F4.914782281632905
s(g658
g3798
g661
g662
tp4261
F-3.1906165164671747
s(g2352
S'object-0-dx-1'
p4262
g2355
g2356
tp4263
F-10.11576270485626
s(g501
g210
g267
g213
tp4264
F52.43485786612234
s(g130
g1243
g133
g134
tp4265
F1.7120030516418696
s(g152
g512
g155
g156
tp4266
I0
s(g1016
g387
g535
g63
tp4267
F7.419289570408573
s(g2847
g1412
tp4268
F2.793567066436651
s(g1029
g1036
g92
g93
tp4269
F-4.099638198405643
s(g758
g3970
g761
g762
tp4270
F-11.036998852531127
s(g2370
g3885
(S'diff-y-pos--1'
p4271
I1
tp4272
g3888
tp4273
F0.3404093926597165
s(g613
g3503
g974
g617
tp4274
F1.3502017431139848
s(g727
g3411
g730
g731
tp4275
F0.3280321370838317
s(g2
g3
g128
g6
tp4276
F13.45136661134286
s(g577
g2108
g579
g580
tp4277
F12.198339536948069
s(g3426
g983
g985
g986
tp4278
F-2.099751647196158
s(g891
g1770
g415
g416
tp4279
F-6.629046457456374
s(g2152
g4163
g2721
g2156
tp4280
F-17.35763082169641
s(g2788
S'object-1-dy--1'
p4281
g2791
g2792
tp4282
F4.48431966660974
s(g994
g995
(S'diff-y-pos--1'
p4283
I1
tp4284
g998
tp4285
F-20.379682980856362
s(S'object-1-x-60.0'
p4286
S'object-1-dy--1'
p4287
(S'diff-x-pos--1'
p4288
I1
tp4289
S'action-4'
p4290
tp4291
F1.2106005979686287
s(g3214
S'prev-action-4'
p4292
tp4293
I-1
s(g740
S'object-1-dy--1'
p4294
g743
g744
tp4295
F3.3016822571145763
s(g1006
g1012
g579
g580
tp4296
F2.89685398771325
s(g2053
g2054
(S'diff-x-pos--1'
p4297
I1
tp4298
g2057
tp4299
F-13.090079117547196
s(g172
g173
g871
g176
tp4300
I-1
s(g1460
g3447
g1463
g1464
tp4301
F11.77851162143602
s(S'object-1-x-100.0'
p4302
S'object-1-dy-1'
p4303
(S'diff-x-pos-1'
p4304
I1
tp4305
S'action-3'
p4306
tp4307
F-18.311263577095826
s(g8
g9
g106
g12
tp4308
F8.081581412140011
s(g1619
S'object-1-dx--1'
p4309
g1622
g1623
tp4310
F6.65479273409308
s(g1504
g2548
g149
g150
tp4311
F-19.8127618433075
s(g2349
g2585
g332
g144
tp4312
F4.652049678243525
s(g3217
g1106
g517
g219
tp4313
F12.355973679362702
s(g988
g1567
g991
g992
tp4314
F4.171528644054782
s(g3253
S'object-1-dx--1'
p4315
g3256
g3257
tp4316
F-9.424962005877278
s(g3253
S'object-0-dy--1'
p4317
g3256
g3257
tp4318
F-1.8268950123413799
s(g2302
S'object-1-dy--1'
p4319
g2305
g2306
tp4320
I-1
s(g2748
g2063
g2608
g2066
tp4321
F2.1213000924046472
s(g2945
g2946
(S'diff-y-pos--1'
p4322
I1
tp4323
g2949
tp4324
F0.4422166845510551
s(g1724
g3595
g1727
g1728
tp4325
F6.238917323661013
s(g633
S'object-0-dy--1'
p4326
g1810
g637
tp4327
F-1.8136804318731357
s(g1595
g4186
g1368
g1369
tp4328
F1.556481533786826
s(S'object-0-x-120.0'
p4329
S'prev-action-1'
p4330
tp4331
F11.981100629480665
s(g1341
g1342
(S'diff-y-pos--1'
p4332
I1
tp4333
g1345
tp4334
I-1
s(g1150
g2344
g1153
g1154
tp4335
F3.723603184350542
s(g321
g3898
g324
g325
tp4336
F7.428787732155367
s(g1917
g403
g579
g580
tp4337
F4.535697464477771
s(S'object-0-dy--1'
p4338
g519
tp4339
F-2.6452822597638592
s(g930
g198
g1010
g201
tp4340
F-0.010573044408688226
s(g639
S'prev-action-3'
p4341
tp4342
F15.250245387541973
s(g650
g723
g653
g654
tp4343
F-15.874956439613367
s(g1180
g4053
g2267
g1184
tp4344
I-3
s(g1190
g3904
g1193
g1194
tp4345
F-19.824738487791006
s(g1566
g989
g991
g992
tp4346
F-6.858355679073709
s(S'object-0-y-10.0'
p4347
S'object-0-dx-1'
p4348
(S'diff-x-pos-1'
p4349
I1
tp4350
S'action-4'
p4351
tp4352
F-3.8267234648712467
s(g1229
g800
g111
g112
tp4353
F-8.719550454254048
stp4354
Rp4355
.